GAS LISTING  			page 1


   1              	.file 1 "../../../NESticle/Source/common/nesmmu.cpp"
   2              	.section .mdebug.eabi64
   3              	.previous
   4              	.text
   5              	.align 2
   6              	.p2align 3,,7
   7              	.globl _ZN6NesMMUC2Ev
   8              	.ent _ZN6NesMMUC2Ev
   9              	_ZN6NesMMUC2Ev:
  10              	.frame $sp,0,$31
  11              	.mask 0x00000000,0
  12              	.fmask 0x00000000,0
  13 0000 0000023C 	lui $2,%hi(_ZTV6NesMMU+8)
  14 0004 140080AC 	sw $0,20($4)
  15 0008 08004224 	addiu $2,$2,%lo(_ZTV6NesMMU+8)
  16 000c 040080AC 	sw $0,4($4)
  17 0010 000082AC 	sw $2,0($4)
  18 0014 080080AC 	sw $0,8($4)
  19 0018 0C0080AC 	sw $0,12($4)
  20              	.set noreorder
  21              	.set nomacro
  22 001c 0800E003 	j $31
  23 0020 100080AC 	sw $0,16($4)
  24              	.set macro
  25              	.set reorder
  26              	
  27              	.end _ZN6NesMMUC2Ev
  28              	$Lfe1:
  29              	.size _ZN6NesMMUC2Ev,$Lfe1-_ZN6NesMMUC2Ev
  30              	.align 2
  31 0024 00000000 	.p2align 3,,7
  32              	.globl _ZN6NesMMUC1Ev
  33              	.ent _ZN6NesMMUC1Ev
  34              	_ZN6NesMMUC1Ev:
  35              	.frame $sp,0,$31
  36              	.mask 0x00000000,0
  37              	.fmask 0x00000000,0
  38 0028 0000023C 	lui $2,%hi(_ZTV6NesMMU+8)
  39 002c 140080AC 	sw $0,20($4)
  40 0030 08004224 	addiu $2,$2,%lo(_ZTV6NesMMU+8)
  41 0034 040080AC 	sw $0,4($4)
  42 0038 000082AC 	sw $2,0($4)
  43 003c 080080AC 	sw $0,8($4)
  44 0040 0C0080AC 	sw $0,12($4)
  45              	.set noreorder
  46              	.set nomacro
  47 0044 0800E003 	j $31
  48 0048 100080AC 	sw $0,16($4)
  49              	.set macro
  50              	.set reorder
  51              	
  52              	.end _ZN6NesMMUC1Ev
  53              	$Lfe2:
  54              	.size _ZN6NesMMUC1Ev,$Lfe2-_ZN6NesMMUC1Ev
  55              	.align 2
  56 004c 00000000 	.p2align 3,,7
  57              	.globl _ZN6NesMMU11SetPrgRom8KEjj
GAS LISTING  			page 2


  58              	.ent _ZN6NesMMU11SetPrgRom8KEjj
  59              	_ZN6NesMMU11SetPrgRom8KEjj:
  60              	.frame $sp,16,$31
  61              	.mask 0x80000000,-16
  62              	.fmask 0x00000000,0
  63 0050 F0FFBD27 	subu $sp,$sp,16
  64 0054 0300A530 	andi $5,$5,0x3
  65 0058 0000BFFF 	sd $31,0($sp)
  66 005c 80100500 	sll $2,$5,2
  67 0060 21104400 	addu $2,$2,$4
  68 0064 2D408000 	move $8,$4
  69 0068 1800838C 	lw $3,24($4)
  70 006c 0400848C 	lw $4,4($4)
  71 0070 FFFF6324 	addu $3,$3,-1
  72 0074 2430C300 	and $6,$6,$3
  73 0078 10008924 	addu $9,$4,16
  74 007c 1C0046AC 	sw $6,28($2)
  75 0080 0C00238D 	lw $3,12($9)
  76 0084 1000828C 	lw $2,16($4)
  77 0088 04306600 	sll $6,$6,$3
  78 008c 2B10C200 	sltu $2,$6,$2
  79              	.set noreorder
  80              	.set nomacro
  81 0090 03004010 	beq $2,$0,$L6
  82 0094 2D380000 	move $7,$0
  83              	.set macro
  84              	.set reorder
  85              	
  86 0098 0400228D 	lw $2,4($9)
  87              	
  88 009c 21384600 	addu $7,$2,$6
  89              	$L6:
  90 00a0 0800048D 	lw $4,8($8)
  91 00a4 00800234 	li $2,32768
  92 00a8 402B0500 	sll $5,$5,13
  93 00ac 00200624 	li $6,8192
  94 00b0 2D400000 	move $8,$0
  95              	.set noreorder
  96              	.set nomacro
  97 00b4 0000000C 	jal N6502SetBank
  98 00b8 2128A200 	addu $5,$5,$2
  99              	.set macro
 100              	.set reorder
 101              	
 102 00bc 0000BFDF 	ld $31,0($sp)
 103              	
 104              	.set noreorder
 105              	.set nomacro
 106 00c0 0800E003 	j $31
 107 00c4 1000BD27 	addu $sp,$sp,16
 108              	.set macro
 109              	.set reorder
 110              	
 111              	.end _ZN6NesMMU11SetPrgRom8KEjj
 112              	$Lfe3:
 113              	.size _ZN6NesMMU11SetPrgRom8KEjj,$Lfe3-_ZN6NesMMU11SetPrgRom8KEjj
 114              	.align 2
GAS LISTING  			page 3


 115              	.p2align 3,,7
 116              	.globl _ZN6NesMMU11SetPrgRam8KEjj
 117              	.ent _ZN6NesMMU11SetPrgRam8KEjj
 118              	_ZN6NesMMU11SetPrgRam8KEjj:
 119              	.frame $sp,16,$31
 120              	.mask 0x80000000,-16
 121              	.fmask 0x00000000,0
 122 00c8 F0FFBD27 	subu $sp,$sp,16
 123 00cc 0300A930 	andi $9,$5,0x3
 124 00d0 0000BFFF 	sd $31,0($sp)
 125 00d4 2D508000 	move $10,$4
 126 00d8 1000888C 	lw $8,16($4)
 127 00dc 80200900 	sll $4,$9,2
 128 00e0 21208A00 	addu $4,$4,$10
 129 00e4 0C00038D 	lw $3,12($8)
 130 00e8 0000028D 	lw $2,0($8)
 131              	
 132 00ec 06106200 	srl $2,$2,$3
 133 00f0 FFFF4224 	addu $2,$2,-1
 134 00f4 2430C200 	and $6,$6,$2
 135 00f8 0080C334 	ori $3,$6,0x8000
 136 00fc 1C0083AC 	sw $3,28($4)
 137 0100 0C00058D 	lw $5,12($8)
 138 0104 0000028D 	lw $2,0($8)
 139 0108 0430A600 	sll $6,$6,$5
 140 010c 2B10C200 	sltu $2,$6,$2
 141              	.set noreorder
 142              	.set nomacro
 143 0110 03004010 	beq $2,$0,$L11
 144 0114 2D380000 	move $7,$0
 145              	.set macro
 146              	.set reorder
 147              	
 148 0118 0400028D 	lw $2,4($8)
 149              	
 150 011c 21384600 	addu $7,$2,$6
 151              	$L11:
 152 0120 402B0900 	sll $5,$9,13
 153 0124 00800234 	li $2,32768
 154 0128 0800448D 	lw $4,8($10)
 155 012c 00200624 	li $6,8192
 156 0130 2128A200 	addu $5,$5,$2
 157              	.set noreorder
 158              	.set nomacro
 159 0134 0000000C 	jal N6502SetBank
 160 0138 2D40E000 	move $8,$7
 161              	.set macro
 162              	.set reorder
 163              	
 164 013c 0000BFDF 	ld $31,0($sp)
 165              	
 166              	.set noreorder
 167              	.set nomacro
 168 0140 0800E003 	j $31
 169 0144 1000BD27 	addu $sp,$sp,16
 170              	.set macro
 171              	.set reorder
GAS LISTING  			page 4


 172              	
 173              	.end _ZN6NesMMU11SetPrgRam8KEjj
 174              	$Lfe4:
 175              	.size _ZN6NesMMU11SetPrgRam8KEjj,$Lfe4-_ZN6NesMMU11SetPrgRam8KEjj
 176              	.align 2
 177              	.p2align 3,,7
 178              	.globl _ZN6NesMMU12SetPrgRom16KEjj
 179              	.ent _ZN6NesMMU12SetPrgRom16KEjj
 180              	_ZN6NesMMU12SetPrgRom16KEjj:
 181              	.frame $sp,64,$31
 182              	.mask 0x80070000,-16
 183              	.fmask 0x00000000,0
 184 0148 C0FFBD27 	subu $sp,$sp,64
 185 014c 1000B1FF 	sd $17,16($sp)
 186 0150 40880600 	sll $17,$6,1
 187 0154 0000B0FF 	sd $16,0($sp)
 188 0158 2D302002 	move $6,$17
 189 015c 40800500 	sll $16,$5,1
 190 0160 2000B2FF 	sd $18,32($sp)
 191 0164 2D280002 	move $5,$16
 192 0168 01003126 	addu $17,$17,1
 193 016c 2D908000 	move $18,$4
 194 0170 3000BFFF 	sd $31,48($sp)
 195              	.set noreorder
 196              	.set nomacro
 197 0174 0000000C 	jal _ZN6NesMMU11SetPrgRom8KEjj
 198 0178 01001026 	addu $16,$16,1
 199              	.set macro
 200              	.set reorder
 201              	
 202 017c 2D204002 	move $4,$18
 203 0180 2D280002 	move $5,$16
 204              	.set noreorder
 205              	.set nomacro
 206 0184 0000000C 	jal _ZN6NesMMU11SetPrgRom8KEjj
 207 0188 2D302002 	move $6,$17
 208              	.set macro
 209              	.set reorder
 210              	
 211 018c 0000B0DF 	ld $16,0($sp)
 212 0190 3000BFDF 	ld $31,48($sp)
 213 0194 2000B2DF 	ld $18,32($sp)
 214 0198 1000B1DF 	ld $17,16($sp)
 215              	
 216              	.set noreorder
 217              	.set nomacro
 218 019c 0800E003 	j $31
 219 01a0 4000BD27 	addu $sp,$sp,64
 220              	.set macro
 221              	.set reorder
 222              	
 223              	.end _ZN6NesMMU12SetPrgRom16KEjj
 224              	$Lfe5:
 225              	.size _ZN6NesMMU12SetPrgRom16KEjj,$Lfe5-_ZN6NesMMU12SetPrgRom16KEjj
 226              	.align 2
 227 01a4 00000000 	.p2align 3,,7
 228              	.globl _ZN6NesMMU12SetPrgRom32KEj
GAS LISTING  			page 5


 229              	.ent _ZN6NesMMU12SetPrgRom32KEj
 230              	_ZN6NesMMU12SetPrgRom32KEj:
 231              	.frame $sp,48,$31
 232              	.mask 0x80030000,-16
 233              	.fmask 0x00000000,0
 234 01a8 D0FFBD27 	subu $sp,$sp,48
 235 01ac 0000B0FF 	sd $16,0($sp)
 236 01b0 80800500 	sll $16,$5,2
 237 01b4 1000B1FF 	sd $17,16($sp)
 238 01b8 2D300002 	move $6,$16
 239 01bc 2D888000 	move $17,$4
 240 01c0 2000BFFF 	sd $31,32($sp)
 241              	.set noreorder
 242              	.set nomacro
 243 01c4 0000000C 	jal _ZN6NesMMU11SetPrgRom8KEjj
 244 01c8 2D280000 	move $5,$0
 245              	.set macro
 246              	.set reorder
 247              	
 248 01cc 01000626 	addu $6,$16,1
 249 01d0 2D202002 	move $4,$17
 250              	.set noreorder
 251              	.set nomacro
 252 01d4 0000000C 	jal _ZN6NesMMU11SetPrgRom8KEjj
 253 01d8 01000524 	li $5,1
 254              	.set macro
 255              	.set reorder
 256              	
 257 01dc 2D202002 	move $4,$17
 258 01e0 02000626 	addu $6,$16,2
 259 01e4 02000524 	li $5,2
 260              	.set noreorder
 261              	.set nomacro
 262 01e8 0000000C 	jal _ZN6NesMMU11SetPrgRom8KEjj
 263 01ec 03001026 	addu $16,$16,3
 264              	.set macro
 265              	.set reorder
 266              	
 267 01f0 2D202002 	move $4,$17
 268 01f4 2D300002 	move $6,$16
 269              	.set noreorder
 270              	.set nomacro
 271 01f8 0000000C 	jal _ZN6NesMMU11SetPrgRom8KEjj
 272 01fc 03000524 	li $5,3
 273              	.set macro
 274              	.set reorder
 275              	
 276 0200 0000B0DF 	ld $16,0($sp)
 277 0204 2000BFDF 	ld $31,32($sp)
 278 0208 1000B1DF 	ld $17,16($sp)
 279              	
 280              	.set noreorder
 281              	.set nomacro
 282 020c 0800E003 	j $31
 283 0210 3000BD27 	addu $sp,$sp,48
 284              	.set macro
 285              	.set reorder
GAS LISTING  			page 6


 286              	
 287              	.end _ZN6NesMMU12SetPrgRom32KEj
 288              	$Lfe6:
 289              	.size _ZN6NesMMU12SetPrgRom32KEj,$Lfe6-_ZN6NesMMU12SetPrgRom32KEj
 290              	.align 2
 291 0214 00000000 	.p2align 3,,7
 292              	.globl _ZN6NesMMU11SetChrRom1KEjj
 293              	.ent _ZN6NesMMU11SetChrRom1KEjj
 294              	_ZN6NesMMU11SetChrRom1KEjj:
 295              	.frame $sp,64,$31
 296              	.mask 0x80070000,-16
 297              	.fmask 0x00000000,0
 298 0218 C0FFBD27 	subu $sp,$sp,64
 299 021c 2000B2FF 	sd $18,32($sp)
 300 0220 0700B230 	andi $18,$5,0x7
 301 0224 1000B1FF 	sd $17,16($sp)
 302 0228 2D88C000 	move $17,$6
 303 022c 0000B0FF 	sd $16,0($sp)
 304 0230 3000BFFF 	sd $31,48($sp)
 305 0234 2C00828C 	lw $2,44($4)
 306              	
 307              	.set noreorder
 308              	.set nomacro
 309 0238 1F004010 	beq $2,$0,$L15
 310 023c 2D808000 	move $16,$4
 311              	.set macro
 312              	.set reorder
 313              	
 314 0240 2488C200 	and $17,$6,$2
 315              	$L16:
 316 0244 80101200 	sll $2,$18,2
 317              	$L22:
 318 0248 0800068E 	lw $6,8($16)
 319 024c 21105000 	addu $2,$2,$16
 320 0250 0C00048E 	lw $4,12($16)
 321 0254 340051AC 	sw $17,52($2)
 322 0258 0800C38C 	lw $3,8($6)
 323 025c 0C00C58C 	lw $5,12($6)
 324              	.set noreorder
 325              	.set nomacro
 326 0260 0000000C 	jal _ZN6NesPPU7ExecuteEi
 327 0264 2328A300 	subu $5,$5,$3
 328              	.set macro
 329              	.set reorder
 330              	
 331 0268 0400048E 	lw $4,4($16)
 332              	
 333 026c 20008524 	addu $5,$4,32
 334 0270 2000828C 	lw $2,32($4)
 335 0274 0C00A38C 	lw $3,12($5)
 336              	
 337 0278 04307100 	sll $6,$17,$3
 338 027c 2B10C200 	sltu $2,$6,$2
 339              	.set noreorder
 340              	.set nomacro
 341 0280 03004010 	beq $2,$0,$L21
 342 0284 2D380000 	move $7,$0
GAS LISTING  			page 7


 343              	.set macro
 344              	.set reorder
 345              	
 346 0288 0400A28C 	lw $2,4($5)
 347              	
 348 028c 21384600 	addu $7,$2,$6
 349              	$L21:
 350 0290 0C00048E 	lw $4,12($16)
 351 0294 802A1200 	sll $5,$18,10
 352              	.set noreorder
 353              	.set nomacro
 354 0298 0000000C 	jal _ZN6NesPPU10VramMapROMEjPh
 355 029c 2D30E000 	move $6,$7
 356              	.set macro
 357              	.set reorder
 358              	
 359 02a0 0000B0DF 	ld $16,0($sp)
 360 02a4 3000BFDF 	ld $31,48($sp)
 361 02a8 2000B2DF 	ld $18,32($sp)
 362 02ac 1000B1DF 	ld $17,16($sp)
 363              	
 364              	.set noreorder
 365              	.set nomacro
 366 02b0 0800E003 	j $31
 367 02b4 4000BD27 	addu $sp,$sp,64
 368              	.set macro
 369              	.set reorder
 370              	
 371              	.p2align 3
 372              	$L15:
 373 02b8 3000828C 	lw $2,48($4)
 374              	
 375 02bc FFFF4324 	addu $3,$2,-1
 376 02c0 2B10C200 	sltu $2,$6,$2
 377              	.set noreorder
 378              	.set nomacro
 379 02c4 DFFF4050 	beql $2,$0,$L16
 380 02c8 2488C300 	and $17,$6,$3
 381              	.set macro
 382              	.set reorder
 383              	
 384              	.set noreorder
 385              	.set nomacro
 386 02cc DEFF0010 	b $L22
 387 02d0 80101200 	sll $2,$18,2
 388              	.set macro
 389              	.set reorder
 390              	
 391              	.end _ZN6NesMMU11SetChrRom1KEjj
 392              	$Lfe7:
 393              	.size _ZN6NesMMU11SetChrRom1KEjj,$Lfe7-_ZN6NesMMU11SetChrRom1KEjj
 394              	.align 2
 395 02d4 00000000 	.p2align 3,,7
 396              	.globl _ZN6NesMMU11SetChrRom4KEjj
 397              	.ent _ZN6NesMMU11SetChrRom4KEjj
 398              	_ZN6NesMMU11SetChrRom4KEjj:
 399              	.frame $sp,64,$31
GAS LISTING  			page 8


 400              	.mask 0x80070000,-16
 401              	.fmask 0x00000000,0
 402 02d8 C0FFBD27 	subu $sp,$sp,64
 403 02dc 1000B1FF 	sd $17,16($sp)
 404 02e0 80880600 	sll $17,$6,2
 405 02e4 0000B0FF 	sd $16,0($sp)
 406 02e8 2D302002 	move $6,$17
 407 02ec 80800500 	sll $16,$5,2
 408 02f0 2000B2FF 	sd $18,32($sp)
 409 02f4 2D280002 	move $5,$16
 410 02f8 3000BFFF 	sd $31,48($sp)
 411              	.set noreorder
 412              	.set nomacro
 413 02fc 0000000C 	jal _ZN6NesMMU11SetChrRom1KEjj
 414 0300 2D908000 	move $18,$4
 415              	.set macro
 416              	.set reorder
 417              	
 418 0304 01000526 	addu $5,$16,1
 419 0308 01002626 	addu $6,$17,1
 420              	.set noreorder
 421              	.set nomacro
 422 030c 0000000C 	jal _ZN6NesMMU11SetChrRom1KEjj
 423 0310 2D204002 	move $4,$18
 424              	.set macro
 425              	.set reorder
 426              	
 427 0314 02002626 	addu $6,$17,2
 428 0318 2D204002 	move $4,$18
 429 031c 02000526 	addu $5,$16,2
 430 0320 03003126 	addu $17,$17,3
 431              	.set noreorder
 432              	.set nomacro
 433 0324 0000000C 	jal _ZN6NesMMU11SetChrRom1KEjj
 434 0328 03001026 	addu $16,$16,3
 435              	.set macro
 436              	.set reorder
 437              	
 438 032c 2D302002 	move $6,$17
 439 0330 2D204002 	move $4,$18
 440              	.set noreorder
 441              	.set nomacro
 442 0334 0000000C 	jal _ZN6NesMMU11SetChrRom1KEjj
 443 0338 2D280002 	move $5,$16
 444              	.set macro
 445              	.set reorder
 446              	
 447 033c 0000B0DF 	ld $16,0($sp)
 448 0340 3000BFDF 	ld $31,48($sp)
 449 0344 2000B2DF 	ld $18,32($sp)
 450 0348 1000B1DF 	ld $17,16($sp)
 451              	
 452              	.set noreorder
 453              	.set nomacro
 454 034c 0800E003 	j $31
 455 0350 4000BD27 	addu $sp,$sp,64
 456              	.set macro
GAS LISTING  			page 9


 457              	.set reorder
 458              	
 459              	.end _ZN6NesMMU11SetChrRom4KEjj
 460              	$Lfe8:
 461              	.size _ZN6NesMMU11SetChrRom4KEjj,$Lfe8-_ZN6NesMMU11SetChrRom4KEjj
 462              	.align 2
 463 0354 00000000 	.p2align 3,,7
 464              	.globl _ZN6NesMMU11SetChrRom8KEj
 465              	.ent _ZN6NesMMU11SetChrRom8KEj
 466              	_ZN6NesMMU11SetChrRom8KEj:
 467              	.frame $sp,48,$31
 468              	.mask 0x80030000,-16
 469              	.fmask 0x00000000,0
 470 0358 D0FFBD27 	subu $sp,$sp,48
 471 035c 0000B0FF 	sd $16,0($sp)
 472 0360 C0800500 	sll $16,$5,3
 473 0364 1000B1FF 	sd $17,16($sp)
 474 0368 2D300002 	move $6,$16
 475 036c 2D888000 	move $17,$4
 476 0370 2000BFFF 	sd $31,32($sp)
 477              	.set noreorder
 478              	.set nomacro
 479 0374 0000000C 	jal _ZN6NesMMU11SetChrRom1KEjj
 480 0378 2D280000 	move $5,$0
 481              	.set macro
 482              	.set reorder
 483              	
 484 037c 01000626 	addu $6,$16,1
 485 0380 2D202002 	move $4,$17
 486              	.set noreorder
 487              	.set nomacro
 488 0384 0000000C 	jal _ZN6NesMMU11SetChrRom1KEjj
 489 0388 01000524 	li $5,1
 490              	.set macro
 491              	.set reorder
 492              	
 493 038c 2D202002 	move $4,$17
 494 0390 02000626 	addu $6,$16,2
 495              	.set noreorder
 496              	.set nomacro
 497 0394 0000000C 	jal _ZN6NesMMU11SetChrRom1KEjj
 498 0398 02000524 	li $5,2
 499              	.set macro
 500              	.set reorder
 501              	
 502 039c 2D202002 	move $4,$17
 503 03a0 03000626 	addu $6,$16,3
 504              	.set noreorder
 505              	.set nomacro
 506 03a4 0000000C 	jal _ZN6NesMMU11SetChrRom1KEjj
 507 03a8 03000524 	li $5,3
 508              	.set macro
 509              	.set reorder
 510              	
 511 03ac 2D202002 	move $4,$17
 512 03b0 04000626 	addu $6,$16,4
 513              	.set noreorder
GAS LISTING  			page 10


 514              	.set nomacro
 515 03b4 0000000C 	jal _ZN6NesMMU11SetChrRom1KEjj
 516 03b8 04000524 	li $5,4
 517              	.set macro
 518              	.set reorder
 519              	
 520 03bc 2D202002 	move $4,$17
 521 03c0 05000626 	addu $6,$16,5
 522              	.set noreorder
 523              	.set nomacro
 524 03c4 0000000C 	jal _ZN6NesMMU11SetChrRom1KEjj
 525 03c8 05000524 	li $5,5
 526              	.set macro
 527              	.set reorder
 528              	
 529 03cc 2D202002 	move $4,$17
 530 03d0 06000626 	addu $6,$16,6
 531 03d4 06000524 	li $5,6
 532              	.set noreorder
 533              	.set nomacro
 534 03d8 0000000C 	jal _ZN6NesMMU11SetChrRom1KEjj
 535 03dc 07001026 	addu $16,$16,7
 536              	.set macro
 537              	.set reorder
 538              	
 539 03e0 2D202002 	move $4,$17
 540 03e4 2D300002 	move $6,$16
 541              	.set noreorder
 542              	.set nomacro
 543 03e8 0000000C 	jal _ZN6NesMMU11SetChrRom1KEjj
 544 03ec 07000524 	li $5,7
 545              	.set macro
 546              	.set reorder
 547              	
 548 03f0 0000B0DF 	ld $16,0($sp)
 549 03f4 2000BFDF 	ld $31,32($sp)
 550 03f8 1000B1DF 	ld $17,16($sp)
 551              	
 552              	.set noreorder
 553              	.set nomacro
 554 03fc 0800E003 	j $31
 555 0400 3000BD27 	addu $sp,$sp,48
 556              	.set macro
 557              	.set reorder
 558              	
 559              	.end _ZN6NesMMU11SetChrRom8KEj
 560              	$Lfe9:
 561              	.size _ZN6NesMMU11SetChrRom8KEj,$Lfe9-_ZN6NesMMU11SetChrRom8KEj
 562              	.align 2
 563 0404 00000000 	.p2align 3,,7
 564              	.globl _ZN6NesMMU12SetNameTableEjj
 565              	.ent _ZN6NesMMU12SetNameTableEjj
 566              	_ZN6NesMMU12SetNameTableEjj:
 567              	.frame $sp,16,$31
 568              	.mask 0x80000000,-16
 569              	.fmask 0x00000000,0
 570 0408 F0FFBD27 	subu $sp,$sp,16
GAS LISTING  			page 11


 571 040c 0300A530 	andi $5,$5,0x3
 572 0410 0000BFFF 	sd $31,0($sp)
 573 0414 2110A400 	addu $2,$5,$4
 574 0418 0300C630 	andi $6,$6,0x3
 575 041c 540046A0 	sb $6,84($2)
 576              	.set noreorder
 577              	.set nomacro
 578 0420 0000000C 	jal _ZN6NesPPU12SetNameTableEjj
 579 0424 0C00848C 	lw $4,12($4)
 580              	.set macro
 581              	.set reorder
 582              	
 583 0428 0000BFDF 	ld $31,0($sp)
 584              	
 585              	.set noreorder
 586              	.set nomacro
 587 042c 0800E003 	j $31
 588 0430 1000BD27 	addu $sp,$sp,16
 589              	.set macro
 590              	.set reorder
 591              	
 592              	.end _ZN6NesMMU12SetNameTableEjj
 593              	$Lfe10:
 594              	.size _ZN6NesMMU12SetNameTableEjj,$Lfe10-_ZN6NesMMU12SetNameTableEjj
 595              	.align 2
 596 0434 00000000 	.p2align 3,,7
 597              	.globl _ZN6NesMMU9SetMirrorE13NesMMUMirrorE
 598              	.ent _ZN6NesMMU9SetMirrorE13NesMMUMirrorE
 599              	_ZN6NesMMU9SetMirrorE13NesMMUMirrorE:
 600              	.frame $sp,48,$31
 601              	.mask 0x80030000,-16
 602              	.fmask 0x00000000,0
 603 0438 D0FFBD27 	subu $sp,$sp,48
 604 043c 1000B1FF 	sd $17,16($sp)
 605 0440 2D888000 	move $17,$4
 606 0444 0000B0FF 	sd $16,0($sp)
 607 0448 2D80A000 	move $16,$5
 608 044c 2000BFFF 	sd $31,32($sp)
 609 0450 40040524 	li $5,1088
 610              	.set noreorder
 611              	.set nomacro
 612 0454 0000000C 	jal _ZN6NesPPU7ExecuteEi
 613 0458 0C00848C 	lw $4,12($4)
 614              	.set macro
 615              	.set reorder
 616              	
 617 045c 0500022E 	sltu $2,$16,5
 618              	.set noreorder
 619              	.set nomacro
 620 0460 2D004010 	beq $2,$0,$L31
 621 0464 0000033C 	lui $3,%hi($L34)
 622              	.set macro
 623              	.set reorder
 624              	
 625 0468 80101000 	sll $2,$16,2
 626 046c 00006324 	addiu $3,$3,%lo($L34)
 627 0470 21104300 	addu $2,$2,$3
GAS LISTING  			page 12


 628 0474 0000448C 	lw $4,0($2)
 629              	
 630 0478 08008000 	j $4
 630      00000000 
 631              	.rdata
 632              	.align 2
 633              	$L34:
 634 0000 80040000 	.word $L28
 635 0004 D8040000 	.word $L29
 636 0008 18050000 	.word $L31
 637 000c 38050000 	.word $L32
 638 0010 68050000 	.word $L33
 639              	.text
 640              	.p2align 3
 641              	$L28:
 642 0480 2D202002 	move $4,$17
 643 0484 2D280000 	move $5,$0
 644              	.set noreorder
 645              	.set nomacro
 646 0488 0000000C 	jal _ZN6NesMMU12SetNameTableEjj
 647 048c 2D300000 	move $6,$0
 648              	.set macro
 649              	.set reorder
 650              	
 651 0490 01000524 	li $5,1
 652 0494 2D202002 	move $4,$17
 653              	.set noreorder
 654              	.set nomacro
 655 0498 0000000C 	jal _ZN6NesMMU12SetNameTableEjj
 656 049c 2D300000 	move $6,$0
 657              	.set macro
 658              	.set reorder
 659              	
 660 04a0 02000524 	li $5,2
 661 04a4 2D202002 	move $4,$17
 662              	.set noreorder
 663              	.set nomacro
 664 04a8 0000000C 	jal _ZN6NesMMU12SetNameTableEjj
 665 04ac 2D300000 	move $6,$0
 666              	.set macro
 667              	.set reorder
 668              	
 669 04b0 2D300000 	move $6,$0
 670 04b4 2D202002 	move $4,$17
 671              	.p2align 3
 672              	$L35:
 673              	.set noreorder
 674              	.set nomacro
 675 04b8 0000000C 	jal _ZN6NesMMU12SetNameTableEjj
 676 04bc 03000524 	li $5,3
 677              	.set macro
 678              	.set reorder
 679              	
 680 04c0 0000B0DF 	ld $16,0($sp)
 681 04c4 2000BFDF 	ld $31,32($sp)
 682 04c8 1000B1DF 	ld $17,16($sp)
 683              	
GAS LISTING  			page 13


 684              	.set noreorder
 685              	.set nomacro
 686 04cc 0800E003 	j $31
 687 04d0 3000BD27 	addu $sp,$sp,48
 688              	.set macro
 689              	.set reorder
 690              	
 691 04d4 00000000 	.p2align 3
 692              	$L29:
 693 04d8 2D202002 	move $4,$17
 694 04dc 01000624 	li $6,1
 695              	.set noreorder
 696              	.set nomacro
 697 04e0 0000000C 	jal _ZN6NesMMU12SetNameTableEjj
 698 04e4 2D280000 	move $5,$0
 699              	.set macro
 700              	.set reorder
 701              	
 702 04e8 01000624 	li $6,1
 703 04ec 2D202002 	move $4,$17
 704              	$L36:
 705              	.set noreorder
 706              	.set nomacro
 707 04f0 0000000C 	jal _ZN6NesMMU12SetNameTableEjj
 708 04f4 01000524 	li $5,1
 709              	.set macro
 710              	.set reorder
 711              	
 712 04f8 01000624 	li $6,1
 713 04fc 2D202002 	move $4,$17
 714              	$L37:
 715              	.set noreorder
 716              	.set nomacro
 717 0500 0000000C 	jal _ZN6NesMMU12SetNameTableEjj
 718 0504 02000524 	li $5,2
 719              	.set macro
 720              	.set reorder
 721              	
 722 0508 01000624 	li $6,1
 723              	.set noreorder
 724              	.set nomacro
 725 050c EAFF0010 	b $L35
 726 0510 2D202002 	move $4,$17
 727              	.set macro
 728              	.set reorder
 729              	
 730 0514 00000000 	.p2align 3
 731              	$L31:
 732 0518 2D202002 	move $4,$17
 733 051c 2D300000 	move $6,$0
 734              	.set noreorder
 735              	.set nomacro
 736 0520 0000000C 	jal _ZN6NesMMU12SetNameTableEjj
 737 0524 2D280000 	move $5,$0
 738              	.set macro
 739              	.set reorder
 740              	
GAS LISTING  			page 14


 741 0528 2D300000 	move $6,$0
 742              	.set noreorder
 743              	.set nomacro
 744 052c F0FF0010 	b $L36
 745 0530 2D202002 	move $4,$17
 746              	.set macro
 747              	.set reorder
 748              	
 749 0534 00000000 	.p2align 3
 750              	$L32:
 751 0538 2D202002 	move $4,$17
 752 053c 2D280000 	move $5,$0
 753              	.set noreorder
 754              	.set nomacro
 755 0540 0000000C 	jal _ZN6NesMMU12SetNameTableEjj
 756 0544 2D300000 	move $6,$0
 757              	.set macro
 758              	.set reorder
 759              	
 760 0548 01000524 	li $5,1
 761 054c 2D202002 	move $4,$17
 762              	.set noreorder
 763              	.set nomacro
 764 0550 0000000C 	jal _ZN6NesMMU12SetNameTableEjj
 765 0554 01000624 	li $6,1
 766              	.set macro
 767              	.set reorder
 768              	
 769 0558 2D300000 	move $6,$0
 770              	.set noreorder
 771              	.set nomacro
 772 055c E8FF0010 	b $L37
 773 0560 2D202002 	move $4,$17
 774              	.set macro
 775              	.set reorder
 776              	
 777 0564 00000000 	.p2align 3
 778              	$L33:
 779 0568 2D280000 	move $5,$0
 780 056c 2D300000 	move $6,$0
 781              	.set noreorder
 782              	.set nomacro
 783 0570 0000000C 	jal _ZN6NesMMU12SetNameTableEjj
 784 0574 2D202002 	move $4,$17
 785              	.set macro
 786              	.set reorder
 787              	
 788 0578 01000524 	li $5,1
 789 057c 2D202002 	move $4,$17
 790              	.set noreorder
 791              	.set nomacro
 792 0580 0000000C 	jal _ZN6NesMMU12SetNameTableEjj
 793 0584 01000624 	li $6,1
 794              	.set macro
 795              	.set reorder
 796              	
 797 0588 02000524 	li $5,2
GAS LISTING  			page 15


 798 058c 2D202002 	move $4,$17
 799              	.set noreorder
 800              	.set nomacro
 801 0590 0000000C 	jal _ZN6NesMMU12SetNameTableEjj
 802 0594 02000624 	li $6,2
 803              	.set macro
 804              	.set reorder
 805              	
 806 0598 03000624 	li $6,3
 807              	.set noreorder
 808              	.set nomacro
 809 059c C6FF0010 	b $L35
 810 05a0 2D202002 	move $4,$17
 811              	.set macro
 812              	.set reorder
 813              	
 814              	.end _ZN6NesMMU9SetMirrorE13NesMMUMirrorE
 815              	$Lfe11:
 816              	.size _ZN6NesMMU9SetMirrorE13NesMMUMirrorE,$Lfe11-_ZN6NesMMU9SetMirrorE13NesMMUMirrorE
 817              	.align 2
 818 05a4 00000000 	.p2align 3,,7
 819              	.globl _ZN6NesMMU5ResetEv
 820              	.ent _ZN6NesMMU5ResetEv
 821              	_ZN6NesMMU5ResetEv:
 822              	.frame $sp,32,$31
 823              	.mask 0x80010000,-16
 824              	.fmask 0x00000000,0
 825 05a8 E0FFBD27 	subu $sp,$sp,32
 826 05ac 2D280000 	move $5,$0
 827 05b0 0000B0FF 	sd $16,0($sp)
 828 05b4 00020624 	dli $6,0x200
 829 05b8 2D808000 	move $16,$4
 830 05bc 1000BFFF 	sd $31,16($sp)
 831              	.set noreorder
 832              	.set nomacro
 833 05c0 0000000C 	jal memset
 834 05c4 58008424 	addu $4,$4,88
 835              	.set macro
 836              	.set reorder
 837              	
 838 05c8 2D200002 	move $4,$16
 839 05cc 0400038E 	lw $3,4($16)
 840 05d0 2D280000 	move $5,$0
 841              	.set noreorder
 842              	.set nomacro
 843 05d4 06006014 	bne $3,$0,$L42
 844 05d8 2D300000 	move $6,$0
 845              	.set macro
 846              	.set reorder
 847              	
 848 05dc 1000BFDF 	ld $31,16($sp)
 849              	$L43:
 850 05e0 0000B0DF 	ld $16,0($sp)
 851              	
 852              	.set noreorder
 853              	.set nomacro
 854 05e4 0800E003 	j $31
GAS LISTING  			page 16


 855 05e8 2000BD27 	addu $sp,$sp,32
 856              	.set macro
 857              	.set reorder
 858              	
 859 05ec 00000000 	.p2align 3
 860              	$L42:
 861 05f0 0000000C 	jal _ZN6NesMMU11SetPrgRom8KEjj
 861      00000000 
 862 05f8 01000624 	li $6,1
 863 05fc 2D200002 	move $4,$16
 864              	.set noreorder
 865              	.set nomacro
 866 0600 0000000C 	jal _ZN6NesMMU11SetPrgRom8KEjj
 867 0604 01000524 	li $5,1
 868              	.set macro
 869              	.set reorder
 870              	
 871 0608 2D200002 	move $4,$16
 872 060c 1800068E 	lw $6,24($16)
 873 0610 02000524 	li $5,2
 874              	.set noreorder
 875              	.set nomacro
 876 0614 0000000C 	jal _ZN6NesMMU11SetPrgRom8KEjj
 877 0618 FEFFC624 	addu $6,$6,-2
 878              	.set macro
 879              	.set reorder
 880              	
 881 061c 2D200002 	move $4,$16
 882 0620 1800068E 	lw $6,24($16)
 883 0624 03000524 	li $5,3
 884              	.set noreorder
 885              	.set nomacro
 886 0628 0000000C 	jal _ZN6NesMMU11SetPrgRom8KEjj
 887 062c FFFFC624 	addu $6,$6,-1
 888              	.set macro
 889              	.set reorder
 890              	
 891 0630 2D280000 	move $5,$0
 892              	.set noreorder
 893              	.set nomacro
 894 0634 0000000C 	jal _ZN6NesMMU11SetChrRom8KEj
 895 0638 2D200002 	move $4,$16
 896              	.set macro
 897              	.set reorder
 898              	
 899 063c 02000224 	li $2,2
 900 0640 0400038E 	lw $3,4($16)
 901 0644 03000524 	li $5,3
 902 0648 2D200002 	move $4,$16
 903 064c 0C006690 	lbu $6,12($3)
 904              	.set noreorder
 905              	.set nomacro
 906 0650 0000000C 	jal _ZN6NesMMU9SetMirrorE13NesMMUMirrorE
 907 0654 0A284600 	movz $5,$2,$6
 908              	.set macro
 909              	.set reorder
 910              	
GAS LISTING  			page 17


 911              	.set noreorder
 912              	.set nomacro
 913 0658 E1FF0010 	b $L43
 914 065c 1000BFDF 	ld $31,16($sp)
 915              	.set macro
 916              	.set reorder
 917              	
 918              	.end _ZN6NesMMU5ResetEv
 919              	$Lfe12:
 920              	.size _ZN6NesMMU5ResetEv,$Lfe12-_ZN6NesMMU5ResetEv
 921              	.align 2
 922              	.p2align 3,,7
 923              	.globl _ZN6NesMMU6SetROMEP6NesRom
 924              	.ent _ZN6NesMMU6SetROMEP6NesRom
 925              	_ZN6NesMMU6SetROMEP6NesRom:
 926              	.frame $sp,0,$31
 927              	.mask 0x00000000,0
 928              	.fmask 0x00000000,0
 929              	.set noreorder
 930              	.set nomacro
 931 0660 0F00A010 	beq $5,$0,$L45
 932 0664 040085AC 	sw $5,4($4)
 933              	.set macro
 934              	.set reorder
 935              	
 936 0668 1C00A38C 	lw $3,28($5)
 937 066c 1000A28C 	lw $2,16($5)
 938              	
 939 0670 06106200 	srl $2,$2,$3
 940 0674 180082AC 	sw $2,24($4)
 941 0678 2C00A38C 	lw $3,44($5)
 942 067c 2000A28C 	lw $2,32($5)
 943              	
 944 0680 06106200 	srl $2,$2,$3
 945 0684 300082AC 	sw $2,48($4)
 946              	$L48:
 947 0688 3000828C 	lw $2,48($4)
 948              	
 949 068c FFFF4324 	addu $3,$2,-1
 950 0690 24104300 	and $2,$2,$3
 951 0694 0B180200 	movn $3,$0,$2
 952              	.set noreorder
 953              	.set nomacro
 954 0698 0800E003 	j $31
 955 069c 2C0083AC 	sw $3,44($4)
 956              	.set macro
 957              	.set reorder
 958              	
 959              	.p2align 3
 960              	$L45:
 961 06a0 180080AC 	sw $0,24($4)
 962              	.set noreorder
 963              	.set nomacro
 964 06a4 F8FF0010 	b $L48
 965 06a8 300080AC 	sw $0,48($4)
 966              	.set macro
 967              	.set reorder
GAS LISTING  			page 18


 968              	
 969              	.end _ZN6NesMMU6SetROMEP6NesRom
 970              	$Lfe13:
 971              	.size _ZN6NesMMU6SetROMEP6NesRom,$Lfe13-_ZN6NesMMU6SetROMEP6NesRom
 972              	.align 2
 973 06ac 00000000 	.p2align 3,,7
 974              	.globl _ZN6NesMMU3IRQEv
 975              	.ent _ZN6NesMMU3IRQEv
 976              	_ZN6NesMMU3IRQEv:
 977              	.frame $sp,16,$31
 978              	.mask 0x80000000,-16
 979              	.fmask 0x00000000,0
 980 06b0 F0FFBD27 	subu $sp,$sp,16
 981 06b4 0000BFFF 	sd $31,0($sp)
 982              	.set noreorder
 983              	.set nomacro
 984 06b8 0000000C 	jal N6502IRQ
 985 06bc 0800848C 	lw $4,8($4)
 986              	.set macro
 987              	.set reorder
 988              	
 989 06c0 0000BFDF 	ld $31,0($sp)
 990              	
 991              	.set noreorder
 992              	.set nomacro
 993 06c4 0800E003 	j $31
 994 06c8 1000BD27 	addu $sp,$sp,16
 995              	.set macro
 996              	.set reorder
 997              	
 998              	.end _ZN6NesMMU3IRQEv
 999              	$Lfe14:
 1000              	.size _ZN6NesMMU3IRQEv,$Lfe14-_ZN6NesMMU3IRQEv
 1001              	.align 2
 1002 06cc 00000000 	.p2align 3,,7
 1003              	.globl _ZN6NesMMU8ScanLineEi
 1004              	.ent _ZN6NesMMU8ScanLineEi
 1005              	_ZN6NesMMU8ScanLineEi:
 1006              	.frame $sp,0,$31
 1007              	.mask 0x00000000,0
 1008              	.fmask 0x00000000,0
 1009 06d0 0800E003 	j $31
 1009      00000000 
 1010              	.end _ZN6NesMMU8ScanLineEi
 1011              	$Lfe15:
 1012              	.size _ZN6NesMMU8ScanLineEi,$Lfe15-_ZN6NesMMU8ScanLineEi
 1013              	.align 2
 1014              	.p2align 3,,7
 1015              	.globl _ZN6NesMMU13GetLatchTableEv
 1016              	.ent _ZN6NesMMU13GetLatchTableEv
 1017              	_ZN6NesMMU13GetLatchTableEv:
 1018              	.frame $sp,0,$31
 1019              	.mask 0x00000000,0
 1020              	.fmask 0x00000000,0
 1021              	.set noreorder
 1022              	.set nomacro
 1023 06d8 0800E003 	j $31
GAS LISTING  			page 19


 1024 06dc 2D100000 	move $2,$0
 1025              	.set macro
 1026              	.set reorder
 1027              	
 1028              	.end _ZN6NesMMU13GetLatchTableEv
 1029              	$Lfe16:
 1030              	.size _ZN6NesMMU13GetLatchTableEv,$Lfe16-_ZN6NesMMU13GetLatchTableEv
 1031              	.align 2
 1032              	.p2align 3,,7
 1033              	.globl _ZN6NesMMU5LatchEt
 1034              	.ent _ZN6NesMMU5LatchEt
 1035              	_ZN6NesMMU5LatchEt:
 1036              	.frame $sp,0,$31
 1037              	.mask 0x00000000,0
 1038              	.fmask 0x00000000,0
 1039 06e0 0800E003 	j $31
 1039      00000000 
 1040              	.end _ZN6NesMMU5LatchEt
 1041              	$Lfe17:
 1042              	.size _ZN6NesMMU5LatchEt,$Lfe17-_ZN6NesMMU5LatchEt
 1043              	.align 2
 1044              	.p2align 3,,7
 1045              	.globl _ZN6NesMMU5WriteEjh
 1046              	.ent _ZN6NesMMU5WriteEjh
 1047              	_ZN6NesMMU5WriteEjh:
 1048              	.frame $sp,0,$31
 1049              	.mask 0x00000000,0
 1050              	.fmask 0x00000000,0
 1051 06e8 0800E003 	j $31
 1051      00000000 
 1052              	.end _ZN6NesMMU5WriteEjh
 1053              	$Lfe18:
 1054              	.size _ZN6NesMMU5WriteEjh,$Lfe18-_ZN6NesMMU5WriteEjh
 1055              	.align 2
 1056              	.p2align 3,,7
 1057              	.globl _ZN6NesMMU9Write5000Ejh
 1058              	.ent _ZN6NesMMU9Write5000Ejh
 1059              	_ZN6NesMMU9Write5000Ejh:
 1060              	.frame $sp,0,$31
 1061              	.mask 0x00000000,0
 1062              	.fmask 0x00000000,0
 1063 06f0 0800E003 	j $31
 1063      00000000 
 1064              	.end _ZN6NesMMU9Write5000Ejh
 1065              	$Lfe19:
 1066              	.size _ZN6NesMMU9Write5000Ejh,$Lfe19-_ZN6NesMMU9Write5000Ejh
 1067              	.align 2
 1068              	.p2align 3,,7
 1069              	.globl _ZN6NesMMU8Read5000Ej
 1070              	.ent _ZN6NesMMU8Read5000Ej
 1071              	_ZN6NesMMU8Read5000Ej:
 1072              	.frame $sp,0,$31
 1073              	.mask 0x00000000,0
 1074              	.fmask 0x00000000,0
 1075 06f8 02120500 	srl $2,$5,8
 1076              	.set noreorder
 1077              	.set nomacro
GAS LISTING  			page 20


 1078 06fc 0800E003 	j $31
 1079 0700 FF004230 	andi $2,$2,0x00ff
 1080              	.set macro
 1081              	.set reorder
 1082              	
 1083              	.end _ZN6NesMMU8Read5000Ej
 1084              	$Lfe20:
 1085              	.size _ZN6NesMMU8Read5000Ej,$Lfe20-_ZN6NesMMU8Read5000Ej
 1086              	.align 2
 1087 0704 00000000 	.p2align 3,,7
 1088              	.globl _ZN6NesMMU9Write4000Ejh
 1089              	.ent _ZN6NesMMU9Write4000Ejh
 1090              	_ZN6NesMMU9Write4000Ejh:
 1091              	.frame $sp,0,$31
 1092              	.mask 0x00000000,0
 1093              	.fmask 0x00000000,0
 1094 0708 0800E003 	j $31
 1094      00000000 
 1095              	.end _ZN6NesMMU9Write4000Ejh
 1096              	$Lfe21:
 1097              	.size _ZN6NesMMU9Write4000Ejh,$Lfe21-_ZN6NesMMU9Write4000Ejh
 1098              	.align 2
 1099              	.p2align 3,,7
 1100              	.globl _ZN6NesMMU8Read4000Ej
 1101              	.ent _ZN6NesMMU8Read4000Ej
 1102              	_ZN6NesMMU8Read4000Ej:
 1103              	.frame $sp,0,$31
 1104              	.mask 0x00000000,0
 1105              	.fmask 0x00000000,0
 1106 0710 02120500 	srl $2,$5,8
 1107              	.set noreorder
 1108              	.set nomacro
 1109 0714 0800E003 	j $31
 1110 0718 FF004230 	andi $2,$2,0x00ff
 1111              	.set macro
 1112              	.set reorder
 1113              	
 1114              	.end _ZN6NesMMU8Read4000Ej
 1115              	$Lfe22:
 1116              	.size _ZN6NesMMU8Read4000Ej,$Lfe22-_ZN6NesMMU8Read4000Ej
 1117              	.align 2
 1118 071c 00000000 	.p2align 3,,7
 1119              	.globl _ZN6NesMMU9SaveStateEPh
 1120              	.ent _ZN6NesMMU9SaveStateEPh
 1121              	_ZN6NesMMU9SaveStateEPh:
 1122              	.frame $sp,0,$31
 1123              	.mask 0x00000000,0
 1124              	.fmask 0x00000000,0
 1125 0720 0800E003 	j $31
 1125      00000000 
 1126              	.end _ZN6NesMMU9SaveStateEPh
 1127              	$Lfe23:
 1128              	.size _ZN6NesMMU9SaveStateEPh,$Lfe23-_ZN6NesMMU9SaveStateEPh
 1129              	.align 2
 1130              	.p2align 3,,7
 1131              	.globl _ZN6NesMMU12RestoreStateEPh
 1132              	.ent _ZN6NesMMU12RestoreStateEPh
GAS LISTING  			page 21


 1133              	_ZN6NesMMU12RestoreStateEPh:
 1134              	.frame $sp,0,$31
 1135              	.mask 0x00000000,0
 1136              	.fmask 0x00000000,0
 1137 0728 0800E003 	j $31
 1137      00000000 
 1138              	.end _ZN6NesMMU12RestoreStateEPh
 1139              	$Lfe24:
 1140              	.size _ZN6NesMMU12RestoreStateEPh,$Lfe24-_ZN6NesMMU12RestoreStateEPh
 1141              	.align 2
 1142              	.p2align 3,,7
 1143              	.globl _Z9NesMMUNew7NesMMUE
 1144              	.ent _Z9NesMMUNew7NesMMUE
 1145              	_Z9NesMMUNew7NesMMUE:
 1146              	.frame $sp,32,$31
 1147              	.mask 0x80010000,-16
 1148              	.fmask 0x00000000,0
 1149 0730 E0FFBD27 	subu $sp,$sp,32
 1150 0734 05000224 	li $2,5
 1151 0738 1000BFFF 	sd $31,16($sp)
 1152              	.set noreorder
 1153              	.set nomacro
 1154 073c 92008210 	beq $4,$2,$L80
 1155 0740 0000B0FF 	sd $16,0($sp)
 1156              	.set macro
 1157              	.set reorder
 1158              	
 1159 0744 06008228 	slt $2,$4,6
 1160              	.set noreorder
 1161              	.set nomacro
 1162 0748 43004010 	beq $2,$0,$L90
 1163 074c 0B000224 	li $2,11
 1164              	.set macro
 1165              	.set reorder
 1166              	
 1167 0750 02000224 	li $2,2
 1168 0754 37008210 	beq $4,$2,$L66
 1168      00000000 
 1169 075c 03008228 	slt $2,$4,3
 1170              	.set noreorder
 1171              	.set nomacro
 1172 0760 1D004010 	beq $2,$0,$L91
 1173 0764 03000224 	li $2,3
 1174              	.set macro
 1175              	.set reorder
 1176              	
 1177              	.set noreorder
 1178              	.set nomacro
 1179 0768 13008010 	beq $4,$0,$L65
 1180 076c 01000224 	li $2,1
 1181              	.set macro
 1182              	.set reorder
 1183              	
 1184 0770 07008210 	beq $4,$2,$L70
 1184      00000000 
 1185 0778 2D180000 	move $3,$0
 1186              	$L63:
GAS LISTING  			page 22


 1187 077c 1000BFDF 	ld $31,16($sp)
 1188 0780 2D106000 	move $2,$3
 1189 0784 0000B0DF 	ld $16,0($sp)
 1190              	
 1191              	.set noreorder
 1192              	.set nomacro
 1193 0788 0800E003 	j $31
 1194 078c 2000BD27 	addu $sp,$sp,32
 1195              	.set macro
 1196              	.set reorder
 1197              	
 1198              	$L70:
 1199              	.set noreorder
 1200              	.set nomacro
 1201 0790 0000000C 	jal _Znwj
 1202 0794 60020424 	li $4,608
 1203              	.set macro
 1204              	.set reorder
 1205              	
 1206 0798 2D204000 	move $4,$2
 1207              	.set noreorder
 1208              	.set nomacro
 1209 079c 0000000C 	jal _ZN6NesMMUC2Ev
 1210 07a0 2D804000 	move $16,$2
 1211              	.set macro
 1212              	.set reorder
 1213              	
 1214 07a4 0000023C 	lui $2,%hi(_ZTV11NesMMU_MMC1+8)
 1215 07a8 2D180002 	move $3,$16
 1216 07ac 08004224 	addiu $2,$2,%lo(_ZTV11NesMMU_MMC1+8)
 1217              	.p2align 3
 1218              	$L94:
 1219              	.set noreorder
 1220              	.set nomacro
 1221 07b0 F2FF0010 	b $L63
 1222 07b4 000002AE 	sw $2,0($16)
 1223              	.set macro
 1224              	.set reorder
 1225              	
 1226              	$L65:
 1227              	.set noreorder
 1228              	.set nomacro
 1229 07b8 0000000C 	jal _Znwj
 1230 07bc 58020424 	li $4,600
 1231              	.set macro
 1232              	.set reorder
 1233              	
 1234 07c0 2D804000 	move $16,$2
 1235              	.set noreorder
 1236              	.set nomacro
 1237 07c4 0000000C 	jal _ZN6NesMMUC1Ev
 1238 07c8 2D204000 	move $4,$2
 1239              	.set macro
 1240              	.set reorder
 1241              	
 1242              	.set noreorder
 1243              	.set nomacro
GAS LISTING  			page 23


 1244 07cc EBFF0010 	b $L63
 1245 07d0 2D180002 	move $3,$16
 1246              	.set macro
 1247              	.set reorder
 1248              	
 1249 07d4 00000000 	.p2align 3
 1250              	$L91:
 1251 07d8 0D008210 	beq $4,$2,$L68
 1251      00000000 
 1252 07e0 04000224 	li $2,4
 1253              	.set noreorder
 1254              	.set nomacro
 1255 07e4 E5FF8254 	bnel $4,$2,$L63
 1256 07e8 2D180000 	move $3,$0
 1257              	.set macro
 1258              	.set reorder
 1259              	
 1260              	.set noreorder
 1261              	.set nomacro
 1262 07ec 0000000C 	jal _Znwj
 1263 07f0 60020424 	li $4,608
 1264              	.set macro
 1265              	.set reorder
 1266              	
 1267 07f4 2D204000 	move $4,$2
 1268              	.set noreorder
 1269              	.set nomacro
 1270 07f8 0000000C 	jal _ZN6NesMMUC2Ev
 1271 07fc 2D804000 	move $16,$2
 1272              	.set macro
 1273              	.set reorder
 1274              	
 1275 0800 0000023C 	lui $2,%hi(_ZTV11NesMMU_MMC3+8)
 1276 0804 2D180002 	move $3,$16
 1277              	.set noreorder
 1278              	.set nomacro
 1279 0808 E9FF0010 	b $L94
 1280 080c 08004224 	addiu $2,$2,%lo(_ZTV11NesMMU_MMC3+8)
 1281              	.set macro
 1282              	.set reorder
 1283              	
 1284              	$L68:
 1285              	.set noreorder
 1286              	.set nomacro
 1287 0810 0000000C 	jal _Znwj
 1288 0814 58020424 	li $4,600
 1289              	.set macro
 1290              	.set reorder
 1291              	
 1292 0818 2D204000 	move $4,$2
 1293              	.set noreorder
 1294              	.set nomacro
 1295 081c 0000000C 	jal _ZN6NesMMUC2Ev
 1296 0820 2D804000 	move $16,$2
 1297              	.set macro
 1298              	.set reorder
 1299              	
GAS LISTING  			page 24


 1300 0824 0000023C 	lui $2,%hi(_ZTV12NesMMU_CNROM+8)
 1301 0828 2D180002 	move $3,$16
 1302              	.set noreorder
 1303              	.set nomacro
 1304 082c E0FF0010 	b $L94
 1305 0830 08004224 	addiu $2,$2,%lo(_ZTV12NesMMU_CNROM+8)
 1306              	.set macro
 1307              	.set reorder
 1308              	
 1309              	$L66:
 1310              	.set noreorder
 1311              	.set nomacro
 1312 0834 0000000C 	jal _Znwj
 1313 0838 58020424 	li $4,600
 1314              	.set macro
 1315              	.set reorder
 1316              	
 1317 083c 2D204000 	move $4,$2
 1318              	.set noreorder
 1319              	.set nomacro
 1320 0840 0000000C 	jal _ZN6NesMMUC2Ev
 1321 0844 2D804000 	move $16,$2
 1322              	.set macro
 1323              	.set reorder
 1324              	
 1325 0848 0000023C 	lui $2,%hi(_ZTV12NesMMU_UNROM+8)
 1326 084c 2D180002 	move $3,$16
 1327              	.set noreorder
 1328              	.set nomacro
 1329 0850 D7FF0010 	b $L94
 1330 0854 08004224 	addiu $2,$2,%lo(_ZTV12NesMMU_UNROM+8)
 1331              	.set macro
 1332              	.set reorder
 1333              	
 1334              	.p2align 3
 1335              	$L90:
 1336 0858 42008210 	beq $4,$2,$L78
 1336      00000000 
 1337 0860 0C008228 	slt $2,$4,12
 1338              	.set noreorder
 1339              	.set nomacro
 1340 0864 1A004010 	beq $2,$0,$L92
 1341 0868 42000224 	li $2,66
 1342              	.set macro
 1343              	.set reorder
 1344              	
 1345 086c 07000224 	li $2,7
 1346 0870 0D008210 	beq $4,$2,$L72
 1346      00000000 
 1347 0878 09000224 	li $2,9
 1348              	.set noreorder
 1349              	.set nomacro
 1350 087c BFFF8254 	bnel $4,$2,$L63
 1351 0880 2D180000 	move $3,$0
 1352              	.set macro
 1353              	.set reorder
 1354              	
GAS LISTING  			page 25


 1355              	.set noreorder
 1356              	.set nomacro
 1357 0884 0000000C 	jal _Znwj
 1358 0888 60020424 	li $4,608
 1359              	.set macro
 1360              	.set reorder
 1361              	
 1362 088c 2D204000 	move $4,$2
 1363              	.set noreorder
 1364              	.set nomacro
 1365 0890 0000000C 	jal _ZN6NesMMUC2Ev
 1366 0894 2D804000 	move $16,$2
 1367              	.set macro
 1368              	.set reorder
 1369              	
 1370 0898 0000023C 	lui $2,%hi(_ZTV11NesMMU_MMC2+8)
 1371 089c 2D180002 	move $3,$16
 1372              	.set noreorder
 1373              	.set nomacro
 1374 08a0 C3FF0010 	b $L94
 1375 08a4 08004224 	addiu $2,$2,%lo(_ZTV11NesMMU_MMC2+8)
 1376              	.set macro
 1377              	.set reorder
 1378              	
 1379              	$L72:
 1380              	.set noreorder
 1381              	.set nomacro
 1382 08a8 0000000C 	jal _Znwj
 1383 08ac 58020424 	li $4,600
 1384              	.set macro
 1385              	.set reorder
 1386              	
 1387 08b0 2D204000 	move $4,$2
 1388              	.set noreorder
 1389              	.set nomacro
 1390 08b4 0000000C 	jal _ZN6NesMMUC2Ev
 1391 08b8 2D804000 	move $16,$2
 1392              	.set macro
 1393              	.set reorder
 1394              	
 1395 08bc 0000023C 	lui $2,%hi(_ZTV12NesMMU_AOROM+8)
 1396 08c0 2D180002 	move $3,$16
 1397              	.set noreorder
 1398              	.set nomacro
 1399 08c4 BAFF0010 	b $L94
 1400 08c8 08004224 	addiu $2,$2,%lo(_ZTV12NesMMU_AOROM+8)
 1401              	.set macro
 1402              	.set reorder
 1403              	
 1404 08cc 00000000 	.p2align 3
 1405              	$L92:
 1406 08d0 1B008210 	beq $4,$2,$L84
 1406      00000000 
 1407 08d8 43008228 	slt $2,$4,67
 1408              	.set noreorder
 1409              	.set nomacro
 1410 08dc 0D004010 	beq $2,$0,$L93
GAS LISTING  			page 26


 1411 08e0 FF000224 	li $2,255
 1412              	.set macro
 1413              	.set reorder
 1414              	
 1415 08e4 0F000224 	li $2,15
 1416              	.set noreorder
 1417              	.set nomacro
 1418 08e8 A4FF8254 	bnel $4,$2,$L63
 1419 08ec 2D180000 	move $3,$0
 1420              	.set macro
 1421              	.set reorder
 1422              	
 1423              	.set noreorder
 1424              	.set nomacro
 1425 08f0 0000000C 	jal _Znwj
 1426 08f4 58020424 	li $4,600
 1427              	.set macro
 1428              	.set reorder
 1429              	
 1430 08f8 2D204000 	move $4,$2
 1431              	.set noreorder
 1432              	.set nomacro
 1433 08fc 0000000C 	jal _ZN6NesMMUC2Ev
 1434 0900 2D804000 	move $16,$2
 1435              	.set macro
 1436              	.set reorder
 1437              	
 1438 0904 0000023C 	lui $2,%hi(_ZTV13NesMMU_100in1+8)
 1439 0908 2D180002 	move $3,$16
 1440              	.set noreorder
 1441              	.set nomacro
 1442 090c A8FF0010 	b $L94
 1443 0910 08004224 	addiu $2,$2,%lo(_ZTV13NesMMU_100in1+8)
 1444              	.set macro
 1445              	.set reorder
 1446              	
 1447              	$L93:
 1448              	.set noreorder
 1449              	.set nomacro
 1450 0914 99FF8254 	bnel $4,$2,$L63
 1451 0918 2D180000 	move $3,$0
 1452              	.set macro
 1453              	.set reorder
 1454              	
 1455              	.set noreorder
 1456              	.set nomacro
 1457 091c 0000000C 	jal _Znwj
 1458 0920 74020424 	li $4,628
 1459              	.set macro
 1460              	.set reorder
 1461              	
 1462 0924 2D204000 	move $4,$2
 1463              	.set noreorder
 1464              	.set nomacro
 1465 0928 0000000C 	jal _ZN6NesMMUC2Ev
 1466 092c 2D804000 	move $16,$2
 1467              	.set macro
GAS LISTING  			page 27


 1468              	.set reorder
 1469              	
 1470 0930 0000023C 	lui $2,%hi(_ZTV10NesMMU_FDS+8)
 1471 0934 2D180002 	move $3,$16
 1472              	.set noreorder
 1473              	.set nomacro
 1474 0938 9DFF0010 	b $L94
 1475 093c 08004224 	addiu $2,$2,%lo(_ZTV10NesMMU_FDS+8)
 1476              	.set macro
 1477              	.set reorder
 1478              	
 1479              	$L84:
 1480              	.set noreorder
 1481              	.set nomacro
 1482 0940 0000000C 	jal _Znwj
 1483 0944 58020424 	li $4,600
 1484              	.set macro
 1485              	.set reorder
 1486              	
 1487 0948 2D204000 	move $4,$2
 1488              	.set noreorder
 1489              	.set nomacro
 1490 094c 0000000C 	jal _ZN6NesMMUC2Ev
 1491 0950 2D804000 	move $16,$2
 1492              	.set macro
 1493              	.set reorder
 1494              	
 1495 0954 0000023C 	lui $2,%hi(_ZTV12NesMMU_GNROM+8)
 1496 0958 2D180002 	move $3,$16
 1497              	.set noreorder
 1498              	.set nomacro
 1499 095c 94FF0010 	b $L94
 1500 0960 08004224 	addiu $2,$2,%lo(_ZTV12NesMMU_GNROM+8)
 1501              	.set macro
 1502              	.set reorder
 1503              	
 1504              	$L78:
 1505              	.set noreorder
 1506              	.set nomacro
 1507 0964 0000000C 	jal _Znwj
 1508 0968 58020424 	li $4,600
 1509              	.set macro
 1510              	.set reorder
 1511              	
 1512 096c 2D204000 	move $4,$2
 1513              	.set noreorder
 1514              	.set nomacro
 1515 0970 0000000C 	jal _ZN6NesMMUC2Ev
 1516 0974 2D804000 	move $16,$2
 1517              	.set macro
 1518              	.set reorder
 1519              	
 1520 0978 0000023C 	lui $2,%hi(_ZTV18NesMMU_ColorDreams+8)
 1521 097c 2D180002 	move $3,$16
 1522              	.set noreorder
 1523              	.set nomacro
 1524 0980 8BFF0010 	b $L94
GAS LISTING  			page 28


 1525 0984 08004224 	addiu $2,$2,%lo(_ZTV18NesMMU_ColorDreams+8)
 1526              	.set macro
 1527              	.set reorder
 1528              	
 1529              	.p2align 3
 1530              	$L80:
 1531              	.set noreorder
 1532              	.set nomacro
 1533 0988 0000000C 	jal _Znwj
 1534 098c 60020424 	li $4,608
 1535              	.set macro
 1536              	.set reorder
 1537              	
 1538 0990 2D204000 	move $4,$2
 1539              	.set noreorder
 1540              	.set nomacro
 1541 0994 0000000C 	jal _ZN6NesMMUC2Ev
 1542 0998 2D804000 	move $16,$2
 1543              	.set macro
 1544              	.set reorder
 1545              	
 1546 099c 0000023C 	lui $2,%hi(_ZTV11NesMMU_MMC5+8)
 1547 09a0 2D180002 	move $3,$16
 1548              	.set noreorder
 1549              	.set nomacro
 1550 09a4 82FF0010 	b $L94
 1551 09a8 08004224 	addiu $2,$2,%lo(_ZTV11NesMMU_MMC5+8)
 1552              	.set macro
 1553              	.set reorder
 1554              	
 1555              	.end _Z9NesMMUNew7NesMMUE
 1556              	$Lfe25:
 1557              	.size _Z9NesMMUNew7NesMMUE,$Lfe25-_Z9NesMMUNew7NesMMUE
 1558              	.rdata
 1559 0014 00000000 	.align 3
 1560              	$LC7:
 1561 0018 4D4D4335 	.ascii "MMC5\000"
 1561      00
 1562 001d 000000   	.align 3
 1563              	$LC8:
 1564 0020 436F6C6F 	.ascii "ColorDreams\000"
 1564      72447265 
 1564      616D7300 
 1565 002c 00000000 	.align 3
 1566              	$LC1:
 1567 0030 554E524F 	.ascii "UNROM\000"
 1567      4D00
 1568 0036 0000     	.align 3
 1569              	$LC2:
 1570 0038 434E524F 	.ascii "CNROM\000"
 1570      4D00
 1571 003e 0000     	.align 3
 1572              	$LC0:
 1573 0040 4E6F6E65 	.ascii "None\000"
 1573      00
 1574 0045 000000   	.align 3
 1575              	$LC3:
GAS LISTING  			page 29


 1576 0048 4D4D4331 	.ascii "MMC1\000"
 1576      00
 1577 004d 000000   	.align 3
 1578              	$LC12:
 1579 0050 3C756E6B 	.ascii "<unknown>\000"
 1579      6E6F776E 
 1579      3E00
 1580 005a 00000000 	.align 3
 1580      0000
 1581              	$LC5:
 1582 0060 4D4D4333 	.ascii "MMC3\000"
 1582      00
 1583 0065 000000   	.align 3
 1584              	$LC10:
 1585 0068 474E524F 	.ascii "GNROM\000"
 1585      4D00
 1586 006e 0000     	.align 3
 1587              	$LC4:
 1588 0070 414F524F 	.ascii "AOROM\000"
 1588      4D00
 1589 0076 0000     	.align 3
 1590              	$LC6:
 1591 0078 4D4D4332 	.ascii "MMC2\000"
 1591      00
 1592 007d 000000   	.align 3
 1593              	$LC11:
 1594 0080 46616D69 	.ascii "Famicom Disk System\000"
 1594      636F6D20 
 1594      4469736B 
 1594      20537973 
 1594      74656D00 
 1595 0094 00000000 	.align 3
 1596              	$LC9:
 1597 0098 3130302D 	.ascii "100-in-1\000"
 1597      696E2D31 
 1597      00
 1598              	.text
 1599              	.align 2
 1600 09ac 00000000 	.p2align 3,,7
 1601              	.globl _Z13NesMMUGetName7NesMMUE
 1602              	.ent _Z13NesMMUGetName7NesMMUE
 1603              	_Z13NesMMUGetName7NesMMUE:
 1604              	.frame $sp,0,$31
 1605              	.mask 0x00000000,0
 1606              	.fmask 0x00000000,0
 1607 09b0 0000033C 	lui $3,%hi($LC7)
 1608 09b4 05000224 	li $2,5
 1609              	.set noreorder
 1610              	.set nomacro
 1611 09b8 15008210 	beq $4,$2,$L95
 1612 09bc 18006324 	addiu $3,$3,%lo($LC7)
 1613              	.set macro
 1614              	.set reorder
 1615              	
 1616 09c0 06008228 	slt $2,$4,6
 1617              	.set noreorder
 1618              	.set nomacro
GAS LISTING  			page 30


 1619 09c4 1C004050 	beql $2,$0,$L111
 1620 09c8 0000033C 	lui $3,%hi($LC8)
 1621              	.set macro
 1622              	.set reorder
 1623              	
 1624 09cc 0000033C 	lui $3,%hi($LC1)
 1625 09d0 02000224 	li $2,2
 1626              	.set noreorder
 1627              	.set nomacro
 1628 09d4 0E008210 	beq $4,$2,$L95
 1629 09d8 30006324 	addiu $3,$3,%lo($LC1)
 1630              	.set macro
 1631              	.set reorder
 1632              	
 1633 09dc 03008228 	slt $2,$4,3
 1634              	.set noreorder
 1635              	.set nomacro
 1636 09e0 0D004010 	beq $2,$0,$L112
 1637 09e4 0000033C 	lui $3,%hi($LC2)
 1638              	.set macro
 1639              	.set reorder
 1640              	
 1641 09e8 0000023C 	lui $2,%hi($LC0)
 1642              	.set noreorder
 1643              	.set nomacro
 1644 09ec 08008010 	beq $4,$0,$L95
 1645 09f0 40004324 	addiu $3,$2,%lo($LC0)
 1646              	.set macro
 1647              	.set reorder
 1648              	
 1649 09f4 0000033C 	lui $3,%hi($LC3)
 1650 09f8 01000224 	li $2,1
 1651 09fc 48006324 	addiu $3,$3,%lo($LC3)
 1652              	$L115:
 1653 0a00 03008210 	beq $4,$2,$L95
 1653      00000000 
 1654 0a08 0000023C 	lui $2,%hi($LC12)
 1655 0a0c 50004324 	addiu $3,$2,%lo($LC12)
 1656              	$L95:
 1657              	.set noreorder
 1658              	.set nomacro
 1659 0a10 0800E003 	j $31
 1660 0a14 2D106000 	move $2,$3
 1661              	.set macro
 1662              	.set reorder
 1663              	
 1664              	.p2align 3
 1665              	$L112:
 1666 0a18 03000224 	li $2,3
 1667              	.set noreorder
 1668              	.set nomacro
 1669 0a1c FCFF8210 	beq $4,$2,$L95
 1670 0a20 38006324 	addiu $3,$3,%lo($LC2)
 1671              	.set macro
 1672              	.set reorder
 1673              	
 1674 0a24 0000033C 	lui $3,%hi($LC5)
GAS LISTING  			page 31


 1675 0a28 04000224 	li $2,4
 1676              	.set noreorder
 1677              	.set nomacro
 1678 0a2c F4FF0010 	b $L115
 1679 0a30 60006324 	addiu $3,$3,%lo($LC5)
 1680              	.set macro
 1681              	.set reorder
 1682              	
 1683 0a34 00000000 	.p2align 3
 1684              	$L111:
 1685 0a38 0B000224 	li $2,11
 1686              	.set noreorder
 1687              	.set nomacro
 1688 0a3c F4FF8210 	beq $4,$2,$L95
 1689 0a40 20006324 	addiu $3,$3,%lo($LC8)
 1690              	.set macro
 1691              	.set reorder
 1692              	
 1693 0a44 0C008228 	slt $2,$4,12
 1694              	.set noreorder
 1695              	.set nomacro
 1696 0a48 09004050 	beql $2,$0,$L113
 1697 0a4c 0000033C 	lui $3,%hi($LC10)
 1698              	.set macro
 1699              	.set reorder
 1700              	
 1701 0a50 0000033C 	lui $3,%hi($LC4)
 1702 0a54 07000224 	li $2,7
 1703              	.set noreorder
 1704              	.set nomacro
 1705 0a58 EDFF8210 	beq $4,$2,$L95
 1706 0a5c 70006324 	addiu $3,$3,%lo($LC4)
 1707              	.set macro
 1708              	.set reorder
 1709              	
 1710 0a60 0000033C 	lui $3,%hi($LC6)
 1711 0a64 09000224 	li $2,9
 1712              	.set noreorder
 1713              	.set nomacro
 1714 0a68 E5FF0010 	b $L115
 1715 0a6c 78006324 	addiu $3,$3,%lo($LC6)
 1716              	.set macro
 1717              	.set reorder
 1718              	
 1719              	.p2align 3
 1720              	$L113:
 1721 0a70 42000224 	li $2,66
 1722              	.set noreorder
 1723              	.set nomacro
 1724 0a74 E6FF8210 	beq $4,$2,$L95
 1725 0a78 68006324 	addiu $3,$3,%lo($LC10)
 1726              	.set macro
 1727              	.set reorder
 1728              	
 1729 0a7c 43008228 	slt $2,$4,67
 1730              	.set noreorder
 1731              	.set nomacro
GAS LISTING  			page 32


 1732 0a80 05004050 	beql $2,$0,$L114
 1733 0a84 0000033C 	lui $3,%hi($LC11)
 1734              	.set macro
 1735              	.set reorder
 1736              	
 1737 0a88 0000033C 	lui $3,%hi($LC9)
 1738 0a8c 0F000224 	li $2,15
 1739              	.set noreorder
 1740              	.set nomacro
 1741 0a90 DBFF0010 	b $L115
 1742 0a94 98006324 	addiu $3,$3,%lo($LC9)
 1743              	.set macro
 1744              	.set reorder
 1745              	
 1746              	$L114:
 1747 0a98 FF000224 	li $2,255
 1748              	.set noreorder
 1749              	.set nomacro
 1750 0a9c D8FF0010 	b $L115
 1751 0aa0 80006324 	addiu $3,$3,%lo($LC11)
 1752              	.set macro
 1753              	.set reorder
 1754              	
 1755              	.end _Z13NesMMUGetName7NesMMUE
 1756              	$Lfe26:
 1757              	.size _Z13NesMMUGetName7NesMMUE,$Lfe26-_Z13NesMMUGetName7NesMMUE
 1758              	.weak _ZTV10NesMMU_FDS
 1759 0aa4 00000000 	.section .gnu.linkonce.d._ZTV10NesMMU_FDS,"aw",@progbits
 1760              	.align 3
 1761              	.type _ZTV10NesMMU_FDS,@object
 1762              	.size _ZTV10NesMMU_FDS,56
 1763              	_ZTV10NesMMU_FDS:
 1764 0000 00000000 	.word 0
 1765 0004 00000000 	.word 0
 1766 0008 00000000 	.word _ZN10NesMMU_FDS8ScanLineEi
 1767 000c 00000000 	.word _ZN10NesMMU_FDS5ResetEv
 1768 0010 00000000 	.word _ZN10NesMMU_FDS5WriteEjh
 1769 0014 00000000 	.word _ZN6NesMMU9Write5000Ejh
 1770 0018 00000000 	.word _ZN6NesMMU8Read5000Ej
 1771 001c 00000000 	.word _ZN10NesMMU_FDS9Write4000Ejh
 1772 0020 00000000 	.word _ZN10NesMMU_FDS8Read4000Ej
 1773 0024 00000000 	.word _ZN6NesMMU5LatchEt
 1774 0028 00000000 	.word _ZN6NesMMU13GetLatchTableEv
 1775 002c 00000000 	.word _ZN10NesMMU_FDS10InsertDiskEi
 1776 0030 00000000 	.word _ZN6NesMMU9SaveStateEPh
 1777 0034 00000000 	.word _ZN6NesMMU12RestoreStateEPh
 1778              	.weak _ZTV11NesMMU_MMC5
 1779              	.section .gnu.linkonce.d._ZTV11NesMMU_MMC5,"aw",@progbits
 1780              	.align 3
 1781              	.type _ZTV11NesMMU_MMC5,@object
 1782              	.size _ZTV11NesMMU_MMC5,56
 1783              	_ZTV11NesMMU_MMC5:
 1784 0000 00000000 	.word 0
 1785 0004 00000000 	.word 0
 1786 0008 00000000 	.word _ZN11NesMMU_MMC58ScanLineEi
 1787 000c 00000000 	.word _ZN11NesMMU_MMC55ResetEv
 1788 0010 00000000 	.word _ZN11NesMMU_MMC55WriteEjh
GAS LISTING  			page 33


 1789 0014 00000000 	.word _ZN11NesMMU_MMC59Write5000Ejh
 1790 0018 00000000 	.word _ZN11NesMMU_MMC58Read5000Ej
 1791 001c 00000000 	.word _ZN6NesMMU9Write4000Ejh
 1792 0020 00000000 	.word _ZN6NesMMU8Read4000Ej
 1793 0024 00000000 	.word _ZN6NesMMU5LatchEt
 1794 0028 00000000 	.word _ZN6NesMMU13GetLatchTableEv
 1795 002c 00000000 	.word _ZN6NesMMU10InsertDiskEi
 1796 0030 00000000 	.word _ZN6NesMMU9SaveStateEPh
 1797 0034 00000000 	.word _ZN6NesMMU12RestoreStateEPh
 1798              	.weak _ZTV11NesMMU_MMC2
 1799              	.section .gnu.linkonce.d._ZTV11NesMMU_MMC2,"aw",@progbits
 1800              	.align 3
 1801              	.type _ZTV11NesMMU_MMC2,@object
 1802              	.size _ZTV11NesMMU_MMC2,56
 1803              	_ZTV11NesMMU_MMC2:
 1804 0000 00000000 	.word 0
 1805 0004 00000000 	.word 0
 1806 0008 00000000 	.word _ZN6NesMMU8ScanLineEi
 1807 000c 00000000 	.word _ZN11NesMMU_MMC25ResetEv
 1808 0010 00000000 	.word _ZN11NesMMU_MMC25WriteEjh
 1809 0014 00000000 	.word _ZN6NesMMU9Write5000Ejh
 1810 0018 00000000 	.word _ZN6NesMMU8Read5000Ej
 1811 001c 00000000 	.word _ZN6NesMMU9Write4000Ejh
 1812 0020 00000000 	.word _ZN6NesMMU8Read4000Ej
 1813 0024 00000000 	.word _ZN11NesMMU_MMC25LatchEt
 1814 0028 00000000 	.word _ZN11NesMMU_MMC213GetLatchTableEv
 1815 002c 00000000 	.word _ZN6NesMMU10InsertDiskEi
 1816 0030 00000000 	.word _ZN11NesMMU_MMC29SaveStateEPh
 1817 0034 00000000 	.word _ZN11NesMMU_MMC212RestoreStateEPh
 1818              	.weak _ZTV11NesMMU_MMC3
 1819              	.section .gnu.linkonce.d._ZTV11NesMMU_MMC3,"aw",@progbits
 1820              	.align 3
 1821              	.type _ZTV11NesMMU_MMC3,@object
 1822              	.size _ZTV11NesMMU_MMC3,56
 1823              	_ZTV11NesMMU_MMC3:
 1824 0000 00000000 	.word 0
 1825 0004 00000000 	.word 0
 1826 0008 00000000 	.word _ZN11NesMMU_MMC38ScanLineEi
 1827 000c 00000000 	.word _ZN11NesMMU_MMC35ResetEv
 1828 0010 00000000 	.word _ZN11NesMMU_MMC35WriteEjh
 1829 0014 00000000 	.word _ZN6NesMMU9Write5000Ejh
 1830 0018 00000000 	.word _ZN6NesMMU8Read5000Ej
 1831 001c 00000000 	.word _ZN6NesMMU9Write4000Ejh
 1832 0020 00000000 	.word _ZN6NesMMU8Read4000Ej
 1833 0024 00000000 	.word _ZN6NesMMU5LatchEt
 1834 0028 00000000 	.word _ZN6NesMMU13GetLatchTableEv
 1835 002c 00000000 	.word _ZN6NesMMU10InsertDiskEi
 1836 0030 00000000 	.word _ZN11NesMMU_MMC39SaveStateEPh
 1837 0034 00000000 	.word _ZN11NesMMU_MMC312RestoreStateEPh
 1838              	.weak _ZTV13NesMMU_100in1
 1839              	.section .gnu.linkonce.d._ZTV13NesMMU_100in1,"aw",@progbits
 1840              	.align 3
 1841              	.type _ZTV13NesMMU_100in1,@object
 1842              	.size _ZTV13NesMMU_100in1,56
 1843              	_ZTV13NesMMU_100in1:
 1844 0000 00000000 	.word 0
 1845 0004 00000000 	.word 0
GAS LISTING  			page 34


 1846 0008 00000000 	.word _ZN6NesMMU8ScanLineEi
 1847 000c 00000000 	.word _ZN13NesMMU_100in15ResetEv
 1848 0010 00000000 	.word _ZN13NesMMU_100in15WriteEjh
 1849 0014 00000000 	.word _ZN6NesMMU9Write5000Ejh
 1850 0018 00000000 	.word _ZN6NesMMU8Read5000Ej
 1851 001c 00000000 	.word _ZN6NesMMU9Write4000Ejh
 1852 0020 00000000 	.word _ZN6NesMMU8Read4000Ej
 1853 0024 00000000 	.word _ZN6NesMMU5LatchEt
 1854 0028 00000000 	.word _ZN6NesMMU13GetLatchTableEv
 1855 002c 00000000 	.word _ZN6NesMMU10InsertDiskEi
 1856 0030 00000000 	.word _ZN6NesMMU9SaveStateEPh
 1857 0034 00000000 	.word _ZN6NesMMU12RestoreStateEPh
 1858              	.weak _ZTV18NesMMU_ColorDreams
 1859              	.section .gnu.linkonce.d._ZTV18NesMMU_ColorDreams,"aw",@progbits
 1860              	.align 3
 1861              	.type _ZTV18NesMMU_ColorDreams,@object
 1862              	.size _ZTV18NesMMU_ColorDreams,56
 1863              	_ZTV18NesMMU_ColorDreams:
 1864 0000 00000000 	.word 0
 1865 0004 00000000 	.word 0
 1866 0008 00000000 	.word _ZN6NesMMU8ScanLineEi
 1867 000c 00000000 	.word _ZN18NesMMU_ColorDreams5ResetEv
 1868 0010 00000000 	.word _ZN18NesMMU_ColorDreams5WriteEjh
 1869 0014 00000000 	.word _ZN6NesMMU9Write5000Ejh
 1870 0018 00000000 	.word _ZN6NesMMU8Read5000Ej
 1871 001c 00000000 	.word _ZN6NesMMU9Write4000Ejh
 1872 0020 00000000 	.word _ZN6NesMMU8Read4000Ej
 1873 0024 00000000 	.word _ZN6NesMMU5LatchEt
 1874 0028 00000000 	.word _ZN6NesMMU13GetLatchTableEv
 1875 002c 00000000 	.word _ZN6NesMMU10InsertDiskEi
 1876 0030 00000000 	.word _ZN6NesMMU9SaveStateEPh
 1877 0034 00000000 	.word _ZN6NesMMU12RestoreStateEPh
 1878              	.weak _ZTV12NesMMU_GNROM
 1879              	.section .gnu.linkonce.d._ZTV12NesMMU_GNROM,"aw",@progbits
 1880              	.align 3
 1881              	.type _ZTV12NesMMU_GNROM,@object
 1882              	.size _ZTV12NesMMU_GNROM,56
 1883              	_ZTV12NesMMU_GNROM:
 1884 0000 00000000 	.word 0
 1885 0004 00000000 	.word 0
 1886 0008 00000000 	.word _ZN6NesMMU8ScanLineEi
 1887 000c 00000000 	.word _ZN12NesMMU_GNROM5ResetEv
 1888 0010 00000000 	.word _ZN12NesMMU_GNROM5WriteEjh
 1889 0014 00000000 	.word _ZN6NesMMU9Write5000Ejh
 1890 0018 00000000 	.word _ZN6NesMMU8Read5000Ej
 1891 001c 00000000 	.word _ZN6NesMMU9Write4000Ejh
 1892 0020 00000000 	.word _ZN6NesMMU8Read4000Ej
 1893 0024 00000000 	.word _ZN6NesMMU5LatchEt
 1894 0028 00000000 	.word _ZN6NesMMU13GetLatchTableEv
 1895 002c 00000000 	.word _ZN6NesMMU10InsertDiskEi
 1896 0030 00000000 	.word _ZN6NesMMU9SaveStateEPh
 1897 0034 00000000 	.word _ZN6NesMMU12RestoreStateEPh
 1898              	.weak _ZTV12NesMMU_AOROM
 1899              	.section .gnu.linkonce.d._ZTV12NesMMU_AOROM,"aw",@progbits
 1900              	.align 3
 1901              	.type _ZTV12NesMMU_AOROM,@object
 1902              	.size _ZTV12NesMMU_AOROM,56
GAS LISTING  			page 35


 1903              	_ZTV12NesMMU_AOROM:
 1904 0000 00000000 	.word 0
 1905 0004 00000000 	.word 0
 1906 0008 00000000 	.word _ZN6NesMMU8ScanLineEi
 1907 000c 00000000 	.word _ZN12NesMMU_AOROM5ResetEv
 1908 0010 00000000 	.word _ZN12NesMMU_AOROM5WriteEjh
 1909 0014 00000000 	.word _ZN6NesMMU9Write5000Ejh
 1910 0018 00000000 	.word _ZN6NesMMU8Read5000Ej
 1911 001c 00000000 	.word _ZN6NesMMU9Write4000Ejh
 1912 0020 00000000 	.word _ZN6NesMMU8Read4000Ej
 1913 0024 00000000 	.word _ZN6NesMMU5LatchEt
 1914 0028 00000000 	.word _ZN6NesMMU13GetLatchTableEv
 1915 002c 00000000 	.word _ZN6NesMMU10InsertDiskEi
 1916 0030 00000000 	.word _ZN6NesMMU9SaveStateEPh
 1917 0034 00000000 	.word _ZN6NesMMU12RestoreStateEPh
 1918              	.weak _ZTV12NesMMU_CNROM
 1919              	.section .gnu.linkonce.d._ZTV12NesMMU_CNROM,"aw",@progbits
 1920              	.align 3
 1921              	.type _ZTV12NesMMU_CNROM,@object
 1922              	.size _ZTV12NesMMU_CNROM,56
 1923              	_ZTV12NesMMU_CNROM:
 1924 0000 00000000 	.word 0
 1925 0004 00000000 	.word 0
 1926 0008 00000000 	.word _ZN6NesMMU8ScanLineEi
 1927 000c 00000000 	.word _ZN6NesMMU5ResetEv
 1928 0010 00000000 	.word _ZN12NesMMU_CNROM5WriteEjh
 1929 0014 00000000 	.word _ZN6NesMMU9Write5000Ejh
 1930 0018 00000000 	.word _ZN6NesMMU8Read5000Ej
 1931 001c 00000000 	.word _ZN6NesMMU9Write4000Ejh
 1932 0020 00000000 	.word _ZN6NesMMU8Read4000Ej
 1933 0024 00000000 	.word _ZN6NesMMU5LatchEt
 1934 0028 00000000 	.word _ZN6NesMMU13GetLatchTableEv
 1935 002c 00000000 	.word _ZN6NesMMU10InsertDiskEi
 1936 0030 00000000 	.word _ZN6NesMMU9SaveStateEPh
 1937 0034 00000000 	.word _ZN6NesMMU12RestoreStateEPh
 1938              	.weak _ZTV12NesMMU_UNROM
 1939              	.section .gnu.linkonce.d._ZTV12NesMMU_UNROM,"aw",@progbits
 1940              	.align 3
 1941              	.type _ZTV12NesMMU_UNROM,@object
 1942              	.size _ZTV12NesMMU_UNROM,56
 1943              	_ZTV12NesMMU_UNROM:
 1944 0000 00000000 	.word 0
 1945 0004 00000000 	.word 0
 1946 0008 00000000 	.word _ZN6NesMMU8ScanLineEi
 1947 000c 00000000 	.word _ZN6NesMMU5ResetEv
 1948 0010 00000000 	.word _ZN12NesMMU_UNROM5WriteEjh
 1949 0014 00000000 	.word _ZN6NesMMU9Write5000Ejh
 1950 0018 00000000 	.word _ZN6NesMMU8Read5000Ej
 1951 001c 00000000 	.word _ZN6NesMMU9Write4000Ejh
 1952 0020 00000000 	.word _ZN6NesMMU8Read4000Ej
 1953 0024 00000000 	.word _ZN6NesMMU5LatchEt
 1954 0028 00000000 	.word _ZN6NesMMU13GetLatchTableEv
 1955 002c 00000000 	.word _ZN6NesMMU10InsertDiskEi
 1956 0030 00000000 	.word _ZN6NesMMU9SaveStateEPh
 1957 0034 00000000 	.word _ZN6NesMMU12RestoreStateEPh
 1958              	.weak _ZTV11NesMMU_MMC1
 1959              	.section .gnu.linkonce.d._ZTV11NesMMU_MMC1,"aw",@progbits
GAS LISTING  			page 36


 1960              	.align 3
 1961              	.type _ZTV11NesMMU_MMC1,@object
 1962              	.size _ZTV11NesMMU_MMC1,56
 1963              	_ZTV11NesMMU_MMC1:
 1964 0000 00000000 	.word 0
 1965 0004 00000000 	.word 0
 1966 0008 00000000 	.word _ZN6NesMMU8ScanLineEi
 1967 000c 00000000 	.word _ZN11NesMMU_MMC15ResetEv
 1968 0010 00000000 	.word _ZN11NesMMU_MMC15WriteEjh
 1969 0014 00000000 	.word _ZN6NesMMU9Write5000Ejh
 1970 0018 00000000 	.word _ZN6NesMMU8Read5000Ej
 1971 001c 00000000 	.word _ZN6NesMMU9Write4000Ejh
 1972 0020 00000000 	.word _ZN6NesMMU8Read4000Ej
 1973 0024 00000000 	.word _ZN6NesMMU5LatchEt
 1974 0028 00000000 	.word _ZN6NesMMU13GetLatchTableEv
 1975 002c 00000000 	.word _ZN6NesMMU10InsertDiskEi
 1976 0030 00000000 	.word _ZN11NesMMU_MMC19SaveStateEPh
 1977 0034 00000000 	.word _ZN11NesMMU_MMC112RestoreStateEPh
 1978              	.weak _ZTV6NesMMU
 1979              	.section .gnu.linkonce.d._ZTV6NesMMU,"aw",@progbits
 1980              	.align 3
 1981              	.type _ZTV6NesMMU,@object
 1982              	.size _ZTV6NesMMU,56
 1983              	_ZTV6NesMMU:
 1984 0000 00000000 	.word 0
 1985 0004 00000000 	.word 0
 1986 0008 00000000 	.word _ZN6NesMMU8ScanLineEi
 1987 000c 00000000 	.word _ZN6NesMMU5ResetEv
 1988 0010 00000000 	.word _ZN6NesMMU5WriteEjh
 1989 0014 00000000 	.word _ZN6NesMMU9Write5000Ejh
 1990 0018 00000000 	.word _ZN6NesMMU8Read5000Ej
 1991 001c 00000000 	.word _ZN6NesMMU9Write4000Ejh
 1992 0020 00000000 	.word _ZN6NesMMU8Read4000Ej
 1993 0024 00000000 	.word _ZN6NesMMU5LatchEt
 1994 0028 00000000 	.word _ZN6NesMMU13GetLatchTableEv
 1995 002c 00000000 	.word _ZN6NesMMU10InsertDiskEi
 1996 0030 00000000 	.word _ZN6NesMMU9SaveStateEPh
 1997 0034 00000000 	.word _ZN6NesMMU12RestoreStateEPh
 1998              	.section .gnu.linkonce.t._ZN6NesMMU10InsertDiskEi,"ax",@progbits
 1999              	.align 2
 2000              	.p2align 3,,7
 2001              	.weak _ZN6NesMMU10InsertDiskEi
 2002              	.ent _ZN6NesMMU10InsertDiskEi
 2003              	_ZN6NesMMU10InsertDiskEi:
 2004              	.frame $sp,0,$31
 2005              	.mask 0x00000000,0
 2006              	.fmask 0x00000000,0
 2007 0000 0800E003 	j $31
 2007      00000000 
 2008              	.end _ZN6NesMMU10InsertDiskEi
 2009              	$Lfe27:
 2010              	.size _ZN6NesMMU10InsertDiskEi,$Lfe27-_ZN6NesMMU10InsertDiskEi
 2011              	.section .gnu.linkonce.t._ZN11NesMMU_MMC19SaveStateEPh,"ax",@progbits
 2012              	.align 2
 2013              	.p2align 3,,7
 2014              	.weak _ZN11NesMMU_MMC19SaveStateEPh
 2015              	.ent _ZN11NesMMU_MMC19SaveStateEPh
GAS LISTING  			page 37


 2016              	_ZN11NesMMU_MMC19SaveStateEPh:
 2017              	.frame $sp,0,$31
 2018              	.mask 0x00000000,0
 2019              	.fmask 0x00000000,0
 2020 0000 58028290 	lbu $2,600($4)
 2021              	
 2022 0004 0000A2A0 	sb $2,0($5)
 2023 0008 59028390 	lbu $3,601($4)
 2024              	
 2025 000c 0100A3A0 	sb $3,1($5)
 2026 0010 5A028290 	lbu $2,602($4)
 2027              	
 2028 0014 0200A2A0 	sb $2,2($5)
 2029 0018 5B028390 	lbu $3,603($4)
 2030              	
 2031 001c 0300A3A0 	sb $3,3($5)
 2032 0020 5C028290 	lbu $2,604($4)
 2033              	
 2034 0024 0400A2A0 	sb $2,4($5)
 2035 0028 5D028390 	lbu $3,605($4)
 2036              	.set noreorder
 2037              	.set nomacro
 2038 002c 0800E003 	j $31
 2039 0030 0500A3A0 	sb $3,5($5)
 2040              	.set macro
 2041              	.set reorder
 2042              	
 2043              	.end _ZN11NesMMU_MMC19SaveStateEPh
 2044              	$Lfe28:
 2045              	.size _ZN11NesMMU_MMC19SaveStateEPh,$Lfe28-_ZN11NesMMU_MMC19SaveStateEPh
 2046 0034 00000000 	.section .gnu.linkonce.t._ZN11NesMMU_MMC112RestoreStateEPh,"ax",@progbits
 2047              	.align 2
 2048              	.p2align 3,,7
 2049              	.weak _ZN11NesMMU_MMC112RestoreStateEPh
 2050              	.ent _ZN11NesMMU_MMC112RestoreStateEPh
 2051              	_ZN11NesMMU_MMC112RestoreStateEPh:
 2052              	.frame $sp,0,$31
 2053              	.mask 0x00000000,0
 2054              	.fmask 0x00000000,0
 2055 0000 0000A290 	lbu $2,0($5)
 2056              	
 2057 0004 580282A0 	sb $2,600($4)
 2058 0008 0100A390 	lbu $3,1($5)
 2059              	
 2060 000c 590283A0 	sb $3,601($4)
 2061 0010 0200A290 	lbu $2,2($5)
 2062              	
 2063 0014 5A0282A0 	sb $2,602($4)
 2064 0018 0300A390 	lbu $3,3($5)
 2065              	
 2066 001c 5B0283A0 	sb $3,603($4)
 2067 0020 0400A290 	lbu $2,4($5)
 2068              	
 2069 0024 5C0282A0 	sb $2,604($4)
 2070 0028 0500A390 	lbu $3,5($5)
 2071              	.set noreorder
 2072              	.set nomacro
GAS LISTING  			page 38


 2073 002c 0800E003 	j $31
 2074 0030 5D0283A0 	sb $3,605($4)
 2075              	.set macro
 2076              	.set reorder
 2077              	
 2078              	.end _ZN11NesMMU_MMC112RestoreStateEPh
 2079              	$Lfe29:
 2080              	.size _ZN11NesMMU_MMC112RestoreStateEPh,$Lfe29-_ZN11NesMMU_MMC112RestoreStateEPh
 2081 0034 00000000 	.section .gnu.linkonce.t._ZN11NesMMU_MMC15ResetEv,"ax",@progbits
 2082              	.align 2
 2083              	.p2align 3,,7
 2084              	.weak _ZN11NesMMU_MMC15ResetEv
 2085              	.ent _ZN11NesMMU_MMC15ResetEv
 2086              	_ZN11NesMMU_MMC15ResetEv:
 2087              	.frame $sp,32,$31
 2088              	.mask 0x80010000,-16
 2089              	.fmask 0x00000000,0
 2090 0000 E0FFBD27 	subu $sp,$sp,32
 2091 0004 0000B0FF 	sd $16,0($sp)
 2092 0008 1000BFFF 	sd $31,16($sp)
 2093              	.set noreorder
 2094              	.set nomacro
 2095 000c 0000000C 	jal _ZN6NesMMU5ResetEv
 2096 0010 2D808000 	move $16,$4
 2097              	.set macro
 2098              	.set reorder
 2099              	
 2100 0014 590200A2 	sb $0,601($16)
 2101 0018 2D200002 	move $4,$16
 2102 001c 580200A2 	sb $0,600($16)
 2103 0020 2D280000 	move $5,$0
 2104 0024 5A0200A2 	sb $0,602($16)
 2105 0028 0C000624 	li $6,12
 2106 002c 5B0200A2 	sb $0,603($16)
 2107 0030 5C0200A2 	sb $0,604($16)
 2108              	.set noreorder
 2109              	.set nomacro
 2110 0034 0000000C 	jal _ZN11NesMMU_MMC18WriteRegEhh
 2111 0038 5D0200A2 	sb $0,605($16)
 2112              	.set macro
 2113              	.set reorder
 2114              	
 2115 003c 0000B0DF 	ld $16,0($sp)
 2116 0040 1000BFDF 	ld $31,16($sp)
 2117              	
 2118              	.set noreorder
 2119              	.set nomacro
 2120 0044 0800E003 	j $31
 2121 0048 2000BD27 	addu $sp,$sp,32
 2122              	.set macro
 2123              	.set reorder
 2124              	
 2125              	.end _ZN11NesMMU_MMC15ResetEv
 2126              	$Lfe30:
 2127              	.size _ZN11NesMMU_MMC15ResetEv,$Lfe30-_ZN11NesMMU_MMC15ResetEv
 2128 004c 00000000 	.section .gnu.linkonce.t._ZN11NesMMU_MMC15WriteEjh,"ax",@progbits
 2129              	.align 2
GAS LISTING  			page 39


 2130              	.p2align 3,,7
 2131              	.weak _ZN11NesMMU_MMC15WriteEjh
 2132              	.ent _ZN11NesMMU_MMC15WriteEjh
 2133              	_ZN11NesMMU_MMC15WriteEjh:
 2134              	.frame $sp,32,$31
 2135              	.mask 0x80010000,-16
 2136              	.fmask 0x00000000,0
 2137 0000 FF00C630 	andi $6,$6,0x00ff
 2138 0004 E0FFBD27 	subu $sp,$sp,32
 2139 0008 0100C230 	andi $2,$6,0x1
 2140 000c 0000B0FF 	sd $16,0($sp)
 2141 0010 8000C630 	andi $6,$6,0x80
 2142 0014 2D38A000 	move $7,$5
 2143 0018 1000BFFF 	sd $31,16($sp)
 2144 001c 2D808000 	move $16,$4
 2145              	.set noreorder
 2146              	.set nomacro
 2147 0020 1B00C014 	bne $6,$0,$L127
 2148 0024 2D280000 	move $5,$0
 2149              	.set macro
 2150              	.set reorder
 2151              	
 2152              	.set noreorder
 2153              	.set nomacro
 2154 0028 06004010 	beq $2,$0,$L123
 2155 002c 58028690 	lbu $6,600($4)
 2156              	.set macro
 2157              	.set reorder
 2158              	
 2159 0030 01000224 	li $2,1
 2160 0034 59028390 	lbu $3,601($4)
 2161 0038 0410C200 	sll $2,$2,$6
 2162 003c 25186200 	or $3,$3,$2
 2163 0040 590283A0 	sb $3,601($4)
 2164              	$L123:
 2165 0044 0100C324 	addu $3,$6,1
 2166 0048 422B0700 	srl $5,$7,13
 2167 004c FF006230 	andi $2,$3,0x00ff
 2168 0050 0300A530 	andi $5,$5,0x3
 2169 0054 0500422C 	sltu $2,$2,5
 2170              	.set noreorder
 2171              	.set nomacro
 2172 0058 05004010 	beq $2,$0,$L128
 2173 005c 580203A2 	sb $3,600($16)
 2174              	.set macro
 2175              	.set reorder
 2176              	
 2177              	$L120:
 2178 0060 1000BFDF 	ld $31,16($sp)
 2179 0064 0000B0DF 	ld $16,0($sp)
 2180              	
 2181              	.set noreorder
 2182              	.set nomacro
 2183 0068 0800E003 	j $31
 2184 006c 2000BD27 	addu $sp,$sp,32
 2185              	.set macro
 2186              	.set reorder
GAS LISTING  			page 40


 2187              	
 2188              	.p2align 3
 2189              	$L128:
 2190 0070 59020692 	lbu $6,601($16)
 2191              	
 2192 0074 1F00C630 	andi $6,$6,0x1f
 2193              	$L126:
 2194 0078 0000000C 	jal _ZN11NesMMU_MMC18WriteRegEhh
 2194      00000000 
 2195 0080 580200A2 	sb $0,600($16)
 2196              	.set noreorder
 2197              	.set nomacro
 2198 0084 F6FF0010 	b $L120
 2199 0088 590200A2 	sb $0,601($16)
 2200              	.set macro
 2201              	.set reorder
 2202              	
 2203 008c 00000000 	.p2align 3
 2204              	$L127:
 2205 0090 5A028690 	lbu $6,602($4)
 2206              	.set noreorder
 2207              	.set nomacro
 2208 0094 F8FF0010 	b $L126
 2209 0098 0C00C634 	ori $6,$6,0xc
 2210              	.set macro
 2211              	.set reorder
 2212              	
 2213              	.end _ZN11NesMMU_MMC15WriteEjh
 2214              	$Lfe31:
 2215              	.size _ZN11NesMMU_MMC15WriteEjh,$Lfe31-_ZN11NesMMU_MMC15WriteEjh
 2216 009c 00000000 	.section .gnu.linkonce.t._ZN12NesMMU_UNROM5WriteEjh,"ax",@progbits
 2217              	.align 2
 2218              	.p2align 3,,7
 2219              	.weak _ZN12NesMMU_UNROM5WriteEjh
 2220              	.ent _ZN12NesMMU_UNROM5WriteEjh
 2221              	_ZN12NesMMU_UNROM5WriteEjh:
 2222              	.frame $sp,16,$31
 2223              	.mask 0x80000000,-16
 2224              	.fmask 0x00000000,0
 2225 0000 F0FFBD27 	subu $sp,$sp,16
 2226 0004 2D280000 	move $5,$0
 2227 0008 0000BFFF 	sd $31,0($sp)
 2228              	.set noreorder
 2229              	.set nomacro
 2230 000c 0000000C 	jal _ZN6NesMMU12SetPrgRom16KEjj
 2231 0010 FF00C630 	andi $6,$6,0x00ff
 2232              	.set macro
 2233              	.set reorder
 2234              	
 2235 0014 0000BFDF 	ld $31,0($sp)
 2236              	
 2237              	.set noreorder
 2238              	.set nomacro
 2239 0018 0800E003 	j $31
 2240 001c 1000BD27 	addu $sp,$sp,16
 2241              	.set macro
 2242              	.set reorder
GAS LISTING  			page 41


 2243              	
 2244              	.end _ZN12NesMMU_UNROM5WriteEjh
 2245              	$Lfe32:
 2246              	.size _ZN12NesMMU_UNROM5WriteEjh,$Lfe32-_ZN12NesMMU_UNROM5WriteEjh
 2247              	.section .gnu.linkonce.t._ZN12NesMMU_CNROM5WriteEjh,"ax",@progbits
 2248              	.align 2
 2249              	.p2align 3,,7
 2250              	.weak _ZN12NesMMU_CNROM5WriteEjh
 2251              	.ent _ZN12NesMMU_CNROM5WriteEjh
 2252              	_ZN12NesMMU_CNROM5WriteEjh:
 2253              	.frame $sp,16,$31
 2254              	.mask 0x80000000,-16
 2255              	.fmask 0x00000000,0
 2256 0000 F0FFBD27 	subu $sp,$sp,16
 2257 0004 0000BFFF 	sd $31,0($sp)
 2258              	.set noreorder
 2259              	.set nomacro
 2260 0008 0000000C 	jal _ZN6NesMMU11SetChrRom8KEj
 2261 000c FF00C530 	andi $5,$6,0x00ff
 2262              	.set macro
 2263              	.set reorder
 2264              	
 2265 0010 0000BFDF 	ld $31,0($sp)
 2266              	
 2267              	.set noreorder
 2268              	.set nomacro
 2269 0014 0800E003 	j $31
 2270 0018 1000BD27 	addu $sp,$sp,16
 2271              	.set macro
 2272              	.set reorder
 2273              	
 2274              	.end _ZN12NesMMU_CNROM5WriteEjh
 2275              	$Lfe33:
 2276              	.size _ZN12NesMMU_CNROM5WriteEjh,$Lfe33-_ZN12NesMMU_CNROM5WriteEjh
 2277 001c 00000000 	.section .gnu.linkonce.t._ZN12NesMMU_AOROM5ResetEv,"ax",@progbits
 2278              	.align 2
 2279              	.p2align 3,,7
 2280              	.weak _ZN12NesMMU_AOROM5ResetEv
 2281              	.ent _ZN12NesMMU_AOROM5ResetEv
 2282              	_ZN12NesMMU_AOROM5ResetEv:
 2283              	.frame $sp,32,$31
 2284              	.mask 0x80010000,-16
 2285              	.fmask 0x00000000,0
 2286 0000 E0FFBD27 	subu $sp,$sp,32
 2287 0004 0000B0FF 	sd $16,0($sp)
 2288 0008 1000BFFF 	sd $31,16($sp)
 2289              	.set noreorder
 2290              	.set nomacro
 2291 000c 0000000C 	jal _ZN6NesMMU5ResetEv
 2292 0010 2D808000 	move $16,$4
 2293              	.set macro
 2294              	.set reorder
 2295              	
 2296 0014 2D200002 	move $4,$16
 2297              	.set noreorder
 2298              	.set nomacro
 2299 0018 0000000C 	jal _ZN6NesMMU12SetPrgRom32KEj
GAS LISTING  			page 42


 2300 001c 2D280000 	move $5,$0
 2301              	.set macro
 2302              	.set reorder
 2303              	
 2304 0020 0000B0DF 	ld $16,0($sp)
 2305 0024 1000BFDF 	ld $31,16($sp)
 2306              	
 2307              	.set noreorder
 2308              	.set nomacro
 2309 0028 0800E003 	j $31
 2310 002c 2000BD27 	addu $sp,$sp,32
 2311              	.set macro
 2312              	.set reorder
 2313              	
 2314              	.end _ZN12NesMMU_AOROM5ResetEv
 2315              	$Lfe34:
 2316              	.size _ZN12NesMMU_AOROM5ResetEv,$Lfe34-_ZN12NesMMU_AOROM5ResetEv
 2317              	.section .gnu.linkonce.t._ZN12NesMMU_AOROM5WriteEjh,"ax",@progbits
 2318              	.align 2
 2319              	.p2align 3,,7
 2320              	.weak _ZN12NesMMU_AOROM5WriteEjh
 2321              	.ent _ZN12NesMMU_AOROM5WriteEjh
 2322              	_ZN12NesMMU_AOROM5WriteEjh:
 2323              	.frame $sp,48,$31
 2324              	.mask 0x80030000,-16
 2325              	.fmask 0x00000000,0
 2326 0000 D0FFBD27 	subu $sp,$sp,48
 2327 0004 0000B0FF 	sd $16,0($sp)
 2328 0008 FF00D030 	andi $16,$6,0x00ff
 2329 000c 0F000532 	andi $5,$16,0xf
 2330 0010 1000B1FF 	sd $17,16($sp)
 2331 0014 02811000 	srl $16,$16,4
 2332 0018 2D888000 	move $17,$4
 2333 001c 2000BFFF 	sd $31,32($sp)
 2334              	.set noreorder
 2335              	.set nomacro
 2336 0020 0000000C 	jal _ZN6NesMMU12SetPrgRom32KEj
 2337 0024 01001032 	andi $16,$16,0x1
 2338              	.set macro
 2339              	.set reorder
 2340              	
 2341 0028 2D280002 	move $5,$16
 2342              	.set noreorder
 2343              	.set nomacro
 2344 002c 0000000C 	jal _ZN6NesMMU9SetMirrorE13NesMMUMirrorE
 2345 0030 2D202002 	move $4,$17
 2346              	.set macro
 2347              	.set reorder
 2348              	
 2349 0034 0000B0DF 	ld $16,0($sp)
 2350 0038 2000BFDF 	ld $31,32($sp)
 2351 003c 1000B1DF 	ld $17,16($sp)
 2352              	
 2353              	.set noreorder
 2354              	.set nomacro
 2355 0040 0800E003 	j $31
 2356 0044 3000BD27 	addu $sp,$sp,48
GAS LISTING  			page 43


 2357              	.set macro
 2358              	.set reorder
 2359              	
 2360              	.end _ZN12NesMMU_AOROM5WriteEjh
 2361              	$Lfe35:
 2362              	.size _ZN12NesMMU_AOROM5WriteEjh,$Lfe35-_ZN12NesMMU_AOROM5WriteEjh
 2363              	.section .gnu.linkonce.t._ZN12NesMMU_GNROM5ResetEv,"ax",@progbits
 2364              	.align 2
 2365              	.p2align 3,,7
 2366              	.weak _ZN12NesMMU_GNROM5ResetEv
 2367              	.ent _ZN12NesMMU_GNROM5ResetEv
 2368              	_ZN12NesMMU_GNROM5ResetEv:
 2369              	.frame $sp,32,$31
 2370              	.mask 0x80010000,-16
 2371              	.fmask 0x00000000,0
 2372 0000 E0FFBD27 	subu $sp,$sp,32
 2373 0004 0000B0FF 	sd $16,0($sp)
 2374 0008 1000BFFF 	sd $31,16($sp)
 2375              	.set noreorder
 2376              	.set nomacro
 2377 000c 0000000C 	jal _ZN6NesMMU5ResetEv
 2378 0010 2D808000 	move $16,$4
 2379              	.set macro
 2380              	.set reorder
 2381              	
 2382 0014 2D200002 	move $4,$16
 2383              	.set noreorder
 2384              	.set nomacro
 2385 0018 0000000C 	jal _ZN6NesMMU12SetPrgRom32KEj
 2386 001c 2D280000 	move $5,$0
 2387              	.set macro
 2388              	.set reorder
 2389              	
 2390 0020 03000524 	li $5,3
 2391              	.set noreorder
 2392              	.set nomacro
 2393 0024 0000000C 	jal _ZN6NesMMU9SetMirrorE13NesMMUMirrorE
 2394 0028 2D200002 	move $4,$16
 2395              	.set macro
 2396              	.set reorder
 2397              	
 2398 002c 0000B0DF 	ld $16,0($sp)
 2399 0030 1000BFDF 	ld $31,16($sp)
 2400              	
 2401              	.set noreorder
 2402              	.set nomacro
 2403 0034 0800E003 	j $31
 2404 0038 2000BD27 	addu $sp,$sp,32
 2405              	.set macro
 2406              	.set reorder
 2407              	
 2408              	.end _ZN12NesMMU_GNROM5ResetEv
 2409              	$Lfe36:
 2410              	.size _ZN12NesMMU_GNROM5ResetEv,$Lfe36-_ZN12NesMMU_GNROM5ResetEv
 2411 003c 00000000 	.section .gnu.linkonce.t._ZN12NesMMU_GNROM5WriteEjh,"ax",@progbits
 2412              	.align 2
 2413              	.p2align 3,,7
GAS LISTING  			page 44


 2414              	.weak _ZN12NesMMU_GNROM5WriteEjh
 2415              	.ent _ZN12NesMMU_GNROM5WriteEjh
 2416              	_ZN12NesMMU_GNROM5WriteEjh:
 2417              	.frame $sp,48,$31
 2418              	.mask 0x80030000,-16
 2419              	.fmask 0x00000000,0
 2420 0000 D0FFBD27 	subu $sp,$sp,48
 2421 0004 0000B0FF 	sd $16,0($sp)
 2422 0008 FF00D030 	andi $16,$6,0x00ff
 2423 000c 02291000 	srl $5,$16,4
 2424 0010 1000B1FF 	sd $17,16($sp)
 2425 0014 0300A530 	andi $5,$5,0x3
 2426 0018 03001032 	andi $16,$16,0x3
 2427 001c 2000BFFF 	sd $31,32($sp)
 2428              	.set noreorder
 2429              	.set nomacro
 2430 0020 0000000C 	jal _ZN6NesMMU12SetPrgRom32KEj
 2431 0024 2D888000 	move $17,$4
 2432              	.set macro
 2433              	.set reorder
 2434              	
 2435 0028 2D280002 	move $5,$16
 2436              	.set noreorder
 2437              	.set nomacro
 2438 002c 0000000C 	jal _ZN6NesMMU11SetChrRom8KEj
 2439 0030 2D202002 	move $4,$17
 2440              	.set macro
 2441              	.set reorder
 2442              	
 2443 0034 0000B0DF 	ld $16,0($sp)
 2444 0038 2000BFDF 	ld $31,32($sp)
 2445 003c 1000B1DF 	ld $17,16($sp)
 2446              	
 2447              	.set noreorder
 2448              	.set nomacro
 2449 0040 0800E003 	j $31
 2450 0044 3000BD27 	addu $sp,$sp,48
 2451              	.set macro
 2452              	.set reorder
 2453              	
 2454              	.end _ZN12NesMMU_GNROM5WriteEjh
 2455              	$Lfe37:
 2456              	.size _ZN12NesMMU_GNROM5WriteEjh,$Lfe37-_ZN12NesMMU_GNROM5WriteEjh
 2457              	.section .gnu.linkonce.t._ZN18NesMMU_ColorDreams5ResetEv,"ax",@progbits
 2458              	.align 2
 2459              	.p2align 3,,7
 2460              	.weak _ZN18NesMMU_ColorDreams5ResetEv
 2461              	.ent _ZN18NesMMU_ColorDreams5ResetEv
 2462              	_ZN18NesMMU_ColorDreams5ResetEv:
 2463              	.frame $sp,32,$31
 2464              	.mask 0x80010000,-16
 2465              	.fmask 0x00000000,0
 2466 0000 E0FFBD27 	subu $sp,$sp,32
 2467 0004 0000B0FF 	sd $16,0($sp)
 2468 0008 1000BFFF 	sd $31,16($sp)
 2469              	.set noreorder
 2470              	.set nomacro
GAS LISTING  			page 45


 2471 000c 0000000C 	jal _ZN6NesMMU5ResetEv
 2472 0010 2D808000 	move $16,$4
 2473              	.set macro
 2474              	.set reorder
 2475              	
 2476 0014 2D200002 	move $4,$16
 2477              	.set noreorder
 2478              	.set nomacro
 2479 0018 0000000C 	jal _ZN6NesMMU12SetPrgRom32KEj
 2480 001c 2D280000 	move $5,$0
 2481              	.set macro
 2482              	.set reorder
 2483              	
 2484 0020 2D280000 	move $5,$0
 2485              	.set noreorder
 2486              	.set nomacro
 2487 0024 0000000C 	jal _ZN6NesMMU11SetChrRom8KEj
 2488 0028 2D200002 	move $4,$16
 2489              	.set macro
 2490              	.set reorder
 2491              	
 2492 002c 0000B0DF 	ld $16,0($sp)
 2493 0030 1000BFDF 	ld $31,16($sp)
 2494              	
 2495              	.set noreorder
 2496              	.set nomacro
 2497 0034 0800E003 	j $31
 2498 0038 2000BD27 	addu $sp,$sp,32
 2499              	.set macro
 2500              	.set reorder
 2501              	
 2502              	.end _ZN18NesMMU_ColorDreams5ResetEv
 2503              	$Lfe38:
 2504              	.size _ZN18NesMMU_ColorDreams5ResetEv,$Lfe38-_ZN18NesMMU_ColorDreams5ResetEv
 2505 003c 00000000 	.section .gnu.linkonce.t._ZN18NesMMU_ColorDreams5WriteEjh,"ax",@progbits
 2506              	.align 2
 2507              	.p2align 3,,7
 2508              	.weak _ZN18NesMMU_ColorDreams5WriteEjh
 2509              	.ent _ZN18NesMMU_ColorDreams5WriteEjh
 2510              	_ZN18NesMMU_ColorDreams5WriteEjh:
 2511              	.frame $sp,48,$31
 2512              	.mask 0x80030000,-16
 2513              	.fmask 0x00000000,0
 2514 0000 D0FFBD27 	subu $sp,$sp,48
 2515 0004 0000B0FF 	sd $16,0($sp)
 2516 0008 FF00D030 	andi $16,$6,0x00ff
 2517 000c 1000B1FF 	sd $17,16($sp)
 2518 0010 0F000532 	andi $5,$16,0xf
 2519 0014 2D888000 	move $17,$4
 2520 0018 2000BFFF 	sd $31,32($sp)
 2521              	.set noreorder
 2522              	.set nomacro
 2523 001c 0000000C 	jal _ZN6NesMMU12SetPrgRom32KEj
 2524 0020 02811000 	srl $16,$16,4
 2525              	.set macro
 2526              	.set reorder
 2527              	
GAS LISTING  			page 46


 2528 0024 2D202002 	move $4,$17
 2529              	.set noreorder
 2530              	.set nomacro
 2531 0028 0000000C 	jal _ZN6NesMMU11SetChrRom8KEj
 2532 002c 2D280002 	move $5,$16
 2533              	.set macro
 2534              	.set reorder
 2535              	
 2536 0030 0000B0DF 	ld $16,0($sp)
 2537 0034 2000BFDF 	ld $31,32($sp)
 2538 0038 1000B1DF 	ld $17,16($sp)
 2539              	
 2540              	.set noreorder
 2541              	.set nomacro
 2542 003c 0800E003 	j $31
 2543 0040 3000BD27 	addu $sp,$sp,48
 2544              	.set macro
 2545              	.set reorder
 2546              	
 2547              	.end _ZN18NesMMU_ColorDreams5WriteEjh
 2548              	$Lfe39:
 2549              	.size _ZN18NesMMU_ColorDreams5WriteEjh,$Lfe39-_ZN18NesMMU_ColorDreams5WriteEjh
 2550 0044 00000000 	.section .gnu.linkonce.t._ZN13NesMMU_100in15ResetEv,"ax",@progbits
 2551              	.align 2
 2552              	.p2align 3,,7
 2553              	.weak _ZN13NesMMU_100in15ResetEv
 2554              	.ent _ZN13NesMMU_100in15ResetEv
 2555              	_ZN13NesMMU_100in15ResetEv:
 2556              	.frame $sp,32,$31
 2557              	.mask 0x80010000,-16
 2558              	.fmask 0x00000000,0
 2559 0000 E0FFBD27 	subu $sp,$sp,32
 2560 0004 0000B0FF 	sd $16,0($sp)
 2561 0008 1000BFFF 	sd $31,16($sp)
 2562              	.set noreorder
 2563              	.set nomacro
 2564 000c 0000000C 	jal _ZN6NesMMU5ResetEv
 2565 0010 2D808000 	move $16,$4
 2566              	.set macro
 2567              	.set reorder
 2568              	
 2569 0014 2D200002 	move $4,$16
 2570              	.set noreorder
 2571              	.set nomacro
 2572 0018 0000000C 	jal _ZN6NesMMU12SetPrgRom32KEj
 2573 001c 2D280000 	move $5,$0
 2574              	.set macro
 2575              	.set reorder
 2576              	
 2577 0020 0000B0DF 	ld $16,0($sp)
 2578 0024 1000BFDF 	ld $31,16($sp)
 2579              	
 2580              	.set noreorder
 2581              	.set nomacro
 2582 0028 0800E003 	j $31
 2583 002c 2000BD27 	addu $sp,$sp,32
 2584              	.set macro
GAS LISTING  			page 47


 2585              	.set reorder
 2586              	
 2587              	.end _ZN13NesMMU_100in15ResetEv
 2588              	$Lfe40:
 2589              	.size _ZN13NesMMU_100in15ResetEv,$Lfe40-_ZN13NesMMU_100in15ResetEv
 2590              	.section .gnu.linkonce.t._ZN13NesMMU_100in15WriteEjh,"ax",@progbits
 2591              	.align 2
 2592              	.p2align 3,,7
 2593              	.weak _ZN13NesMMU_100in15WriteEjh
 2594              	.ent _ZN13NesMMU_100in15WriteEjh
 2595              	_ZN13NesMMU_100in15WriteEjh:
 2596              	.frame $sp,80,$31
 2597              	.mask 0x800f0000,-16
 2598              	.fmask 0x00000000,0
 2599 0000 B0FFBD27 	subu $sp,$sp,80
 2600 0004 01800234 	li $2,32769
 2601 0008 3000B3FF 	sd $19,48($sp)
 2602 000c 2D988000 	move $19,$4
 2603 0010 2000B2FF 	sd $18,32($sp)
 2604 0014 FF00D230 	andi $18,$6,0x00ff
 2605 0018 4000BFFF 	sd $31,64($sp)
 2606 001c 1000B1FF 	sd $17,16($sp)
 2607              	.set noreorder
 2608              	.set nomacro
 2609 0020 6300A210 	beq $5,$2,$L145
 2610 0024 0000B0FF 	sd $16,0($sp)
 2611              	.set macro
 2612              	.set reorder
 2613              	
 2614 0028 2B104500 	sltu $2,$2,$5
 2615              	.set noreorder
 2616              	.set nomacro
 2617 002c 32004014 	bne $2,$0,$L156
 2618 0030 02800234 	li $2,32770
 2619              	.set macro
 2620              	.set reorder
 2621              	
 2622 0034 00800234 	li $2,32768
 2623              	.set noreorder
 2624              	.set nomacro
 2625 0038 0900A210 	beq $5,$2,$L140
 2626 003c 80004232 	andi $2,$18,0x80
 2627              	.set macro
 2628              	.set reorder
 2629              	
 2630 0040 4000BFDF 	ld $31,64($sp)
 2631              	$L161:
 2632 0044 3000B3DF 	ld $19,48($sp)
 2633 0048 2000B2DF 	ld $18,32($sp)
 2634 004c 1000B1DF 	ld $17,16($sp)
 2635 0050 0000B0DF 	ld $16,0($sp)
 2636              	
 2637              	.set noreorder
 2638              	.set nomacro
 2639 0054 0800E003 	j $31
 2640 0058 5000BD27 	addu $sp,$sp,80
 2641              	.set macro
GAS LISTING  			page 48


 2642              	.set reorder
 2643              	
 2644 005c 00000000 	.p2align 3
 2645              	$L140:
 2646              	.set noreorder
 2647              	.set nomacro
 2648 0060 1C004010 	beq $2,$0,$L141
 2649 0064 2D304002 	move $6,$18
 2650              	.set macro
 2651              	.set reorder
 2652              	
 2653 0068 40801200 	sll $16,$18,1
 2654 006c 2D280000 	move $5,$0
 2655 0070 01001126 	addu $17,$16,1
 2656              	.set noreorder
 2657              	.set nomacro
 2658 0074 0000000C 	jal _ZN6NesMMU11SetPrgRom8KEjj
 2659 0078 2D302002 	move $6,$17
 2660              	.set macro
 2661              	.set reorder
 2662              	
 2663 007c 01000524 	li $5,1
 2664 0080 2D300002 	move $6,$16
 2665 0084 2D206002 	move $4,$19
 2666              	.set noreorder
 2667              	.set nomacro
 2668 0088 0000000C 	jal _ZN6NesMMU11SetPrgRom8KEjj
 2669 008c 02001026 	addu $16,$16,2
 2670              	.set macro
 2671              	.set reorder
 2672              	
 2673 0090 2D206002 	move $4,$19
 2674 0094 2D300002 	move $6,$16
 2675              	.set noreorder
 2676              	.set nomacro
 2677 0098 0000000C 	jal _ZN6NesMMU11SetPrgRom8KEjj
 2678 009c 02000524 	li $5,2
 2679              	.set macro
 2680              	.set reorder
 2681              	
 2682 00a0 2D302002 	move $6,$17
 2683 00a4 2D206002 	move $4,$19
 2684              	$L160:
 2685 00a8 03000524 	li $5,3
 2686              	$L157:
 2687 00ac 0000000C 	jal _ZN6NesMMU11SetPrgRom8KEjj
 2687      00000000 
 2688 00b4 40004332 	andi $3,$18,0x40
 2689              	$L162:
 2690 00b8 02000524 	li $5,2
 2691 00bc 03000224 	li $2,3
 2692 00c0 2D206002 	move $4,$19
 2693              	.set noreorder
 2694              	.set nomacro
 2695 00c4 0000000C 	jal _ZN6NesMMU9SetMirrorE13NesMMUMirrorE
 2696 00c8 0A284300 	movz $5,$2,$3
 2697              	.set macro
GAS LISTING  			page 49


 2698              	.set reorder
 2699              	
 2700              	.set noreorder
 2701              	.set nomacro
 2702 00cc DDFF0010 	b $L161
 2703 00d0 4000BFDF 	ld $31,64($sp)
 2704              	.set macro
 2705              	.set reorder
 2706              	
 2707              	$L141:
 2708              	
 2709              	.set noreorder
 2710              	.set nomacro
 2711 00d4 0000000C 	jal _ZN6NesMMU12SetPrgRom16KEjj
 2712 00d8 2D280000 	move $5,$0
 2713              	.set macro
 2714              	.set reorder
 2715              	
 2716 00dc 2D206002 	move $4,$19
 2717 00e0 01000524 	li $5,1
 2718              	.set noreorder
 2719              	.set nomacro
 2720 00e4 0000000C 	jal _ZN6NesMMU12SetPrgRom16KEjj
 2721 00e8 01004626 	addu $6,$18,1
 2722              	.set macro
 2723              	.set reorder
 2724              	
 2725              	.set noreorder
 2726              	.set nomacro
 2727 00ec F2FF0010 	b $L162
 2728 00f0 40004332 	andi $3,$18,0x40
 2729              	.set macro
 2730              	.set reorder
 2731              	
 2732 00f4 00000000 	.p2align 3
 2733              	$L156:
 2734              	.set noreorder
 2735              	.set nomacro
 2736 00f8 1500A210 	beq $5,$2,$L146
 2737 00fc 03800234 	li $2,32771
 2738              	.set macro
 2739              	.set reorder
 2740              	
 2741              	.set noreorder
 2742              	.set nomacro
 2743 0100 D0FFA214 	bne $5,$2,$L161
 2744 0104 4000BFDF 	ld $31,64($sp)
 2745              	.set macro
 2746              	.set reorder
 2747              	
 2748 0108 80004232 	andi $2,$18,0x80
 2749              	.set noreorder
 2750              	.set nomacro
 2751 010c 07004010 	beq $2,$0,$L150
 2752 0110 40801200 	sll $16,$18,1
 2753              	.set macro
 2754              	.set reorder
GAS LISTING  			page 50


 2755              	
 2756 0114 02000524 	li $5,2
 2757              	.set noreorder
 2758              	.set nomacro
 2759 0118 0000000C 	jal _ZN6NesMMU11SetPrgRom8KEjj
 2760 011c 01000626 	addu $6,$16,1
 2761              	.set macro
 2762              	.set reorder
 2763              	
 2764 0120 2D300002 	move $6,$16
 2765              	.set noreorder
 2766              	.set nomacro
 2767 0124 E0FF0010 	b $L160
 2768 0128 2D206002 	move $4,$19
 2769              	.set macro
 2770              	.set reorder
 2771              	
 2772              	$L150:
 2773 012c 02000524 	li $5,2
 2774 0130 2D300002 	move $6,$16
 2775              	.set noreorder
 2776              	.set nomacro
 2777 0134 0000000C 	jal _ZN6NesMMU11SetPrgRom8KEjj
 2778 0138 01001026 	addu $16,$16,1
 2779              	.set macro
 2780              	.set reorder
 2781              	
 2782 013c 2D300002 	move $6,$16
 2783 0140 03000524 	li $5,3
 2784              	.set noreorder
 2785              	.set nomacro
 2786 0144 D9FF0010 	b $L157
 2787 0148 2D206002 	move $4,$19
 2788              	.set macro
 2789              	.set reorder
 2790              	
 2791 014c 00000000 	.p2align 3
 2792              	$L146:
 2793 0150 80004232 	andi $2,$18,0x80
 2794              	.set noreorder
 2795              	.set nomacro
 2796 0154 13004010 	beq $2,$0,$L147
 2797 0158 40801200 	sll $16,$18,1
 2798              	.set macro
 2799              	.set reorder
 2800              	
 2801 015c 2D280000 	move $5,$0
 2802 0160 01001026 	addu $16,$16,1
 2803              	$L158:
 2804              	.set noreorder
 2805              	.set nomacro
 2806 0164 0000000C 	jal _ZN6NesMMU11SetPrgRom8KEjj
 2807 0168 2D300002 	move $6,$16
 2808              	.set macro
 2809              	.set reorder
 2810              	
 2811 016c 01000524 	li $5,1
GAS LISTING  			page 51


 2812 0170 2D206002 	move $4,$19
 2813              	.set noreorder
 2814              	.set nomacro
 2815 0174 0000000C 	jal _ZN6NesMMU11SetPrgRom8KEjj
 2816 0178 2D300002 	move $6,$16
 2817              	.set macro
 2818              	.set reorder
 2819              	
 2820 017c 02000524 	li $5,2
 2821 0180 2D206002 	move $4,$19
 2822              	.set noreorder
 2823              	.set nomacro
 2824 0184 0000000C 	jal _ZN6NesMMU11SetPrgRom8KEjj
 2825 0188 2D300002 	move $6,$16
 2826              	.set macro
 2827              	.set reorder
 2828              	
 2829 018c 03000524 	li $5,3
 2830 0190 2D206002 	move $4,$19
 2831              	.set noreorder
 2832              	.set nomacro
 2833 0194 0000000C 	jal _ZN6NesMMU11SetPrgRom8KEjj
 2834 0198 2D300002 	move $6,$16
 2835              	.set macro
 2836              	.set reorder
 2837              	
 2838              	.set noreorder
 2839              	.set nomacro
 2840 019c A9FF0010 	b $L161
 2841 01a0 4000BFDF 	ld $31,64($sp)
 2842              	.set macro
 2843              	.set reorder
 2844              	
 2845              	$L147:
 2846              	.set noreorder
 2847              	.set nomacro
 2848 01a4 EFFF0010 	b $L158
 2849 01a8 2D280000 	move $5,$0
 2850              	.set macro
 2851              	.set reorder
 2852              	
 2853 01ac 00000000 	.p2align 3
 2854              	$L145:
 2855              	.set noreorder
 2856              	.set nomacro
 2857 01b0 0000000C 	jal _ZN6NesMMU9SetMirrorE13NesMMUMirrorE
 2858 01b4 03000524 	li $5,3
 2859              	.set macro
 2860              	.set reorder
 2861              	
 2862 01b8 2D280000 	move $5,$0
 2863 01bc 2D206002 	move $4,$19
 2864              	.set noreorder
 2865              	.set nomacro
 2866 01c0 0000000C 	jal _ZN6NesMMU12SetPrgRom16KEjj
 2867 01c4 2D304002 	move $6,$18
 2868              	.set macro
GAS LISTING  			page 52


 2869              	.set reorder
 2870              	
 2871 01c8 01000524 	li $5,1
 2872 01cc 2D206002 	move $4,$19
 2873              	.set noreorder
 2874              	.set nomacro
 2875 01d0 0000000C 	jal _ZN6NesMMU12SetPrgRom16KEjj
 2876 01d4 FFFF0634 	li $6,65535
 2877              	.set macro
 2878              	.set reorder
 2879              	
 2880              	.set noreorder
 2881              	.set nomacro
 2882 01d8 9AFF0010 	b $L161
 2883 01dc 4000BFDF 	ld $31,64($sp)
 2884              	.set macro
 2885              	.set reorder
 2886              	
 2887              	.end _ZN13NesMMU_100in15WriteEjh
 2888              	$Lfe41:
 2889              	.size _ZN13NesMMU_100in15WriteEjh,$Lfe41-_ZN13NesMMU_100in15WriteEjh
 2890              	.section .gnu.linkonce.t._ZN11NesMMU_MMC39SaveStateEPh,"ax",@progbits
 2891              	.align 2
 2892              	.p2align 3,,7
 2893              	.weak _ZN11NesMMU_MMC39SaveStateEPh
 2894              	.ent _ZN11NesMMU_MMC39SaveStateEPh
 2895              	_ZN11NesMMU_MMC39SaveStateEPh:
 2896              	.frame $sp,0,$31
 2897              	.mask 0x00000000,0
 2898              	.fmask 0x00000000,0
 2899 0000 58028290 	lbu $2,600($4)
 2900              	
 2901 0004 0000A2A0 	sb $2,0($5)
 2902 0008 59028390 	lbu $3,601($4)
 2903              	
 2904 000c 0100A3A0 	sb $3,1($5)
 2905 0010 5A028290 	lbu $2,602($4)
 2906              	
 2907 0014 0200A2A0 	sb $2,2($5)
 2908 0018 5B028390 	lbu $3,603($4)
 2909              	
 2910 001c 0300A3A0 	sb $3,3($5)
 2911 0020 5C028290 	lbu $2,604($4)
 2912              	.set noreorder
 2913              	.set nomacro
 2914 0024 0800E003 	j $31
 2915 0028 0400A2A0 	sb $2,4($5)
 2916              	.set macro
 2917              	.set reorder
 2918              	
 2919              	.end _ZN11NesMMU_MMC39SaveStateEPh
 2920              	$Lfe42:
 2921              	.size _ZN11NesMMU_MMC39SaveStateEPh,$Lfe42-_ZN11NesMMU_MMC39SaveStateEPh
 2922 002c 00000000 	.section .gnu.linkonce.t._ZN11NesMMU_MMC312RestoreStateEPh,"ax",@progbits
 2923              	.align 2
 2924              	.p2align 3,,7
 2925              	.weak _ZN11NesMMU_MMC312RestoreStateEPh
GAS LISTING  			page 53


 2926              	.ent _ZN11NesMMU_MMC312RestoreStateEPh
 2927              	_ZN11NesMMU_MMC312RestoreStateEPh:
 2928              	.frame $sp,0,$31
 2929              	.mask 0x00000000,0
 2930              	.fmask 0x00000000,0
 2931 0000 0000A290 	lbu $2,0($5)
 2932              	
 2933 0004 580282A0 	sb $2,600($4)
 2934 0008 0100A390 	lbu $3,1($5)
 2935              	
 2936 000c 590283A0 	sb $3,601($4)
 2937 0010 0200A290 	lbu $2,2($5)
 2938              	
 2939 0014 5A0282A0 	sb $2,602($4)
 2940 0018 0300A390 	lbu $3,3($5)
 2941              	
 2942 001c 5B0283A0 	sb $3,603($4)
 2943 0020 0400A290 	lbu $2,4($5)
 2944              	.set noreorder
 2945              	.set nomacro
 2946 0024 0800E003 	j $31
 2947 0028 5C0282A0 	sb $2,604($4)
 2948              	.set macro
 2949              	.set reorder
 2950              	
 2951              	.end _ZN11NesMMU_MMC312RestoreStateEPh
 2952              	$Lfe43:
 2953              	.size _ZN11NesMMU_MMC312RestoreStateEPh,$Lfe43-_ZN11NesMMU_MMC312RestoreStateEPh
 2954 002c 00000000 	.section .gnu.linkonce.t._ZN11NesMMU_MMC35ResetEv,"ax",@progbits
 2955              	.align 2
 2956              	.p2align 3,,7
 2957              	.weak _ZN11NesMMU_MMC35ResetEv
 2958              	.ent _ZN11NesMMU_MMC35ResetEv
 2959              	_ZN11NesMMU_MMC35ResetEv:
 2960              	.frame $sp,32,$31
 2961              	.mask 0x80010000,-16
 2962              	.fmask 0x00000000,0
 2963 0000 E0FFBD27 	subu $sp,$sp,32
 2964 0004 0000B0FF 	sd $16,0($sp)
 2965 0008 1000BFFF 	sd $31,16($sp)
 2966              	.set noreorder
 2967              	.set nomacro
 2968 000c 0000000C 	jal _ZN6NesMMU5ResetEv
 2969 0010 2D808000 	move $16,$4
 2970              	.set macro
 2971              	.set reorder
 2972              	
 2973 0014 1800068E 	lw $6,24($16)
 2974 0018 2D200002 	move $4,$16
 2975 001c 2D280000 	move $5,$0
 2976              	.set noreorder
 2977              	.set nomacro
 2978 0020 0000000C 	jal _ZN6NesMMU11SetPrgRom8KEjj
 2979 0024 FEFFC624 	addu $6,$6,-2
 2980              	.set macro
 2981              	.set reorder
 2982              	
GAS LISTING  			page 54


 2983 0028 2D200002 	move $4,$16
 2984 002c 1800068E 	lw $6,24($16)
 2985 0030 01000524 	li $5,1
 2986              	.set noreorder
 2987              	.set nomacro
 2988 0034 0000000C 	jal _ZN6NesMMU11SetPrgRom8KEjj
 2989 0038 FFFFC624 	addu $6,$6,-1
 2990              	.set macro
 2991              	.set reorder
 2992              	
 2993 003c 2D200002 	move $4,$16
 2994 0040 1800068E 	lw $6,24($16)
 2995 0044 02000524 	li $5,2
 2996              	.set noreorder
 2997              	.set nomacro
 2998 0048 0000000C 	jal _ZN6NesMMU11SetPrgRom8KEjj
 2999 004c FEFFC624 	addu $6,$6,-2
 3000              	.set macro
 3001              	.set reorder
 3002              	
 3003 0050 2D200002 	move $4,$16
 3004 0054 1800068E 	lw $6,24($16)
 3005 0058 03000524 	li $5,3
 3006              	.set noreorder
 3007              	.set nomacro
 3008 005c 0000000C 	jal _ZN6NesMMU11SetPrgRom8KEjj
 3009 0060 FFFFC624 	addu $6,$6,-1
 3010              	.set macro
 3011              	.set reorder
 3012              	
 3013 0064 1000BFDF 	ld $31,16($sp)
 3014 0068 5C0200A2 	sb $0,604($16)
 3015 006c 5B0200A2 	sb $0,603($16)
 3016 0070 580200A2 	sb $0,600($16)
 3017 0074 5A0200A2 	sb $0,602($16)
 3018 0078 590200A2 	sb $0,601($16)
 3019 007c 0000B0DF 	ld $16,0($sp)
 3020              	
 3021              	.set noreorder
 3022              	.set nomacro
 3023 0080 0800E003 	j $31
 3024 0084 2000BD27 	addu $sp,$sp,32
 3025              	.set macro
 3026              	.set reorder
 3027              	
 3028              	.end _ZN11NesMMU_MMC35ResetEv
 3029              	$Lfe44:
 3030              	.size _ZN11NesMMU_MMC35ResetEv,$Lfe44-_ZN11NesMMU_MMC35ResetEv
 3031              	.section .gnu.linkonce.t._ZN11NesMMU_MMC35WriteEjh,"ax",@progbits
 3032              	.align 2
 3033              	.p2align 3,,7
 3034              	.weak _ZN11NesMMU_MMC35WriteEjh
 3035              	.ent _ZN11NesMMU_MMC35WriteEjh
 3036              	_ZN11NesMMU_MMC35WriteEjh:
 3037              	.frame $sp,16,$31
 3038              	.mask 0x80000000,-16
 3039              	.fmask 0x00000000,0
GAS LISTING  			page 55


 3040 0000 F0FFBD27 	subu $sp,$sp,16
 3041 0004 01A00234 	li $2,40961
 3042 0008 0000BFFF 	sd $31,0($sp)
 3043 000c FF00C630 	andi $6,$6,0x00ff
 3044              	.set noreorder
 3045              	.set nomacro
 3046 0010 0D00A210 	beq $5,$2,$L166
 3047 0014 2D388000 	move $7,$4
 3048              	.set macro
 3049              	.set reorder
 3050              	
 3051 0018 2B104500 	sltu $2,$2,$5
 3052              	.set noreorder
 3053              	.set nomacro
 3054 001c 22004014 	bne $2,$0,$L185
 3055 0020 01C00234 	li $2,49153
 3056              	.set macro
 3057              	.set reorder
 3058              	
 3059 0024 01800234 	li $2,32769
 3060              	.set noreorder
 3061              	.set nomacro
 3062 0028 1A00A210 	beq $5,$2,$L169
 3063 002c 2B104500 	sltu $2,$2,$5
 3064              	.set macro
 3065              	.set reorder
 3066              	
 3067              	.set noreorder
 3068              	.set nomacro
 3069 0030 09004014 	bne $2,$0,$L186
 3070 0034 00A00234 	li $2,40960
 3071              	.set macro
 3072              	.set reorder
 3073              	
 3074 0038 00800234 	li $2,32768
 3075              	.set noreorder
 3076              	.set nomacro
 3077 003c 0200A250 	beql $5,$2,$L166
 3078 0040 5B0286A0 	sb $6,603($4)
 3079              	.set macro
 3080              	.set reorder
 3081              	
 3082 0044 00000000 	.p2align 3
 3083              	$L166:
 3084 0048 0000BFDF 	ld $31,0($sp)
 3085              	$L190:
 3086              	$L192:
 3087              	$L193:
 3088              	.set noreorder
 3089              	.set nomacro
 3090 004c 0800E003 	j $31
 3091 0050 1000BD27 	addu $sp,$sp,16
 3092              	.set macro
 3093              	.set reorder
 3094              	
 3095 0054 00000000 	.p2align 3
 3096              	$L186:
GAS LISTING  			page 56


 3097              	.set noreorder
 3098              	.set nomacro
 3099 0058 FCFFA214 	bne $5,$2,$L190
 3100 005c 0000BFDF 	ld $31,0($sp)
 3101              	.set macro
 3102              	.set reorder
 3103              	
 3104 0060 0400828C 	lw $2,4($4)
 3105              	
 3106 0064 0D004390 	lbu $3,13($2)
 3107              	
 3108              	.set noreorder
 3109              	.set nomacro
 3110 0068 06006014 	bne $3,$0,$L189
 3111 006c 04000524 	li $5,4
 3112              	.set macro
 3113              	.set reorder
 3114              	
 3115 0070 0100C238 	xori $2,$6,0x1
 3116 0074 03000524 	li $5,3
 3117 0078 01004230 	andi $2,$2,0x1
 3118 007c 02000324 	li $3,2
 3119 0080 0A286200 	movz $5,$3,$2
 3120              	$L189:
 3121 0084 0000000C 	jal _ZN6NesMMU9SetMirrorE13NesMMUMirrorE
 3121      00000000 
 3122              	.set noreorder
 3123              	.set nomacro
 3124 008c EFFF0010 	b $L190
 3125 0090 0000BFDF 	ld $31,0($sp)
 3126              	.set macro
 3127              	.set reorder
 3128              	
 3129              	$L169:
 3130              	
 3131              	.set noreorder
 3132              	.set nomacro
 3133 0094 0000000C 	jal _ZN11NesMMU_MMC312WriteCommandEhh
 3134 0098 5B028590 	lbu $5,603($4)
 3135              	.set macro
 3136              	.set reorder
 3137              	
 3138              	.set noreorder
 3139              	.set nomacro
 3140 009c EBFF0010 	b $L190
 3141 00a0 0000BFDF 	ld $31,0($sp)
 3142              	.set macro
 3143              	.set reorder
 3144              	
 3145 00a4 00000000 	.p2align 3
 3146              	$L185:
 3147              	.set noreorder
 3148              	.set nomacro
 3149 00a8 1B00A210 	beq $5,$2,$L178
 3150 00ac 2B104500 	sltu $2,$2,$5
 3151              	.set macro
 3152              	.set reorder
GAS LISTING  			page 57


 3153              	
 3154              	.set noreorder
 3155              	.set nomacro
 3156 00b0 09004014 	bne $2,$0,$L187
 3157 00b4 00E00234 	li $2,57344
 3158              	.set macro
 3159              	.set reorder
 3160              	
 3161 00b8 00C00234 	li $2,49152
 3162              	.set noreorder
 3163              	.set nomacro
 3164 00bc E3FFA214 	bne $5,$2,$L190
 3165 00c0 0000BFDF 	ld $31,0($sp)
 3166              	.set macro
 3167              	.set reorder
 3168              	
 3169 00c4 5C028290 	lbu $2,604($4)
 3170              	
 3171              	.set noreorder
 3172              	.set nomacro
 3173 00c8 E0FF4010 	beq $2,$0,$L190
 3174 00cc 590286A0 	sb $6,601($4)
 3175              	.set macro
 3176              	.set reorder
 3177              	
 3178              	.set noreorder
 3179              	.set nomacro
 3180 00d0 DEFF0010 	b $L192
 3181 00d4 5A0286A0 	sb $6,602($4)
 3182              	.set macro
 3183              	.set reorder
 3184              	
 3185              	.p2align 3
 3186              	$L187:
 3187              	.set noreorder
 3188              	.set nomacro
 3189 00d8 0A00A210 	beq $5,$2,$L179
 3190 00dc 01E00234 	li $2,57345
 3191              	.set macro
 3192              	.set reorder
 3193              	
 3194              	.set noreorder
 3195              	.set nomacro
 3196 00e0 DAFFA214 	bne $5,$2,$L190
 3197 00e4 0000BFDF 	ld $31,0($sp)
 3198              	.set macro
 3199              	.set reorder
 3200              	
 3201 00e8 5C028390 	lbu $3,604($4)
 3202 00ec 01000224 	li $2,1
 3203              	.set noreorder
 3204              	.set nomacro
 3205 00f0 D6FF6010 	beq $3,$0,$L193
 3206 00f4 580282A0 	sb $2,600($4)
 3207              	.set macro
 3208              	.set reorder
 3209              	
GAS LISTING  			page 58


 3210 00f8 5902E290 	lbu $2,601($7)
 3211              	$L191:
 3212              	.set noreorder
 3213              	.set nomacro
 3214 00fc D2FF0010 	b $L166
 3215 0100 5A02E2A0 	sb $2,602($7)
 3216              	.set macro
 3217              	.set reorder
 3218              	
 3219              	$L179:
 3220 0104 5C028290 	lbu $2,604($4)
 3221              	
 3222              	.set noreorder
 3223              	.set nomacro
 3224 0108 CFFF4010 	beq $2,$0,$L166
 3225 010c 580280A0 	sb $0,600($4)
 3226              	.set macro
 3227              	.set reorder
 3228              	
 3229              	.set noreorder
 3230              	.set nomacro
 3231 0110 FAFF0010 	b $L191
 3232 0114 5902E290 	lbu $2,601($7)
 3233              	.set macro
 3234              	.set reorder
 3235              	
 3236              	.p2align 3
 3237              	$L178:
 3238 0118 59028390 	lbu $3,601($4)
 3239 011c 01000224 	li $2,1
 3240 0120 5C0282A0 	sb $2,604($4)
 3241              	.set noreorder
 3242              	.set nomacro
 3243 0124 C8FF0010 	b $L166
 3244 0128 5A0283A0 	sb $3,602($4)
 3245              	.set macro
 3246              	.set reorder
 3247              	
 3248              	.end _ZN11NesMMU_MMC35WriteEjh
 3249              	$Lfe45:
 3250              	.size _ZN11NesMMU_MMC35WriteEjh,$Lfe45-_ZN11NesMMU_MMC35WriteEjh
 3251 012c 00000000 	.section .gnu.linkonce.t._ZN11NesMMU_MMC38ScanLineEi,"ax",@progbits
 3252              	.align 2
 3253              	.p2align 3,,7
 3254              	.weak _ZN11NesMMU_MMC38ScanLineEi
 3255              	.ent _ZN11NesMMU_MMC38ScanLineEi
 3256              	_ZN11NesMMU_MMC38ScanLineEi:
 3257              	.frame $sp,32,$31
 3258              	.mask 0x80010000,-16
 3259              	.fmask 0x00000000,0
 3260 0000 E0FFBD27 	subu $sp,$sp,32
 3261 0004 F000A528 	slt $5,$5,240
 3262 0008 0000B0FF 	sd $16,0($sp)
 3263 000c 2D808000 	move $16,$4
 3264              	.set noreorder
 3265              	.set nomacro
 3266 0010 0500A014 	bne $5,$0,$L199
GAS LISTING  			page 59


 3267 0014 1000BFFF 	sd $31,16($sp)
 3268              	.set macro
 3269              	.set reorder
 3270              	
 3271              	$L194:
 3272 0018 1000BFDF 	ld $31,16($sp)
 3273              	$L200:
 3274 001c 0000B0DF 	ld $16,0($sp)
 3275              	
 3276              	.set noreorder
 3277              	.set nomacro
 3278 0020 0800E003 	j $31
 3279 0024 2000BD27 	addu $sp,$sp,32
 3280              	.set macro
 3281              	.set reorder
 3282              	
 3283              	.p2align 3
 3284              	$L199:
 3285              	.set noreorder
 3286              	.set nomacro
 3287 0028 0000000C 	jal _ZN6NesPPU9BGEnabledEv
 3288 002c 0C00848C 	lw $4,12($4)
 3289              	.set macro
 3290              	.set reorder
 3291              	
 3292              	.set noreorder
 3293              	.set nomacro
 3294 0030 FAFF4010 	beq $2,$0,$L200
 3295 0034 1000BFDF 	ld $31,16($sp)
 3296              	.set macro
 3297              	.set reorder
 3298              	
 3299 0038 5A020292 	lbu $2,602($16)
 3300 003c 5C0200A2 	sb $0,604($16)
 3301              	.set noreorder
 3302              	.set nomacro
 3303 0040 09004014 	bne $2,$0,$L196
 3304 0044 FFFF4324 	addu $3,$2,-1
 3305              	.set macro
 3306              	.set reorder
 3307              	
 3308 0048 58020292 	lbu $2,600($16)
 3309              	
 3310              	.set noreorder
 3311              	.set nomacro
 3312 004c F3FF4010 	beq $2,$0,$L200
 3313 0050 2D200002 	move $4,$16
 3314              	.set macro
 3315              	.set reorder
 3316              	
 3317 0054 01000224 	li $2,1
 3318              	.set noreorder
 3319              	.set nomacro
 3320 0058 0000000C 	jal _ZN6NesMMU3IRQEv
 3321 005c 5C0202A2 	sb $2,604($16)
 3322              	.set macro
 3323              	.set reorder
GAS LISTING  			page 60


 3324              	
 3325              	.set noreorder
 3326              	.set nomacro
 3327 0060 EEFF0010 	b $L200
 3328 0064 1000BFDF 	ld $31,16($sp)
 3329              	.set macro
 3330              	.set reorder
 3331              	
 3332              	$L196:
 3333              	.set noreorder
 3334              	.set nomacro
 3335 0068 EBFF0010 	b $L194
 3336 006c 5A0203A2 	sb $3,602($16)
 3337              	.set macro
 3338              	.set reorder
 3339              	
 3340              	.end _ZN11NesMMU_MMC38ScanLineEi
 3341              	$Lfe46:
 3342              	.size _ZN11NesMMU_MMC38ScanLineEi,$Lfe46-_ZN11NesMMU_MMC38ScanLineEi
 3343              	.section .gnu.linkonce.t._ZN11NesMMU_MMC29SaveStateEPh,"ax",@progbits
 3344              	.align 2
 3345              	.p2align 3,,7
 3346              	.weak _ZN11NesMMU_MMC29SaveStateEPh
 3347              	.ent _ZN11NesMMU_MMC29SaveStateEPh
 3348              	_ZN11NesMMU_MMC29SaveStateEPh:
 3349              	.frame $sp,0,$31
 3350              	.mask 0x00000000,0
 3351              	.fmask 0x00000000,0
 3352 0000 5A028290 	lbu $2,602($4)
 3353              	
 3354 0004 0000A2A0 	sb $2,0($5)
 3355 0008 5B028390 	lbu $3,603($4)
 3356              	
 3357 000c 0100A3A0 	sb $3,1($5)
 3358 0010 5D028290 	lbu $2,605($4)
 3359              	
 3360 0014 0200A2A0 	sb $2,2($5)
 3361 0018 58028390 	lbu $3,600($4)
 3362              	
 3363 001c 0300A3A0 	sb $3,3($5)
 3364 0020 59028290 	lbu $2,601($4)
 3365              	
 3366 0024 0400A2A0 	sb $2,4($5)
 3367 0028 5C028390 	lbu $3,604($4)
 3368              	.set noreorder
 3369              	.set nomacro
 3370 002c 0800E003 	j $31
 3371 0030 0500A3A0 	sb $3,5($5)
 3372              	.set macro
 3373              	.set reorder
 3374              	
 3375              	.end _ZN11NesMMU_MMC29SaveStateEPh
 3376              	$Lfe47:
 3377              	.size _ZN11NesMMU_MMC29SaveStateEPh,$Lfe47-_ZN11NesMMU_MMC29SaveStateEPh
 3378 0034 00000000 	.section .gnu.linkonce.t._ZN11NesMMU_MMC212RestoreStateEPh,"ax",@progbits
 3379              	.align 2
 3380              	.p2align 3,,7
GAS LISTING  			page 61


 3381              	.weak _ZN11NesMMU_MMC212RestoreStateEPh
 3382              	.ent _ZN11NesMMU_MMC212RestoreStateEPh
 3383              	_ZN11NesMMU_MMC212RestoreStateEPh:
 3384              	.frame $sp,0,$31
 3385              	.mask 0x00000000,0
 3386              	.fmask 0x00000000,0
 3387 0000 0000A290 	lbu $2,0($5)
 3388              	
 3389 0004 5A0282A0 	sb $2,602($4)
 3390 0008 0100A390 	lbu $3,1($5)
 3391              	
 3392 000c 5B0283A0 	sb $3,603($4)
 3393 0010 0200A290 	lbu $2,2($5)
 3394              	
 3395 0014 5D0282A0 	sb $2,605($4)
 3396 0018 0300A390 	lbu $3,3($5)
 3397              	
 3398 001c 580283A0 	sb $3,600($4)
 3399 0020 0400A290 	lbu $2,4($5)
 3400              	
 3401 0024 590282A0 	sb $2,601($4)
 3402 0028 0500A390 	lbu $3,5($5)
 3403              	.set noreorder
 3404              	.set nomacro
 3405 002c 0800E003 	j $31
 3406 0030 5C0283A0 	sb $3,604($4)
 3407              	.set macro
 3408              	.set reorder
 3409              	
 3410              	.end _ZN11NesMMU_MMC212RestoreStateEPh
 3411              	$Lfe48:
 3412              	.size _ZN11NesMMU_MMC212RestoreStateEPh,$Lfe48-_ZN11NesMMU_MMC212RestoreStateEPh
 3413 0034 00000000 	.section .gnu.linkonce.t._ZN11NesMMU_MMC25ResetEv,"ax",@progbits
 3414              	.align 2
 3415              	.p2align 3,,7
 3416              	.weak _ZN11NesMMU_MMC25ResetEv
 3417              	.ent _ZN11NesMMU_MMC25ResetEv
 3418              	_ZN11NesMMU_MMC25ResetEv:
 3419              	.frame $sp,32,$31
 3420              	.mask 0x80010000,-16
 3421              	.fmask 0x00000000,0
 3422 0000 E0FFBD27 	subu $sp,$sp,32
 3423 0004 0000B0FF 	sd $16,0($sp)
 3424 0008 1000BFFF 	sd $31,16($sp)
 3425              	.set noreorder
 3426              	.set nomacro
 3427 000c 0000000C 	jal _ZN6NesMMU5ResetEv
 3428 0010 2D808000 	move $16,$4
 3429              	.set macro
 3430              	.set reorder
 3431              	
 3432 0014 58000426 	addu $4,$16,88
 3433 0018 2D280000 	move $5,$0
 3434              	.set noreorder
 3435              	.set nomacro
 3436 001c 0000000C 	jal memset
 3437 0020 00020624 	dli $6,0x200
GAS LISTING  			page 62


 3438              	.set macro
 3439              	.set reorder
 3440              	
 3441 0024 5B0200A2 	sb $0,603($16)
 3442 0028 01000224 	li $2,1
 3443 002c 580200A2 	sb $0,600($16)
 3444 0030 5D0202A2 	sb $2,605($16)
 3445 0034 2D200002 	move $4,$16
 3446 0038 550102A2 	sb $2,341($16)
 3447 003c 2D300000 	move $6,$0
 3448 0040 560102A2 	sb $2,342($16)
 3449 0044 2D280000 	move $5,$0
 3450 0048 550202A2 	sb $2,597($16)
 3451 004c 560202A2 	sb $2,598($16)
 3452 0050 5C0202A2 	sb $2,604($16)
 3453 0054 590200A2 	sb $0,601($16)
 3454              	.set noreorder
 3455              	.set nomacro
 3456 0058 0000000C 	jal _ZN6NesMMU11SetPrgRom8KEjj
 3457 005c 5A0200A2 	sb $0,602($16)
 3458              	.set macro
 3459              	.set reorder
 3460              	
 3461 0060 2D200002 	move $4,$16
 3462 0064 1800068E 	lw $6,24($16)
 3463 0068 01000524 	li $5,1
 3464              	.set noreorder
 3465              	.set nomacro
 3466 006c 0000000C 	jal _ZN6NesMMU11SetPrgRom8KEjj
 3467 0070 FDFFC624 	addu $6,$6,-3
 3468              	.set macro
 3469              	.set reorder
 3470              	
 3471 0074 2D200002 	move $4,$16
 3472 0078 1800068E 	lw $6,24($16)
 3473 007c 02000524 	li $5,2
 3474              	.set noreorder
 3475              	.set nomacro
 3476 0080 0000000C 	jal _ZN6NesMMU11SetPrgRom8KEjj
 3477 0084 FEFFC624 	addu $6,$6,-2
 3478              	.set macro
 3479              	.set reorder
 3480              	
 3481 0088 2D200002 	move $4,$16
 3482 008c 1800068E 	lw $6,24($16)
 3483 0090 03000524 	li $5,3
 3484              	.set noreorder
 3485              	.set nomacro
 3486 0094 0000000C 	jal _ZN6NesMMU11SetPrgRom8KEjj
 3487 0098 FFFFC624 	addu $6,$6,-1
 3488              	.set macro
 3489              	.set reorder
 3490              	
 3491 009c 0000B0DF 	ld $16,0($sp)
 3492 00a0 1000BFDF 	ld $31,16($sp)
 3493              	
 3494              	.set noreorder
GAS LISTING  			page 63


 3495              	.set nomacro
 3496 00a4 0800E003 	j $31
 3497 00a8 2000BD27 	addu $sp,$sp,32
 3498              	.set macro
 3499              	.set reorder
 3500              	
 3501              	.end _ZN11NesMMU_MMC25ResetEv
 3502              	$Lfe49:
 3503              	.size _ZN11NesMMU_MMC25ResetEv,$Lfe49-_ZN11NesMMU_MMC25ResetEv
 3504 00ac 00000000 	.section .gnu.linkonce.t._ZN11NesMMU_MMC213GetLatchTableEv,"ax",@progbits
 3505              	.align 2
 3506              	.p2align 3,,7
 3507              	.weak _ZN11NesMMU_MMC213GetLatchTableEv
 3508              	.ent _ZN11NesMMU_MMC213GetLatchTableEv
 3509              	_ZN11NesMMU_MMC213GetLatchTableEv:
 3510              	.frame $sp,0,$31
 3511              	.mask 0x00000000,0
 3512              	.fmask 0x00000000,0
 3513              	.set noreorder
 3514              	.set nomacro
 3515 0000 0800E003 	j $31
 3516 0004 58008224 	addu $2,$4,88
 3517              	.set macro
 3518              	.set reorder
 3519              	
 3520              	.end _ZN11NesMMU_MMC213GetLatchTableEv
 3521              	$Lfe50:
 3522              	.size _ZN11NesMMU_MMC213GetLatchTableEv,$Lfe50-_ZN11NesMMU_MMC213GetLatchTableEv
 3523              	.section .gnu.linkonce.t._ZN11NesMMU_MMC25LatchEt,"ax",@progbits
 3524              	.align 2
 3525              	.p2align 3,,7
 3526              	.weak _ZN11NesMMU_MMC25LatchEt
 3527              	.ent _ZN11NesMMU_MMC25LatchEt
 3528              	_ZN11NesMMU_MMC25LatchEt:
 3529              	.frame $sp,48,$31
 3530              	.mask 0x80030000,-16
 3531              	.fmask 0x00000000,0
 3532 0000 D0FFBD27 	subu $sp,$sp,48
 3533 0004 FFFFA530 	andi $5,$5,0xffff
 3534 0008 FE000224 	li $2,254
 3535 000c 0000B0FF 	sd $16,0($sp)
 3536 0010 2000BFFF 	sd $31,32($sp)
 3537 0014 2D808000 	move $16,$4
 3538              	.set noreorder
 3539              	.set nomacro
 3540 0018 2B00A210 	beq $5,$2,$L209
 3541 001c 1000B1FF 	sd $17,16($sp)
 3542              	.set macro
 3543              	.set reorder
 3544              	
 3545 0020 FF00A228 	slt $2,$5,255
 3546              	.set noreorder
 3547              	.set nomacro
 3548 0024 12004010 	beq $2,$0,$L217
 3549 0028 FD010224 	li $2,509
 3550              	.set macro
 3551              	.set reorder
GAS LISTING  			page 64


 3552              	
 3553 002c FD000224 	li $2,253
 3554              	.set noreorder
 3555              	.set nomacro
 3556 0030 0700A250 	beql $5,$2,$L207
 3557 0034 5C028290 	lbu $2,604($4)
 3558              	.set macro
 3559              	.set reorder
 3560              	
 3561              	$L205:
 3562 0038 2000BFDF 	ld $31,32($sp)
 3563              	$L218:
 3564 003c 1000B1DF 	ld $17,16($sp)
 3565              	$L219:
 3566 0040 0000B0DF 	ld $16,0($sp)
 3567              	
 3568              	.set noreorder
 3569              	.set nomacro
 3570 0044 0800E003 	j $31
 3571 0048 3000BD27 	addu $sp,$sp,48
 3572              	.set macro
 3573              	.set reorder
 3574              	
 3575 004c 00000000 	.p2align 3
 3576              	$L207:
 3577              	.set noreorder
 3578              	.set nomacro
 3579 0050 FAFF4010 	beq $2,$0,$L218
 3580 0054 2000BFDF 	ld $31,32($sp)
 3581              	.set macro
 3582              	.set reorder
 3583              	
 3584 0058 58028690 	lbu $6,600($4)
 3585              	.set noreorder
 3586              	.set nomacro
 3587 005c 0000000C 	jal _ZN6NesMMU11SetChrRom4KEjj
 3588 0060 2D280000 	move $5,$0
 3589              	.set macro
 3590              	.set reorder
 3591              	
 3592              	.set noreorder
 3593              	.set nomacro
 3594 0064 F4FF0010 	b $L205
 3595 0068 5C0200A2 	sb $0,604($16)
 3596              	.set macro
 3597              	.set reorder
 3598              	
 3599 006c 00000000 	.p2align 3
 3600              	$L217:
 3601              	.set noreorder
 3602              	.set nomacro
 3603 0070 0D00A210 	beq $5,$2,$L211
 3604 0074 FE010224 	li $2,510
 3605              	.set macro
 3606              	.set reorder
 3607              	
 3608              	.set noreorder
GAS LISTING  			page 65


 3609              	.set nomacro
 3610 0078 F0FFA214 	bne $5,$2,$L218
 3611 007c 2000BFDF 	ld $31,32($sp)
 3612              	.set macro
 3613              	.set reorder
 3614              	
 3615 0080 5D028290 	lbu $2,605($4)
 3616 0084 01001124 	li $17,1
 3617              	.set noreorder
 3618              	.set nomacro
 3619 0088 EDFF5150 	beql $2,$17,$L219
 3620 008c 1000B1DF 	ld $17,16($sp)
 3621              	.set macro
 3622              	.set reorder
 3623              	
 3624 0090 5B028690 	lbu $6,603($4)
 3625              	.set noreorder
 3626              	.set nomacro
 3627 0094 0000000C 	jal _ZN6NesMMU11SetChrRom4KEjj
 3628 0098 01000524 	li $5,1
 3629              	.set macro
 3630              	.set reorder
 3631              	
 3632              	.set noreorder
 3633              	.set nomacro
 3634 009c E6FF0010 	b $L205
 3635 00a0 5D0211A2 	sb $17,605($16)
 3636              	.set macro
 3637              	.set reorder
 3638              	
 3639 00a4 00000000 	.p2align 3
 3640              	$L211:
 3641 00a8 5D028290 	lbu $2,605($4)
 3642              	
 3643              	.set noreorder
 3644              	.set nomacro
 3645 00ac E3FF4010 	beq $2,$0,$L218
 3646 00b0 2000BFDF 	ld $31,32($sp)
 3647              	.set macro
 3648              	.set reorder
 3649              	
 3650 00b4 5A028690 	lbu $6,602($4)
 3651              	.set noreorder
 3652              	.set nomacro
 3653 00b8 0000000C 	jal _ZN6NesMMU11SetChrRom4KEjj
 3654 00bc 01000524 	li $5,1
 3655              	.set macro
 3656              	.set reorder
 3657              	
 3658              	.set noreorder
 3659              	.set nomacro
 3660 00c0 DDFF0010 	b $L205
 3661 00c4 5D0200A2 	sb $0,605($16)
 3662              	.set macro
 3663              	.set reorder
 3664              	
 3665              	.p2align 3
GAS LISTING  			page 66


 3666              	$L209:
 3667 00c8 5C028290 	lbu $2,604($4)
 3668 00cc 01001124 	li $17,1
 3669              	.set noreorder
 3670              	.set nomacro
 3671 00d0 DAFF5110 	beq $2,$17,$L218
 3672 00d4 2000BFDF 	ld $31,32($sp)
 3673              	.set macro
 3674              	.set reorder
 3675              	
 3676 00d8 59028690 	lbu $6,601($4)
 3677              	.set noreorder
 3678              	.set nomacro
 3679 00dc 0000000C 	jal _ZN6NesMMU11SetChrRom4KEjj
 3680 00e0 2D280000 	move $5,$0
 3681              	.set macro
 3682              	.set reorder
 3683              	
 3684              	.set noreorder
 3685              	.set nomacro
 3686 00e4 D4FF0010 	b $L205
 3687 00e8 5C0211A2 	sb $17,604($16)
 3688              	.set macro
 3689              	.set reorder
 3690              	
 3691              	.end _ZN11NesMMU_MMC25LatchEt
 3692              	$Lfe51:
 3693              	.size _ZN11NesMMU_MMC25LatchEt,$Lfe51-_ZN11NesMMU_MMC25LatchEt
 3694 00ec 00000000 	.section .gnu.linkonce.t._ZN11NesMMU_MMC25WriteEjh,"ax",@progbits
 3695              	.align 2
 3696              	.p2align 3,,7
 3697              	.weak _ZN11NesMMU_MMC25WriteEjh
 3698              	.ent _ZN11NesMMU_MMC25WriteEjh
 3699              	_ZN11NesMMU_MMC25WriteEjh:
 3700              	.frame $sp,16,$31
 3701              	.mask 0x80000000,-16
 3702              	.fmask 0x00000000,0
 3703 0000 F0FFBD27 	subu $sp,$sp,16
 3704 0004 00F0A530 	andi $5,$5,0xf000
 3705 0008 00C00234 	li $2,49152
 3706 000c 0000BFFF 	sd $31,0($sp)
 3707 0010 FF00C630 	andi $6,$6,0x00ff
 3708              	.set noreorder
 3709              	.set nomacro
 3710 0014 3200A210 	beq $5,$2,$L224
 3711 0018 2D188000 	move $3,$4
 3712              	.set macro
 3713              	.set reorder
 3714              	
 3715 001c 2B104500 	sltu $2,$2,$5
 3716              	.set noreorder
 3717              	.set nomacro
 3718 0020 15004014 	bne $2,$0,$L232
 3719 0024 00E00234 	li $2,57344
 3720              	.set macro
 3721              	.set reorder
 3722              	
GAS LISTING  			page 67


 3723 0028 00A00234 	li $2,40960
 3724              	.set noreorder
 3725              	.set nomacro
 3726 002c 0E00A210 	beq $5,$2,$L222
 3727 0030 00B00234 	li $2,45056
 3728              	.set macro
 3729              	.set reorder
 3730              	
 3731              	.set noreorder
 3732              	.set nomacro
 3733 0034 0400A250 	beql $5,$2,$L223
 3734 0038 5C028290 	lbu $2,604($4)
 3735              	.set macro
 3736              	.set reorder
 3737              	
 3738 003c 0000BFDF 	ld $31,0($sp)
 3739              	$L237:
 3740              	.set noreorder
 3741              	.set nomacro
 3742 0040 0800E003 	j $31
 3743 0044 1000BD27 	addu $sp,$sp,16
 3744              	.set macro
 3745              	.set reorder
 3746              	
 3747              	$L223:
 3748 0048 2D280000 	move $5,$0
 3749 004c 580286A0 	sb $6,600($4)
 3750              	$L236:
 3751 0050 21104300 	addu $2,$2,$3
 3752 0054 58024690 	lbu $6,600($2)
 3753              	$L235:
 3754 0058 0000000C 	jal _ZN6NesMMU11SetChrRom4KEjj
 3754      00000000 
 3755              	.set noreorder
 3756              	.set nomacro
 3757 0060 F7FF0010 	b $L237
 3758 0064 0000BFDF 	ld $31,0($sp)
 3759              	.set macro
 3760              	.set reorder
 3761              	
 3762              	$L222:
 3763              	
 3764              	.set noreorder
 3765              	.set nomacro
 3766 0068 0000000C 	jal _ZN6NesMMU11SetPrgRom8KEjj
 3767 006c 2D280000 	move $5,$0
 3768              	.set macro
 3769              	.set reorder
 3770              	
 3771              	.set noreorder
 3772              	.set nomacro
 3773 0070 F3FF0010 	b $L237
 3774 0074 0000BFDF 	ld $31,0($sp)
 3775              	.set macro
 3776              	.set reorder
 3777              	
 3778              	.p2align 3
GAS LISTING  			page 68


 3779              	$L232:
 3780              	.set noreorder
 3781              	.set nomacro
 3782 0078 1600A250 	beql $5,$2,$L226
 3783 007c 5D028290 	lbu $2,605($4)
 3784              	.set macro
 3785              	.set reorder
 3786              	
 3787              	
 3788 0080 2B104500 	sltu $2,$2,$5
 3789              	.set noreorder
 3790              	.set nomacro
 3791 0084 0A004014 	bne $2,$0,$L233
 3792 0088 00F00234 	li $2,61440
 3793              	.set macro
 3794              	.set reorder
 3795              	
 3796 008c 00D00234 	li $2,53248
 3797              	.set noreorder
 3798              	.set nomacro
 3799 0090 EBFFA254 	bnel $5,$2,$L237
 3800 0094 0000BFDF 	ld $31,0($sp)
 3801              	.set macro
 3802              	.set reorder
 3803              	
 3804 0098 5D028290 	lbu $2,605($4)
 3805 009c 01000524 	li $5,1
 3806 00a0 5A0286A0 	sb $6,602($4)
 3807              	$L234:
 3808 00a4 21104300 	addu $2,$2,$3
 3809              	.set noreorder
 3810              	.set nomacro
 3811 00a8 EBFF0010 	b $L235
 3812 00ac 5A024690 	lbu $6,602($2)
 3813              	.set macro
 3814              	.set reorder
 3815              	
 3816              	.p2align 3
 3817              	$L233:
 3818              	.set noreorder
 3819              	.set nomacro
 3820 00b0 E3FFA254 	bnel $5,$2,$L237
 3821 00b4 0000BFDF 	ld $31,0($sp)
 3822              	.set macro
 3823              	.set reorder
 3824              	
 3825 00b8 0100C230 	andi $2,$6,0x1
 3826 00bc 02000524 	li $5,2
 3827 00c0 03000324 	li $3,3
 3828              	.set noreorder
 3829              	.set nomacro
 3830 00c4 0000000C 	jal _ZN6NesMMU9SetMirrorE13NesMMUMirrorE
 3831 00c8 0A286200 	movz $5,$3,$2
 3832              	.set macro
 3833              	.set reorder
 3834              	
 3835              	.set noreorder
GAS LISTING  			page 69


 3836              	.set nomacro
 3837 00cc DCFF0010 	b $L237
 3838 00d0 0000BFDF 	ld $31,0($sp)
 3839              	.set macro
 3840              	.set reorder
 3841              	
 3842              	$L226:
 3843 00d4 01000524 	li $5,1
 3844              	.set noreorder
 3845              	.set nomacro
 3846 00d8 F2FF0010 	b $L234
 3847 00dc 5B0286A0 	sb $6,603($4)
 3848              	.set macro
 3849              	.set reorder
 3850              	
 3851              	.p2align 3
 3852              	$L224:
 3853 00e0 5C028290 	lbu $2,604($4)
 3854 00e4 2D280000 	move $5,$0
 3855              	.set noreorder
 3856              	.set nomacro
 3857 00e8 D9FF0010 	b $L236
 3858 00ec 590286A0 	sb $6,601($4)
 3859              	.set macro
 3860              	.set reorder
 3861              	
 3862              	.end _ZN11NesMMU_MMC25WriteEjh
 3863              	$Lfe52:
 3864              	.size _ZN11NesMMU_MMC25WriteEjh,$Lfe52-_ZN11NesMMU_MMC25WriteEjh
 3865              	.section .gnu.linkonce.t._ZN11NesMMU_MMC55ResetEv,"ax",@progbits
 3866              	.align 2
 3867              	.p2align 3,,7
 3868              	.weak _ZN11NesMMU_MMC55ResetEv
 3869              	.ent _ZN11NesMMU_MMC55ResetEv
 3870              	_ZN11NesMMU_MMC55ResetEv:
 3871              	.frame $sp,32,$31
 3872              	.mask 0x80010000,-16
 3873              	.fmask 0x00000000,0
 3874 0000 E0FFBD27 	subu $sp,$sp,32
 3875 0004 0000B0FF 	sd $16,0($sp)
 3876 0008 1000BFFF 	sd $31,16($sp)
 3877              	.set noreorder
 3878              	.set nomacro
 3879 000c 0000000C 	jal _ZN6NesMMU5ResetEv
 3880 0010 2D808000 	move $16,$4
 3881              	.set macro
 3882              	.set reorder
 3883              	
 3884 0014 5C0200A2 	sb $0,604($16)
 3885 0018 580200A2 	sb $0,600($16)
 3886 001c 590200A2 	sb $0,601($16)
 3887 0020 5A0200A2 	sb $0,602($16)
 3888 0024 5B0200A2 	sb $0,603($16)
 3889 0028 1000BFDF 	ld $31,16($sp)
 3890 002c 0000B0DF 	ld $16,0($sp)
 3891              	
 3892              	.set noreorder
GAS LISTING  			page 70


 3893              	.set nomacro
 3894 0030 0800E003 	j $31
 3895 0034 2000BD27 	addu $sp,$sp,32
 3896              	.set macro
 3897              	.set reorder
 3898              	
 3899              	.end _ZN11NesMMU_MMC55ResetEv
 3900              	$Lfe53:
 3901              	.size _ZN11NesMMU_MMC55ResetEv,$Lfe53-_ZN11NesMMU_MMC55ResetEv
 3902              	.rdata
 3903 00a1 00000000 	.align 3
 3903      000000
 3904              	$LC13:
 3905 00a8 4D4D4335 	.ascii "MMC5[%04X]=%X\n\000"
 3905      5B253034 
 3905      585D3D25 
 3905      580A00
 3906              	.section .gnu.linkonce.t._ZN11NesMMU_MMC55WriteEjh,"ax",@progbits
 3907              	.align 2
 3908              	.p2align 3,,7
 3909              	.weak _ZN11NesMMU_MMC55WriteEjh
 3910              	.ent _ZN11NesMMU_MMC55WriteEjh
 3911              	_ZN11NesMMU_MMC55WriteEjh:
 3912              	.frame $sp,16,$31
 3913              	.mask 0x80000000,-16
 3914              	.fmask 0x00000000,0
 3915 0000 0000043C 	lui $4,%hi($LC13)
 3916 0004 F0FFBD27 	subu $sp,$sp,16
 3917 0008 FF00C630 	andi $6,$6,0x00ff
 3918 000c 0000BFFF 	sd $31,0($sp)
 3919              	.set noreorder
 3920              	.set nomacro
 3921 0010 0000000C 	jal printf
 3922 0014 A8008424 	addiu $4,$4,%lo($LC13)
 3923              	.set macro
 3924              	.set reorder
 3925              	
 3926 0018 0000BFDF 	ld $31,0($sp)
 3927              	
 3928              	.set noreorder
 3929              	.set nomacro
 3930 001c 0800E003 	j $31
 3931 0020 1000BD27 	addu $sp,$sp,16
 3932              	.set macro
 3933              	.set reorder
 3934              	
 3935              	.end _ZN11NesMMU_MMC55WriteEjh
 3936              	$Lfe54:
 3937              	.size _ZN11NesMMU_MMC55WriteEjh,$Lfe54-_ZN11NesMMU_MMC55WriteEjh
 3938 0024 00000000 	.section .gnu.linkonce.t._ZN11NesMMU_MMC59Write5000Ejh,"ax",@progbits
 3939              	.align 2
 3940              	.p2align 3,,7
 3941              	.weak _ZN11NesMMU_MMC59Write5000Ejh
 3942              	.ent _ZN11NesMMU_MMC59Write5000Ejh
 3943              	_ZN11NesMMU_MMC59Write5000Ejh:
 3944              	.frame $sp,48,$31
 3945              	.mask 0x80030000,-16
GAS LISTING  			page 71


 3946              	.fmask 0x00000000,0
 3947 0000 D0FFBD27 	subu $sp,$sp,48
 3948 0004 1851A22C 	sltu $2,$5,20760
 3949 0008 1000B1FF 	sd $17,16($sp)
 3950 000c 2D18A000 	move $3,$5
 3951 0010 0000B0FF 	sd $16,0($sp)
 3952 0014 2D888000 	move $17,$4
 3953 0018 2000BFFF 	sd $31,32($sp)
 3954              	.set noreorder
 3955              	.set nomacro
 3956 001c 5A004010 	beq $2,$0,$L276
 3957 0020 FF00D030 	andi $16,$6,0x00ff
 3958              	.set macro
 3959              	.set reorder
 3960              	
 3961 0024 1451A22C 	sltu $2,$5,20756
 3962              	.set noreorder
 3963              	.set nomacro
 3964 0028 51004010 	beq $2,$0,$L259
 3965 002c 04510224 	li $2,20740
 3966              	.set macro
 3967              	.set reorder
 3968              	
 3969              	.set noreorder
 3970              	.set nomacro
 3971 0030 1300A210 	beq $5,$2,$L282
 3972 0034 0551A22C 	sltu $2,$5,20741
 3973              	.set macro
 3974              	.set reorder
 3975              	
 3976              	.set noreorder
 3977              	.set nomacro
 3978 0038 1F004010 	beq $2,$0,$L277
 3979 003c 06510224 	li $2,20742
 3980              	.set macro
 3981              	.set reorder
 3982              	
 3983 0040 00510224 	li $2,20736
 3984              	.set noreorder
 3985              	.set nomacro
 3986 0044 1900A210 	beq $5,$2,$L254
 3987 0048 0151A22C 	sltu $2,$5,20737
 3988              	.set macro
 3989              	.set reorder
 3990              	
 3991              	.set noreorder
 3992              	.set nomacro
 3993 004c 12004010 	beq $2,$0,$L278
 3994 0050 01510224 	li $2,20737
 3995              	.set macro
 3996              	.set reorder
 3997              	
 3998 0054 10500224 	li $2,20496
 3999              	.set noreorder
 4000              	.set nomacro
 4001 0058 0500A210 	beq $5,$2,$L285
 4002 005c 2000BFDF 	ld $31,32($sp)
GAS LISTING  			page 72


 4003              	.set macro
 4004              	.set reorder
 4005              	
 4006 0060 005C622C 	sltu $2,$3,23552
 4007              	$L286:
 4008              	.set noreorder
 4009              	.set nomacro
 4010 0064 06004014 	bne $2,$0,$L284
 4011 0068 2D286000 	move $5,$3
 4012              	.set macro
 4013              	.set reorder
 4014              	
 4015              	$L240:
 4016 006c 2000BFDF 	ld $31,32($sp)
 4017              	$L285:
 4018 0070 1000B1DF 	ld $17,16($sp)
 4019 0074 0000B0DF 	ld $16,0($sp)
 4020              	
 4021              	.set noreorder
 4022              	.set nomacro
 4023 0078 0800E003 	j $31
 4024 007c 3000BD27 	addu $sp,$sp,48
 4025              	.set macro
 4026              	.set reorder
 4027              	
 4028              	.p2align 3
 4029              	$L284:
 4030              	$L282:
 4031 0080 0000043C 	lui $4,%hi($LC13)
 4032 0084 2D300002 	move $6,$16
 4033              	.set noreorder
 4034              	.set nomacro
 4035 0088 0000000C 	jal printf
 4036 008c A8008424 	addiu $4,$4,%lo($LC13)
 4037              	.set macro
 4038              	.set reorder
 4039              	
 4040              	.set noreorder
 4041              	.set nomacro
 4042 0090 F7FF0010 	b $L285
 4043 0094 2000BFDF 	ld $31,32($sp)
 4044              	.set macro
 4045              	.set reorder
 4046              	
 4047              	$L278:
 4048              	.set noreorder
 4049              	.set nomacro
 4050 0098 F2FFA214 	bne $5,$2,$L286
 4051 009c 005C622C 	sltu $2,$3,23552
 4052              	.set macro
 4053              	.set reorder
 4054              	
 4055 00a0 03000232 	andi $2,$16,0x3
 4056              	.set noreorder
 4057              	.set nomacro
 4058 00a4 F1FF0010 	b $L240
 4059 00a8 590282A0 	sb $2,601($4)
GAS LISTING  			page 73


 4060              	.set macro
 4061              	.set reorder
 4062              	
 4063              	$L254:
 4064 00ac 03000232 	andi $2,$16,0x3
 4065              	.set noreorder
 4066              	.set nomacro
 4067 00b0 EEFF0010 	b $L240
 4068 00b4 580282A0 	sb $2,600($4)
 4069              	.set macro
 4070              	.set reorder
 4071              	
 4072              	.p2align 3
 4073              	$L277:
 4074              	.set noreorder
 4075              	.set nomacro
 4076 00b8 2700A210 	beq $5,$2,$L245
 4077 00bc 0651A22C 	sltu $2,$5,20742
 4078              	.set macro
 4079              	.set reorder
 4080              	
 4081              	.set noreorder
 4082              	.set nomacro
 4083 00c0 12004014 	bne $2,$0,$L244
 4084 00c4 07510224 	li $2,20743
 4085              	.set macro
 4086              	.set reorder
 4087              	
 4088              	.set noreorder
 4089              	.set nomacro
 4090 00c8 E6FFA214 	bne $5,$2,$L286
 4091 00cc 005C622C 	sltu $2,$3,23552
 4092              	.set macro
 4093              	.set reorder
 4094              	
 4095 00d0 03001032 	andi $16,$16,0x3
 4096 00d4 0C00838C 	lw $3,12($4)
 4097 00d8 80101000 	sll $2,$16,2
 4098 00dc 40000624 	dli $6,0x40
 4099 00e0 25805000 	or $16,$2,$16
 4100 00e4 7401648C 	lw $4,372($3)
 4101 00e8 00111000 	sll $2,$16,4
 4102 00ec 25100202 	or $2,$16,$2
 4103 00f0 C0038424 	addu $4,$4,960
 4104 00f4 FF005030 	andi $16,$2,0x00ff
 4105 00f8 2D280002 	move $5,$16
 4106              	$L283:
 4107 00fc 0000000C 	jal memset
 4107      00000000 
 4108              	.set noreorder
 4109              	.set nomacro
 4110 0104 DAFF0010 	b $L285
 4111 0108 2000BFDF 	ld $31,32($sp)
 4112              	.set macro
 4113              	.set reorder
 4114              	
 4115              	$L244:
GAS LISTING  			page 74


 4116 010c 03000632 	andi $6,$16,0x3
 4117              	.set noreorder
 4118              	.set nomacro
 4119 0110 0000000C 	jal _ZN6NesMMU12SetNameTableEjj
 4120 0114 2D280000 	move $5,$0
 4121              	.set macro
 4122              	.set reorder
 4123              	
 4124 0118 2D202002 	move $4,$17
 4125 011c 82301000 	srl $6,$16,2
 4126 0120 01000524 	li $5,1
 4127              	.set noreorder
 4128              	.set nomacro
 4129 0124 0000000C 	jal _ZN6NesMMU12SetNameTableEjj
 4130 0128 0300C630 	andi $6,$6,0x3
 4131              	.set macro
 4132              	.set reorder
 4133              	
 4134 012c 2D202002 	move $4,$17
 4135 0130 02311000 	srl $6,$16,4
 4136 0134 02000524 	li $5,2
 4137              	.set noreorder
 4138              	.set nomacro
 4139 0138 0000000C 	jal _ZN6NesMMU12SetNameTableEjj
 4140 013c 0300C630 	andi $6,$6,0x3
 4141              	.set macro
 4142              	.set reorder
 4143              	
 4144 0140 2D202002 	move $4,$17
 4145 0144 03000524 	li $5,3
 4146              	.set noreorder
 4147              	.set nomacro
 4148 0148 0000000C 	jal _ZN6NesMMU12SetNameTableEjj
 4149 014c 82311000 	srl $6,$16,6
 4150              	.set macro
 4151              	.set reorder
 4152              	
 4153              	.set noreorder
 4154              	.set nomacro
 4155 0150 C7FF0010 	b $L285
 4156 0154 2000BFDF 	ld $31,32($sp)
 4157              	.set macro
 4158              	.set reorder
 4159              	
 4160              	$L245:
 4161 0158 0C00828C 	lw $2,12($4)
 4162 015c 2D280002 	move $5,$16
 4163 0160 C0030624 	dli $6,0x3c0
 4164              	.set noreorder
 4165              	.set nomacro
 4166 0164 E5FF0010 	b $L283
 4167 0168 7401448C 	lw $4,372($2)
 4168              	.set macro
 4169              	.set reorder
 4170              	
 4171 016c 00000000 	.p2align 3
 4172              	$L259:
GAS LISTING  			page 75


 4173 0170 0300A530 	andi $5,$5,0x3
 4174              	.set noreorder
 4175              	.set nomacro
 4176 0174 0000000C 	jal _ZN11NesMMU_MMC59SetPrgRegEjh
 4177 0178 7F000632 	andi $6,$16,0x7f
 4178              	.set macro
 4179              	.set reorder
 4180              	
 4181              	.set noreorder
 4182              	.set nomacro
 4183 017c BCFF0010 	b $L285
 4184 0180 2000BFDF 	ld $31,32($sp)
 4185              	.set macro
 4186              	.set reorder
 4187              	
 4188 0184 00000000 	.p2align 3
 4189              	$L276:
 4190 0188 2C51A22C 	sltu $2,$5,20780
 4191              	.set noreorder
 4192              	.set nomacro
 4193 018c 14004010 	beq $2,$0,$L279
 4194 0190 03520224 	li $2,20995
 4195              	.set macro
 4196              	.set reorder
 4197              	
 4198 0194 2851A22C 	sltu $2,$5,20776
 4199              	.set noreorder
 4200              	.set nomacro
 4201 0198 0C004010 	beq $2,$0,$L271
 4202 019c 2051A22C 	sltu $2,$5,20768
 4203              	.set macro
 4204              	.set reorder
 4205              	
 4206              	.set noreorder
 4207              	.set nomacro
 4208 01a0 B0FF4014 	bne $2,$0,$L286
 4209 01a4 005C622C 	sltu $2,$3,23552
 4210              	.set macro
 4211              	.set reorder
 4212              	
 4213 01a8 2451A22C 	sltu $2,$5,20772
 4214              	.set noreorder
 4215              	.set nomacro
 4216 01ac B0FF4050 	beql $2,$0,$L285
 4217 01b0 2000BFDF 	ld $31,32($sp)
 4218              	.set macro
 4219              	.set reorder
 4220              	
 4221 01b4 0700A530 	andi $5,$5,0x7
 4222 01b8 2D300002 	move $6,$16
 4223              	$L281:
 4224 01bc 0000000C 	jal _ZN6NesMMU11SetChrRom1KEjj
 4224      00000000 
 4225              	.set noreorder
 4226              	.set nomacro
 4227 01c4 AAFF0010 	b $L285
 4228 01c8 2000BFDF 	ld $31,32($sp)
GAS LISTING  			page 76


 4229              	.set macro
 4230              	.set reorder
 4231              	
 4232              	$L271:
 4233 01cc 0300A530 	andi $5,$5,0x3
 4234 01d0 2D300002 	move $6,$16
 4235              	.set noreorder
 4236              	.set nomacro
 4237 01d4 F9FF0010 	b $L281
 4238 01d8 0400A524 	addu $5,$5,4
 4239              	.set macro
 4240              	.set reorder
 4241              	
 4242 01dc 00000000 	.p2align 3
 4243              	$L279:
 4244              	.set noreorder
 4245              	.set nomacro
 4246 01e0 0E00A210 	beq $5,$2,$L252
 4247 01e4 0452A22C 	sltu $2,$5,20996
 4248              	.set macro
 4249              	.set reorder
 4250              	
 4251              	.set noreorder
 4252              	.set nomacro
 4253 01e8 06004010 	beq $2,$0,$L280
 4254 01ec 04520224 	li $2,20996
 4255              	.set macro
 4256              	.set reorder
 4257              	
 4258 01f0 00520224 	li $2,20992
 4259              	.set noreorder
 4260              	.set nomacro
 4261 01f4 A2FFA210 	beq $5,$2,$L282
 4262 01f8 005C622C 	sltu $2,$3,23552
 4263              	.set macro
 4264              	.set reorder
 4265              	
 4266 01fc 99FF0010 	b $L286
 4266      00000000 
 4267              	$L280:
 4268              	.set noreorder
 4269              	.set nomacro
 4270 0204 97FFA214 	bne $5,$2,$L286
 4271 0208 005C622C 	sltu $2,$3,23552
 4272              	.set macro
 4273              	.set reorder
 4274              	
 4275 020c 80000232 	andi $2,$16,0x80
 4276 0210 5C0280A0 	sb $0,604($4)
 4277              	.set noreorder
 4278              	.set nomacro
 4279 0214 95FF0010 	b $L240
 4280 0218 5B0282A0 	sb $2,603($4)
 4281              	.set macro
 4282              	.set reorder
 4283              	
 4284              	$L252:
GAS LISTING  			page 77


 4285 021c 5A0290A0 	sb $16,602($4)
 4286              	.set noreorder
 4287              	.set nomacro
 4288 0220 92FF0010 	b $L240
 4289 0224 5C0280A0 	sb $0,604($4)
 4290              	.set macro
 4291              	.set reorder
 4292              	
 4293              	.end _ZN11NesMMU_MMC59Write5000Ejh
 4294              	$Lfe55:
 4295              	.size _ZN11NesMMU_MMC59Write5000Ejh,$Lfe55-_ZN11NesMMU_MMC59Write5000Ejh
 4296              	.rdata
 4297 00b7 00       	.align 3
 4298              	$LC14:
 4299 00b8 4D4D4335 	.ascii "MMC5[%04X] read\n\000"
 4299      5B253034 
 4299      585D2072 
 4299      6561640A 
 4299      00
 4300              	.section .gnu.linkonce.t._ZN11NesMMU_MMC58Read5000Ej,"ax",@progbits
 4301              	.align 2
 4302              	.p2align 3,,7
 4303              	.weak _ZN11NesMMU_MMC58Read5000Ej
 4304              	.ent _ZN11NesMMU_MMC58Read5000Ej
 4305              	_ZN11NesMMU_MMC58Read5000Ej:
 4306              	.frame $sp,16,$31
 4307              	.mask 0x80000000,-16
 4308              	.fmask 0x00000000,0
 4309 0000 F0FFBD27 	subu $sp,$sp,16
 4310 0004 2D308000 	move $6,$4
 4311 0008 04520224 	li $2,20996
 4312 000c 0000043C 	lui $4,%hi($LC14)
 4313 0010 0000BFFF 	sd $31,0($sp)
 4314 0014 80000724 	li $7,128
 4315              	.set noreorder
 4316              	.set nomacro
 4317 0018 0700A210 	beq $5,$2,$L295
 4318 001c B8008424 	addiu $4,$4,%lo($LC14)
 4319              	.set macro
 4320              	.set reorder
 4321              	
 4322 0020 0000000C 	jal printf
 4322      00000000 
 4323 0028 FF000224 	li $2,255
 4324              	$L287:
 4325 002c 0000BFDF 	ld $31,0($sp)
 4326              	
 4327              	.set noreorder
 4328              	.set nomacro
 4329 0030 0800E003 	j $31
 4330 0034 1000BD27 	addu $sp,$sp,16
 4331              	.set macro
 4332              	.set reorder
 4333              	
 4334              	.p2align 3
 4335              	$L295:
 4336 0038 0C00C28C 	lw $2,12($6)
GAS LISTING  			page 78


 4337 003c 5C02C490 	lbu $4,604($6)
 4338 0040 0002438C 	lw $3,512($2)
 4339 0044 0A380400 	movz $7,$0,$4
 4340 0048 F0006328 	slt $3,$3,240
 4341              	.set noreorder
 4342              	.set nomacro
 4343 004c 02006014 	bne $3,$0,$L291
 4344 0050 4000E234 	ori $2,$7,0x40
 4345              	.set macro
 4346              	.set reorder
 4347              	
 4348 0054 FF004730 	andi $7,$2,0x00ff
 4349              	$L291:
 4350              	.set noreorder
 4351              	.set nomacro
 4352 0058 F4FF0010 	b $L287
 4353 005c 2D10E000 	move $2,$7
 4354              	.set macro
 4355              	.set reorder
 4356              	
 4357              	.end _ZN11NesMMU_MMC58Read5000Ej
 4358              	$Lfe56:
 4359              	.size _ZN11NesMMU_MMC58Read5000Ej,$Lfe56-_ZN11NesMMU_MMC58Read5000Ej
 4360              	.section .gnu.linkonce.t._ZN11NesMMU_MMC58ScanLineEi,"ax",@progbits
 4361              	.align 2
 4362              	.p2align 3,,7
 4363              	.weak _ZN11NesMMU_MMC58ScanLineEi
 4364              	.ent _ZN11NesMMU_MMC58ScanLineEi
 4365              	_ZN11NesMMU_MMC58ScanLineEi:
 4366              	.frame $sp,16,$31
 4367              	.mask 0x80000000,-16
 4368              	.fmask 0x00000000,0
 4369 0000 F0FFBD27 	subu $sp,$sp,16
 4370 0004 F000A228 	slt $2,$5,240
 4371 0008 0000BFFF 	sd $31,0($sp)
 4372              	.set noreorder
 4373              	.set nomacro
 4374 000c 0B004010 	beq $2,$0,$L296
 4375 0010 2D188000 	move $3,$4
 4376              	.set macro
 4377              	.set reorder
 4378              	
 4379 0014 5A028290 	lbu $2,602($4)
 4380              	
 4381 0018 FFFF4224 	addu $2,$2,-1
 4382              	.set noreorder
 4383              	.set nomacro
 4384 001c 0E00A210 	beq $5,$2,$L300
 4385 0020 01000224 	li $2,1
 4386              	.set macro
 4387              	.set reorder
 4388              	
 4389              	$L298:
 4390 0024 5B026290 	lbu $2,603($3)
 4391              	
 4392              	.set noreorder
 4393              	.set nomacro
GAS LISTING  			page 79


 4394 0028 05004010 	beq $2,$0,$L302
 4395 002c 0000BFDF 	ld $31,0($sp)
 4396              	.set macro
 4397              	.set reorder
 4398              	
 4399 0030 5C026290 	lbu $2,604($3)
 4400              	
 4401 0034 04004014 	bne $2,$0,$L301
 4401      00000000 
 4402              	$L296:
 4403 003c 0000BFDF 	ld $31,0($sp)
 4404              	$L302:
 4405              	.set noreorder
 4406              	.set nomacro
 4407 0040 0800E003 	j $31
 4408 0044 1000BD27 	addu $sp,$sp,16
 4409              	.set macro
 4410              	.set reorder
 4411              	
 4412              	$L301:
 4413 0048 0000000C 	jal _ZN6NesMMU3IRQEv
 4413      00000000 
 4414              	.set noreorder
 4415              	.set nomacro
 4416 0050 FBFF0010 	b $L302
 4417 0054 0000BFDF 	ld $31,0($sp)
 4418              	.set macro
 4419              	.set reorder
 4420              	
 4421              	.p2align 3
 4422              	$L300:
 4423              	.set noreorder
 4424              	.set nomacro
 4425 0058 F2FF0010 	b $L298
 4426 005c 5C0282A0 	sb $2,604($4)
 4427              	.set macro
 4428              	.set reorder
 4429              	
 4430              	.end _ZN11NesMMU_MMC58ScanLineEi
 4431              	$Lfe57:
 4432              	.size _ZN11NesMMU_MMC58ScanLineEi,$Lfe57-_ZN11NesMMU_MMC58ScanLineEi
 4433              	.section .gnu.linkonce.t._ZN10NesMMU_FDS5ResetEv,"ax",@progbits
 4434              	.align 2
 4435              	.p2align 3,,7
 4436              	.weak _ZN10NesMMU_FDS5ResetEv
 4437              	.ent _ZN10NesMMU_FDS5ResetEv
 4438              	_ZN10NesMMU_FDS5ResetEv:
 4439              	.frame $sp,32,$31
 4440              	.mask 0x80010000,-16
 4441              	.fmask 0x00000000,0
 4442 0000 E0FFBD27 	subu $sp,$sp,32
 4443 0004 0000B0FF 	sd $16,0($sp)
 4444 0008 1000BFFF 	sd $31,16($sp)
 4445              	.set noreorder
 4446              	.set nomacro
 4447 000c 0000000C 	jal _ZN6NesMMU5ResetEv
 4448 0010 2D808000 	move $16,$4
GAS LISTING  			page 80


 4449              	.set macro
 4450              	.set reorder
 4451              	
 4452 0014 2D200002 	move $4,$16
 4453 0018 01000624 	li $6,1
 4454              	.set noreorder
 4455              	.set nomacro
 4456 001c 0000000C 	jal _ZN6NesMMU11SetPrgRam8KEjj
 4457 0020 2D280000 	move $5,$0
 4458              	.set macro
 4459              	.set reorder
 4460              	
 4461 0024 01000524 	li $5,1
 4462 0028 2D200002 	move $4,$16
 4463              	.set noreorder
 4464              	.set nomacro
 4465 002c 0000000C 	jal _ZN6NesMMU11SetPrgRam8KEjj
 4466 0030 02000624 	li $6,2
 4467              	.set macro
 4468              	.set reorder
 4469              	
 4470 0034 02000524 	li $5,2
 4471 0038 2D200002 	move $4,$16
 4472              	.set noreorder
 4473              	.set nomacro
 4474 003c 0000000C 	jal _ZN6NesMMU11SetPrgRam8KEjj
 4475 0040 03000624 	li $6,3
 4476              	.set macro
 4477              	.set reorder
 4478              	
 4479 0044 1000BFDF 	ld $31,16($sp)
 4480 0048 FFFF0224 	li $2,-1
 4481 004c 700200A2 	sb $0,624($16)
 4482 0050 580200A2 	sb $0,600($16)
 4483 0054 5C0202AE 	sw $2,604($16)
 4484 0058 590200A2 	sb $0,601($16)
 4485 005c 5A0200A2 	sb $0,602($16)
 4486 0060 600200AE 	sw $0,608($16)
 4487 0064 680200A2 	sb $0,616($16)
 4488 0068 640200AE 	sw $0,612($16)
 4489 006c 6A0200A6 	sh $0,618($16)
 4490 0070 6C0200AE 	sw $0,620($16)
 4491 0074 0000B0DF 	ld $16,0($sp)
 4492              	
 4493              	.set noreorder
 4494              	.set nomacro
 4495 0078 0800E003 	j $31
 4496 007c 2000BD27 	addu $sp,$sp,32
 4497              	.set macro
 4498              	.set reorder
 4499              	
 4500              	.end _ZN10NesMMU_FDS5ResetEv
 4501              	$Lfe58:
 4502              	.size _ZN10NesMMU_FDS5ResetEv,$Lfe58-_ZN10NesMMU_FDS5ResetEv
 4503              	.rdata
 4504 00c9 00000000 	.align 3
 4504      000000
GAS LISTING  			page 81


 4505              	$LC15:
 4506 00d0 4644535B 	.ascii "FDS[%04X]=%02X\n\000"
 4506      25303458 
 4506      5D3D2530 
 4506      32580A00 
 4507              	.section .gnu.linkonce.t._ZN10NesMMU_FDS5WriteEjh,"ax",@progbits
 4508              	.align 2
 4509              	.p2align 3,,7
 4510              	.weak _ZN10NesMMU_FDS5WriteEjh
 4511              	.ent _ZN10NesMMU_FDS5WriteEjh
 4512              	_ZN10NesMMU_FDS5WriteEjh:
 4513              	.frame $sp,16,$31
 4514              	.mask 0x80000000,-16
 4515              	.fmask 0x00000000,0
 4516 0000 0000043C 	lui $4,%hi($LC15)
 4517 0004 F0FFBD27 	subu $sp,$sp,16
 4518 0008 FF00C630 	andi $6,$6,0x00ff
 4519 000c 0000BFFF 	sd $31,0($sp)
 4520              	.set noreorder
 4521              	.set nomacro
 4522 0010 0000000C 	jal printf
 4523 0014 D0008424 	addiu $4,$4,%lo($LC15)
 4524              	.set macro
 4525              	.set reorder
 4526              	
 4527 0018 0000BFDF 	ld $31,0($sp)
 4528              	
 4529              	.set noreorder
 4530              	.set nomacro
 4531 001c 0800E003 	j $31
 4532 0020 1000BD27 	addu $sp,$sp,16
 4533              	.set macro
 4534              	.set reorder
 4535              	
 4536              	.end _ZN10NesMMU_FDS5WriteEjh
 4537              	$Lfe59:
 4538              	.size _ZN10NesMMU_FDS5WriteEjh,$Lfe59-_ZN10NesMMU_FDS5WriteEjh
 4539 0024 00000000 	.section .gnu.linkonce.t._ZN10NesMMU_FDS8ScanLineEi,"ax",@progbits
 4540              	.align 2
 4541              	.p2align 3,,7
 4542              	.weak _ZN10NesMMU_FDS8ScanLineEi
 4543              	.ent _ZN10NesMMU_FDS8ScanLineEi
 4544              	_ZN10NesMMU_FDS8ScanLineEi:
 4545              	.frame $sp,32,$31
 4546              	.mask 0x80010000,-16
 4547              	.fmask 0x00000000,0
 4548 0000 E0FFBD27 	subu $sp,$sp,32
 4549 0004 0000B0FF 	sd $16,0($sp)
 4550 0008 1000BFFF 	sd $31,16($sp)
 4551 000c 68028290 	lbu $2,616($4)
 4552              	
 4553              	.set noreorder
 4554              	.set nomacro
 4555 0010 0E004010 	beq $2,$0,$L306
 4556 0014 2D808000 	move $16,$4
 4557              	.set macro
 4558              	.set reorder
GAS LISTING  			page 82


 4559              	
 4560 0018 59028290 	lbu $2,601($4)
 4561              	
 4562 001c 80004230 	andi $2,$2,0x80
 4563              	.set noreorder
 4564              	.set nomacro
 4565 0020 0A004050 	beql $2,$0,$L306
 4566 0024 680200A2 	sb $0,616($16)
 4567              	.set macro
 4568              	.set reorder
 4569              	
 4570 0028 5A028290 	lbu $2,602($4)
 4571 002c 0800858C 	lw $5,8($4)
 4572 0030 FE004230 	andi $2,$2,0xfe
 4573 0034 02004234 	ori $2,$2,0x2
 4574 0038 5A0202A2 	sb $2,602($16)
 4575 003c 0600A390 	lbu $3,6($5)
 4576              	
 4577 0040 04006330 	andi $3,$3,0x4
 4578              	.set noreorder
 4579              	.set nomacro
 4580 0044 1D006010 	beq $3,$0,$L315
 4581 0048 2D20A000 	move $4,$5
 4582              	.set macro
 4583              	.set reorder
 4584              	
 4585              	$L306:
 4586 004c 70020292 	lbu $2,624($16)
 4587              	
 4588              	.set noreorder
 4589              	.set nomacro
 4590 0050 06004010 	beq $2,$0,$L317
 4591 0054 1000BFDF 	ld $31,16($sp)
 4592              	.set macro
 4593              	.set reorder
 4594              	
 4595 0058 6C02028E 	lw $2,620($16)
 4596              	
 4597 005c 8FFF4224 	addu $2,$2,-113
 4598              	.set noreorder
 4599              	.set nomacro
 4600 0060 05004004 	bltz $2,$L316
 4601 0064 6C0202AE 	sw $2,620($16)
 4602              	.set macro
 4603              	.set reorder
 4604              	
 4605              	$L305:
 4606 0068 1000BFDF 	ld $31,16($sp)
 4607              	$L317:
 4608 006c 0000B0DF 	ld $16,0($sp)
 4609              	
 4610              	.set noreorder
 4611              	.set nomacro
 4612 0070 0800E003 	j $31
 4613 0074 2000BD27 	addu $sp,$sp,32
 4614              	.set macro
 4615              	.set reorder
GAS LISTING  			page 83


 4616              	
 4617              	.p2align 3
 4618              	$L316:
 4619 0078 5A020292 	lbu $2,602($16)
 4620 007c 0800058E 	lw $5,8($16)
 4621 0080 FD004230 	andi $2,$2,0xfd
 4622 0084 01004234 	ori $2,$2,0x1
 4623 0088 5A0202A2 	sb $2,602($16)
 4624 008c 0600A390 	lbu $3,6($5)
 4625              	
 4626 0090 04006330 	andi $3,$3,0x4
 4627              	.set noreorder
 4628              	.set nomacro
 4629 0094 F4FF6014 	bne $3,$0,$L305
 4630 0098 2D20A000 	move $4,$5
 4631              	.set macro
 4632              	.set reorder
 4633              	
 4634 009c 0000000C 	jal N6502IRQ
 4634      00000000 
 4635 00a4 0100033C 	li $3,65536
 4636 00a8 6C02028E 	lw $2,620($16)
 4637 00ac 700200A2 	sb $0,624($16)
 4638 00b0 21104300 	addu $2,$2,$3
 4639              	.set noreorder
 4640              	.set nomacro
 4641 00b4 ECFF0010 	b $L305
 4642 00b8 6C0202AE 	sw $2,620($16)
 4643              	.set macro
 4644              	.set reorder
 4645              	
 4646              	$L315:
 4647 00bc 0000000C 	jal N6502IRQ
 4647      00000000 
 4648              	.set noreorder
 4649              	.set nomacro
 4650 00c4 E1FF0010 	b $L306
 4651 00c8 680200A2 	sb $0,616($16)
 4652              	.set macro
 4653              	.set reorder
 4654              	
 4655              	.end _ZN10NesMMU_FDS8ScanLineEi
 4656              	$Lfe60:
 4657              	.size _ZN10NesMMU_FDS8ScanLineEi,$Lfe60-_ZN10NesMMU_FDS8ScanLineEi
 4658 00cc 00000000 	.rdata
 4659              	.align 3
 4660              	$LC17:
 4661 00e0 4644533A 	.ascii "FDS: Inserted Disk %d Side %c\n\000"
 4661      20496E73 
 4661      65727465 
 4661      64204469 
 4661      736B2025 
 4662 00ff 00       	.align 3
 4663              	$LC16:
 4664 0100 4644533A 	.ascii "FDS: Ejected Disk\n\000"
 4664      20456A65 
 4664      63746564 
GAS LISTING  			page 84


 4664      20446973 
 4664      6B0A00
 4665              	.section .gnu.linkonce.t._ZN10NesMMU_FDS10InsertDiskEi,"ax",@progbits
 4666              	.align 2
 4667              	.p2align 3,,7
 4668              	.weak _ZN10NesMMU_FDS10InsertDiskEi
 4669              	.ent _ZN10NesMMU_FDS10InsertDiskEi
 4670              	_ZN10NesMMU_FDS10InsertDiskEi:
 4671              	.frame $sp,48,$31
 4672              	.mask 0x80030000,-16
 4673              	.fmask 0x00000000,0
 4674 0000 D0FFBD27 	subu $sp,$sp,48
 4675 0004 FFFF0224 	li $2,-1
 4676 0008 1000B1FF 	sd $17,16($sp)
 4677 000c 2D888000 	move $17,$4
 4678 0010 0000B0FF 	sd $16,0($sp)
 4679 0014 2D80A000 	move $16,$5
 4680              	.set noreorder
 4681              	.set nomacro
 4682 0018 1500A210 	beq $5,$2,$L324
 4683 001c 2000BFFF 	sd $31,32($sp)
 4684              	.set macro
 4685              	.set reorder
 4686              	
 4687 0020 1400828C 	lw $2,20($4)
 4688              	
 4689              	.set noreorder
 4690              	.set nomacro
 4691 0024 0A004010 	beq $2,$0,$L326
 4692 0028 2000BFDF 	ld $31,32($sp)
 4693              	.set macro
 4694              	.set reorder
 4695              	
 4696 002c 0800428C 	lw $2,8($2)
 4697 0030 0100A630 	andi $6,$5,0x1
 4698 0034 0000043C 	lui $4,%hi($LC17)
 4699 0038 4100C624 	addu $6,$6,65
 4700 003c 2A100202 	slt $2,$16,$2
 4701 0040 43280500 	sra $5,$5,1
 4702              	.set noreorder
 4703              	.set nomacro
 4704 0044 06004014 	bne $2,$0,$L325
 4705 0048 E0008424 	addiu $4,$4,%lo($LC17)
 4706              	.set macro
 4707              	.set reorder
 4708              	
 4709              	$L318:
 4710 004c 2000BFDF 	ld $31,32($sp)
 4711              	$L326:
 4712 0050 1000B1DF 	ld $17,16($sp)
 4713 0054 0000B0DF 	ld $16,0($sp)
 4714              	
 4715              	.set noreorder
 4716              	.set nomacro
 4717 0058 0800E003 	j $31
 4718 005c 3000BD27 	addu $sp,$sp,48
 4719              	.set macro
GAS LISTING  			page 85


 4720              	.set reorder
 4721              	
 4722              	.p2align 3
 4723              	$L325:
 4724              	.set noreorder
 4725              	.set nomacro
 4726 0060 0000000C 	jal printf
 4727 0064 5C0230AE 	sw $16,604($17)
 4728              	.set macro
 4729              	.set reorder
 4730              	
 4731              	.set noreorder
 4732              	.set nomacro
 4733 0068 F9FF0010 	b $L326
 4734 006c 2000BFDF 	ld $31,32($sp)
 4735              	.set macro
 4736              	.set reorder
 4737              	
 4738              	.p2align 3
 4739              	$L324:
 4740 0070 5C02828C 	lw $2,604($4)
 4741 0074 0000043C 	lui $4,%hi($LC16)
 4742              	.set noreorder
 4743              	.set nomacro
 4744 0078 F4FF4510 	beq $2,$5,$L318
 4745 007c 00018424 	addiu $4,$4,%lo($LC16)
 4746              	.set macro
 4747              	.set reorder
 4748              	
 4749 0080 0000000C 	jal printf
 4749      00000000 
 4750              	.set noreorder
 4751              	.set nomacro
 4752 0088 F0FF0010 	b $L318
 4753 008c 5C0230AE 	sw $16,604($17)
 4754              	.set macro
 4755              	.set reorder
 4756              	
 4757              	.end _ZN10NesMMU_FDS10InsertDiskEi
 4758              	$Lfe61:
 4759              	.size _ZN10NesMMU_FDS10InsertDiskEi,$Lfe61-_ZN10NesMMU_FDS10InsertDiskEi
 4760              	.section .gnu.linkonce.t._ZN10NesMMU_FDS9Write4000Ejh,"ax",@progbits
 4761              	.align 2
 4762              	.p2align 3,,7
 4763              	.weak _ZN10NesMMU_FDS9Write4000Ejh
 4764              	.ent _ZN10NesMMU_FDS9Write4000Ejh
 4765              	_ZN10NesMMU_FDS9Write4000Ejh:
 4766              	.frame $sp,48,$31
 4767              	.mask 0x80030000,-16
 4768              	.fmask 0x00000000,0
 4769 0000 D0FFBD27 	subu $sp,$sp,48
 4770 0004 24400224 	li $2,16420
 4771 0008 1000B1FF 	sd $17,16($sp)
 4772 000c FF00D130 	andi $17,$6,0x00ff
 4773 0010 0000B0FF 	sd $16,0($sp)
 4774 0014 2D808000 	move $16,$4
 4775              	.set noreorder
GAS LISTING  			page 86


 4776              	.set nomacro
 4777 0018 6900A210 	beq $5,$2,$L333
 4778 001c 2000BFFF 	sd $31,32($sp)
 4779              	.set macro
 4780              	.set reorder
 4781              	
 4782 0020 2540A22C 	sltu $2,$5,16421
 4783              	.set noreorder
 4784              	.set nomacro
 4785 0024 2C004010 	beq $2,$0,$L363
 4786 0028 80400224 	li $2,16512
 4787              	.set macro
 4788              	.set reorder
 4789              	
 4790 002c 21400224 	li $2,16417
 4791              	.set noreorder
 4792              	.set nomacro
 4793 0030 2500A250 	beql $5,$2,$L330
 4794 0034 6A028290 	lbu $2,618($4)
 4795              	.set macro
 4796              	.set reorder
 4797              	
 4798              	
 4799 0038 2240A22C 	sltu $2,$5,16418
 4800              	.set noreorder
 4801              	.set nomacro
 4802 003c 16004010 	beq $2,$0,$L364
 4803 0040 22400224 	li $2,16418
 4804              	.set macro
 4805              	.set reorder
 4806              	
 4807 0044 20400224 	li $2,16416
 4808              	.set noreorder
 4809              	.set nomacro
 4810 0048 0F00A250 	beql $5,$2,$L329
 4811 004c 6A028294 	lhu $2,618($4)
 4812              	.set macro
 4813              	.set reorder
 4814              	
 4815              	
 4816 0050 C0BFA224 	addu $2,$5,-16448
 4817              	$L369:
 4818 0054 4000422C 	sltu $2,$2,64
 4819              	$L373:
 4820              	.set noreorder
 4821              	.set nomacro
 4822 0058 06004050 	beql $2,$0,$L367
 4823 005c 0000043C 	lui $4,%hi($LC15)
 4824              	.set macro
 4825              	.set reorder
 4826              	
 4827              	$L327:
 4828 0060 2000BFDF 	ld $31,32($sp)
 4829              	$L368:
 4830 0064 1000B1DF 	ld $17,16($sp)
 4831              	$L372:
 4832 0068 0000B0DF 	ld $16,0($sp)
GAS LISTING  			page 87


 4833              	
 4834              	.set noreorder
 4835              	.set nomacro
 4836 006c 0800E003 	j $31
 4837 0070 3000BD27 	addu $sp,$sp,48
 4838              	.set macro
 4839              	.set reorder
 4840              	
 4841              	$L367:
 4842 0074 2D302002 	move $6,$17
 4843              	.set noreorder
 4844              	.set nomacro
 4845 0078 0000000C 	jal printf
 4846 007c D0008424 	addiu $4,$4,%lo($LC15)
 4847              	.set macro
 4848              	.set reorder
 4849              	
 4850              	.set noreorder
 4851              	.set nomacro
 4852 0080 F8FF0010 	b $L368
 4853 0084 2000BFDF 	ld $31,32($sp)
 4854              	.set macro
 4855              	.set reorder
 4856              	
 4857              	$L329:
 4858 0088 00FF4230 	andi $2,$2,0xff00
 4859 008c 25105100 	or $2,$2,$17
 4860              	$L366:
 4861              	.set noreorder
 4862              	.set nomacro
 4863 0090 F3FF0010 	b $L327
 4864 0094 6A0202A6 	sh $2,618($16)
 4865              	.set macro
 4866              	.set reorder
 4867              	
 4868              	.p2align 3
 4869              	$L364:
 4870              	.set noreorder
 4871              	.set nomacro
 4872 0098 0500A210 	beq $5,$2,$L331
 4873 009c 23400224 	li $2,16419
 4874              	.set macro
 4875              	.set reorder
 4876              	
 4877              	.set noreorder
 4878              	.set nomacro
 4879 00a0 ECFFA214 	bne $5,$2,$L369
 4880 00a4 C0BFA224 	addu $2,$5,-16448
 4881              	.set macro
 4882              	.set reorder
 4883              	
 4884              	.set noreorder
 4885              	.set nomacro
 4886 00a8 EDFF0010 	b $L327
 4887 00ac 580291A0 	sb $17,600($4)
 4888              	.set macro
 4889              	.set reorder
GAS LISTING  			page 88


 4890              	
 4891              	$L331:
 4892 00b0 6A028394 	lhu $3,618($4)
 4893 00b4 02002232 	andi $2,$17,0x2
 4894 00b8 700282A0 	sb $2,624($4)
 4895              	.set noreorder
 4896              	.set nomacro
 4897 00bc E8FF0010 	b $L327
 4898 00c0 6C0283AC 	sw $3,620($4)
 4899              	.set macro
 4900              	.set reorder
 4901              	
 4902 00c4 00000000 	.p2align 3
 4903              	$L330:
 4904 00c8 001A1100 	sll $3,$17,8
 4905              	.set noreorder
 4906              	.set nomacro
 4907 00cc F0FF0010 	b $L366
 4908 00d0 25104300 	or $2,$2,$3
 4909              	.set macro
 4910              	.set reorder
 4911              	
 4912 00d4 00000000 	.p2align 3
 4913              	$L363:
 4914              	.set noreorder
 4915              	.set nomacro
 4916 00d8 E1FFA210 	beq $5,$2,$L327
 4917 00dc 8140A22C 	sltu $2,$5,16513
 4918              	.set macro
 4919              	.set reorder
 4920              	
 4921              	.set noreorder
 4922              	.set nomacro
 4923 00e0 31004010 	beq $2,$0,$L365
 4924 00e4 7EBFA224 	addu $2,$5,-16514
 4925              	.set macro
 4926              	.set reorder
 4927              	
 4928 00e8 25400224 	li $2,16421
 4929              	.set noreorder
 4930              	.set nomacro
 4931 00ec 0500A210 	beq $5,$2,$L339
 4932 00f0 26400224 	li $2,16422
 4933              	.set macro
 4934              	.set reorder
 4935              	
 4936              	.set noreorder
 4937              	.set nomacro
 4938 00f4 DAFFA210 	beq $5,$2,$L327
 4939 00f8 C0BFA224 	addu $2,$5,-16448
 4940              	.set macro
 4941              	.set reorder
 4942              	
 4943              	.set noreorder
 4944              	.set nomacro
 4945 00fc D6FF0010 	b $L373
 4946 0100 4000422C 	sltu $2,$2,64
GAS LISTING  			page 89


 4947              	.set macro
 4948              	.set reorder
 4949              	
 4950              	$L339:
 4951 0104 08002332 	andi $3,$17,0x8
 4952 0108 03000224 	li $2,3
 4953 010c 02000524 	li $5,2
 4954              	.set noreorder
 4955              	.set nomacro
 4956 0110 0000000C 	jal _ZN6NesMMU9SetMirrorE13NesMMUMirrorE
 4957 0114 0A284300 	movz $5,$2,$3
 4958              	.set macro
 4959              	.set reorder
 4960              	
 4961 0118 FFFF0224 	li $2,-1
 4962 011c 5C02038E 	lw $3,604($16)
 4963              	
 4964              	.set noreorder
 4965              	.set nomacro
 4966 0120 1C006210 	beq $3,$2,$L342
 4967 0124 40002232 	andi $2,$17,0x40
 4968              	.set macro
 4969              	.set reorder
 4970              	
 4971              	.set noreorder
 4972              	.set nomacro
 4973 0128 1C004014 	bne $2,$0,$L343
 4974 012c 01000224 	li $2,1
 4975              	.set macro
 4976              	.set reorder
 4977              	
 4978 0130 59020292 	lbu $2,601($16)
 4979              	
 4980 0134 40004230 	andi $2,$2,0x40
 4981              	.set noreorder
 4982              	.set nomacro
 4983 0138 0C004010 	beq $2,$0,$L370
 4984 013c 04002232 	andi $2,$17,0x4
 4985              	.set macro
 4986              	.set reorder
 4987              	
 4988 0140 10002232 	andi $2,$17,0x10
 4989              	.set noreorder
 4990              	.set nomacro
 4991 0144 09004014 	bne $2,$0,$L370
 4992 0148 04002232 	andi $2,$17,0x4
 4993              	.set macro
 4994              	.set reorder
 4995              	
 4996 014c 6002048E 	lw $4,608($16)
 4997 0150 01000224 	li $2,1
 4998 0154 0200832C 	sltu $3,$4,2
 4999              	.set noreorder
 5000              	.set nomacro
 5001 0158 03006014 	bne $3,$0,$L346
 5002 015c 680202A2 	sb $2,616($16)
 5003              	.set macro
GAS LISTING  			page 90


 5004              	.set reorder
 5005              	
 5006 0160 FEFF8224 	addu $2,$4,-2
 5007 0164 600202AE 	sw $2,608($16)
 5008              	$L346:
 5009 0168 04002232 	andi $2,$17,0x4
 5010              	$L370:
 5011              	.set noreorder
 5012              	.set nomacro
 5013 016c 04004014 	bne $2,$0,$L371
 5014 0170 02002232 	andi $2,$17,0x2
 5015              	.set macro
 5016              	.set reorder
 5017              	
 5018 0174 02000224 	li $2,2
 5019 0178 640202AE 	sw $2,612($16)
 5020 017c 02002232 	andi $2,$17,0x2
 5021              	$L371:
 5022              	.set noreorder
 5023              	.set nomacro
 5024 0180 B7FF4050 	beql $2,$0,$L327
 5025 0184 590211A2 	sb $17,601($16)
 5026              	.set macro
 5027              	.set reorder
 5028              	
 5029 0188 01000224 	li $2,1
 5030 018c 600200AE 	sw $0,608($16)
 5031 0190 680202A2 	sb $2,616($16)
 5032              	$L342:
 5033              	.set noreorder
 5034              	.set nomacro
 5035 0194 B2FF0010 	b $L327
 5036 0198 590211A2 	sb $17,601($16)
 5037              	.set macro
 5038              	.set reorder
 5039              	
 5040              	$L343:
 5041              	.set noreorder
 5042              	.set nomacro
 5043 019c F2FF0010 	b $L346
 5044 01a0 680202A2 	sb $2,616($16)
 5045              	.set macro
 5046              	.set reorder
 5047              	
 5048 01a4 00000000 	.p2align 3
 5049              	$L365:
 5050 01a8 0900422C 	sltu $2,$2,9
 5051              	.set noreorder
 5052              	.set nomacro
 5053 01ac A9FF4010 	beq $2,$0,$L369
 5054 01b0 C0BFA224 	addu $2,$5,-16448
 5055              	.set macro
 5056              	.set reorder
 5057              	
 5058              	.set noreorder
 5059              	.set nomacro
 5060 01b4 ABFF0010 	b $L368
GAS LISTING  			page 91


 5061 01b8 2000BFDF 	ld $31,32($sp)
 5062              	.set macro
 5063              	.set reorder
 5064              	
 5065 01bc 00000000 	.p2align 3
 5066              	$L333:
 5067 01c0 5C02858C 	lw $5,604($4)
 5068 01c4 FFFF0224 	li $2,-1
 5069              	.set noreorder
 5070              	.set nomacro
 5071 01c8 A5FFA210 	beq $5,$2,$L327
 5072 01cc 01000324 	li $3,1
 5073              	.set macro
 5074              	.set reorder
 5075              	
 5076 01d0 5802828C 	lw $2,600($4)
 5077              	
 5078 01d4 01044230 	andi $2,$2,0x401
 5079              	.set noreorder
 5080              	.set nomacro
 5081 01d8 A2FF4314 	bne $2,$3,$L368
 5082 01dc 2000BFDF 	ld $31,32($sp)
 5083              	.set macro
 5084              	.set reorder
 5085              	
 5086 01e0 6002868C 	lw $6,608($4)
 5087 01e4 E7FD0234 	li $2,64999
 5088 01e8 2B104600 	sltu $2,$2,$6
 5089              	.set noreorder
 5090              	.set nomacro
 5091 01ec 9EFF4054 	bnel $2,$0,$L372
 5092 01f0 1000B1DF 	ld $17,16($sp)
 5093              	.set macro
 5094              	.set reorder
 5095              	
 5096 01f4 6402828C 	lw $2,612($4)
 5097              	
 5098              	.set noreorder
 5099              	.set nomacro
 5100 01f8 04004050 	beql $2,$0,$L336
 5101 01fc 0200C22C 	sltu $2,$6,2
 5102              	.set macro
 5103              	.set reorder
 5104              	
 5105 0200 FFFF4224 	addu $2,$2,-1
 5106              	.set noreorder
 5107              	.set nomacro
 5108 0204 97FF0010 	b $L368
 5109 0208 640282AC 	sw $2,612($4)
 5110              	.set macro
 5111              	.set reorder
 5112              	
 5113              	$L336:
 5114              	.set noreorder
 5115              	.set nomacro
 5116 020c 95FF4054 	bnel $2,$0,$L368
 5117 0210 2000BFDF 	ld $31,32($sp)
GAS LISTING  			page 92


 5118              	.set macro
 5119              	.set reorder
 5120              	
 5121 0214 1400848C 	lw $4,20($4)
 5122 0218 FEFFC624 	addu $6,$6,-2
 5123              	.set noreorder
 5124              	.set nomacro
 5125 021c 0000000C 	jal _ZN7NesDisk9WriteByteEijh
 5126 0220 2D382002 	move $7,$17
 5127              	.set macro
 5128              	.set reorder
 5129              	
 5130              	.set noreorder
 5131              	.set nomacro
 5132 0224 8FFF0010 	b $L368
 5133 0228 2000BFDF 	ld $31,32($sp)
 5134              	.set macro
 5135              	.set reorder
 5136              	
 5137              	.end _ZN10NesMMU_FDS9Write4000Ejh
 5138              	$Lfe62:
 5139              	.size _ZN10NesMMU_FDS9Write4000Ejh,$Lfe62-_ZN10NesMMU_FDS9Write4000Ejh
 5140 022c 00000000 	.section .gnu.linkonce.t._ZN10NesMMU_FDS8Read4000Ej,"ax",@progbits
 5141              	.align 2
 5142              	.p2align 3,,7
 5143              	.weak _ZN10NesMMU_FDS8Read4000Ej
 5144              	.ent _ZN10NesMMU_FDS8Read4000Ej
 5145              	_ZN10NesMMU_FDS8Read4000Ej:
 5146              	.frame $sp,32,$31
 5147              	.mask 0x80010000,-16
 5148              	.fmask 0x00000000,0
 5149 0000 E0FFBD27 	subu $sp,$sp,32
 5150 0004 31400224 	li $2,16433
 5151 0008 0000B0FF 	sd $16,0($sp)
 5152 000c 2D808000 	move $16,$4
 5153              	.set noreorder
 5154              	.set nomacro
 5155 0010 1B00A210 	beq $5,$2,$L377
 5156 0014 1000BFFF 	sd $31,16($sp)
 5157              	.set macro
 5158              	.set reorder
 5159              	
 5160 0018 3240A22C 	sltu $2,$5,16434
 5161              	.set noreorder
 5162              	.set nomacro
 5163 001c 0C004010 	beq $2,$0,$L387
 5164 0020 32400224 	li $2,16434
 5165              	.set macro
 5166              	.set reorder
 5167              	
 5168 0024 30400224 	li $2,16432
 5169              	.set noreorder
 5170              	.set nomacro
 5171 0028 0700A210 	beq $5,$2,$L376
 5172 002c 02120500 	srl $2,$5,8
 5173              	.set macro
 5174              	.set reorder
GAS LISTING  			page 93


 5175              	
 5176              	$L388:
 5177 0030 FF004430 	andi $4,$2,0x00ff
 5178              	$L374:
 5179 0034 1000BFDF 	ld $31,16($sp)
 5180              	$L389:
 5181 0038 2D108000 	move $2,$4
 5182 003c 0000B0DF 	ld $16,0($sp)
 5183              	
 5184              	.set noreorder
 5185              	.set nomacro
 5186 0040 0800E003 	j $31
 5187 0044 2000BD27 	addu $sp,$sp,32
 5188              	.set macro
 5189              	.set reorder
 5190              	
 5191              	.p2align 3
 5192              	$L376:
 5193              	.set noreorder
 5194              	.set nomacro
 5195 0048 FAFF0010 	b $L374
 5196 004c 5A028490 	lbu $4,602($4)
 5197              	.set macro
 5198              	.set reorder
 5199              	
 5200              	.p2align 3
 5201              	$L387:
 5202              	.set noreorder
 5203              	.set nomacro
 5204 0050 0500A210 	beq $5,$2,$L381
 5205 0054 33400224 	li $2,16435
 5206              	.set macro
 5207              	.set reorder
 5208              	
 5209              	.set noreorder
 5210              	.set nomacro
 5211 0058 F6FFA210 	beq $5,$2,$L374
 5212 005c 80000424 	li $4,128
 5213              	.set macro
 5214              	.set reorder
 5215              	
 5216              	.set noreorder
 5217              	.set nomacro
 5218 0060 F3FF0010 	b $L388
 5219 0064 02120500 	srl $2,$5,8
 5220              	.set macro
 5221              	.set reorder
 5222              	
 5223              	.p2align 3
 5224              	$L381:
 5225 0068 5C02828C 	lw $2,604($4)
 5226 006c 40000324 	li $3,64
 5227 0070 41000424 	li $4,65
 5228 0074 27100200 	nor $2,$0,$2
 5229              	.set noreorder
 5230              	.set nomacro
 5231 0078 EEFF0010 	b $L374
GAS LISTING  			page 94


 5232 007c 0B206200 	movn $4,$3,$2
 5233              	.set macro
 5234              	.set reorder
 5235              	
 5236              	.p2align 3
 5237              	$L377:
 5238 0080 5C02858C 	lw $5,604($4)
 5239 0084 FFFF0224 	li $2,-1
 5240              	.set noreorder
 5241              	.set nomacro
 5242 0088 EAFFA250 	beql $5,$2,$L374
 5243 008c 2D200000 	move $4,$0
 5244              	.set macro
 5245              	.set reorder
 5246              	
 5247 0090 1400848C 	lw $4,20($4)
 5248              	.set noreorder
 5249              	.set nomacro
 5250 0094 0000000C 	jal _ZN7NesDisk8ReadByteEij
 5251 0098 6002068E 	lw $6,608($16)
 5252              	.set macro
 5253              	.set reorder
 5254              	
 5255 009c 2D204000 	move $4,$2
 5256 00a0 59020292 	lbu $2,601($16)
 5257              	
 5258 00a4 01004230 	andi $2,$2,0x1
 5259              	.set noreorder
 5260              	.set nomacro
 5261 00a8 E3FF4010 	beq $2,$0,$L389
 5262 00ac 1000BFDF 	ld $31,16($sp)
 5263              	.set macro
 5264              	.set reorder
 5265              	
 5266 00b0 6002038E 	lw $3,608($16)
 5267 00b4 E6FD0234 	li $2,64998
 5268 00b8 2B104300 	sltu $2,$2,$3
 5269              	.set noreorder
 5270              	.set nomacro
 5271 00bc 04004014 	bne $2,$0,$L390
 5272 00c0 01000224 	li $2,1
 5273              	.set macro
 5274              	.set reorder
 5275              	
 5276 00c4 01006224 	addu $2,$3,1
 5277 00c8 600202AE 	sw $2,608($16)
 5278 00cc 01000224 	li $2,1
 5279              	$L390:
 5280              	.set noreorder
 5281              	.set nomacro
 5282 00d0 D8FF0010 	b $L374
 5283 00d4 680202A2 	sb $2,616($16)
 5284              	.set macro
 5285              	.set reorder
 5286              	
 5287              	.end _ZN10NesMMU_FDS8Read4000Ej
 5288              	$Lfe63:
GAS LISTING  			page 95


 5289              	.size _ZN10NesMMU_FDS8Read4000Ej,$Lfe63-_ZN10NesMMU_FDS8Read4000Ej
 5290              	.section .gnu.linkonce.t._ZN11NesMMU_MMC18WriteRegEhh,"ax",@progbits
 5291              	.align 2
 5292              	.p2align 3,,7
 5293              	.weak _ZN11NesMMU_MMC18WriteRegEhh
 5294              	.ent _ZN11NesMMU_MMC18WriteRegEhh
 5295              	_ZN11NesMMU_MMC18WriteRegEhh:
 5296              	.frame $sp,64,$31
 5297              	.mask 0x80070000,-16
 5298              	.fmask 0x00000000,0
 5299 0000 C0FFBD27 	subu $sp,$sp,64
 5300 0004 FF00A530 	andi $5,$5,0x00ff
 5301 0008 1000B1FF 	sd $17,16($sp)
 5302 000c 2110A400 	addu $2,$5,$4
 5303 0010 0000B0FF 	sd $16,0($sp)
 5304 0014 50024224 	addu $2,$2,592
 5305 0018 3000BFFF 	sd $31,48($sp)
 5306 001c FF00D130 	andi $17,$6,0x00ff
 5307 0020 2000B2FF 	sd $18,32($sp)
 5308 0024 01000324 	li $3,1
 5309 0028 2D808000 	move $16,$4
 5310 002c 0A005290 	lbu $18,10($2)
 5311              	.set noreorder
 5312              	.set nomacro
 5313 0030 1300A310 	beq $5,$3,$L407
 5314 0034 0A0051A0 	sb $17,10($2)
 5315              	.set macro
 5316              	.set reorder
 5317              	
 5318 0038 0200A228 	slt $2,$5,2
 5319              	.set noreorder
 5320              	.set nomacro
 5321 003c 24004014 	bne $2,$0,$L419
 5322 0040 02000224 	li $2,2
 5323              	.set macro
 5324              	.set reorder
 5325              	
 5326              	.set noreorder
 5327              	.set nomacro
 5328 0044 0E00A210 	beq $5,$2,$L407
 5329 0048 03000224 	li $2,3
 5330              	.set macro
 5331              	.set reorder
 5332              	
 5333 004c 0800A210 	beq $5,$2,$L412
 5333      00000000 
 5334 0054 3000BFDF 	ld $31,48($sp)
 5335              	$L420:
 5336 0058 2000B2DF 	ld $18,32($sp)
 5337 005c 1000B1DF 	ld $17,16($sp)
 5338 0060 0000B0DF 	ld $16,0($sp)
 5339              	
 5340              	.set noreorder
 5341              	.set nomacro
 5342 0064 0800E003 	j $31
 5343 0068 4000BD27 	addu $sp,$sp,64
 5344              	.set macro
GAS LISTING  			page 96


 5345              	.set reorder
 5346              	
 5347 006c 00000000 	.p2align 3
 5348              	$L412:
 5349 0070 0000000C 	jal _ZN11NesMMU_MMC114UpdateRomBanksEv
 5349      00000000 
 5350              	.set noreorder
 5351              	.set nomacro
 5352 0078 F7FF0010 	b $L420
 5353 007c 3000BFDF 	ld $31,48($sp)
 5354              	.set macro
 5355              	.set reorder
 5356              	
 5357              	.p2align 3
 5358              	$L407:
 5359 0080 5A020292 	lbu $2,602($16)
 5360              	
 5361 0084 10004230 	andi $2,$2,0x10
 5362              	.set noreorder
 5363              	.set nomacro
 5364 0088 0D004050 	beql $2,$0,$L408
 5365 008c 5B020592 	lbu $5,603($16)
 5366              	.set macro
 5367              	.set reorder
 5368              	
 5369 0090 5B020692 	lbu $6,603($16)
 5370              	.set noreorder
 5371              	.set nomacro
 5372 0094 0000000C 	jal _ZN6NesMMU11SetChrRom4KEjj
 5373 0098 2D280000 	move $5,$0
 5374              	.set macro
 5375              	.set reorder
 5376              	
 5377 009c 2D200002 	move $4,$16
 5378 00a0 5C020692 	lbu $6,604($16)
 5379              	.set noreorder
 5380              	.set nomacro
 5381 00a4 0000000C 	jal _ZN6NesMMU11SetChrRom4KEjj
 5382 00a8 01000524 	li $5,1
 5383              	.set macro
 5384              	.set reorder
 5385              	
 5386              	$L410:
 5387              	.set noreorder
 5388              	.set nomacro
 5389 00ac EAFF5152 	beql $18,$17,$L420
 5390 00b0 3000BFDF 	ld $31,48($sp)
 5391              	.set macro
 5392              	.set reorder
 5393              	
 5394              	.set noreorder
 5395              	.set nomacro
 5396 00b4 EEFF0010 	b $L412
 5397 00b8 2D200002 	move $4,$16
 5398              	.set macro
 5399              	.set reorder
 5400              	
GAS LISTING  			page 97


 5401 00bc 00000000 	.p2align 3
 5402              	$L408:
 5403              	.set noreorder
 5404              	.set nomacro
 5405 00c0 0000000C 	jal _ZN6NesMMU11SetChrRom8KEj
 5406 00c4 42280500 	srl $5,$5,1
 5407              	.set macro
 5408              	.set reorder
 5409              	
 5410 00c8 F8FF0010 	b $L410
 5410      00000000 
 5411              	.p2align 3
 5412              	$L419:
 5413              	.set noreorder
 5414              	.set nomacro
 5415 00d0 E1FFA014 	bne $5,$0,$L420
 5416 00d4 3000BFDF 	ld $31,48($sp)
 5417              	.set macro
 5418              	.set reorder
 5419              	
 5420 00d8 02002232 	andi $2,$17,0x2
 5421              	.set noreorder
 5422              	.set nomacro
 5423 00dc 06004010 	beq $2,$0,$L416
 5424 00e0 01002532 	andi $5,$17,0x1
 5425              	.set macro
 5426              	.set reorder
 5427              	
 5428 00e4 0100223A 	xori $2,$17,0x1
 5429 00e8 03000524 	li $5,3
 5430 00ec 01004230 	andi $2,$2,0x1
 5431 00f0 02000324 	li $3,2
 5432 00f4 0A286200 	movz $5,$3,$2
 5433              	$L416:
 5434 00f8 0000000C 	jal _ZN6NesMMU9SetMirrorE13NesMMUMirrorE
 5434      00000000 
 5435              	.set noreorder
 5436              	.set nomacro
 5437 0100 D5FF5112 	beq $18,$17,$L420
 5438 0104 3000BFDF 	ld $31,48($sp)
 5439              	.set macro
 5440              	.set reorder
 5441              	
 5442              	
 5443              	.set noreorder
 5444              	.set nomacro
 5445 0108 0000000C 	jal _ZN11NesMMU_MMC114UpdateRomBanksEv
 5446 010c 2D200002 	move $4,$16
 5447              	.set macro
 5448              	.set reorder
 5449              	
 5450 0110 5A020292 	lbu $2,602($16)
 5451              	
 5452 0114 10004230 	andi $2,$2,0x10
 5453              	.set noreorder
 5454              	.set nomacro
 5455 0118 0B004050 	beql $2,$0,$L399
GAS LISTING  			page 98


 5456 011c 5B020592 	lbu $5,603($16)
 5457              	.set macro
 5458              	.set reorder
 5459              	
 5460 0120 5B020692 	lbu $6,603($16)
 5461 0124 2D200002 	move $4,$16
 5462              	.set noreorder
 5463              	.set nomacro
 5464 0128 0000000C 	jal _ZN6NesMMU11SetChrRom4KEjj
 5465 012c 2D280000 	move $5,$0
 5466              	.set macro
 5467              	.set reorder
 5468              	
 5469 0130 2D200002 	move $4,$16
 5470 0134 5C020692 	lbu $6,604($16)
 5471              	.set noreorder
 5472              	.set nomacro
 5473 0138 0000000C 	jal _ZN6NesMMU11SetChrRom4KEjj
 5474 013c 01000524 	li $5,1
 5475              	.set macro
 5476              	.set reorder
 5477              	
 5478              	.set noreorder
 5479              	.set nomacro
 5480 0140 C5FF0010 	b $L420
 5481 0144 3000BFDF 	ld $31,48($sp)
 5482              	.set macro
 5483              	.set reorder
 5484              	
 5485              	$L399:
 5486 0148 2D200002 	move $4,$16
 5487              	.set noreorder
 5488              	.set nomacro
 5489 014c 0000000C 	jal _ZN6NesMMU11SetChrRom8KEj
 5490 0150 42280500 	srl $5,$5,1
 5491              	.set macro
 5492              	.set reorder
 5493              	
 5494              	.set noreorder
 5495              	.set nomacro
 5496 0154 C0FF0010 	b $L420
 5497 0158 3000BFDF 	ld $31,48($sp)
 5498              	.set macro
 5499              	.set reorder
 5500              	
 5501              	.end _ZN11NesMMU_MMC18WriteRegEhh
 5502              	$Lfe64:
 5503              	.size _ZN11NesMMU_MMC18WriteRegEhh,$Lfe64-_ZN11NesMMU_MMC18WriteRegEhh
 5504 015c 00000000 	.section .gnu.linkonce.t._ZN11NesMMU_MMC312WriteCommandEhh,"ax",@progbits
 5505              	.align 2
 5506              	.p2align 3,,7
 5507              	.weak _ZN11NesMMU_MMC312WriteCommandEhh
 5508              	.ent _ZN11NesMMU_MMC312WriteCommandEhh
 5509              	_ZN11NesMMU_MMC312WriteCommandEhh:
 5510              	.frame $sp,64,$31
 5511              	.mask 0x80070000,-16
 5512              	.fmask 0x00000000,0
GAS LISTING  			page 99


 5513 0000 C0FFBD27 	subu $sp,$sp,64
 5514 0004 FF00A530 	andi $5,$5,0x00ff
 5515 0008 1000B1FF 	sd $17,16($sp)
 5516 000c FA110500 	dsrl $2,$5,7
 5517 0010 2D888000 	move $17,$4
 5518 0014 2000B2FF 	sd $18,32($sp)
 5519 0018 0700A430 	andi $4,$5,0x7
 5520 001c 0000B0FF 	sd $16,0($sp)
 5521 0020 0800832C 	sltu $3,$4,8
 5522 0024 3000BFFF 	sd $31,48($sp)
 5523 0028 FF00D230 	andi $18,$6,0x00ff
 5524              	.set noreorder
 5525              	.set nomacro
 5526 002c 12006010 	beq $3,$0,$L421
 5527 0030 80800200 	sll $16,$2,2
 5528              	.set macro
 5529              	.set reorder
 5530              	
 5531 0034 0000033C 	lui $3,%hi($L435)
 5532 0038 80100400 	sll $2,$4,2
 5533 003c 14016324 	addiu $3,$3,%lo($L435)
 5534 0040 21104300 	addu $2,$2,$3
 5535 0044 0000448C 	lw $4,0($2)
 5536              	
 5537 0048 08008000 	j $4
 5537      00000000 
 5538              	.rdata
 5539 0113 00       	.align 2
 5540              	$L435:
 5541 0114 50000000 	.word $L425
 5542 0118 90000000 	.word $L426
 5543 011c B0000000 	.word $L427
 5544 0120 C0000000 	.word $L428
 5545 0124 C8000000 	.word $L429
 5546 0128 D0000000 	.word $L430
 5547 012c D8000000 	.word $L431
 5548 0130 F8000000 	.word $L434
 5549              	.section .gnu.linkonce.t._ZN11NesMMU_MMC312WriteCommandEhh
 5550              	$L425:
 5551 0050 FE005232 	andi $18,$18,0xfe
 5552 0054 2D202002 	move $4,$17
 5553 0058 2D280002 	move $5,$16
 5554              	.set noreorder
 5555              	.set nomacro
 5556 005c 0000000C 	jal _ZN6NesMMU11SetChrRom1KEjj
 5557 0060 2D304002 	move $6,$18
 5558              	.set macro
 5559              	.set reorder
 5560              	
 5561 0064 0100053A 	xori $5,$16,0x1
 5562 0068 2D202002 	move $4,$17
 5563              	$L440:
 5564 006c 01004636 	ori $6,$18,0x1
 5565              	$L439:
 5566 0070 0000000C 	jal _ZN6NesMMU11SetChrRom1KEjj
 5566      00000000 
 5567              	$L421:
GAS LISTING  			page 100


 5568 0078 3000BFDF 	ld $31,48($sp)
 5569              	$L441:
 5570 007c 2000B2DF 	ld $18,32($sp)
 5571 0080 1000B1DF 	ld $17,16($sp)
 5572 0084 0000B0DF 	ld $16,0($sp)
 5573              	
 5574              	.set noreorder
 5575              	.set nomacro
 5576 0088 0800E003 	j $31
 5577 008c 4000BD27 	addu $sp,$sp,64
 5578              	.set macro
 5579              	.set reorder
 5580              	
 5581              	$L426:
 5582 0090 FE005232 	andi $18,$18,0xfe
 5583 0094 0200053A 	xori $5,$16,0x2
 5584 0098 2D202002 	move $4,$17
 5585              	.set noreorder
 5586              	.set nomacro
 5587 009c 0000000C 	jal _ZN6NesMMU11SetChrRom1KEjj
 5588 00a0 2D304002 	move $6,$18
 5589              	.set macro
 5590              	.set reorder
 5591              	
 5592 00a4 0300053A 	xori $5,$16,0x3
 5593              	.set noreorder
 5594              	.set nomacro
 5595 00a8 F0FF0010 	b $L440
 5596 00ac 2D202002 	move $4,$17
 5597              	.set macro
 5598              	.set reorder
 5599              	
 5600              	$L427:
 5601 00b0 0400053A 	xori $5,$16,0x4
 5602              	$L438:
 5603 00b4 2D202002 	move $4,$17
 5604              	.set noreorder
 5605              	.set nomacro
 5606 00b8 EDFF0010 	b $L439
 5607 00bc 2D304002 	move $6,$18
 5608              	.set macro
 5609              	.set reorder
 5610              	
 5611              	$L428:
 5612              	.set noreorder
 5613              	.set nomacro
 5614 00c0 FCFF0010 	b $L438
 5615 00c4 0500053A 	xori $5,$16,0x5
 5616              	.set macro
 5617              	.set reorder
 5618              	
 5619              	$L429:
 5620              	.set noreorder
 5621              	.set nomacro
 5622 00c8 FAFF0010 	b $L438
 5623 00cc 0600053A 	xori $5,$16,0x6
 5624              	.set macro
GAS LISTING  			page 101


 5625              	.set reorder
 5626              	
 5627              	$L430:
 5628              	.set noreorder
 5629              	.set nomacro
 5630 00d0 F8FF0010 	b $L438
 5631 00d4 0700053A 	xori $5,$16,0x7
 5632              	.set macro
 5633              	.set reorder
 5634              	
 5635              	$L431:
 5636 00d8 7A290500 	dsrl $5,$5,5
 5637 00dc 2D202002 	move $4,$17
 5638 00e0 0200A530 	andi $5,$5,0x2
 5639 00e4 2D304002 	move $6,$18
 5640              	$L437:
 5641 00e8 0000000C 	jal _ZN6NesMMU11SetPrgRom8KEjj
 5641      00000000 
 5642              	.set noreorder
 5643              	.set nomacro
 5644 00f0 E2FF0010 	b $L441
 5645 00f4 3000BFDF 	ld $31,48($sp)
 5646              	.set macro
 5647              	.set reorder
 5648              	
 5649              	$L434:
 5650 00f8 2D202002 	move $4,$17
 5651 00fc 2D304002 	move $6,$18
 5652              	.set noreorder
 5653              	.set nomacro
 5654 0100 F9FF0010 	b $L437
 5655 0104 01000524 	li $5,1
 5656              	.set macro
 5657              	.set reorder
 5658              	
 5659              	.end _ZN11NesMMU_MMC312WriteCommandEhh
 5660              	$Lfe65:
 5661              	.size _ZN11NesMMU_MMC312WriteCommandEhh,$Lfe65-_ZN11NesMMU_MMC312WriteCommandEhh
 5662              	.rdata
 5663 0134 00000000 	.align 3
 5664              	$LC18:
 5665 0138 4D4D4335 	.ascii "MMC5[%X]=%X\n\000"
 5665      5B25585D 
 5665      3D25580A 
 5665      00
 5666 0145 000000   	.section .gnu.linkonce.t._ZN11NesMMU_MMC59SetPrgRegEjh,"ax",@progbits
 5667              	.align 2
 5668              	.p2align 3,,7
 5669              	.weak _ZN11NesMMU_MMC59SetPrgRegEjh
 5670              	.ent _ZN11NesMMU_MMC59SetPrgRegEjh
 5671              	_ZN11NesMMU_MMC59SetPrgRegEjh:
 5672              	.frame $sp,64,$31
 5673              	.mask 0x80070000,-16
 5674              	.fmask 0x00000000,0
 5675 0000 C0FFBD27 	subu $sp,$sp,64
 5676 0004 1000B1FF 	sd $17,16($sp)
 5677 0008 FF00D130 	andi $17,$6,0x00ff
GAS LISTING  			page 102


 5678 000c 80002232 	andi $2,$17,0x80
 5679 0010 2000B2FF 	sd $18,32($sp)
 5680 0014 0000B0FF 	sd $16,0($sp)
 5681 0018 2D908000 	move $18,$4
 5682 001c 3000BFFF 	sd $31,48($sp)
 5683              	.set noreorder
 5684              	.set nomacro
 5685 0020 51004014 	bne $2,$0,$L477
 5686 0024 2D80A000 	move $16,$5
 5687              	.set macro
 5688              	.set reorder
 5689              	
 5690 0028 58024392 	lbu $3,600($18)
 5691              	$L480:
 5692 002c 01000424 	li $4,1
 5693              	.set noreorder
 5694              	.set nomacro
 5695 0030 43006410 	beq $3,$4,$L450
 5696 0034 02006228 	slt $2,$3,2
 5697              	.set macro
 5698              	.set reorder
 5699              	
 5700              	.set noreorder
 5701              	.set nomacro
 5702 0038 35004014 	bne $2,$0,$L478
 5703 003c 02000524 	li $5,2
 5704              	.set macro
 5705              	.set reorder
 5706              	
 5707              	.set noreorder
 5708              	.set nomacro
 5709 0040 21006510 	beq $3,$5,$L456
 5710 0044 03000224 	li $2,3
 5711              	.set macro
 5712              	.set reorder
 5713              	
 5714              	.set noreorder
 5715              	.set nomacro
 5716 0048 07006210 	beq $3,$2,$L464
 5717 004c 3000BFDF 	ld $31,48($sp)
 5718              	.set macro
 5719              	.set reorder
 5720              	
 5721              	$L479:
 5722 0050 2000B2DF 	ld $18,32($sp)
 5723              	$L483:
 5724 0054 1000B1DF 	ld $17,16($sp)
 5725 0058 0000B0DF 	ld $16,0($sp)
 5726              	
 5727              	.set noreorder
 5728              	.set nomacro
 5729 005c 0800E003 	j $31
 5730 0060 4000BD27 	addu $sp,$sp,64
 5731              	.set macro
 5732              	.set reorder
 5733              	
 5734 0064 00000000 	.p2align 3
GAS LISTING  			page 103


 5735              	$L464:
 5736              	.set noreorder
 5737              	.set nomacro
 5738 0068 14000412 	beq $16,$4,$L467
 5739 006c 7F002632 	andi $6,$17,0x7f
 5740              	.set macro
 5741              	.set reorder
 5742              	
 5743              	.set noreorder
 5744              	.set nomacro
 5745 0070 10000012 	beq $16,$0,$L466
 5746 0074 2D204002 	move $4,$18
 5747              	.set macro
 5748              	.set reorder
 5749              	
 5750              	.set noreorder
 5751              	.set nomacro
 5752 0078 06000512 	beq $16,$5,$L475
 5753 007c 02000524 	li $5,2
 5754              	.set macro
 5755              	.set reorder
 5756              	
 5757              	.set noreorder
 5758              	.set nomacro
 5759 0080 F3FF0356 	bnel $16,$3,$L479
 5760 0084 3000BFDF 	ld $31,48($sp)
 5761              	.set macro
 5762              	.set reorder
 5763              	
 5764 0088 7F002632 	andi $6,$17,0x7f
 5765              	$L482:
 5766 008c 2D204002 	move $4,$18
 5767 0090 03000524 	li $5,3
 5768              	$L475:
 5769 0094 0000000C 	jal _ZN6NesMMU11SetPrgRom8KEjj
 5769      00000000 
 5770              	.set noreorder
 5771              	.set nomacro
 5772 009c ECFF0010 	b $L479
 5773 00a0 3000BFDF 	ld $31,48($sp)
 5774              	.set macro
 5775              	.set reorder
 5776              	
 5777              	$L468:
 5778 00a4 7F002632 	andi $6,$17,0x7f
 5779 00a8 2D204002 	move $4,$18
 5780              	.set noreorder
 5781              	.set nomacro
 5782 00ac F9FF0010 	b $L475
 5783 00b0 02000524 	li $5,2
 5784              	.set macro
 5785              	.set reorder
 5786              	
 5787              	$L466:
 5788              	.set noreorder
 5789              	.set nomacro
 5790 00b4 F7FF0010 	b $L475
GAS LISTING  			page 104


 5791 00b8 2D280000 	move $5,$0
 5792              	.set macro
 5793              	.set reorder
 5794              	
 5795              	$L467:
 5796 00bc 2D204002 	move $4,$18
 5797              	.set noreorder
 5798              	.set nomacro
 5799 00c0 F4FF0010 	b $L475
 5800 00c4 01000524 	li $5,1
 5801              	.set macro
 5802              	.set reorder
 5803              	
 5804              	.p2align 3
 5805              	$L456:
 5806              	.set noreorder
 5807              	.set nomacro
 5808 00c8 F6FF0312 	beq $16,$3,$L468
 5809 00cc 0300022E 	sltu $2,$16,3
 5810              	.set macro
 5811              	.set reorder
 5812              	
 5813              	.set noreorder
 5814              	.set nomacro
 5815 00d0 0B004010 	beq $2,$0,$L463
 5816 00d4 03000224 	li $2,3
 5817              	.set macro
 5818              	.set reorder
 5819              	
 5820              	.set noreorder
 5821              	.set nomacro
 5822 00d8 DDFF0456 	bnel $16,$4,$L479
 5823 00dc 3000BFDF 	ld $31,48($sp)
 5824              	.set macro
 5825              	.set reorder
 5826              	
 5827              	$L458:
 5828 00e0 42301100 	srl $6,$17,1
 5829 00e4 2D204002 	move $4,$18
 5830 00e8 3F00C630 	andi $6,$6,0x3f
 5831 00ec 2D280000 	move $5,$0
 5832              	$L476:
 5833 00f0 0000000C 	jal _ZN6NesMMU12SetPrgRom16KEjj
 5833      00000000 
 5834              	.set noreorder
 5835              	.set nomacro
 5836 00f8 D5FF0010 	b $L479
 5837 00fc 3000BFDF 	ld $31,48($sp)
 5838              	.set macro
 5839              	.set reorder
 5840              	
 5841              	$L463:
 5842              	.set noreorder
 5843              	.set nomacro
 5844 0100 E2FF0212 	beq $16,$2,$L482
 5845 0104 7F002632 	andi $6,$17,0x7f
 5846              	.set macro
GAS LISTING  			page 105


 5847              	.set reorder
 5848              	
 5849              	.set noreorder
 5850              	.set nomacro
 5851 0108 D1FF0010 	b $L479
 5852 010c 3000BFDF 	ld $31,48($sp)
 5853              	.set macro
 5854              	.set reorder
 5855              	
 5856              	.p2align 3
 5857              	$L478:
 5858              	.set noreorder
 5859              	.set nomacro
 5860 0110 CFFF6014 	bne $3,$0,$L479
 5861 0114 3000BFDF 	ld $31,48($sp)
 5862              	.set macro
 5863              	.set reorder
 5864              	
 5865 0118 03000224 	li $2,3
 5866              	.set noreorder
 5867              	.set nomacro
 5868 011c CDFF0256 	bnel $16,$2,$L483
 5869 0120 2000B2DF 	ld $18,32($sp)
 5870              	.set macro
 5871              	.set reorder
 5872              	
 5873 0124 82281100 	srl $5,$17,2
 5874 0128 2D204002 	move $4,$18
 5875              	.set noreorder
 5876              	.set nomacro
 5877 012c 0000000C 	jal _ZN6NesMMU12SetPrgRom32KEj
 5878 0130 1F00A530 	andi $5,$5,0x1f
 5879              	.set macro
 5880              	.set reorder
 5881              	
 5882              	.set noreorder
 5883              	.set nomacro
 5884 0134 C6FF0010 	b $L479
 5885 0138 3000BFDF 	ld $31,48($sp)
 5886              	.set macro
 5887              	.set reorder
 5888              	
 5889 013c 00000000 	.p2align 3
 5890              	$L450:
 5891              	.set noreorder
 5892              	.set nomacro
 5893 0140 E7FF0312 	beq $16,$3,$L458
 5894 0144 03000224 	li $2,3
 5895              	.set macro
 5896              	.set reorder
 5897              	
 5898              	.set noreorder
 5899              	.set nomacro
 5900 0148 C1FF0256 	bnel $16,$2,$L479
 5901 014c 3000BFDF 	ld $31,48($sp)
 5902              	.set macro
 5903              	.set reorder
GAS LISTING  			page 106


 5904              	
 5905 0150 42301100 	srl $6,$17,1
 5906 0154 2D204002 	move $4,$18
 5907 0158 3F00C630 	andi $6,$6,0x3f
 5908              	.set noreorder
 5909              	.set nomacro
 5910 015c E4FF0010 	b $L476
 5911 0160 01000524 	li $5,1
 5912              	.set macro
 5913              	.set reorder
 5914              	
 5915 0164 00000000 	.p2align 3
 5916              	$L477:
 5917 0168 0000043C 	lui $4,%hi($LC18)
 5918 016c 2D302002 	move $6,$17
 5919              	.set noreorder
 5920              	.set nomacro
 5921 0170 0000000C 	jal printf
 5922 0174 38018424 	addiu $4,$4,%lo($LC18)
 5923              	.set macro
 5924              	.set reorder
 5925              	
 5926              	.set noreorder
 5927              	.set nomacro
 5928 0178 ACFF0010 	b $L480
 5929 017c 58024392 	lbu $3,600($18)
 5930              	.set macro
 5931              	.set reorder
 5932              	
 5933              	.end _ZN11NesMMU_MMC59SetPrgRegEjh
 5934              	$Lfe66:
 5935              	.size _ZN11NesMMU_MMC59SetPrgRegEjh,$Lfe66-_ZN11NesMMU_MMC59SetPrgRegEjh
 5936              	.section .gnu.linkonce.t._ZN11NesMMU_MMC114UpdateRomBanksEv,"ax",@progbits
 5937              	.align 2
 5938              	.p2align 3,,7
 5939              	.weak _ZN11NesMMU_MMC114UpdateRomBanksEv
 5940              	.ent _ZN11NesMMU_MMC114UpdateRomBanksEv
 5941              	_ZN11NesMMU_MMC114UpdateRomBanksEv:
 5942              	.frame $sp,48,$31
 5943              	.mask 0x80030000,-16
 5944              	.fmask 0x00000000,0
 5945 0000 D0FFBD27 	subu $sp,$sp,48
 5946 0004 40000224 	li $2,64
 5947 0008 1000B1FF 	sd $17,16($sp)
 5948 000c 0000B0FF 	sd $16,0($sp)
 5949 0010 2D808000 	move $16,$4
 5950 0014 2000BFFF 	sd $31,32($sp)
 5951 0018 5D028390 	lbu $3,605($4)
 5952 001c 1800848C 	lw $4,24($4)
 5953              	
 5954              	.set noreorder
 5955              	.set nomacro
 5956 0020 37008210 	beq $4,$2,$L497
 5957 0024 0F007130 	andi $17,$3,0xf
 5958              	.set macro
 5959              	.set reorder
 5960              	
GAS LISTING  			page 107


 5961 0028 80000224 	li $2,128
 5962              	.set noreorder
 5963              	.set nomacro
 5964 002c 24008210 	beq $4,$2,$L498
 5965 0030 5A020492 	lbu $4,602($16)
 5966              	.set macro
 5967              	.set reorder
 5968              	
 5969              	$L486:
 5970 0034 08008230 	andi $2,$4,0x8
 5971              	.set noreorder
 5972              	.set nomacro
 5973 0038 19004010 	beq $2,$0,$L490
 5974 003c 04008230 	andi $2,$4,0x4
 5975              	.set macro
 5976              	.set reorder
 5977              	
 5978              	.set noreorder
 5979              	.set nomacro
 5980 0040 0F004010 	beq $2,$0,$L491
 5981 0044 2D200002 	move $4,$16
 5982              	.set macro
 5983              	.set reorder
 5984              	
 5985 0048 2D302002 	move $6,$17
 5986              	.set noreorder
 5987              	.set nomacro
 5988 004c 0000000C 	jal _ZN6NesMMU12SetPrgRom16KEjj
 5989 0050 2D280000 	move $5,$0
 5990              	.set macro
 5991              	.set reorder
 5992              	
 5993 0054 2D200002 	move $4,$16
 5994 0058 1800068E 	lw $6,24($16)
 5995 005c 01000524 	li $5,1
 5996 0060 FFFFC624 	addu $6,$6,-1
 5997              	$L496:
 5998 0064 0000000C 	jal _ZN6NesMMU12SetPrgRom16KEjj
 5998      00000000 
 5999 006c 0000B0DF 	ld $16,0($sp)
 6000 0070 2000BFDF 	ld $31,32($sp)
 6001 0074 1000B1DF 	ld $17,16($sp)
 6002              	
 6003              	.set noreorder
 6004              	.set nomacro
 6005 0078 0800E003 	j $31
 6006 007c 3000BD27 	addu $sp,$sp,48
 6007              	.set macro
 6008              	.set reorder
 6009              	
 6010              	.p2align 3
 6011              	$L491:
 6012 0080 2D280000 	move $5,$0
 6013              	.set noreorder
 6014              	.set nomacro
 6015 0084 0000000C 	jal _ZN6NesMMU12SetPrgRom16KEjj
 6016 0088 2D300000 	move $6,$0
GAS LISTING  			page 108


 6017              	.set macro
 6018              	.set reorder
 6019              	
 6020 008c 01000524 	li $5,1
 6021 0090 2D200002 	move $4,$16
 6022              	.set noreorder
 6023              	.set nomacro
 6024 0094 F3FF0010 	b $L496
 6025 0098 2D302002 	move $6,$17
 6026              	.set macro
 6027              	.set reorder
 6028              	
 6029 009c 00000000 	.p2align 3
 6030              	$L490:
 6031 00a0 2D200002 	move $4,$16
 6032 00a4 2D280000 	move $5,$0
 6033              	.set noreorder
 6034              	.set nomacro
 6035 00a8 0000000C 	jal _ZN6NesMMU12SetPrgRom16KEjj
 6036 00ac 2D302002 	move $6,$17
 6037              	.set macro
 6038              	.set reorder
 6039              	
 6040 00b0 2D200002 	move $4,$16
 6041 00b4 01000524 	li $5,1
 6042              	.set noreorder
 6043              	.set nomacro
 6044 00b8 EAFF0010 	b $L496
 6045 00bc 01002626 	addu $6,$17,1
 6046              	.set macro
 6047              	.set reorder
 6048              	
 6049              	.p2align 3
 6050              	$L498:
 6051 00c0 10008230 	andi $2,$4,0x10
 6052              	.set noreorder
 6053              	.set nomacro
 6054 00c4 0A004050 	beql $2,$0,$L488
 6055 00c8 5B020292 	lbu $2,603($16)
 6056              	.set macro
 6057              	.set reorder
 6058              	
 6059 00cc 5B020392 	lbu $3,603($16)
 6060 00d0 5C020292 	lbu $2,604($16)
 6061 00d4 10006330 	andi $3,$3,0x10
 6062 00d8 10004230 	andi $2,$2,0x10
 6063 00dc 25182302 	or $3,$17,$3
 6064 00e0 40100200 	sll $2,$2,1
 6065              	.set noreorder
 6066              	.set nomacro
 6067 00e4 D3FF0010 	b $L486
 6068 00e8 25886200 	or $17,$3,$2
 6069              	.set macro
 6070              	.set reorder
 6071              	
 6072 00ec 00000000 	.p2align 3
 6073              	$L488:
GAS LISTING  			page 109


 6074 00f0 10004230 	andi $2,$2,0x10
 6075 00f4 40100200 	sll $2,$2,1
 6076              	$L495:
 6077              	.set noreorder
 6078              	.set nomacro
 6079 00f8 CEFF0010 	b $L486
 6080 00fc 25882202 	or $17,$17,$2
 6081              	.set macro
 6082              	.set reorder
 6083              	
 6084              	.p2align 3
 6085              	$L497:
 6086 0100 5B020292 	lbu $2,603($16)
 6087 0104 5A020492 	lbu $4,602($16)
 6088              	.set noreorder
 6089              	.set nomacro
 6090 0108 FBFF0010 	b $L495
 6091 010c 10004230 	andi $2,$2,0x10
 6092              	.set macro
 6093              	.set reorder
 6094              	
 6095              	.end _ZN11NesMMU_MMC114UpdateRomBanksEv
 6096              	$Lfe67:
 6097              	.size _ZN11NesMMU_MMC114UpdateRomBanksEv,$Lfe67-_ZN11NesMMU_MMC114UpdateRomBanksEv
 6098              	.ident "GCC: (GNU) 3.2.2"
