Archive member included because of file (symbol)

/dev/ps2dev/ps2lib/dev/ee/lib/libmc.a(libmc.o)
                              memcard.o (mcInit)
/dev/ps2dev/ps2lib/dev/ee/lib/libpad.a(libpad.o)
                              mainloop.o (padInit)
/dev/ps2dev/ps2net/dev/ps2ip/ee/lib/libps2ip.a(ps2ipc.o)
                              mainloop.o (ps2ip_init)
/dev/ps2dev/ps2lib/dev/ee/lib/libkernel.a(memcpy.o)
                              array.o (memcpy)
/dev/ps2dev/ps2lib/dev/ee/lib/libkernel.a(memset.o)
                              array.o (memset)
/dev/ps2dev/ps2lib/dev/ee/lib/libkernel.a(strcat.o)
                              main.o (strcat)
/dev/ps2dev/ps2lib/dev/ee/lib/libkernel.a(strncmp.o)
                              titleman.o (strncmp)
/dev/ps2dev/ps2lib/dev/ee/lib/libkernel.a(memcmp.o)
                              mainloop.o (memcmp)
/dev/ps2dev/ps2lib/dev/ee/lib/libkernel.a(memmove.o)
                              array.o (memmove)
/dev/ps2dev/ps2lib/dev/ee/lib/libkernel.a(strcpy.o)
                              main.o (strcpy)
/dev/ps2dev/ps2lib/dev/ee/lib/libkernel.a(strncpy.o)
                              cdvd_rpc.o (strncpy)
/dev/ps2dev/ps2lib/dev/ee/lib/libkernel.a(strlen.o)
                              main.o (strlen)
/dev/ps2dev/ps2lib/dev/ee/lib/libkernel.a(strchr.o)
                              mainloop.o (strchr)
/dev/ps2dev/ps2lib/dev/ee/lib/libkernel.a(strcmp.o)
                              unzip.o (strcmp)
/dev/ps2dev/ps2lib/dev/ee/lib/libkernel.a(SifBindRpc.o)
                              cd.o (SifBindRpc)
/dev/ps2dev/ps2lib/dev/ee/lib/libkernel.a(SifCallRpc.o)
                              cd.o (SifCallRpc)
/dev/ps2dev/ps2lib/dev/ee/lib/libkernel.a(SifRegisterRpc.o)
                              netplay_ee.o (SifRegisterRpc)
/dev/ps2dev/ps2lib/dev/ee/lib/libkernel.a(SifSetRpcQueue.o)
                              netplay_ee.o (SifSetRpcQueue)
/dev/ps2dev/ps2lib/dev/ee/lib/libkernel.a(SifGetNextRequest.o)
                              netplay_ee.o (SifGetNextRequest)
/dev/ps2dev/ps2lib/dev/ee/lib/libkernel.a(SifExecRequest.o)
                              netplay_ee.o (SifExecRequest)
/dev/ps2dev/ps2lib/dev/ee/lib/libkernel.a(SifRpcMain.o)
                              /dev/ps2dev/ps2lib/dev/ee/lib/libkernel.a(SifBindRpc.o) (_sif_rpc_data)
/dev/ps2dev/ps2lib/dev/ee/lib/libkernel.a(_rpc_get_packet.o)
                              /dev/ps2dev/ps2lib/dev/ee/lib/libkernel.a(SifBindRpc.o) (_rpc_get_packet)
/dev/ps2dev/ps2lib/dev/ee/lib/libkernel.a(_rpc_get_fpacket.o)
                              /dev/ps2dev/ps2lib/dev/ee/lib/libkernel.a(SifExecRequest.o) (_rpc_get_fpacket)
/dev/ps2dev/ps2lib/dev/ee/lib/libkernel.a(SifCheckStatRpc.o)
                              /dev/ps2dev/ps2lib/dev/ee/lib/libmc.a(libmc.o) (SifCheckStatRpc)
/dev/ps2dev/ps2lib/dev/ee/lib/libkernel.a(SetVTLBRefillHandler.o)
                              excepHandler.o (SetVTLBRefillHandler)
/dev/ps2dev/ps2lib/dev/ee/lib/libkernel.a(SetVCommonHandler.o)
                              excepHandler.o (SetVCommonHandler)
/dev/ps2dev/ps2lib/dev/ee/lib/libkernel.a(GetThreadId.o)
                              netplay_ee.o (GetThreadId)
/dev/ps2dev/ps2lib/dev/ee/lib/libkernel.a(SleepThread.o)
                              excepHandler.o (SleepThread)
/dev/ps2dev/ps2lib/dev/ee/lib/libkernel.a(iWakeupThread.o)
                              /dev/ps2dev/ps2lib/dev/ee/lib/libkernel.a(SifRpcMain.o) (iWakeupThread)
/dev/ps2dev/ps2lib/dev/ee/lib/libkernel.a(CreateSema.o)
                              sjpcm_rpc.o (CreateSema)
/dev/ps2dev/ps2lib/dev/ee/lib/libkernel.a(DeleteSema.o)
                              /dev/ps2dev/ps2lib/dev/ee/lib/libkernel.a(SifBindRpc.o) (DeleteSema)
/dev/ps2dev/ps2lib/dev/ee/lib/libkernel.a(iSignalSema.o)
                              sjpcm_rpc.o (iSignalSema)
/dev/ps2dev/ps2lib/dev/ee/lib/libkernel.a(SignalSema.o)
                              sjpcm_rpc.o (SignalSema)
/dev/ps2dev/ps2lib/dev/ee/lib/libkernel.a(WaitSema.o)
                              sjpcm_rpc.o (WaitSema)
/dev/ps2dev/ps2lib/dev/ee/lib/libkernel.a(FlushCache.o)
                              main.o (FlushCache)
/dev/ps2dev/ps2lib/dev/ee/lib/libkernel.a(SifDmaStat.o)
                              sjpcm_rpc.o (SifDmaStat)
/dev/ps2dev/ps2lib/dev/ee/lib/libkernel.a(SifSetDma.o)
                              sjpcm_rpc.o (SifSetDma)
/dev/ps2dev/ps2lib/dev/ee/lib/libkernel.a(SifSetReg.o)
                              /dev/ps2dev/ps2lib/dev/ee/lib/libkernel.a(SifRpcMain.o) (SifSetReg)
/dev/ps2dev/ps2lib/dev/ee/lib/libkernel.a(SifGetReg.o)
                              /dev/ps2dev/ps2lib/dev/ee/lib/libkernel.a(SifRpcMain.o) (SifGetReg)
/dev/ps2dev/ps2lib/dev/ee/lib/libkernel.a(SifWriteBackDCache.o)
                              libxpad.o (SifWriteBackDCache)
/dev/ps2dev/ps2lib/dev/ee/lib/libkernel.a(__errno.o)
                              gzio.o (__errno)
/dev/ps2dev/ps2lib/dev/ee/lib/libkernel.a(errno.o)
                              /dev/ps2dev/ps2lib/dev/ee/lib/libkernel.a(__errno.o) (errno)
/dev/ps2dev/ps2lib/dev/ee/lib/libkernel.a(fio_exit.o)
                              main.o (fioExit)
/dev/ps2dev/ps2lib/dev/ee/lib/libkernel.a(fio_open.o)
                              main.o (fioOpen)
/dev/ps2dev/ps2lib/dev/ee/lib/libkernel.a(fio_close.o)
                              main.o (fioClose)
/dev/ps2dev/ps2lib/dev/ee/lib/libkernel.a(fio_read.o)
                              file.o (fioRead)
/dev/ps2dev/ps2lib/dev/ee/lib/libkernel.a(fio_write.o)
                              file.o (fioWrite)
/dev/ps2dev/ps2lib/dev/ee/lib/libkernel.a(fio_lseek.o)
                              mainloop.o (fioLseek)
/dev/ps2dev/ps2lib/dev/ee/lib/libkernel.a(fio_mkdir.o)
                              mainloop.o (fioMkdir)
/dev/ps2dev/ps2lib/dev/ee/lib/libkernel.a(_fio_read_intr.o)
                              /dev/ps2dev/ps2lib/dev/ee/lib/libkernel.a(fio_read.o) (_fio_read_intr)
/dev/ps2dev/ps2lib/dev/ee/lib/libkernel.a(fio_dopen.o)
                              uiBrowser.o (fioDopen)
/dev/ps2dev/ps2lib/dev/ee/lib/libkernel.a(fio_dclose.o)
                              uiBrowser.o (fioDclose)
/dev/ps2dev/ps2lib/dev/ee/lib/libkernel.a(fio_dread.o)
                              uiBrowser.o (fioDread)
/dev/ps2dev/ps2lib/dev/ee/lib/libkernel.a(fio_remove.o)
                              uiBrowser.o (fioRemove)
/dev/ps2dev/ps2lib/dev/ee/lib/libkernel.a(fio_rmdir.o)
                              uiBrowser.o (fioRmdir)
/dev/ps2dev/ps2lib/dev/ee/lib/libkernel.a(SifLoadFileExit.o)
                              main.o (SifLoadFileExit)
/dev/ps2dev/ps2lib/dev/ee/lib/libkernel.a(SifLoadModule.o)
                              mainloop.o (SifLoadModule)
/dev/ps2dev/ps2lib/dev/ee/lib/libkernel.a(SifLoadModuleBuffer.o)
                              mainloop.o (SifLoadModuleBuffer)
/dev/ps2dev/ps2lib/dev/ee/lib/libkernel.a(SifExitIopHeap.o)
                              main.o (SifExitIopHeap)
/dev/ps2dev/ps2lib/dev/ee/lib/libkernel.a(SifAllocIopHeap.o)
                              mainloop.o (SifAllocIopHeap)
/dev/ps2dev/ps2lib/dev/ee/lib/libkernel.a(SifFreeIopHeap.o)
                              mainloop.o (SifFreeIopHeap)
/dev/ps2dev/ps2lib/dev/ee/lib/libkernel.a(SifLoadIopHeap.o)
                              mainloop.o (SifLoadIopHeap)
/dev/ps2dev/ps2lib/dev/ee/lib/libkernel.a(SifIopReset.o)
                              main.o (SifIopReset)
/dev/ps2dev/ps2lib/dev/ee/lib/libkernel.a(SifIopSync.o)
                              main.o (SifIopSync)
/dev/ps2dev/ps2lib/dev/ee/lib/libkernel.a(vsnprintf.o)
                              netplay_ee.o (vsnprintf)
/dev/ps2dev/ps2lib/dev/ee/lib/libkernel.a(vsprintf.o)
                              gzio.o (vsprintf)
/dev/ps2dev/ps2lib/dev/ee/lib/libkernel.a(printf.o)
                              main.o (printf)
/dev/ps2dev/ps2lib/dev/ee/lib/libkernel.a(sprintf.o)
                              gzio.o (sprintf)
/dev/ps2dev/ps2lib/dev/ee/lib/libkernel.a(malloc.o)
                              surface.o (malloc)
/dev/ps2dev/ps2lib/dev/ee/lib/libkernel.a(calloc.o)
                              zutil.o (calloc)
/dev/ps2dev/ps2lib/dev/ee/lib/libkernel.a(free.o)
                              surface.o (free)
/dev/ps2dev/ps2lib/dev/ee/lib/libkernel.a(strcasecmp.o)
                              pathext.o (strcasecmp)
/dev/ps2dev/ps2lib/dev/ee/lib/libkernel.a(strrchr.o)
                              mainloop.o (strrchr)
/dev/ps2dev/ps2lib/dev/ee/lib/libkernel.a(ctype.o)
                              /dev/ps2dev/ps2lib/dev/ee/lib/libkernel.a(strcasecmp.o) (tolower)
/dev/ps2dev/ps2lib/dev/ee/lib/libkernel.a(DIntr.o)
                              /dev/ps2dev/ps2lib/dev/ee/lib/libkernel.a(SifRegisterRpc.o) (DIntr)
/dev/ps2dev/ps2lib/dev/ee/lib/libkernel.a(EIntr.o)
                              /dev/ps2dev/ps2lib/dev/ee/lib/libkernel.a(SifRegisterRpc.o) (EIntr)
/dev/ps2dev/ps2lib/dev/ee/lib/libkernel.a(SyncDCache.o)
                              /dev/ps2dev/ps2lib/dev/ee/lib/libpad.a(libpad.o) (SyncDCache)
/dev/ps2dev/ps2lib/dev/ee/lib/libkernel.a(graph.o)
                              excepHandler.o (init_scr)
/dev/ps2dev/ps2lib/dev/ee/lib/libkernel.a(sbrk.o)
                              /dev/ps2dev/ps2lib/dev/ee/lib/libkernel.a(malloc.o) (ps2_sbrk)
/dev/ps2dev/ps2lib/dev/ee/lib/libkernel.a(sif_cmd_send.o)
                              /dev/ps2dev/ps2lib/dev/ee/lib/libkernel.a(SifBindRpc.o) (SifSendCmd)
/dev/ps2dev/ps2lib/dev/ee/lib/libkernel.a(sif_cmd_main.o)
                              /dev/ps2dev/ps2lib/dev/ee/lib/libkernel.a(sif_cmd_send.o) (_sif_cmd_data)
/dev/ps2dev/ps2lib/dev/ee/lib/libkernel.a(sif_cmd_addhandler.o)
                              /dev/ps2dev/ps2lib/dev/ee/lib/libkernel.a(SifRpcMain.o) (SifAddCmdHandler)
/dev/ps2dev/ps2lib/dev/ee/lib/libkernel.a(sif_sreg_get.o)
                              /dev/ps2dev/ps2lib/dev/ee/lib/libkernel.a(SifRpcMain.o) (SifGetSreg)
/dev/ps2dev/ps2lib/dev/ee/lib/libkernel.a(SetGsCrt.o)
                              /dev/ps2dev/ps2lib/dev/ee/lib/libkernel.a(graph.o) (SetGsCrt)
/dev/ps2dev/ps2lib/dev/ee/lib/libkernel.a(AddDmacHandler.o)
                              /dev/ps2dev/ps2lib/dev/ee/lib/libkernel.a(sif_cmd_main.o) (AddDmacHandler)
/dev/ps2dev/ps2lib/dev/ee/lib/libkernel.a(RemoveDmacHandler.o)
                              /dev/ps2dev/ps2lib/dev/ee/lib/libkernel.a(sif_cmd_main.o) (RemoveDmacHandler)
/dev/ps2dev/ps2lib/dev/ee/lib/libkernel.a(EndOfHeap.o)
                              /dev/ps2dev/ps2lib/dev/ee/lib/libkernel.a(sbrk.o) (EndOfHeap)
/dev/ps2dev/ps2lib/dev/ee/lib/libkernel.a(SifStopDma.o)
                              /dev/ps2dev/ps2lib/dev/ee/lib/libkernel.a(SifIopReset.o) (SifStopDma)
/dev/ps2dev/ps2lib/dev/ee/lib/libkernel.a(GsPutIMR.o)
                              /dev/ps2dev/ps2lib/dev/ee/lib/libkernel.a(graph.o) (GsPutIMR)
/dev/ps2dev/ps2lib/dev/ee/lib/libkernel.a(iSifSetDma.o)
                              /dev/ps2dev/ps2lib/dev/ee/lib/libkernel.a(sif_cmd_send.o) (iSifSetDma)
/dev/ps2dev/ps2lib/dev/ee/lib/libkernel.a(SifSetDChain.o)
                              /dev/ps2dev/ps2lib/dev/ee/lib/libkernel.a(sif_cmd_main.o) (SifSetDChain)
/dev/ps2dev/ps2lib/dev/ee/lib/libkernel.a(_SyncDCache.o)
                              /dev/ps2dev/ps2lib/dev/ee/lib/libkernel.a(SyncDCache.o) (_SyncDCache)
/dev/ps2dev/ps2lib/dev/ee/lib/libkernel.a(fio_main.o)
                              /dev/ps2dev/ps2lib/dev/ee/lib/libkernel.a(fio_exit.o) (_fio_init)
/dev/ps2dev/ps2lib/dev/ee/lib/libkernel.a(SifLoadFileInit.o)
                              /dev/ps2dev/ps2lib/dev/ee/lib/libkernel.a(SifLoadFileExit.o) (_lf_init)
/dev/ps2dev/ps2lib/dev/ee/lib/libkernel.a(_SifLoadModule.o)
                              /dev/ps2dev/ps2lib/dev/ee/lib/libkernel.a(SifLoadModule.o) (_SifLoadModule)
/dev/ps2dev/ps2lib/dev/ee/lib/libkernel.a(_SifLoadModuleBuffer.o)
                              /dev/ps2dev/ps2lib/dev/ee/lib/libkernel.a(SifLoadModuleBuffer.o) (_SifLoadModuleBuffer)
/dev/ps2dev/ps2lib/dev/ee/lib/libkernel.a(SifInitIopHeap.o)
                              /dev/ps2dev/ps2lib/dev/ee/lib/libkernel.a(SifExitIopHeap.o) (_ih_caps)
/dev/ps2dev/ps2lib/dev/ee/lib/libkernel.a(vprintf.o)
                              /dev/ps2dev/ps2lib/dev/ee/lib/libkernel.a(printf.o) (vprintf)
/dev/ps2dev/ps2lib/dev/ee/lib/libkernel.a(EnableDmac.o)
                              /dev/ps2dev/ps2lib/dev/ee/lib/libkernel.a(sif_cmd_main.o) (EnableDmac)
/dev/ps2dev/ps2lib/dev/ee/lib/libkernel.a(DisableDmac.o)
                              /dev/ps2dev/ps2lib/dev/ee/lib/libkernel.a(sif_cmd_main.o) (DisableDmac)
/dev/ps2dev/ps2lib/dev/ee/lib/libkernel.a(font.o)
                              /dev/ps2dev/ps2lib/dev/ee/lib/libkernel.a(graph.o) (msx)
/dev/ps2dev/ps2lib/dev/ee/lib/libkernel.a(_sif_cmd_int_handler.o)
                              /dev/ps2dev/ps2lib/dev/ee/lib/libkernel.a(sif_cmd_main.o) (_SifCmdIntHandler)
/dev/ps2dev/ps2lib/dev/ee/lib/libkernel.a(_EnableDmac.o)
                              /dev/ps2dev/ps2lib/dev/ee/lib/libkernel.a(EnableDmac.o) (_EnableDmac)
/dev/ps2dev/ps2lib/dev/ee/lib/libkernel.a(_DisableDmac.o)
                              /dev/ps2dev/ps2lib/dev/ee/lib/libkernel.a(DisableDmac.o) (_DisableDmac)
/dev/ps2dev/ps2lib/dev/ee/lib/libkernel.a(PollSema.o)
                              /dev/ps2dev/ps2lib/dev/ee/lib/libkernel.a(fio_main.o) (PollSema)
/dev/ps2dev/ps2lib/dev/ee/lib/libkernel.a(iSifSetDChain.o)
                              /dev/ps2dev/ps2lib/dev/ee/lib/libkernel.a(_sif_cmd_int_handler.o) (iSifSetDChain)
/dev/ps2dev/gcc/3.2.2-b1/install/i686-pc-cygwin/ee/ee/lib/libc.a(assert.o)
                              array.o (__assert)
/dev/ps2dev/gcc/3.2.2-b1/install/i686-pc-cygwin/ee/ee/lib/libc.a(fclose.o)
                              bmpfile.o (fclose)
/dev/ps2dev/gcc/3.2.2-b1/install/i686-pc-cygwin/ee/ee/lib/libc.a(fdopen.o)
                              gzio.o (fdopen)
/dev/ps2dev/gcc/3.2.2-b1/install/i686-pc-cygwin/ee/ee/lib/libc.a(fflush.o)
                              gzio.o (fflush)
/dev/ps2dev/gcc/3.2.2-b1/install/i686-pc-cygwin/ee/ee/lib/libc.a(fgets.o)
                              titleman.o (fgets)
/dev/ps2dev/gcc/3.2.2-b1/install/i686-pc-cygwin/ee/ee/lib/libc.a(findfp.o)
                              /dev/ps2dev/gcc/3.2.2-b1/install/i686-pc-cygwin/ee/ee/lib/libc.a(fdopen.o) (__sfp)
/dev/ps2dev/gcc/3.2.2-b1/install/i686-pc-cygwin/ee/ee/lib/libc.a(fiprintf.o)
                              /dev/ps2dev/gcc/3.2.2-b1/install/i686-pc-cygwin/ee/ee/lib/libc.a(assert.o) (fiprintf)
/dev/ps2dev/gcc/3.2.2-b1/install/i686-pc-cygwin/ee/ee/lib/libc.a(flags.o)
                              /dev/ps2dev/gcc/3.2.2-b1/install/i686-pc-cygwin/ee/ee/lib/libc.a(fdopen.o) (__sflags)
/dev/ps2dev/gcc/3.2.2-b1/install/i686-pc-cygwin/ee/ee/lib/libc.a(fopen.o)
                              bmpfile.o (fopen)
/dev/ps2dev/gcc/3.2.2-b1/install/i686-pc-cygwin/ee/ee/lib/libc.a(fprintf.o)
                              gzio.o (fprintf)
/dev/ps2dev/gcc/3.2.2-b1/install/i686-pc-cygwin/ee/ee/lib/libc.a(fputc.o)
                              gzio.o (fputc)
/dev/ps2dev/gcc/3.2.2-b1/install/i686-pc-cygwin/ee/ee/lib/libc.a(fread.o)
                              memspace.o (fread)
/dev/ps2dev/gcc/3.2.2-b1/install/i686-pc-cygwin/ee/ee/lib/libc.a(fseek.o)
                              bmpfile.o (fseek)
/dev/ps2dev/gcc/3.2.2-b1/install/i686-pc-cygwin/ee/ee/lib/libc.a(fstatr.o)
                              /dev/ps2dev/gcc/3.2.2-b1/install/i686-pc-cygwin/ee/ee/lib/libc.a(fseek.o) (_fstat_r)
/dev/ps2dev/gcc/3.2.2-b1/install/i686-pc-cygwin/ee/ee/lib/libc.a(ftell.o)
                              bmpfile.o (ftell)
/dev/ps2dev/gcc/3.2.2-b1/install/i686-pc-cygwin/ee/ee/lib/libc.a(fwalk.o)
                              /dev/ps2dev/gcc/3.2.2-b1/install/i686-pc-cygwin/ee/ee/lib/libc.a(fflush.o) (_fwalk)
/dev/ps2dev/gcc/3.2.2-b1/install/i686-pc-cygwin/ee/ee/lib/libc.a(fwrite.o)
                              memspace.o (fwrite)
/dev/ps2dev/gcc/3.2.2-b1/install/i686-pc-cygwin/ee/ee/lib/libc.a(impure.o)
                              titleman.o (_impure_ptr)
/dev/ps2dev/gcc/3.2.2-b1/install/i686-pc-cygwin/ee/ee/lib/libc.a(makebuf.o)
                              /dev/ps2dev/gcc/3.2.2-b1/install/i686-pc-cygwin/ee/ee/lib/libc.a(fseek.o) (__smakebuf)
/dev/ps2dev/gcc/3.2.2-b1/install/i686-pc-cygwin/ee/ee/lib/libc.a(memchr.o)
                              /dev/ps2dev/gcc/3.2.2-b1/install/i686-pc-cygwin/ee/ee/lib/libc.a(fgets.o) (memchr)
/dev/ps2dev/gcc/3.2.2-b1/install/i686-pc-cygwin/ee/ee/lib/libc.a(openr.o)
                              /dev/ps2dev/gcc/3.2.2-b1/install/i686-pc-cygwin/ee/ee/lib/libc.a(fopen.o) (_open_r)
/dev/ps2dev/gcc/3.2.2-b1/install/i686-pc-cygwin/ee/ee/lib/libc.a(qsort.o)
                              uiBrowser.o (qsort)
/dev/ps2dev/gcc/3.2.2-b1/install/i686-pc-cygwin/ee/ee/lib/libc.a(refill.o)
                              /dev/ps2dev/gcc/3.2.2-b1/install/i686-pc-cygwin/ee/ee/lib/libc.a(fgets.o) (__srefill)
/dev/ps2dev/gcc/3.2.2-b1/install/i686-pc-cygwin/ee/ee/lib/libc.a(rewind.o)
                              gzio.o (rewind)
/dev/ps2dev/gcc/3.2.2-b1/install/i686-pc-cygwin/ee/ee/lib/libc.a(setvbuf.o)
                              gzio.o (setvbuf)
/dev/ps2dev/gcc/3.2.2-b1/install/i686-pc-cygwin/ee/ee/lib/libc.a(stdio.o)
                              /dev/ps2dev/gcc/3.2.2-b1/install/i686-pc-cygwin/ee/ee/lib/libc.a(fdopen.o) (__sread)
/dev/ps2dev/gcc/3.2.2-b1/install/i686-pc-cygwin/ee/ee/lib/libc.a(vfiprintf.o)
                              /dev/ps2dev/gcc/3.2.2-b1/install/i686-pc-cygwin/ee/ee/lib/libc.a(fiprintf.o) (vfiprintf)
/dev/ps2dev/gcc/3.2.2-b1/install/i686-pc-cygwin/ee/ee/lib/libc.a(vfprintf.o)
                              /dev/ps2dev/gcc/3.2.2-b1/install/i686-pc-cygwin/ee/ee/lib/libc.a(fprintf.o) (vfprintf)
/dev/ps2dev/gcc/3.2.2-b1/install/i686-pc-cygwin/ee/ee/lib/libc.a(wbuf.o)
                              /dev/ps2dev/gcc/3.2.2-b1/install/i686-pc-cygwin/ee/ee/lib/libc.a(fputc.o) (__swbuf)
/dev/ps2dev/gcc/3.2.2-b1/install/i686-pc-cygwin/ee/ee/lib/libc.a(writer.o)
                              /dev/ps2dev/gcc/3.2.2-b1/install/i686-pc-cygwin/ee/ee/lib/libc.a(stdio.o) (_write_r)
/dev/ps2dev/gcc/3.2.2-b1/install/i686-pc-cygwin/ee/ee/lib/libc.a(wsetup.o)
                              /dev/ps2dev/gcc/3.2.2-b1/install/i686-pc-cygwin/ee/ee/lib/libc.a(vfiprintf.o) (__swsetup)
/dev/ps2dev/gcc/3.2.2-b1/install/i686-pc-cygwin/ee/ee/lib/libc.a(abort.o)
                              /dev/ps2dev/gcc/3.2.2-b1/install/i686-pc-cygwin/ee/ee/lib/libc.a(assert.o) (abort)
/dev/ps2dev/gcc/3.2.2-b1/install/i686-pc-cygwin/ee/ee/lib/libc.a(closer.o)
                              /dev/ps2dev/gcc/3.2.2-b1/install/i686-pc-cygwin/ee/ee/lib/libc.a(stdio.o) (_close_r)
/dev/ps2dev/gcc/3.2.2-b1/install/i686-pc-cygwin/ee/ee/lib/libc.a(dlmalloc-ps2.o)
                              /dev/ps2dev/gcc/3.2.2-b1/install/i686-pc-cygwin/ee/ee/lib/libc.a(findfp.o) (_malloc_r)
/dev/ps2dev/gcc/3.2.2-b1/install/i686-pc-cygwin/ee/ee/lib/libc.a(dtoa.o)
                              /dev/ps2dev/gcc/3.2.2-b1/install/i686-pc-cygwin/ee/ee/lib/libc.a(vfprintf.o) (_dtoa_r)
/dev/ps2dev/gcc/3.2.2-b1/install/i686-pc-cygwin/ee/ee/lib/libc.a(fstat.o)
                              /dev/ps2dev/gcc/3.2.2-b1/install/i686-pc-cygwin/ee/ee/lib/libc.a(fstatr.o) (fstat)
/dev/ps2dev/gcc/3.2.2-b1/install/i686-pc-cygwin/ee/ee/lib/libc.a(fvwrite.o)
                              /dev/ps2dev/gcc/3.2.2-b1/install/i686-pc-cygwin/ee/ee/lib/libc.a(fwrite.o) (__sfvwrite)
/dev/ps2dev/gcc/3.2.2-b1/install/i686-pc-cygwin/ee/ee/lib/libc.a(isatty.o)
                              /dev/ps2dev/gcc/3.2.2-b1/install/i686-pc-cygwin/ee/ee/lib/libc.a(makebuf.o) (isatty)
/dev/ps2dev/gcc/3.2.2-b1/install/i686-pc-cygwin/ee/ee/lib/libc.a(locale.o)
                              /dev/ps2dev/gcc/3.2.2-b1/install/i686-pc-cygwin/ee/ee/lib/libc.a(vfiprintf.o) (__mb_cur_max)
/dev/ps2dev/gcc/3.2.2-b1/install/i686-pc-cygwin/ee/ee/lib/libc.a(lseekr.o)
                              /dev/ps2dev/gcc/3.2.2-b1/install/i686-pc-cygwin/ee/ee/lib/libc.a(stdio.o) (_lseek_r)
/dev/ps2dev/gcc/3.2.2-b1/install/i686-pc-cygwin/ee/ee/lib/libc.a(mbtowc_r.o)
                              /dev/ps2dev/gcc/3.2.2-b1/install/i686-pc-cygwin/ee/ee/lib/libc.a(vfiprintf.o) (_mbtowc_r)
/dev/ps2dev/gcc/3.2.2-b1/install/i686-pc-cygwin/ee/ee/lib/libc.a(mprec.o)
                              /dev/ps2dev/gcc/3.2.2-b1/install/i686-pc-cygwin/ee/ee/lib/libc.a(dtoa.o) (_Balloc)
/dev/ps2dev/gcc/3.2.2-b1/install/i686-pc-cygwin/ee/ee/lib/libc.a(open.o)
                              /dev/ps2dev/gcc/3.2.2-b1/install/i686-pc-cygwin/ee/ee/lib/libc.a(openr.o) (open)
/dev/ps2dev/gcc/3.2.2-b1/install/i686-pc-cygwin/ee/ee/lib/libc.a(readr.o)
                              /dev/ps2dev/gcc/3.2.2-b1/install/i686-pc-cygwin/ee/ee/lib/libc.a(stdio.o) (_read_r)
/dev/ps2dev/gcc/3.2.2-b1/install/i686-pc-cygwin/ee/ee/lib/libc.a(s_isinf.o)
                              /dev/ps2dev/gcc/3.2.2-b1/install/i686-pc-cygwin/ee/ee/lib/libc.a(vfprintf.o) (isinf)
/dev/ps2dev/gcc/3.2.2-b1/install/i686-pc-cygwin/ee/ee/lib/libc.a(s_isnan.o)
                              /dev/ps2dev/gcc/3.2.2-b1/install/i686-pc-cygwin/ee/ee/lib/libc.a(vfprintf.o) (isnan)
/dev/ps2dev/gcc/3.2.2-b1/install/i686-pc-cygwin/ee/ee/lib/libc.a(sbrk.o)
                              /dev/ps2dev/gcc/3.2.2-b1/install/i686-pc-cygwin/ee/ee/lib/libc.a(dlmalloc-ps2.o) (sbrk)
/dev/ps2dev/gcc/3.2.2-b1/install/i686-pc-cygwin/ee/ee/lib/libc.a(signal.o)
                              /dev/ps2dev/gcc/3.2.2-b1/install/i686-pc-cygwin/ee/ee/lib/libc.a(abort.o) (raise)
/dev/ps2dev/gcc/3.2.2-b1/install/i686-pc-cygwin/ee/ee/lib/libc.a(signalr.o)
                              /dev/ps2dev/gcc/3.2.2-b1/install/i686-pc-cygwin/ee/ee/lib/libc.a(signal.o) (_kill_r)
/dev/ps2dev/gcc/3.2.2-b1/install/i686-pc-cygwin/ee/ee/lib/libc.a(write.o)
                              /dev/ps2dev/gcc/3.2.2-b1/install/i686-pc-cygwin/ee/ee/lib/libc.a(writer.o) (write)
/dev/ps2dev/gcc/3.2.2-b1/install/i686-pc-cygwin/ee/ee/lib/libc.a(close.o)
                              /dev/ps2dev/gcc/3.2.2-b1/install/i686-pc-cygwin/ee/ee/lib/libc.a(closer.o) (close)
/dev/ps2dev/gcc/3.2.2-b1/install/i686-pc-cygwin/ee/ee/lib/libc.a(getpid.o)
                              /dev/ps2dev/gcc/3.2.2-b1/install/i686-pc-cygwin/ee/ee/lib/libc.a(signalr.o) (getpid)
/dev/ps2dev/gcc/3.2.2-b1/install/i686-pc-cygwin/ee/ee/lib/libc.a(kill.o)
                              /dev/ps2dev/gcc/3.2.2-b1/install/i686-pc-cygwin/ee/ee/lib/libc.a(signalr.o) (kill)
/dev/ps2dev/gcc/3.2.2-b1/install/i686-pc-cygwin/ee/ee/lib/libc.a(lseek.o)
                              /dev/ps2dev/gcc/3.2.2-b1/install/i686-pc-cygwin/ee/ee/lib/libc.a(lseekr.o) (lseek)
/dev/ps2dev/gcc/3.2.2-b1/install/i686-pc-cygwin/ee/ee/lib/libc.a(read.o)
                              /dev/ps2dev/gcc/3.2.2-b1/install/i686-pc-cygwin/ee/ee/lib/libc.a(readr.o) (read)
/dev/ps2dev/gcc/3.2.2-b1/install/i686-pc-cygwin/ee/ee/lib/libm.a(sf_cos.o)
                              snppucolor.o (cosf)
/dev/ps2dev/gcc/3.2.2-b1/install/i686-pc-cygwin/ee/ee/lib/libm.a(sf_sin.o)
                              snppucolor.o (sinf)
/dev/ps2dev/gcc/3.2.2-b1/install/i686-pc-cygwin/ee/ee/lib/libm.a(wf_sqrt.o)
                              snppucolor.o (sqrtf)
/dev/ps2dev/gcc/3.2.2-b1/install/i686-pc-cygwin/ee/ee/lib/libm.a(ef_rem_pio2.o)
                              /dev/ps2dev/gcc/3.2.2-b1/install/i686-pc-cygwin/ee/ee/lib/libm.a(sf_cos.o) (__ieee754_rem_pio2f)
/dev/ps2dev/gcc/3.2.2-b1/install/i686-pc-cygwin/ee/ee/lib/libm.a(ef_sqrt.o)
                              /dev/ps2dev/gcc/3.2.2-b1/install/i686-pc-cygwin/ee/ee/lib/libm.a(wf_sqrt.o) (__ieee754_sqrtf)
/dev/ps2dev/gcc/3.2.2-b1/install/i686-pc-cygwin/ee/ee/lib/libm.a(kf_cos.o)
                              /dev/ps2dev/gcc/3.2.2-b1/install/i686-pc-cygwin/ee/ee/lib/libm.a(sf_cos.o) (__kernel_cosf)
/dev/ps2dev/gcc/3.2.2-b1/install/i686-pc-cygwin/ee/ee/lib/libm.a(kf_rem_pio2.o)
                              /dev/ps2dev/gcc/3.2.2-b1/install/i686-pc-cygwin/ee/ee/lib/libm.a(ef_rem_pio2.o) (__kernel_rem_pio2f)
/dev/ps2dev/gcc/3.2.2-b1/install/i686-pc-cygwin/ee/ee/lib/libm.a(kf_sin.o)
                              /dev/ps2dev/gcc/3.2.2-b1/install/i686-pc-cygwin/ee/ee/lib/libm.a(sf_cos.o) (__kernel_sinf)
/dev/ps2dev/gcc/3.2.2-b1/install/i686-pc-cygwin/ee/ee/lib/libm.a(s_lib_ver.o)
                              /dev/ps2dev/gcc/3.2.2-b1/install/i686-pc-cygwin/ee/ee/lib/libm.a(wf_sqrt.o) (__fdlib_version)
/dev/ps2dev/gcc/3.2.2-b1/install/i686-pc-cygwin/ee/ee/lib/libm.a(s_matherr.o)
                              /dev/ps2dev/gcc/3.2.2-b1/install/i686-pc-cygwin/ee/ee/lib/libm.a(wf_sqrt.o) (matherr)
/dev/ps2dev/gcc/3.2.2-b1/install/i686-pc-cygwin/ee/ee/lib/libm.a(sf_fabs.o)
                              /dev/ps2dev/gcc/3.2.2-b1/install/i686-pc-cygwin/ee/ee/lib/libm.a(ef_rem_pio2.o) (fabsf)
/dev/ps2dev/gcc/3.2.2-b1/install/i686-pc-cygwin/ee/ee/lib/libm.a(sf_floor.o)
                              /dev/ps2dev/gcc/3.2.2-b1/install/i686-pc-cygwin/ee/ee/lib/libm.a(kf_rem_pio2.o) (floorf)
/dev/ps2dev/gcc/3.2.2-b1/install/i686-pc-cygwin/ee/ee/lib/libm.a(sf_isnan.o)
                              /dev/ps2dev/gcc/3.2.2-b1/install/i686-pc-cygwin/ee/ee/lib/libm.a(wf_sqrt.o) (isnanf)
/dev/ps2dev/gcc/3.2.2-b1/install/i686-pc-cygwin/ee/ee/lib/libm.a(sf_scalbn.o)
                              /dev/ps2dev/gcc/3.2.2-b1/install/i686-pc-cygwin/ee/ee/lib/libm.a(kf_rem_pio2.o) (scalbnf)
/dev/ps2dev/gcc/3.2.2-b1/install/i686-pc-cygwin/ee/ee/lib/libm.a(sf_copysign.o)
                              /dev/ps2dev/gcc/3.2.2-b1/install/i686-pc-cygwin/ee/ee/lib/libm.a(sf_scalbn.o) (copysignf)
/dev/ps2dev/gcc/3.2.2-b1/install/i686-pc-cygwin/ee/bin/../lib/gcc-lib/ee/3.2.2/libgcc.a(_muldi3.o)
                              trees.o (__muldi3)
/dev/ps2dev/gcc/3.2.2-b1/install/i686-pc-cygwin/ee/bin/../lib/gcc-lib/ee/3.2.2/libgcc.a(_udivdi3.o)
                              /dev/ps2dev/ps2lib/dev/ee/lib/libkernel.a(vsnprintf.o) (__udivdi3)
/dev/ps2dev/gcc/3.2.2-b1/install/i686-pc-cygwin/ee/bin/../lib/gcc-lib/ee/3.2.2/libgcc.a(_umoddi3.o)
                              adler32.o (__umoddi3)
/dev/ps2dev/gcc/3.2.2-b1/install/i686-pc-cygwin/ee/bin/../lib/gcc-lib/ee/3.2.2/libgcc.a(_sf_to_df.o)
                              /dev/ps2dev/gcc/3.2.2-b1/install/i686-pc-cygwin/ee/ee/lib/libm.a(wf_sqrt.o) (fptodp)
/dev/ps2dev/gcc/3.2.2-b1/install/i686-pc-cygwin/ee/bin/../lib/gcc-lib/ee/3.2.2/libgcc.a(_addsub_df.o)
                              /dev/ps2dev/gcc/3.2.2-b1/install/i686-pc-cygwin/ee/ee/lib/libc.a(dtoa.o) (dpadd)
/dev/ps2dev/gcc/3.2.2-b1/install/i686-pc-cygwin/ee/bin/../lib/gcc-lib/ee/3.2.2/libgcc.a(_mul_df.o)
                              /dev/ps2dev/gcc/3.2.2-b1/install/i686-pc-cygwin/ee/ee/lib/libc.a(dtoa.o) (dpmul)
/dev/ps2dev/gcc/3.2.2-b1/install/i686-pc-cygwin/ee/bin/../lib/gcc-lib/ee/3.2.2/libgcc.a(_div_df.o)
                              /dev/ps2dev/gcc/3.2.2-b1/install/i686-pc-cygwin/ee/ee/lib/libc.a(dtoa.o) (dpdiv)
/dev/ps2dev/gcc/3.2.2-b1/install/i686-pc-cygwin/ee/bin/../lib/gcc-lib/ee/3.2.2/libgcc.a(_compare_df.o)
                              /dev/ps2dev/gcc/3.2.2-b1/install/i686-pc-cygwin/ee/ee/lib/libc.a(vfprintf.o) (dpcmp)
/dev/ps2dev/gcc/3.2.2-b1/install/i686-pc-cygwin/ee/bin/../lib/gcc-lib/ee/3.2.2/libgcc.a(_si_to_df.o)
                              /dev/ps2dev/gcc/3.2.2-b1/install/i686-pc-cygwin/ee/ee/lib/libc.a(dtoa.o) (litodp)
/dev/ps2dev/gcc/3.2.2-b1/install/i686-pc-cygwin/ee/bin/../lib/gcc-lib/ee/3.2.2/libgcc.a(_df_to_si.o)
                              /dev/ps2dev/gcc/3.2.2-b1/install/i686-pc-cygwin/ee/ee/lib/libc.a(dtoa.o) (dptoli)
/dev/ps2dev/gcc/3.2.2-b1/install/i686-pc-cygwin/ee/bin/../lib/gcc-lib/ee/3.2.2/libgcc.a(_make_df.o)
                              /dev/ps2dev/gcc/3.2.2-b1/install/i686-pc-cygwin/ee/bin/../lib/gcc-lib/ee/3.2.2/libgcc.a(_sf_to_df.o) (__make_dp)
/dev/ps2dev/gcc/3.2.2-b1/install/i686-pc-cygwin/ee/bin/../lib/gcc-lib/ee/3.2.2/libgcc.a(_df_to_sf.o)
                              /dev/ps2dev/gcc/3.2.2-b1/install/i686-pc-cygwin/ee/ee/lib/libm.a(wf_sqrt.o) (dptofp)
/dev/ps2dev/gcc/3.2.2-b1/install/i686-pc-cygwin/ee/bin/../lib/gcc-lib/ee/3.2.2/libgcc.a(_thenan_df.o)
                              /dev/ps2dev/gcc/3.2.2-b1/install/i686-pc-cygwin/ee/bin/../lib/gcc-lib/ee/3.2.2/libgcc.a(_addsub_df.o) (__thenan_df)
/dev/ps2dev/gcc/3.2.2-b1/install/i686-pc-cygwin/ee/bin/../lib/gcc-lib/ee/3.2.2/libgcc.a(_clz.o)
                              /dev/ps2dev/gcc/3.2.2-b1/install/i686-pc-cygwin/ee/bin/../lib/gcc-lib/ee/3.2.2/libgcc.a(_udivdi3.o) (__clz_tab)
/dev/ps2dev/gcc/3.2.2-b1/install/i686-pc-cygwin/ee/bin/../lib/gcc-lib/ee/3.2.2/libgcc.a(_unpack_sf.o)
                              /dev/ps2dev/gcc/3.2.2-b1/install/i686-pc-cygwin/ee/bin/../lib/gcc-lib/ee/3.2.2/libgcc.a(_sf_to_df.o) (__unpack_f)
/dev/ps2dev/gcc/3.2.2-b1/install/i686-pc-cygwin/ee/bin/../lib/gcc-lib/ee/3.2.2/libgcc.a(_make_sf.o)
                              /dev/ps2dev/gcc/3.2.2-b1/install/i686-pc-cygwin/ee/bin/../lib/gcc-lib/ee/3.2.2/libgcc.a(_df_to_sf.o) (__make_fp)
/dev/ps2dev/gcc/3.2.2-b1/install/i686-pc-cygwin/ee/bin/../lib/gcc-lib/ee/3.2.2/libgcc.a(_pack_df.o)
                              /dev/ps2dev/gcc/3.2.2-b1/install/i686-pc-cygwin/ee/bin/../lib/gcc-lib/ee/3.2.2/libgcc.a(_addsub_df.o) (__pack_d)
/dev/ps2dev/gcc/3.2.2-b1/install/i686-pc-cygwin/ee/bin/../lib/gcc-lib/ee/3.2.2/libgcc.a(_unpack_df.o)
                              /dev/ps2dev/gcc/3.2.2-b1/install/i686-pc-cygwin/ee/bin/../lib/gcc-lib/ee/3.2.2/libgcc.a(_addsub_df.o) (__unpack_d)
/dev/ps2dev/gcc/3.2.2-b1/install/i686-pc-cygwin/ee/bin/../lib/gcc-lib/ee/3.2.2/libgcc.a(_fpcmp_parts_df.o)
                              /dev/ps2dev/gcc/3.2.2-b1/install/i686-pc-cygwin/ee/bin/../lib/gcc-lib/ee/3.2.2/libgcc.a(_compare_df.o) (__fpcmp_parts_d)
/dev/ps2dev/gcc/3.2.2-b1/install/i686-pc-cygwin/ee/bin/../lib/gcc-lib/ee/3.2.2/libgcc.a(_pack_sf.o)
                              /dev/ps2dev/gcc/3.2.2-b1/install/i686-pc-cygwin/ee/bin/../lib/gcc-lib/ee/3.2.2/libgcc.a(_make_sf.o) (__pack_f)
/dev/ps2dev/gcc/3.2.2-b1/install/i686-pc-cygwin/ee/ee/lib/libstdc++.a(pure.o)
                              dataio.o (__cxa_pure_virtual)
/dev/ps2dev/gcc/3.2.2-b1/install/i686-pc-cygwin/ee/ee/lib/libstdc++.a(eh_personality.o)
                              /dev/ps2dev/gcc/3.2.2-b1/install/i686-pc-cygwin/ee/ee/lib/libstdc++.a(pure.o) (__gxx_personality_v0)
/dev/ps2dev/gcc/3.2.2-b1/install/i686-pc-cygwin/ee/ee/lib/libstdc++.a(eh_terminate.o)
                              /dev/ps2dev/gcc/3.2.2-b1/install/i686-pc-cygwin/ee/ee/lib/libstdc++.a(pure.o) (_ZSt9terminatev)
/dev/ps2dev/gcc/3.2.2-b1/install/i686-pc-cygwin/ee/ee/lib/libstdc++.a(eh_throw.o)
                              /dev/ps2dev/gcc/3.2.2-b1/install/i686-pc-cygwin/ee/ee/lib/libstdc++.a(eh_personality.o) (__cxa_throw)
/dev/ps2dev/gcc/3.2.2-b1/install/i686-pc-cygwin/ee/ee/lib/libstdc++.a(eh_alloc.o)
                              /dev/ps2dev/gcc/3.2.2-b1/install/i686-pc-cygwin/ee/ee/lib/libstdc++.a(eh_personality.o) (__cxa_allocate_exception)
/dev/ps2dev/gcc/3.2.2-b1/install/i686-pc-cygwin/ee/ee/lib/libstdc++.a(eh_catch.o)
                              /dev/ps2dev/gcc/3.2.2-b1/install/i686-pc-cygwin/ee/ee/lib/libstdc++.a(eh_personality.o) (__cxa_begin_catch)
/dev/ps2dev/gcc/3.2.2-b1/install/i686-pc-cygwin/ee/ee/lib/libstdc++.a(eh_exception.o)
                              /dev/ps2dev/gcc/3.2.2-b1/install/i686-pc-cygwin/ee/ee/lib/libstdc++.a(eh_personality.o) (_ZTVSt13bad_exception)
/dev/ps2dev/gcc/3.2.2-b1/install/i686-pc-cygwin/ee/ee/lib/libstdc++.a(eh_globals.o)
                              /dev/ps2dev/gcc/3.2.2-b1/install/i686-pc-cygwin/ee/ee/lib/libstdc++.a(eh_personality.o) (__cxa_get_globals_fast)
/dev/ps2dev/gcc/3.2.2-b1/install/i686-pc-cygwin/ee/ee/lib/libstdc++.a(tinfo.o)
                              /dev/ps2dev/gcc/3.2.2-b1/install/i686-pc-cygwin/ee/ee/lib/libstdc++.a(eh_exception.o) (_ZTVN10__cxxabiv117__class_type_infoE)
/dev/ps2dev/gcc/3.2.2-b1/install/i686-pc-cygwin/ee/bin/../lib/gcc-lib/ee/3.2.2/libgcc.a(unwind-dw2.o)
                              /dev/ps2dev/gcc/3.2.2-b1/install/i686-pc-cygwin/ee/ee/lib/libstdc++.a(eh_personality.o) (_Unwind_GetDataRelBase)
/dev/ps2dev/gcc/3.2.2-b1/install/i686-pc-cygwin/ee/bin/../lib/gcc-lib/ee/3.2.2/libgcc.a(unwind-dw2-fde.o)
                              /dev/ps2dev/gcc/3.2.2-b1/install/i686-pc-cygwin/ee/bin/../lib/gcc-lib/ee/3.2.2/libgcc.a(unwind-dw2.o) (_Unwind_Find_FDE)
/dev/ps2dev/gcc/3.2.2-b1/install/i686-pc-cygwin/ee/bin/../lib/gcc-lib/ee/3.2.2/libgcc.a(_divdi3.o)
                              /dev/ps2dev/gcc/3.2.2-b1/install/i686-pc-cygwin/ee/bin/../lib/gcc-lib/ee/3.2.2/libgcc.a(unwind-dw2.o) (__divdi3)
/dev/ps2dev/gcc/3.2.2-b1/install/i686-pc-cygwin/ee/bin/../lib/gcc-lib/ee/3.2.2/libgcc.a(_moddi3.o)
                              /dev/ps2dev/gcc/3.2.2-b1/install/i686-pc-cygwin/ee/bin/../lib/gcc-lib/ee/3.2.2/libgcc.a(unwind-dw2.o) (__moddi3)

Allocating common symbols
Common symbol       size              file

_ih_cd              0x28              /dev/ps2dev/ps2lib/dev/ee/lib/libkernel.a(SifInitIopHeap.o)
_fio_completion_sema
                    0x4               /dev/ps2dev/ps2lib/dev/ee/lib/libkernel.a(fio_main.o)
_lf_cd              0x28              /dev/ps2dev/ps2lib/dev/ee/lib/libkernel.a(SifLoadFileInit.o)
_fio_cd             0x28              /dev/ps2dev/ps2lib/dev/ee/lib/libkernel.a(fio_main.o)
_fio_intr_data      0x80              /dev/ps2dev/ps2lib/dev/ee/lib/libkernel.a(fio_main.o)
_fio_block_mode     0x4               /dev/ps2dev/ps2lib/dev/ee/lib/libkernel.a(fio_main.o)
_fio_recv_data      0x800             /dev/ps2dev/ps2lib/dev/ee/lib/libkernel.a(fio_main.o)

Memory Configuration

Name             Origin             Length             Attributes
*default*        0x0000000000000000 0xffffffffffffffff

Linker script and memory map

LOAD crt0.o
LOAD main.o
LOAD excepHandler.o
LOAD exceptions.o
LOAD array.o
LOAD file.o
LOAD surface.o
LOAD rendersurface.o
LOAD pixelformat.o
LOAD memspace.o
LOAD inputdevice.o
LOAD console.o
LOAD bmpfile.o
LOAD mixbuffer.o
LOAD wavfile.o
LOAD dataio.o
LOAD pathext.o
LOAD adler32.o
LOAD compress.o
LOAD crc32.o
LOAD deflate.o
LOAD gzio.o
LOAD infblock.o
LOAD infcodes.o
LOAD inffast.o
LOAD inflate.o
LOAD inftrees.o
LOAD infutil.o
LOAD trees.o
LOAD uncompr.o
LOAD zutil.o
LOAD explode.o
LOAD unreduce.o
LOAD unshrink.o
LOAD unzip.o
LOAD prof.o
LOAD proflog.o
LOAD profctr.o
LOAD poly.o
LOAD cd.o
LOAD gs.o
LOAD hw.o
LOAD gpfifo.o
LOAD libxpad.o
LOAD libxmtap.o
LOAD sjpcm_rpc.o
LOAD cdvd_rpc.o
LOAD ps2dma.o
LOAD mcsave_ee.o
LOAD sjpcmbuffer.o
LOAD gslist.o
LOAD gpprim.o
LOAD vram.o
LOAD titleman.o
LOAD netplay_ee.o
LOAD font.o
LOAD texture.o
LOAD font_04b16b.o
LOAD input.o
LOAD version.o
LOAD mainloop.o
LOAD uiBrowser.o
LOAD uiNetwork.o
LOAD uiMenu.o
LOAD uiLog.o
LOAD memcard.o
LOAD emurom.o
LOAD emusys.o
LOAD emumovie.o
LOAD snstate.o
LOAD sncpu_c.o
LOAD snrom.o
LOAD sndisasm.o
LOAD snspcdisasm.o
LOAD sncpu.o
LOAD snio.o
LOAD sndma.o
LOAD snppu.o
LOAD snes.o
LOAD snesreg.o
LOAD sn65816.o
LOAD snmemmap.o
LOAD snppucolor.o
LOAD snppublend_gs.o
LOAD snppurender.o
LOAD snppurender8.o
LOAD snppubg.o
LOAD snppuobj.o
LOAD snspctimer.o
LOAD snspcio.o
LOAD snspc_c.o
LOAD snspcdsp.o
LOAD snspcmix.o
LOAD snspcbrr.o
LOAD snspc.o
LOAD snmask128.o
LOAD snspcrom.o
LOAD nesdisk.o
LOAD nesio.o
LOAD nesmmu.o
LOAD n6502.o
LOAD ncpu_c.o
LOAD ndisasm.o
LOAD nescpu.o
LOAD nesppu.o
LOAD nesppurender.o
LOAD nespal.o
LOAD nesrom.o
LOAD nesspu.o
LOAD nesspumix.o
LOAD nesstate.o
LOAD nes.o
LOAD /dev/ps2dev/ps2lib/dev/ee/lib/libmc.a
LOAD /dev/ps2dev/ps2lib/dev/ee/lib/libpad.a
LOAD /dev/ps2dev/ps2net/dev/ps2ip/ee/lib/libps2ip.a
LOAD /dev/ps2dev/ps2lib/dev/ee/lib/libkernel.a
LOAD /dev/ps2dev/gcc/3.2.2-b1/install/i686-pc-cygwin/ee/ee/lib/libc.a
LOAD /dev/ps2dev/gcc/3.2.2-b1/install/i686-pc-cygwin/ee/ee/lib/libm.a
LOAD /dev/ps2dev/gcc/3.2.2-b1/install/i686-pc-cygwin/ee/bin/../lib/gcc-lib/ee/3.2.2/libgcc.a
LOAD /dev/ps2dev/gcc/3.2.2-b1/install/i686-pc-cygwin/ee/ee/lib/libstdc++.a
LOAD /dev/ps2dev/gcc/3.2.2-b1/install/i686-pc-cygwin/ee/bin/../lib/gcc-lib/ee/3.2.2/libgcc.a
LOAD /dev/ps2dev/gcc/3.2.2-b1/install/i686-pc-cygwin/ee/bin/../lib/gcc-lib/ee/3.2.2/libgcc.a

.text           0x0000000000100000    0x63c20
 *(.text)
 .text          0x0000000000100000      0x114 crt0.o
                0x0000000000100008                _start
                0x00000000001000e0                _exit
 *fill*         0x0000000000100114        0x4 00
 .text          0x0000000000100118      0x2a8 main.o
                0x0000000000100128                _Z15MainGetBootPathv
                0x00000000001001c0                _Z10full_resetv
                0x0000000000100138                _Z14MainSetBootDirPKc
                0x0000000000100118                _Z14MainGetBootDirv
                0x0000000000100298                main
 .text          0x00000000001003c0      0x1e8 excepHandler.o
                0x0000000000100518                installExceptionHandlers
                0x00000000001003c0                pkoDebug
 *fill*         0x00000000001005a8        0x8 00
 .text          0x00000000001005b0      0x250 exceptions.o
                0x00000000001005c4                pkoExceptionHandler
                0x00000000001005b0                pkoStepBP
                0x00000000001006fc                pkoReturnFromDebug
 .text          0x0000000000100800      0xa90 array.o
                0x0000000000100818                _ZN9CPtrArrayC1Ev
                0x0000000000100be8                _ZN9CPtrArray9FreeExtraEv
                0x0000000000100890                _ZN9CPtrArray7SetSizeEii
                0x0000000000101130                _ZN9CPtrArray8GetIndexEPv
                0x0000000000101230                _ZN9CPtrArray11AddCollapseEPv
                0x0000000000100ac8                _ZN9CPtrArray6AppendERKS_
                0x00000000001011e0                _ZN9CPtrArray6RemoveEPv
                0x0000000000100b68                _ZN9CPtrArray4CopyERKS_
                0x0000000000100860                _ZN9CPtrArrayD1Ev
                0x0000000000100830                _ZN9CPtrArrayD2Ev
                0x0000000000100c80                _ZN9CPtrArray9SetAtGrowEiPv
                0x0000000000100800                _ZN9CPtrArrayC2Ev
                0x0000000000100f98                _ZN9CPtrArray8InsertAtEiPS_
                0x0000000000100e98                _ZN9CPtrArray8RemoveAtEii
                0x0000000000100d18                _ZN9CPtrArray8InsertAtEiPvi
 .text          0x0000000000101290      0x118 file.o
                0x0000000000101370                _Z10FileExistsPc
                0x0000000000101290                _Z11FileReadMemPcPvj
                0x0000000000101300                _Z12FileWriteMemPcPvj
 .text          0x00000000001013a8      0x3e0 surface.o
                0x0000000000101720                _ZN8CSurface4FreeEv
                0x0000000000101470                _ZN8CSurfaceD1Ev
                0x00000000001013a8                _ZN8CSurfaceC2Ev
                0x00000000001013f8                _ZN8CSurfaceC1Ev
                0x00000000001015e0                _ZN8CSurface3SetEPhjjjP12PixelFormatT
                0x00000000001014e0                _ZN8CSurface10GetLinePtrEi
                0x00000000001014d8                _ZN8CSurface6UnlockEv
                0x00000000001014d0                _ZN8CSurface4LockEv
                0x0000000000101568                _ZN8CSurface5ClearEv
                0x0000000000101678                _ZN8CSurface5AllocEjjP12PixelFormatT
                0x0000000000101498                _ZN8CSurfaceD0Ev
                0x0000000000101518                _ZN8CSurface9ClearLineEi
                0x0000000000101448                _ZN8CSurfaceD2Ev
 .text          0x0000000000101788      0x4a8 rendersurface.o
                0x0000000000101868                _ZN14CRenderSurface10RenderLineEiPhii
                0x0000000000101a68                _ZN14CRenderSurface9ResetClutEv
                0x00000000001019e8                _ZN14CRenderSurfaceC2Ev
                0x0000000000101a28                _ZN14CRenderSurfaceC1Ev
                0x0000000000101be8                _ZN14CRenderSurface17SetPaletteEntriesEiP8Color32Ti
                0x0000000000101a90                _ZN14CRenderSurface14SetClutEntriesEPhii
                0x0000000000101948                _ZN14CRenderSurface12RenderLine32EiPji
 .text          0x0000000000101c30       0x90 pixelformat.o
                0x0000000000101c30                _Z20PixelFormatGetByEnum12PixelFormatE
 .text          0x0000000000101cc0      0x3c0 memspace.o
                0x0000000000101e18                _ZN9CMemSpace4FreeEv
                0x0000000000101cd8                _ZN9CMemSpaceC1Ev
                0x0000000000101ef0                _ZN9CMemSpace8ReadFileEP7CDataIO
                0x0000000000101d30                _ZN9CMemSpace5ClearEh
                0x0000000000101ea8                _ZN9CMemSpace9WriteFileEP7__sFILE
                0x0000000000101fc8                _ZN9CMemSpace9WriteFileEP7CDataIO
                0x0000000000101f40                _ZN9CMemSpace13ReadAllocFileEP7CDataIOj
                0x0000000000102050                _ZN9CMemSpace12RestoreStateEPhj
                0x0000000000101cf0                _ZN9CMemSpaceD2Ev
                0x0000000000101e60                _ZN9CMemSpace8ReadFileEP7__sFILE
                0x0000000000101d10                _ZN9CMemSpaceD1Ev
                0x0000000000102018                _ZN9CMemSpace9SaveStateEPhj
                0x0000000000101d68                _ZN9CMemSpace6SetMemEPhj
                0x0000000000101cc0                _ZN9CMemSpaceC2Ev
                0x0000000000101db0                _ZN9CMemSpace5AllocEj
 .text          0x0000000000102080      0x2b0 inputdevice.o
                0x0000000000102138                _ZN12CInputDevice7GetBitsEv
                0x0000000000102180                _ZN12CInputDevice4PollEv
                0x00000000001021c0                _ZN9CInputMapC1Ev
                0x00000000001021f8                _ZN9CInputMap10SetMappingEiPh
                0x00000000001020b8                _ZN12CInputDeviceC1Ev
                0x00000000001020f0                _ZN12CInputDevice10ResetStateEv
                0x0000000000102080                _ZN12CInputDeviceC2Ev
                0x0000000000102230                _ZN9CInputMap9SetDeviceEP12IInputDevice
                0x0000000000102238                _ZN9CInputMap4PollEv
                0x0000000000102188                _ZN9CInputMapC2Ev
 .text          0x0000000000102330       0x10 console.o
                0x0000000000102330                ConInit
                0x0000000000102338                ConShutdown
 .text          0x0000000000102340      0x450 bmpfile.o
                0x0000000000102568                _Z11BMPReadFilePcP8CSurface
                0x0000000000102340                _Z12BMPWriteFilePcP8CSurfaceP8PaletteT
 .text          0x0000000000102790       0x30 mixbuffer.o
                0x00000000001027a8                _ZN10CMixBuffer17OutputSamplesMonoEPsi
                0x0000000000102790                _ZN10CMixBuffer9GetFormatEPjS0_S0_
                0x00000000001027b0                _ZN10CMixBuffer19OutputSamplesStereoEPsS0_i
                0x00000000001027b8                _ZN10CMixBuffer5FlushEv
                0x00000000001027a0                _ZN10CMixBuffer16GetOutputSamplesEv
 .text          0x00000000001027c0      0x470 wavfile.o
                0x0000000000102c10                _ZN8CWavFile9GetFormatEPjS0_S0_
                0x0000000000102960                _ZN8CWavFile16InterleaveStereoEPsS0_S0_i
                0x0000000000102bf0                _ZN8CWavFile16GetOutputSamplesEv
                0x00000000001027f0                _ZN8CWavFileD2Ev
                0x00000000001028c0                _ZN8CWavFile16OutputSampleDataEPhj
                0x0000000000102ab8                _ZN8CWavFile4OpenEPcjjj
                0x0000000000102928                _ZN8CWavFile17OutputSamplesMonoEPsi
                0x00000000001027c0                _ZN8CWavFileC2Ev
                0x0000000000102a48                _ZN8CWavFile5CloseEv
                0x00000000001027d8                _ZN8CWavFileC1Ev
                0x0000000000102830                _ZN8CWavFileD1Ev
                0x0000000000102870                _ZN8CWavFileD0Ev
                0x0000000000102998                _ZN8CWavFile19OutputSamplesStereoEPsS0_i
 .text          0x0000000000102c30      0x4f0 dataio.o
                0x0000000000102d68                _ZN7CFileIO4ReadEPvi
                0x0000000000102d08                _ZN7CFileIO4OpenEPKcS1_
                0x0000000000102de8                _ZN7CFileIO4SeekEii
                0x0000000000102e58                _ZN7CFileIO5CloseEv
                0x0000000000102e20                _ZN7CFileIO6GetPosEv
                0x0000000000102f18                _ZN10CMemFileIO4OpenEPhj
                0x00000000001030d8                _ZN10CMemFileIO5CloseEv
                0x0000000000102ed8                _ZN10CMemFileIOC1Ev
                0x0000000000102cd0                _ZN7CFileIOC1Ev
                0x0000000000102c30                _ZN7CDataIOC2Ev
                0x00000000001030e8                _ZN10CMemFileIO7ReadPtrEi
                0x0000000000102c98                _ZN7CFileIOC2Ev
                0x0000000000102c70                _ZN7CDataIOD0Ev
                0x0000000000102c60                _ZN7CDataIOD1Ev
                0x0000000000102c50                _ZN7CDataIOD2Ev
                0x0000000000103070                _ZN10CMemFileIO4SeekEii
                0x0000000000102ff0                _ZN10CMemFileIO5WriteEPKvi
                0x0000000000102e98                _ZN10CMemFileIOC2Ev
                0x0000000000102f70                _ZN10CMemFileIO4ReadEPvi
                0x0000000000102da8                _ZN7CFileIO5WriteEPKvi
                0x0000000000102c40                _ZN7CDataIOC1Ev
 .text          0x0000000000103120      0x238 pathext.o
                0x00000000001032e0                _Z14PathExtResolvePcPjh
                0x0000000000103240                _Z10PathExtGetPc
                0x00000000001031e0                _Z10PathExtAddjPc
 .text          0x0000000000103358      0x198 adler32.o
                0x0000000000103358                adler32
 .text          0x00000000001034f0       0xf0 compress.o
                0x00000000001034f0                compress2
                0x00000000001035c0                compress
 .text          0x00000000001035e0      0x208 crc32.o
                0x00000000001035f0                crc32
                0x00000000001035e0                get_crc_table
 .text          0x00000000001037e8     0x1f28 deflate.o
                0x0000000000103ef0                deflate
                0x0000000000103ae8                deflateSetDictionary
                0x00000000001037e8                deflateInit_
                0x0000000000103818                deflateInit2_
                0x0000000000103c48                deflateReset
                0x0000000000104368                deflateCopy
                0x0000000000103d00                deflateParams
                0x0000000000104268                deflateEnd
 .text          0x0000000000105710     0x14a8 gzio.o
                0x0000000000106618                gzflush
                0x00000000001061e0                gzgetc
                0x0000000000105a08                gzopen
                0x0000000000106a90                gzerror
                0x0000000000105a80                gzsetparams
                0x00000000001068f0                gztell
                0x0000000000106668                gzseek
                0x0000000000105f10                gzread
                0x0000000000106480                gzputs
                0x0000000000105a28                gzdopen
                0x0000000000106a18                gzclose
                0x00000000001062d8                gzwrite
                0x0000000000106440                gzputc
                0x0000000000106910                gzeof
                0x0000000000106218                gzgets
                0x0000000000106850                gzrewind
                0x00000000001063c0                gzprintf
 .text          0x0000000000106bb8      0xd98 infblock.o
                0x0000000000107888                inflate_blocks_free
                0x0000000000106d68                inflate_blocks
                0x0000000000106bb8                inflate_blocks_reset
                0x0000000000107940                inflate_blocks_sync_point
                0x00000000001078f0                inflate_set_dictionary
                0x0000000000106c80                inflate_blocks_new
 .text          0x0000000000107950      0x838 infcodes.o
                0x0000000000107950                inflate_codes_new
                0x00000000001079c0                inflate_codes
                0x0000000000108160                inflate_codes_free
 .text          0x0000000000108188      0x438 inffast.o
                0x0000000000108188                inflate_fast
 .text          0x00000000001085c0      0x958 inflate.o
                0x0000000000108808                inflate
                0x0000000000108ed0                inflateSyncPoint
                0x00000000001087e0                inflateInit_
                0x00000000001085c0                inflateReset
                0x0000000000108db8                inflateSync
                0x0000000000108ce8                inflateSetDictionary
                0x0000000000108618                inflateEnd
                0x0000000000108690                inflateInit2_
 .text          0x0000000000108f18      0x8b8 inftrees.o
                0x0000000000109798                inflate_trees_fixed
                0x00000000001094b0                inflate_trees_bits
                0x00000000001095b0                inflate_trees_dynamic
 .text          0x00000000001097d0      0x1a0 infutil.o
                0x00000000001097d0                inflate_flush
 .text          0x0000000000109970     0x2198 trees.o
                0x000000000010afe8                _tr_flush_block
                0x000000000010ac60                _tr_stored_block
                0x0000000000109978                _tr_init
                0x000000000010b278                _tr_tally
                0x000000000010ad20                _tr_align
 .text          0x000000000010bb08       0xd8 uncompr.o
                0x000000000010bb08                uncompress
 .text          0x000000000010bbe0       0x80 zutil.o
                0x000000000010bbe0                zlibVersion
                0x000000000010bc40                zcfree
                0x000000000010bbf0                zError
                0x000000000010bc10                zcalloc
 .text          0x000000000010bc60     0x23d0 explode.o
                0x000000000010bc60                get_tree
                0x000000000010de50                flush
                0x000000000010d760                ReadByte
                0x000000000010d410                explode
                0x000000000010de18                huft_free
                0x000000000010c990                explode_nolit8
                0x000000000010bd30                explode_lit8
                0x000000000010def0                flush_stack
                0x000000000010ced0                explode_nolit4
                0x000000000010df90                FillBitBuffer
                0x000000000010d878                huft_build
                0x000000000010c360                explode_lit4
 .text          0x000000000010e030      0x5d0 unreduce.o
                0x000000000010e030                unReduce
 .text          0x000000000010e600      0x5f0 unshrink.o
                0x000000000010e600                unShrink
 .text          0x000000000010ebf0     0x17a8 unzip.o
                0x000000000010fd48                unzReadCurrentFile
                0x000000000010f868                unzLocateFile
                0x000000000010f758                unzGoToFirstFile
                0x000000000010fbe0                unzOpenCurrentFile
                0x000000000010f280                unzGetGlobalInfo
                0x0000000000110130                unzGetLocalExtrafield
                0x000000000010f710                unzGetCurrentFileInfo
                0x000000000010f7c0                unzGoToNextFile
                0x0000000000110208                unzCloseCurrentFile
                0x0000000000110100                unzeof
                0x00000000001102b8                unzGetGlobalComment
                0x00000000001100e0                unztell
                0x000000000010ee50                unzStringFileNameCompare
                0x000000000010f228                unzClose
                0x000000000010f038                unzOpen
 .text          0x0000000000110398      0x130 prof.o
                0x0000000000110430                ProfStartProfile
                0x0000000000110440                ProfProcess
                0x00000000001103e8                ProfShutdown
                0x0000000000110398                ProfInit
 .text          0x00000000001104c8      0x660 proflog.o
                0x00000000001108c8                ProfLogPrint
                0x0000000000110860                ProfLogEnd
                0x00000000001107c8                ProfLogNew
                0x0000000000110858                ProfLogBegin
                0x0000000000110810                ProfLogDelete
 .text          0x0000000000110b28       0x68 profctr.o
                0x0000000000110b50                ProfCtrInit
                0x0000000000110b28                ProfCtrStartCounter
                0x0000000000110b78                ProfCtrReset
                0x0000000000110b70                ProfCtrShutdown
 .text          0x0000000000110b90      0x470 poly.o
                0x0000000000110d00                _Z12PolyShutdownv
                0x0000000000110d70                _Z11PolyColor4fffff
                0x0000000000110d08                _Z11PolyTextureP8TextureT
                0x0000000000110fb0                _Z9PolyBlendj
                0x0000000000110cf8                _Z8PolyInitv
                0x0000000000110f48                _Z6PolyUViiii
                0x0000000000110fc0                _Z8PolyRectffff
                0x0000000000110fa0                _Z8PolyModej
                0x0000000000110ff8                _Z10PolySpriteffff
                0x0000000000110e00                _Z6PolySTffff
 .text          0x0000000000111000      0x108 cd.o
                0x0000000000111000                cdvdExit
                0x0000000000111010                cdvdInit
 .text          0x0000000000111108      0x478 gs.o
                0x0000000000111240                GS_GetOffsetReg
                0x0000000000111218                GS_GetFrameReg
                0x00000000001111d0                GS_SetDrawFB
                0x0000000000111578                GS_VSync
                0x00000000001111a8                GS_SetCrtFB
                0x0000000000111108                GS_SetDispMode
                0x0000000000111268                GS_SetEnv
                0x0000000000111518                GS_InitGraph
 .text          0x0000000000111580      0x250 hw.o
                0x00000000001115d4                remove_VRstart_handler
                0x0000000000111790                wmemcpy
                0x0000000000111624                WaitForNextVRstart
                0x0000000000111720                Dma02Wait
                0x00000000001117b0                pal_ntsc
                0x0000000000111674                DmaReset
                0x0000000000111660                ClearVRcount
                0x0000000000111580                install_VRstart_handler
                0x00000000001116fc                SendDma02
                0x000000000011164c                TestVRstart
                0x0000000000111770                dmemcpy
                0x0000000000111750                qmemcpy
 .text          0x00000000001117d0      0x2d8 gpfifo.o
                0x00000000001119b0                GPFifoClose
                0x00000000001119d0                GPFifoInit
                0x0000000000111978                GPFifoOpen
                0x0000000000111880                GPFifoPause
                0x0000000000111908                GPFifoResume
                0x0000000000111958                GPFifoSync
                0x0000000000111a88                GPFifoShutdown
                0x0000000000111858                GPFifoFlush
 .text          0x0000000000111aa8      0xd68 libxpad.o
                0x0000000000112408                xpadEnterPressMode
                0x0000000000111f38                xpadRead
                0x0000000000112140                xpadGetSlotMax
                0x00000000001120d8                xpadGetPortMax
                0x0000000000111b30                xpadInit
                0x0000000000111f80                xpadGetState
                0x00000000001123d8                xpadInfoPressMode
                0x0000000000112610                xpadSetActAlign
                0x0000000000112048                xpadStateInt2String
                0x00000000001121b0                xpadGetModVersion
                0x0000000000111ff8                xpadGetReqState
                0x0000000000112018                xpadSetReqState
                0x0000000000112428                xpadExitPressMode
                0x00000000001126f0                xpadSetActDirect
                0x0000000000111cd0                xpadEnd
                0x0000000000112318                xpadSetMainMode
                0x0000000000112090                xpadReqStateInt2String
                0x0000000000111d50                xpadPortOpen
                0x0000000000111e80                xpadPortClose
                0x0000000000111b10                xpadGetFrameCount
                0x0000000000112578                xpadInfoAct
                0x0000000000112798                xpadGetConnection
                0x0000000000112218                xpadInfoMode
                0x00000000001124c0                xpadSetButtonInfo
                0x0000000000112448                xpadGetButtonMask
 .text          0x0000000000112810      0x1e8 libxmtap.o
                0x0000000000112810                xmtapInit
                0x0000000000112978                xmtapPortOpen
 .text          0x00000000001129f8      0x7f8 sjpcm_rpc.o
                0x0000000000112fd8                SjPCM_BufferedAsyncStart
                0x0000000000112e10                _SjPCM_EnqueueIntr
                0x0000000000112e40                SjPCM_Sync
                0x0000000000113190                SjPCM_Quit
                0x0000000000113120                SjPCM_Buffered
                0x0000000000112aa8                SjPCM_Setvol
                0x0000000000112b68                SjPCM_Init
                0x00000000001129f8                SjPCM_Play
                0x0000000000112cc0                SjPCM_Enqueue
                0x0000000000112a50                SjPCM_Pause
                0x0000000000113060                SjPCM_IsInitialized
                0x0000000000112b10                SjPCM_Clearbuff
                0x0000000000112e78                SjPCM_EnqueueAsync
                0x0000000000112fa8                _SjPCM_BufferedIntr
                0x00000000001130b0                SjPCM_Available
                0x0000000000113070                SjPCM_BufferedAsyncGet
 .text          0x00000000001131f0      0x3d0 cdvd_rpc.o
                0x0000000000113280                CDVD_DiskReady
                0x0000000000113450                CDVD_getdir
                0x0000000000113568                CDVD_FlushCache
                0x0000000000113390                CDVD_Stop
                0x00000000001131f0                CDVD_Init
                0x00000000001132f0                CDVD_FindFile
                0x00000000001133e8                CDVD_TrayReq
 .text          0x00000000001135c0      0x328 ps2dma.o
                0x0000000000113848                DmaExecGIFChain
                0x0000000000113628                DmaExecRamToSpr
                0x0000000000113750                DmaExecVIF1
                0x0000000000113668                DmaSyncRamToSpr
                0x0000000000113888                DmaSyncGIF
                0x00000000001136c8                DmaExecVIF0Chain
                0x0000000000113708                DmaSyncVIF0
                0x0000000000113690                DmaExecVIF0
                0x00000000001135c0                DmaExecSprToRam
                0x00000000001137c8                DmaSyncVIF1
                0x0000000000113600                DmaSyncSprToRam
                0x0000000000113788                DmaExecVIF1Chain
                0x0000000000113810                DmaExecGIF
 .text          0x00000000001138e8      0x368 mcsave_ee.o
                0x0000000000113bb8                MCSave_Dread
                0x0000000000113910                MCSave_Init
                0x0000000000113900                MCSave_IsInitialized
                0x0000000000113b48                MCSave_Shutdown
                0x0000000000113a38                MCSave_Write
                0x0000000000113a00                MCSave_WriteSync
 .text          0x0000000000113c50      0x3f8 sjpcmbuffer.o
                0x0000000000113d90                _ZN14SJPCMMixBuffer18ConvertSamples2to3EPsS0_iPi
                0x0000000000113cc0                _ZN14SJPCMMixBuffer16GetOutputSamplesEv
                0x0000000000113ca0                _ZN14SJPCMMixBuffer9GetFormatEPjS0_S0_
                0x0000000000114020                _ZN14SJPCMMixBuffer17OutputSamplesMonoEPsi
                0x0000000000113f98                _ZN14SJPCMMixBuffer5FlushEv
                0x0000000000113c78                _ZN14SJPCMMixBufferC1Ejh
                0x0000000000113c50                _ZN14SJPCMMixBufferC2Ejh
                0x0000000000113e00                _ZN14SJPCMMixBuffer26ConvertSamplesStereo_32000EPsS0_S0_S0_i
                0x0000000000113e88                _ZN14SJPCMMixBuffer19OutputSamplesStereoEPsS0_i
 .text          0x0000000000114048      0x9b0 gslist.o
                0x0000000000114348                GSDmaCntOpen
                0x0000000000114820                GSGifReg
                0x0000000000114308                GSListGetSpace
                0x0000000000114268                GSListGetPtr
                0x00000000001142a0                GSListSetPtr
                0x0000000000114600                GSGifTagOpenAD
                0x0000000000114278                GSListGetUncachedPtr
                0x0000000000114290                GSListGetStart
                0x0000000000114708                GSGifRegAD
                0x0000000000114790                GSGifTagOpen
                0x0000000000114328                GSListGetSize
                0x0000000000114888                GSGifTagCloseNLoop
                0x0000000000114950                GSGifTagClose
                0x00000000001144d8                GSDmaEnd
                0x00000000001140f8                GSListBegin
                0x0000000000114688                GSGifTagCloseAD
                0x00000000001143d0                GSDmaCntClose
                0x0000000000114448                GSDmaRef
                0x0000000000114550                GSGifTagImage
                0x0000000000114048                GSListSpace
                0x0000000000114198                GSListEnd
 .text          0x00000000001149f8      0x5a8 gpprim.o
                0x00000000001149f8                GPPrimRect
                0x0000000000114b38                GPPrimDisableZBuf
                0x0000000000114cb8                GPPrimSetTex
                0x0000000000114b70                GPPrimTexRect
                0x0000000000114e10                GPPrimUploadTexture
                0x0000000000114b00                GPPrimEnableZBuf
 .text          0x0000000000114fa0       0xf0 vram.o
                0x0000000000114fd8                VramInit
                0x0000000000114ff0                VramShutdown
                0x0000000000114ff8                VramAlloc
                0x0000000000115088                VramFree
 .text          0x0000000000115090      0x658 titleman.o
                0x00000000001151d0                get_next_title
                0x0000000000115100                find_title
                0x00000000001152c0                list_title_db
                0x0000000000115090                init_exploit_data
                0x00000000001153a0                add_title_db
                0x00000000001155e8                del_title_db
 .text          0x00000000001156e8      0x658 netplay_ee.o
                0x0000000000115a30                NetPlayServerStop
                0x0000000000115ad0                NetPlayClientDisconnect
                0x0000000000115bc8                NetPlayClientSendLoadReq
                0x0000000000115c68                _Netplay_InputIntr
                0x0000000000115c20                NetPlayClientSendLoadAck
                0x0000000000115b18                NetPlayServerPingAll
                0x0000000000115850                NetPlayRPCProcess
                0x0000000000115890                NetPlayInit
                0x0000000000115b58                NetPlayGetStatus
                0x0000000000115c88                NetPlayClientInput
                0x0000000000115a70                NetPlayClientConnect
                0x00000000001159d0                NetPlayServerStart
                0x00000000001157a8                NetPlayPuts
 .text          0x0000000000115d40      0x9c8 font.o
                0x00000000001164d0                _Z14_FontParseLineP5FontTP8CSurfacePcjj
                0x0000000000116100                _Z8FontPutsffPc
                0x00000000001163a8                _Z10FontDeleteP5FontT
                0x00000000001161c8                _Z10FontSelecti
                0x0000000000116200                _Z12FontGetWidthv
                0x0000000000116080                _Z11FontColor4fffff
                0x0000000000116220                _Z13FontGetHeightv
                0x0000000000116140                _Z10FontPrintfffPcz
                0x0000000000116378                _Z7FontNewP5FontT
                0x0000000000115e20                _Z15FontGetStrWidthPc
                0x00000000001161e8                _Z11FontSetFontiP5FontT
                0x0000000000116348                _Z12FontShutdownv
                0x0000000000116240                _Z8FontInitj
                0x00000000001165e0                _Z14FontParseCharsP5FontTP8CSurfacePc
                0x0000000000115fe8                _Z8FontMakeP5FontTP8CSurfacejPc
 .text          0x0000000000116708      0x1a8 texture.o
                0x0000000000116898                _Z13TextureDeleteP8TextureT
                0x0000000000116748                _Z10TextureNewP8TextureTjjj
                0x00000000001168a0                _Z14TextureGetAddrP8TextureT
                0x0000000000116858                _Z13TextureUploadP8TextureTPh
                0x0000000000116850                _Z14TextureSetAddrP8TextureTj
                0x00000000001168a8                _Z16TextureSetFilterP8TextureTj
 .text          0x00000000001168b0      0x5a8 input.o
                0x0000000000116a60                _Z19InputIsPadConnectedj
                0x0000000000116b78                _Z13InputShutdownv
                0x0000000000116a90                _Z15InputGetPadDataj
                0x0000000000116c38                _Z9InputPollv
                0x0000000000116ad0                _Z9InputInith
 .text          0x0000000000116e58       0x20 version.o
                0x0000000000116e68                _Z17VersionGetElfNamev
                0x0000000000116e58                _Z14VersionGetInfov
 .text          0x0000000000116e78     0x4190 mainloop.o
                0x000000000011aea8                _Znaj
                0x00000000001170c0                _Z24PathGetMaxFileNameLengthPKc
                0x000000000011a6f8                _Z16MainLoopShutdownv
                0x0000000000116e78                _Z19MainLoopModalPrintfiPcz
                0x0000000000119ea8                _Z14MainLoopRenderv
                0x0000000000117008                _Z17PathTruncFileNamePcS_i
                0x0000000000116ef0                _Z20MainLoopStatusPrintfiPcz
                0x0000000000116f50                _Z9ScrPrintfPcz
                0x000000000011ae88                _ZdlPv
                0x000000000011a3a8                _Z15MainLoopProcessv
                0x0000000000118b90                _Z13IOPLoadModulePKcPPciS0_
                0x00000000001191f0                _Z8CopyFilePcS_PFiS_S_iiE
                0x0000000000117660                _Z18_MainLoopSaveStatev
                0x000000000011aec8                _ZdaPv
                0x0000000000119e40                _Z14_MainLoopInputj
                0x0000000000117508                _Z18_MainLoopLoadStatev
                0x0000000000119578                _Z12MainLoopInitv
                0x000000000011ae68                _Znwj
                0x0000000000119410                _Z12InstallFilesPcS_PS_PFiS_S_iiE
 .text          0x000000000011b008      0xf98 uiBrowser.o
                0x000000000011b358                _ZN14CBrowserScreenC2Ej
                0x000000000011b408                _ZN14CBrowserScreenC1Ej
                0x000000000011b610                _ZN14CBrowserScreen8AddEntryEPc17BrowserEntryTypeEi
                0x000000000011baa8                _ZN14CBrowserScreen5InputEjj
                0x000000000011b5e0                _ZN14CBrowserScreen11SortEntriesEv
                0x000000000011bea8                _ZN14CBrowserScreen5ChdirEPc
                0x000000000011b4b8                _ZN14CBrowserScreenD2Ev
                0x000000000011b6c8                _ZN14CBrowserScreen4DrawEv
                0x000000000011b008                _ZN14CBrowserScreen12GetEntryPathEPci
                0x000000000011b070                _ZN14CBrowserScreen12GetEntryNameEv
                0x000000000011bce0                _ZN14CBrowserScreen6SetDirEPc
                0x000000000011b598                _ZN14CBrowserScreen12ResetEntriesEv
                0x000000000011b0a8                _ZN14CBrowserScreen12GetEntryTypeEv
                0x000000000011baa0                _ZN14CBrowserScreen7ProcessEv
                0x000000000011b0e0                _ZN14CBrowserScreen9MenuEventEjjPv
                0x000000000011b500                _ZN14CBrowserScreenD1Ev
                0x000000000011b548                _ZN14CBrowserScreenD0Ev
 .text          0x000000000011bfa0      0xf28 uiNetwork.o
                0x000000000011c040                _ZN14CNetworkScreen7ProcessEv
                0x000000000011c460                _Z12_MenuPrintIPiij
                0x000000000011c628                _Z20_MenuPrintAlignRightiiPch
                0x000000000011c290                _ZN14CNetworkScreen9SetEditIPEj
                0x000000000011c3b0                _ZN14CNetworkScreen9GetEditIPEv
                0x000000000011c730                _Z21_MenuPrintAlignCenteriiPch
                0x000000000011c048                _ZN14CNetworkScreen5InputEjj
                0x000000000011c530                _Z19_MenuPrintAlignLeftiiPch
                0x000000000011bfa0                _ZN14CNetworkScreenC2Ev
                0x000000000011c8f8                _Z15_MenuDrawEditIPiiPai
                0x000000000011c4c0                _Z16_MenuPrintIPPortiijj
                0x000000000011bff0                _ZN14CNetworkScreenC1Ev
                0x000000000011c9d0                _ZN14CNetworkScreen4DrawEv
                0x000000000011c840                _Z11_MenuHeaderiPc
 .text          0x000000000011cec8      0x5c0 uiMenu.o
                0x000000000011cf60                _ZN11CMenuScreenC1Ev
                0x000000000011d3f0                _ZN11CMenuScreen5InputEjj
                0x000000000011cf10                _ZN11CMenuScreenC2Ev
                0x000000000011cfb0                _ZN11CMenuScreen8SetTitleEPc
                0x000000000011cfd0                _ZN11CMenuScreen7SetTextEiPc
                0x000000000011d1c0                _ZN11CMenuScreen4DrawEv
                0x000000000011cec8                _ZN11CMenuScreen10SetEntriesEPPc
                0x000000000011d3e8                _ZN11CMenuScreen7ProcessEv
 .text          0x000000000011d488      0x418 uiLog.o
                0x000000000011d700                _ZN10CLogScreen4DrawEv
                0x000000000011d860                _ZN10CLogScreen7ProcessEv
                0x000000000011d488                _ZN10CLogScreenC2Ev
                0x000000000011d4b0                _ZN10CLogScreenC1Ev
                0x000000000011d4d8                _ZN10CLogScreen10AddMessageEPc
                0x000000000011d868                _ZN10CLogScreen5InputEjj
 .text          0x000000000011d8a0      0x3b8 memcard.o
                0x000000000011dab8                _Z11MemCardInitv
                0x000000000011db08                _Z16MemCardWriteFilePcPhj
                0x000000000011da20                _Z19MemCardCheckNewCardv
                0x000000000011d8a0                _Z17MemCardCreateSavePcS_h
                0x000000000011dbb0                _Z15MemCardReadFilePcPhj
 .text          0x000000000011dc58       0xb0 emurom.o
                0x000000000011dcf0                _ZN7CEmuRom16GetRomRegionSizeEj
                0x000000000011dc88                _ZN7CEmuRomD2Ev
                0x000000000011dcf8                _ZN7CEmuRom10GetNumExtsEv
                0x000000000011dc70                _ZN7CEmuRomC1Ev
                0x000000000011dcd0                _ZN7CEmuRom7LoadRomEP7CDataIOPhj
                0x000000000011dce8                _ZN7CEmuRom16GetRomRegionNameEj
                0x000000000011dca8                _ZN7CEmuRomD0Ev
                0x000000000011dcd8                _ZN7CEmuRom6UnloadEv
                0x000000000011dd00                _ZN7CEmuRom10GetExtNameEj
                0x000000000011dce0                _ZN7CEmuRom16GetNumRomRegionsEv
                0x000000000011dc58                _ZN7CEmuRomC2Ev
                0x000000000011dc98                _ZN7CEmuRomD1Ev
 .text          0x000000000011dd08       0x78 emusys.o
                0x000000000011dd58                _ZN10CEmuSystemD0Ev
                0x000000000011dd08                _ZN10CEmuSystemC2Ev
                0x000000000011dd38                _ZN10CEmuSystemD2Ev
                0x000000000011dd20                _ZN10CEmuSystemC1Ev
                0x000000000011dd48                _ZN10CEmuSystemD1Ev
 .text          0x000000000011dd80      0x428 emumovie.o
                0x000000000011dfd8                _ZN13CEmuMovieClip11RecordFrameER12EmuSysInputT
                0x000000000011de60                _ZN13CEmuMovieClipD2Ev
                0x000000000011e150                _ZN13CEmuMovieClip9PlayFrameER12EmuSysInputT
                0x000000000011dd80                _ZN13CEmuMovieClipC2Ejj
                0x000000000011df88                _ZN13CEmuMovieClip9RecordEndEv
                0x000000000011de80                _ZN13CEmuMovieClipD1Ev
                0x000000000011ddf0                _ZN13CEmuMovieClipC1Ejj
                0x000000000011e030                _ZN13CEmuMovieClip9PlayBeginEP10CEmuSystem
                0x000000000011dea0                _ZN13CEmuMovieClip11RecordBeginEP10CEmuSystem
                0x000000000011e100                _ZN13CEmuMovieClip7PlayEndEv
 .text          0x000000000011e1a8      0xeb8 snstate.o
                0x000000000011eef0                _Z14SNStateCompareP10SnesStateTS0_
                0x000000000011ee50                _Z15_SNStateMemDiffPcPhS0_i
                0x000000000011e970                _ZN8SnesDMAC12RestoreStateEP12SNStateDMACT
                0x000000000011e7b0                _ZN7SNSpcIO9SaveStateEP13SNStateSPCIOT
                0x000000000011e1a8                _ZN10SnesSystem9SaveStateEPvi
                0x000000000011eba8                _ZN7SnesPPU12RestoreStateEP11SNStatePPUT
                0x000000000011e738                _ZN6SnesIO12RestoreStateEP10SNStateIOT
                0x000000000011edf8                _ZN11SNSpcDspMix9SaveStateEP14SNStateSPCDSPT
                0x000000000011edb0                _ZN8SNSpcDsp9SaveStateEP14SNStateSPCDSPT
                0x000000000011e870                _ZN7SNSpcIO12RestoreStateEP13SNStateSPCIOT
                0x000000000011e6c0                _ZN6SnesIO9SaveStateEP10SNStateIOT
                0x000000000011e9a0                _ZN7SnesPPU9SaveStateEP11SNStatePPUT
                0x000000000011e1d8                _ZN10SnesSystem12RestoreStateEPvi
                0x000000000011ee28                _ZN11SNSpcDspMix12RestoreStateEP14SNStateSPCDSPT
                0x000000000011e930                _ZN8SnesDMAC9SaveStateEP12SNStateDMACT
                0x000000000011e208                _ZN10SnesSystem12GetStateSizeEv
                0x000000000011e450                _ZN10SnesSystem12RestoreStateEP10SnesStateT
                0x000000000011edd8                _ZN8SNSpcDsp12RestoreStateEP14SNStateSPCDSPT
                0x000000000011e218                _ZN10SnesSystem9SaveStateEP10SnesStateT
 .text          0x000000000011f060     0x6880 sncpu_c.o
                0x000000000011faa8                SNCPUExecute_C
 .text          0x00000000001258e0      0x698 snrom.o
                0x0000000000125c90                _ZN7SnesRom16GetRomRegionNameEj
                0x0000000000125cc0                _ZN7SnesRom11GetRomTitleEv
                0x0000000000125cc8                _ZN7SnesRom7LoadRomEP7CDataIOPhj
                0x0000000000125948                _ZN7SnesRom15SNRomGetHdrTypeEP9SNRomHdrU
                0x0000000000125f48                _ZN7SnesRom10GetNumExtsEv
                0x0000000000125ae8                _ZN7SnesRom11GetCartInfoEj
                0x0000000000125ef8                _ZN7SnesRom6UnloadEv
                0x0000000000125a70                _ZN7SnesRomD1Ev
                0x0000000000125b18                _ZN7SnesRom11SetCartInfoEP10SNRomInfoT
                0x0000000000125ca8                _ZN7SnesRom16GetRomRegionSizeEj
                0x00000000001259a8                _ZN7SnesRomC2Ev
                0x0000000000125c88                _ZN7SnesRom16GetNumRomRegionsEv
                0x0000000000125f50                _ZN7SnesRom10GetExtNameEj
                0x0000000000125a38                _ZN7SnesRomD2Ev
                0x00000000001259f0                _ZN7SnesRomC1Ev
                0x0000000000125aa8                _ZN7SnesRomD0Ev
 .text          0x0000000000125f78      0x5d0 sndisasm.o
                0x00000000001264f8                SNDisasm
 .text          0x0000000000126548      0x4c0 snspcdisasm.o
                0x00000000001269c8                SNSPCDisasm
 .text          0x0000000000126a08     0x1180 sncpu.o
                0x0000000000127958                SNCPUExecuteDebug
                0x0000000000127418                SNCPUPop24
                0x0000000000126c80                SNCPUSetTrap
                0x0000000000126b88                SNCPUSetBank
                0x0000000000127810                SNCPUResetCounter
                0x0000000000127a80                SNCPUAbort
                0x0000000000127470                SNCPUNMI
                0x0000000000127240                SNCPUWrite16
                0x00000000001272f0                SNCPUPush16
                0x0000000000126f70                SNCPUPeekMem
                0x0000000000127338                SNCPUPush24
                0x0000000000126a28                SNCPUNew
                0x0000000000127548                SNCPUIRQ
                0x0000000000127298                SNCPUPush8
                0x0000000000127088                SNCPURead24
                0x0000000000127848                SNCPUExecute
                0x0000000000126d90                SNCPUSetMemSpeed
                0x0000000000127a20                SNCPUSetDebug
                0x0000000000126e68                SNCPUSetRomSpeed
                0x0000000000127630                SNCPUDisassemble
                0x0000000000127028                SNCPURead16
                0x0000000000127390                SNCPUPop8
                0x0000000000127ae0                SNCPUSignalNMI
                0x0000000000127aa0                SNCPUSignalIRQ
                0x0000000000126b58                SNCPUDelete
                0x0000000000126ae8                SNCPUReset
                0x0000000000126b60                SNCPUResetRegs
                0x0000000000126ab0                SNCPUResetCounters
                0x0000000000127820                SNCPUSetExecuteFunc
                0x00000000001273d0                SNCPUPop16
                0x00000000001270f8                SNCPUReadMem
                0x0000000000126fe0                SNCPURead8
                0x0000000000126f48                SNCPUPeek8
                0x00000000001278a0                SNCPUExecuteOne
                0x00000000001276a0                SNCPUDumpRegs
                0x0000000000127b48                SNCPUSignalDMA
                0x00000000001271e8                SNCPUWrite8
 .text          0x0000000000127b88      0x390 snio.o
                0x0000000000127ed8                _ZN6SnesIO10LatchInputEP12EmuSysInputT
                0x0000000000127e60                _ZN6SnesIOC2Ev
                0x0000000000127bd8                _ZN6SnesIO11ReadSerial0Ev
                0x0000000000127d58                _ZN6SnesIO11WriteSerialEh
                0x0000000000127b88                _ZN6SnesIO13ReadSerialPadEj
                0x0000000000127e80                _ZN6SnesIOC1Ev
                0x0000000000127ba0                _ZN6SnesIO14ShiftSerialPadEj
                0x0000000000127ea0                _ZN6SnesIO5ResetEv
                0x0000000000127c38                _ZN6SnesIO11ReadSerial1Ev
                0x0000000000127db8                _ZN6SnesIO13UpdateJoyPadsEv
 .text          0x0000000000127f18      0xef8 sndma.o
                0x0000000000128d68                _ZN8SnesDMAC11ProcessHDMAEv
                0x0000000000128588                _ZN8SnesDMAC17ProcessMDMAChFastEj
                0x0000000000128110                _ZN8SnesDMAC13SetMDMAEnableEh
                0x0000000000128120                _ZN8SnesDMAC17ProcessMDMAChReadEj
                0x0000000000128cd8                _ZN8SnesDMAC11ProcessMDMAEv
                0x0000000000128118                _ZN8SnesDMAC13SetHDMAEnableEh
                0x0000000000127f18                _ZN8SnesDMAC5Read8Ejj
                0x0000000000128800                _ZN8SnesDMAC13ProcessHDMAChEj
                0x0000000000128dd8                _ZN8SnesDMAC5ResetEv
                0x00000000001287c8                _ZN8SnesDMAC9BeginHDMAEv
                0x0000000000127ff0                _ZN8SnesDMAC6Write8Ejjh
                0x0000000000128280                _ZN8SnesDMAC12TransferDataEP10SnesDMAChTPhi
 .text          0x0000000000128e10      0xee0 snppu.o
                0x0000000000129a10                _ZN7SnesPPU8EndFrameEv
                0x0000000000129ab0                _ZN7SnesPPU4SyncEj
                0x00000000001291f0                _ZN7SnesPPU11ReadVMDATAHEv
                0x0000000000129a48                _ZN7SnesPPU12EnqueueWriteEjjh
                0x00000000001293a0                _ZN7SnesPPU12UpdateMatMulEv
                0x0000000000128ea0                _ZN7SnesPPU10ReadCGDATAEv
                0x0000000000129c00                _ZN7SnesPPU5ResetEv
                0x00000000001290b0                _ZN7SnesPPU13WriteVMDATALHEhh
                0x0000000000129cc8                _ZN7SnesPPUC1Ev
                0x0000000000129258                _ZN7SnesPPU12WriteOAMDATAEh
                0x0000000000129a00                _ZN7SnesPPU10BeginFrameEv
                0x0000000000129310                _ZN7SnesPPU11ReadOAMDATAEv
                0x0000000000128e10                _ZN7SnesPPU11WriteCGDATAEh
                0x00000000001293c8                _ZN7SnesPPU6Write8Ejh
                0x0000000000128f70                _ZN7SnesPPU12WriteVMDATALEh
                0x0000000000129188                _ZN7SnesPPU11ReadVMDATALEv
                0x0000000000129010                _ZN7SnesPPU12WriteVMDATAHEh
                0x0000000000129ca0                _ZN7SnesPPUC2Ev
 .text          0x0000000000129cf0     0x1970 snes.o
                0x000000000012b600                _ZN10SnesSystem9GetStringE13EmuSysStringE
                0x000000000012ae10                _ZN10SnesSystem9SoftResetEv
                0x000000000012b0d0                _ZN10SnesSystem14ExecuteWithIRQEiRi
                0x000000000012a828                _ZN10SnesSystemC2Ev
                0x000000000012b288                _ZN10SnesSystem12ExecuteFrameEP12EmuSysInputTP14CRenderSurfaceP10CMixBuffer11EmuSysModeE
                0x000000000012a6d0                _ZN10SnesSystem7ReadMemEP7SNCpu_tj
                0x000000000012b598                _ZN10SnesSystem12GetSRAMBytesEv
                0x000000000012a3e0                _ZN10SnesSystem9Write4000EP7SNCpu_tjh
                0x000000000012a718                _ZN10SnesSystem9WriteSRAMEP7SNCpu_tjh
                0x000000000012a750                _ZN10SnesSystem8ReadDSP1EP7SNCpu_tj
                0x000000000012acf8                _ZN10SnesSystem5ResetEv
                0x000000000012a6e0                _ZN10SnesSystem8ReadSRAMEP7SNCpu_tj
                0x000000000012af20                _ZN10SnesSystem10ExecuteCPUEi
                0x000000000012a150                _ZN10SnesSystem8Read4000EP7SNCpu_tj
                0x000000000012a6d8                _ZN10SnesSystem8WriteMemEP7SNCpu_tjh
                0x000000000012ae58                _ZN10SnesSystem6SetRomEP7CEmuRom
                0x000000000012a9f0                _ZN10SnesSystemC1Ev
                0x000000000012b178                _ZN10SnesSystem11ExecuteLineEv
                0x0000000000129d78                _ZN10SnesSystem8Read2000EP7SNCpu_tj
                0x000000000012ae78                _ZN10SnesSystem10SetSnesRomEP7SnesRom
                0x000000000012ac20                _ZN10SnesSystemD1Ev
                0x000000000012ac88                _ZN10SnesSystemD0Ev
                0x0000000000129f90                _ZN10SnesSystem9Write2000EP7SNCpu_tjh
                0x0000000000129cf0                _ZN10SnesSystem7SyncSPCEi
                0x000000000012b5c8                _ZN10SnesSystem11GetSRAMDataEv
                0x000000000012abb8                _ZN10SnesSystemD2Ev
                0x000000000012a7d0                _ZN10SnesSystem9WriteDSP1EP7SNCpu_tjh
 .text          0x000000000012b660       0x60 snesreg.o
                0x000000000012b6b8                _ZN11SnesReg16FT5ResetEv
                0x000000000012b660                _ZN11SnesReg16FT6Write8Eh
                0x000000000012b690                _ZN11SnesReg16FT5Read8Ev
 .text          0x000000000012b6c0     0x90a0 sn65816.o
                0x000000000012c008                SNCPUExecute_ASM
                0x0000000000133360                _SNCPU_OpTable
 .text          0x0000000000134760      0x410 snmemmap.o
                0x0000000000134a88                _ZN10SnesSystem6MapMemE13SNRomMappingEj
                0x0000000000134760                _ZN10SnesSystem6MapMemEP11SnesMemMapT
                0x0000000000134b48                _ZN10SnesSystem10SetSlowRomEv
                0x0000000000134b20                _ZN10SnesSystem10SetFastRomEv
 .text          0x0000000000134b70      0x5b0 snppucolor.o
                0x0000000000134dd0                _Z20SNPPUColorGetPalettev
                0x0000000000134d70                _Z23SNPPUColorConvert15to32t
                0x0000000000134d90                _Z19SNPPUColorSetColorsPKji
                0x0000000000134de0                _Z19SNPPUColorCalibratePK16SNPPUColorCalibT
 .text          0x0000000000135120      0xce0 snppublend_gs.o
                0x0000000000135210                _ZN12SNPPUBlendGS13UpdatePaletteEP15SNPPUBlendInfoTPtj
                0x00000000001356f8                _ZN12SNPPUBlendGS3EndEv
                0x0000000000135c68                _ZN12SNPPUBlendGSC2Ejj
                0x0000000000135628                _ZN12SNPPUBlendGS5BeginEP14CRenderSurface
                0x0000000000135dd0                _ZN12SNPPUBlendGS5ClearEP15SNPPUBlendInfoTi
                0x00000000001351a0                _ZN12SNPPUBlendGS18UpdatePaletteEntryEP15SNPPUBlendInfoTjjj
                0x0000000000135ca8                _ZN12SNPPUBlendGSC1Ejj
                0x0000000000135ce8                _ZN12SNPPUBlendGS4ExecEP15SNPPUBlendInfoTijP7SNMaskThj
 .text          0x0000000000135e00      0x770 snppurender.o
                0x0000000000135fe8                _ZN13SnesPPURender10RenderLineEi
                0x0000000000136500                _ZN13SnesPPURender9EndRenderEv
                0x00000000001360a8                _ZN13SnesPPURender12RenderLine32Eih
                0x0000000000136410                _ZN13SnesPPURender11BeginRenderEP14CRenderSurface
                0x0000000000136568                _ZN13SnesPPURender10UpdateVRAMEj
                0x0000000000136040                _ZN13SnesPPURender12RenderLine16Ei
                0x0000000000135f70                _Z10_DrawMask2PjP7SNMaskTS1_i
                0x0000000000136048                _ZN13SnesPPURender11UpdateCGRAMEjt
                0x0000000000135f10                _Z9_DrawMaskPjP7SNMaskTi
 .text          0x0000000000136570     0x2040 snppurender8.o
                0x0000000000136758                _Z11_ClearLine8PhS_ihj
                0x0000000000136788                _Z11_ClearLine8Phih
                0x0000000000138110                _Z16RenderLine8Mode7iP17SnesRender8pInfoT
                0x00000000001377b8                _ZN13SnesPPURender11RenderLine8EiP17SnesRender8pInfoT
 .text          0x00000000001385b0      0xe70 snppubg.o
                0x00000000001392c0                _ZN13SnesPPURender13DecodeWindowsEP7SNMaskTS1_
                0x0000000000138be8                _ZN13SnesPPURender13FetchBGOffsetEP11SnesBGInfoTP15SnesRenderTileTiiPtjh
                0x0000000000138f68                _ZN13SnesPPURender12DecodeBGInfoEP11SnesBGInfoT
                0x0000000000138d00                _ZN13SnesPPURender11FetchOffsetEP11SnesBGInfoTPtiRjh
                0x00000000001389c8                _ZN13SnesPPURender7FetchBGEP11SnesBGInfoTP15SnesRenderTileTiiRj
                0x0000000000138e00                _Z10_SetBGMaskP7SNMaskTS0_hh
 .text          0x0000000000139420      0x420 snppuobj.o
                0x0000000000139610                _ZN13SnesPPURender8CheckOBJEPhS0_iiS0_ii
                0x00000000001394e0                _Z10_DecodeOBJP11SnesPPUOBJTP14SnesRenderObjTiPhS3_
                0x0000000000139670                _ZN13SnesPPURender8CheckOBJEPhi
                0x00000000001395b0                _ZN13SnesPPURender8CheckOBJEP14SnesRenderObjTiiPhii
                0x00000000001397b0                _ZN13SnesPPURender9UpdateOBJEPhS0_
                0x00000000001396d8                _ZN13SnesPPURender19UpdateOBJVisibilityEPhS0_ii
                0x0000000000139420                _Z12_DecodeOBJEXPhP14SnesRenderObjTiS_
 .text          0x0000000000139840      0x130 snspctimer.o
                0x00000000001398c8                _Z19SNSpcTimerSetEnableP12SNSpcTimer_tih
                0x0000000000139940                _Z20SNSpcTimerGetCounterP12SNSpcTimer_ti
                0x0000000000139910                _Z18SNSpcTimerSetTimerP12SNSpcTimer_th
                0x0000000000139840                _Z15SNSpcTimerResetP12SNSpcTimer_tj
                0x0000000000139868                _Z14SNSpcTimerSyncP12SNSpcTimer_ti
 .text          0x0000000000139970      0x3b0 snspcio.o
                0x0000000000139bb0                _ZN7SNSpcIO10Write8TrapEP7SNSpc_tjh
                0x0000000000139970                _ZN7SNSpcIO12EnqueueWriteEjjh
                0x00000000001399d0                _ZN7SNSpcIO12SyncQueueAllEv
                0x0000000000139a28                _ZN7SNSpcIO5ResetEv
                0x0000000000139a88                _ZN7SNSpcIO9Read8TrapEP7SNSpc_tj
 .text          0x0000000000139d20     0x38b8 snspc_c.o
                0x000000000013a060                SNSPCExecute_C
 .text          0x000000000013d5d8      0x510 snspcdsp.o
                0x000000000013d5d8                _ZN8SNSpcDspC2Ev
                0x000000000013d5e8                _ZN8SNSpcDspC1Ev
                0x000000000013d778                _ZN8SNSpcDsp12GetSampleDirEhj
                0x000000000013d918                _ZN8SNSpcDsp4SyncEj
                0x000000000013d638                _ZN8SNSpcDsp6Write8Ejh
                0x000000000013d9a8                _ZN8SNSpcDsp4SyncEv
                0x000000000013d5f8                _ZN8SNSpcDsp5ResetEv
                0x000000000013da20                _ZN8SNSpcDsp11UpdateFlagsEP12ISNSpcDspMix
                0x000000000013d7b0                _ZN8SNSpcDsp5KeyOnEi
                0x000000000013d8b8                _ZN8SNSpcDsp12EnqueueWriteEjjh
                0x000000000013d840                _ZN8SNSpcDsp6KeyOffEi
                0x000000000013d768                _ZN8SNSpcDsp5Read8Ej
 .text          0x000000000013dae8     0x1638 snspcmix.o
                0x000000000013e438                _Z11_MixChannelPiS_PsPhPtiii
                0x000000000013e528                _Z15_MixChannelEchoPiS_PsS0_S0_PhPtiii
                0x000000000013e278                _ZN15SNSpcDspMixFull12OutputSampleEiPsPtii
                0x000000000013f080                _ZN17SNSpcDspMixSilent3MixEP10CMixBuffer
                0x000000000013e0a8                _ZN15SNSpcDspMixFull11OutputNoiseEPsPtii
                0x000000000013e178                _ZN15SNSpcDspMixFull10FetchBlockEi
                0x000000000013dd70                _ZN11SNSpcDspMix14OutputEnvelopeEiPhi
                0x000000000013dd08                _ZN11SNSpcDspMix6KeyOffEi
                0x000000000013ef50                _ZN17SNSpcDspMixSilent12OutputSampleEiii
                0x000000000013dd40                _ZN11SNSpcDspMix15GetChannelStateEiPhS0_
                0x000000000013dca8                _ZN11SNSpcDspMix5KeyOnEi
                0x000000000013dae8                _ZN11SNSpcDspMix17BuildLookupTablesEj
                0x000000000013e6c8                _Z8_MixEchoPsPiS_iii
                0x000000000013eec0                _ZN17SNSpcDspMixSilent10FetchBlockEi
                0x000000000013eac8                _ZN15SNSpcDspMixFull3MixEP10CMixBuffer
                0x000000000013e050                _ZN15SNSpcDspMixFull5ResetEv
                0x000000000013dc80                _ZN11SNSpcDspMix5ResetEv
                0x000000000013e968                _ZN15SNSpcDspMixFull10FilterEchoEPsS0_iih
 .text          0x000000000013f120      0x158 snspcbrr.o
                0x000000000013f240                SNSpcBRRClear
                0x000000000013f1a8                SNSpcBRRDecode
 .text          0x000000000013f278      0x788 snspc.o
                0x000000000013f5d8                SNSPCSetTrapFunc
                0x000000000013f678                SNSPCWrite16
                0x000000000013f968                SNSPCSetDebug
                0x000000000013f568                SNSPCReadMem
                0x000000000013f788                SNSPCResetCounter
                0x000000000013f448                SNSPCPeek8
                0x000000000013f5e8                SNSPCWrite8
                0x000000000013f9c8                SNSPCMemChecksum
                0x000000000013f2b0                SNSPCNew
                0x000000000013f458                SNSPCPeekMem
                0x000000000013f2a8                SNSPCSetSpeed
                0x000000000013f300                SNSPCResetRegs
                0x000000000013f320                SNSPCSetRomEnable
                0x000000000013f6f8                SNSPCExecuteToCycle
                0x000000000013f508                SNSPCRead16
                0x000000000013f4c8                SNSPCRead8
                0x000000000013f798                SNSPCDumpRegs
                0x000000000013f720                SNSPCExecute
                0x000000000013f6d0                SNSPCSetExecuteFunc
                0x000000000013f8b0                SNSPCExecuteDebug
                0x000000000013f3c8                SNSPCReset
                0x000000000013f2f8                SNSPCDelete
                0x000000000013f298                SNSPCResetCounters
 .text          0x000000000013fa00      0x2b0 snmask128.o
                0x000000000013fac8                _Z9SNMaskSHLP7SNMaskTPKhi
                0x000000000013fa68                _Z11SNMaskRightP7SNMaskTi
                0x000000000013fb50                _Z9SNMaskSHRP7SNMaskTPKhi
                0x000000000013fa00                _Z10SNMaskLeftP7SNMaskTi
                0x000000000013fbd0                _Z11SNMaskRangeP7SNMaskTjjb
 .text          0x000000000013fcb0       0x10 snspcrom.o
                0x000000000013fcb0                SNSpcRomGetRomData
 .text          0x000000000013fcc0      0x348 nesdisk.o
                0x000000000013ff38                _ZN7NesDisk9WriteByteEijh
                0x000000000013ffd8                _ZN7NesDisk13GetMapperNameEv
                0x000000000013fcc0                _ZN7NesDiskC2Ev
                0x000000000013fd50                _ZN7NesDisk7LoadRomEP7CDataIOPhj
                0x000000000013fe90                _ZN7NesDisk6UnloadEv
                0x000000000013fd08                _ZN7NesDiskC1Ev
                0x000000000013fff0                _ZN7NesDisk10GetExtNameEj
                0x000000000013fef8                _ZN7NesDisk8ReadByteEij
                0x000000000013ff78                _ZN7NesDisk16GetNumRomRegionsEv
                0x000000000013ffc8                _ZN7NesDisk16GetRomRegionSizeEj
                0x000000000013ff80                _ZN7NesDisk16GetRomRegionNameEj
                0x000000000013ffe8                _ZN7NesDisk10GetNumExtsEv
 .text          0x0000000000140008      0x120 nesio.o
                0x0000000000140028                _ZN5NesIOC1Ev
                0x0000000000140060                _ZN5NesIO10LatchInputEP12EmuSysInputT
                0x0000000000140048                _ZN5NesIO5ResetEv
                0x00000000001400e0                _ZN5NesIO6StrobeEj
                0x00000000001400f8                _ZN5NesIO4ReadEj
                0x0000000000140008                _ZN5NesIOC2Ev
 .text          0x0000000000140128      0xaa8 nesmmu.o
                0x0000000000140820                _ZN6NesMMU8Read5000Ej
                0x0000000000140818                _ZN6NesMMU9Write5000Ejh
                0x0000000000140480                _ZN6NesMMU11SetChrRom8KEj
                0x0000000000140560                _ZN6NesMMU9SetMirrorE13NesMMUMirrorE
                0x0000000000140830                _ZN6NesMMU9Write4000Ejh
                0x0000000000140848                _ZN6NesMMU9SaveStateEPh
                0x0000000000140800                _ZN6NesMMU13GetLatchTableEv
                0x00000000001402d0                _ZN6NesMMU12SetPrgRom32KEj
                0x00000000001401f0                _ZN6NesMMU11SetPrgRam8KEjj
                0x0000000000140858                _Z9NesMMUNew7NesMMUE
                0x0000000000140530                _ZN6NesMMU12SetNameTableEjj
                0x00000000001407f8                _ZN6NesMMU8ScanLineEi
                0x0000000000140340                _ZN6NesMMU11SetChrRom1KEjj
                0x0000000000140270                _ZN6NesMMU12SetPrgRom16KEjj
                0x0000000000140808                _ZN6NesMMU5LatchEt
                0x0000000000140850                _ZN6NesMMU12RestoreStateEPh
                0x0000000000140400                _ZN6NesMMU11SetChrRom4KEjj
                0x0000000000140ad8                _Z13NesMMUGetName7NesMMUE
                0x00000000001406d0                _ZN6NesMMU5ResetEv
                0x00000000001407d8                _ZN6NesMMU3IRQEv
                0x0000000000140838                _ZN6NesMMU8Read4000Ej
                0x0000000000140128                _ZN6NesMMUC2Ev
                0x0000000000140150                _ZN6NesMMUC1Ev
                0x0000000000140788                _ZN6NesMMU6SetROMEP6NesRom
                0x0000000000140810                _ZN6NesMMU5WriteEjh
                0x0000000000140178                _ZN6NesMMU11SetPrgRom8KEjj
 .text          0x0000000000140bd0      0x800 n6502.o
                0x0000000000140d58                N6502ResetRegs
                0x0000000000140e68                N6502SetDebug
                0x0000000000141128                N6502PushByte
                0x0000000000141168                N6502PopByte
                0x0000000000140d78                N6502Reset
                0x0000000000140f40                N6502SetTrap
                0x0000000000141060                N6502ReadMem
                0x0000000000141190                N6502NMI
                0x0000000000141278                N6502Disassemble
                0x0000000000140d50                N6502Delete
                0x00000000001411f8                N6502IRQ
                0x00000000001410d0                N6502WriteByte
                0x0000000000140fb0                N6502GetMemPtr
                0x0000000000140cd8                N6502New
                0x0000000000140fd0                N6502ReadByte
                0x0000000000140ee0                N6502SetBank
                0x0000000000140e40                N6502SetExecuteFunc
                0x00000000001412c8                N6502DumpRegs
                0x0000000000141000                N6502ReadWord
                0x0000000000140ec8                N6502SetBadOpcodeTrap
                0x0000000000140dc0                N6502Execute
 .text          0x00000000001413d0     0x1dd0 ncpu_c.o
                0x00000000001417d8                NCPUExecute_C
 .text          0x00000000001431a0      0x388 ndisasm.o
                0x0000000000143508                N6502DisasmOpcode
 .text          0x0000000000143528      0x1f8 nescpu.o
                0x0000000000143588                _ZN6NesCPUD1Ev
                0x0000000000143528                _ZN6NesCPUC2Ev
                0x00000000001435a8                _ZN6NesCPU10DumpDisasmEtj
                0x0000000000143630                _ZN6NesCPU8DumpRegsEv
                0x0000000000143548                _ZN6NesCPUC1Ev
                0x0000000000143568                _ZN6NesCPUD2Ev
 .text          0x0000000000143720      0x9e0 nesppu.o
                0x0000000000143b08                _ZN6NesPPU13LatchLineAddrEv
                0x0000000000143a78                _ZN6NesPPU13VramAddrFrameEv
                0x0000000000143bb8                _ZN6NesPPU13BeginScanLineEv
                0x0000000000143a00                _ZN6NesPPU9BGEnabledEv
                0x0000000000143ad8                _ZN6NesPPU14VramAddrReturnEv
                0x0000000000143ea0                _ZN6NesPPU9VramWriteEth
                0x0000000000143720                _ZN6NesPPUC2Ev
                0x0000000000143a98                _ZN6NesPPU12VramAddrNextEv
                0x00000000001440b8                _ZN6NesPPU8PalWriteEth
                0x0000000000143b70                _ZN6NesPPU8EndFrameEv
                0x0000000000143cd0                _ZN6NesPPU8RegWriteEjh
                0x0000000000144000                _ZN6NesPPU15SetNameTableROMEjPh
                0x00000000001439f0                _ZN6NesPPU10NMIEnabledEv
                0x0000000000143b40                _ZN6NesPPU11BeginVBlankEv
                0x0000000000143b60                _ZN6NesPPU9EndVBlankEv
                0x0000000000143c40                _ZN6NesPPU7RegReadEj
                0x0000000000143f60                _ZN6NesPPU8VramReadEt
                0x00000000001440f0                _ZN6NesPPU7PalReadEt
                0x00000000001438c0                _ZN6NesPPU5ResetEv
                0x0000000000143e90                _ZN6NesPPU8ObjWriteEhh
                0x0000000000143a10                _ZN6NesPPU10BeginFrameEP14CRenderSurface
                0x0000000000143f00                _ZN6NesPPU13VramReadLatchEt
                0x0000000000144058                _ZN6NesPPU12SetNameTableEjj
                0x0000000000143fb0                _ZN6NesPPU10VramMapRAMEjPh
                0x00000000001437f0                _ZN6NesPPUC1Ev
                0x0000000000143bc0                _ZN6NesPPU11EndScanLineEv
                0x0000000000143fd8                _ZN6NesPPU10VramMapROMEjPh
                0x0000000000143bd0                _ZN6NesPPU6ReadSREv
                0x0000000000143e88                _ZN6NesPPU10ObjSetAddrEh
 .text          0x0000000000144100      0xe40 nesppurender.o
                0x0000000000144c70                _ZN6NesPPU7ExecuteEi
                0x0000000000144218                _ZN6NesPPU17sBuildPlaneLookupEv
                0x0000000000144a00                _ZN6NesPPU8FetchOBJEv
                0x0000000000144f08                _ZN6NesPPU8NextLineEt
                0x0000000000144b90                _ZN6NesPPU8FetchBG2Ei
                0x0000000000144130                _ZN10NesScrollT7GetAddrEv
                0x0000000000144d08                _ZN6NesPPU10RenderLineEv
                0x00000000001441b0                _ZN10NesScrollT9NextBlockEv
                0x0000000000144160                _ZN10NesScrollT8NextLineEv
                0x0000000000144100                _ZN10NesScrollT7SetAddrEj
 .text          0x0000000000144f40      0x230 nespal.o
                0x0000000000145070                _Z20NesPalComposePaletteiP8Color32TS0_j
                0x0000000000145140                _Z14NesPalGenerateP8Color32Tff
                0x0000000000145118                _Z21NesPalGetStockPalette7NesPalE
 .text          0x0000000000145170      0x5c8 nesrom.o
                0x00000000001456f8                _ZN10NesFDSBios16GetRomRegionSizeEj
                0x00000000001452b0                _ZN6NesRomD0Ev
                0x0000000000145308                _ZN6NesRom7LoadRomEP7CDataIOPhj
                0x0000000000145570                _ZN6NesRom16GetRomRegionNameEj
                0x0000000000145260                _ZN6NesRomD1Ev
                0x0000000000145210                _ZN6NesRomD2Ev
                0x00000000001456e0                _ZN10NesFDSBios16GetRomRegionNameEj
                0x00000000001456d8                _ZN10NesFDSBios16GetNumRomRegionsEv
                0x00000000001455f0                _ZN6NesRom10GetExtNameEj
                0x0000000000145528                _ZN6NesRom6UnloadEv
                0x0000000000145718                _ZN10NesFDSBios10GetNumExtsEv
                0x00000000001451c0                _ZN6NesRomC1Ev
                0x0000000000145170                _ZN6NesRomC2Ev
                0x0000000000145710                _ZN10NesFDSBios13GetMapperNameEv
                0x00000000001455e8                _ZN6NesRom10GetNumExtsEv
                0x0000000000145720                _ZN10NesFDSBios10GetExtNameEj
                0x0000000000145608                _ZN10NesFDSBios7LoadRomEP7CDataIOPhj
                0x0000000000145568                _ZN6NesRom16GetNumRomRegionsEv
                0x00000000001455c8                _ZN6NesRom13GetMapperNameEv
                0x0000000000145598                _ZN6NesRom16GetRomRegionSizeEj
 .text          0x0000000000145738     0x14e0 nesspu.o
                0x0000000000145f90                _ZN9NesSPUDMC8IsActiveEv
                0x0000000000146230                _ZN6NesSPUD1Ev
                0x0000000000145a88                _ZN12NesSPUSquare9GetOutputEv
                0x0000000000145dd8                _ZN11NesSPUNoise6UpdateEj
                0x00000000001457a8                _ZN13NesSPUChannel6EnableEv
                0x0000000000146760                _ZN12CNesDMCQueue7EnqueueEjh
                0x0000000000145738                _ZN13NesSPUChannelC2Ev
                0x00000000001460b8                _ZN6NesSPU10DMCExecuteEj
                0x0000000000145788                _ZN13NesSPUChannel5ResetEv
                0x0000000000146628                _ZN6NesSPU6UpdateEj
                0x0000000000146238                _ZN6NesSPU8RegWriteEjh
                0x0000000000145cb8                _ZN14NesSPUTriangle9GetOutputEv
                0x0000000000145fb0                _ZN9NesSPUDMC6DmaBitEP6NesCPU
                0x0000000000146860                _ZN6NesSPU7ProcessEP12CNesSPUMixerP10CMixBuffer
                0x0000000000146178                _ZN6NesSPUC2Ev
                0x0000000000146748                _ZN12CNesDMCQueue5ResetEv
                0x0000000000145e60                _ZN11NesSPUNoise9GetOutputEv
                0x00000000001467a8                _ZN6NesSPU10BeginFrameEv
                0x0000000000146388                _ZN6NesSPU5WriteEjhj
                0x0000000000146228                _ZN6NesSPUD2Ev
                0x0000000000145958                _ZN12NesSPUSquare6UpdateEj
                0x0000000000145d10                _ZN11NesSPUNoise8RegWriteEhh
                0x0000000000145f70                _ZN9NesSPUDMC5ResetEv
                0x0000000000145f10                _ZN9NesSPUDMC6EnableEv
                0x00000000001461d0                _ZN6NesSPUC1Ev
                0x00000000001464c0                _ZN6NesSPU7RegReadEj
                0x0000000000145e98                _ZN9NesSPUDMC8RegWriteEhh
                0x00000000001467b8                _ZN6NesSPU8EndFrameEv
                0x00000000001465a8                _ZN6NesSPU5ResetEv
                0x0000000000145b08                _ZN14NesSPUTriangle13SetLinearModeEj
                0x0000000000145c68                _ZN14NesSPUTriangle6UpdateEj
                0x0000000000145858                _ZN12NesSPUSquare8RegWriteEhh
                0x00000000001464a0                _ZN6NesSPU4ReadEjj
                0x0000000000145f60                _ZN9NesSPUDMC7DisableEv
                0x0000000000146680                _ZN6NesSPU3MixEP12CNesSPUMixerPsii
                0x00000000001457b8                _ZN13NesSPUChannel7DisableEv
                0x00000000001457c8                _ZN12NesSPUSquareC2Ei
                0x0000000000145810                _ZN12NesSPUSquareC1Ei
                0x0000000000145760                _ZN13NesSPUChannelC1Ev
                0x0000000000145b30                _ZN14NesSPUTriangle8RegWriteEhh
 .text          0x0000000000146c18      0x7e8 nesspumix.o
                0x0000000000146e50                _ZN12NesSPUSquare3MixEP12CNesSPUMixerPsif
                0x0000000000146f98                _ZN14NesSPUTriangle3MixEP12CNesSPUMixerPsif
                0x0000000000147140                _ZN11NesSPUNoise3MixEP12CNesSPUMixerPsifi
                0x0000000000146c40                _ZN12CNesSPUMixer9SetVolumeEi
                0x00000000001472c8                _ZN9NesSPUDMC4Mix2EP12CNesSPUMixerPsif
                0x00000000001473e0                _ZN12CNesSPUMixerC1Ev
                0x00000000001473c0                _ZN12CNesSPUMixerC2Ev
                0x0000000000147308                _ZN9NesSPUDMC3MixEP12CNesSPUMixerPsiP12CNesDMCQueuej
 .text          0x0000000000147400      0xab0 nesstate.o
                0x0000000000147e60                _ZN5NesIO9SaveStateEP11NesStateIOT
                0x0000000000147710                _ZN6NesCPU12RestoreStateEP12NesStateCPUT
                0x0000000000147468                _ZN9NesSystem9SaveStateEP9NesStateT
                0x0000000000147460                _ZN9NesSystem12GetStateSizeEv
                0x0000000000147530                _ZN9NesSystem12RestoreStateEP9NesStateT
                0x0000000000147738                _ZN6NesCPU9SaveStateEP12NesStateCPUT
                0x00000000001478d0                _ZN6NesSPU9SaveStateEP12NesStateSPUT
                0x0000000000147688                _ZN6NesPPU12RestoreStateEP12NesStatePPUT
                0x00000000001475f8                _ZN6NesPPU9SaveStateEP12NesStatePPUT
                0x0000000000147430                _ZN9NesSystem12RestoreStateEPvi
                0x0000000000147b98                _ZN6NesSPU12RestoreStateEP12NesStateSPUT
                0x00000000001477e8                _ZN6NesMMU12RestoreStateEP12NesStateMMUT
                0x0000000000147400                _ZN9NesSystem9SaveStateEPvi
                0x0000000000147e88                _ZN5NesIO12RestoreStateEP11NesStateIOT
                0x0000000000147770                _ZN6NesMMU9SaveStateEP12NesStateMMUT
 .text          0x0000000000147eb0      0xee8 nes.o
                0x0000000000148580                _ZN9NesSystem8ResetCPUEh
                0x0000000000148430                _ZN9NesSystem6SetRomEP7CEmuRom
                0x00000000001482b8                _ZN9NesSystemD1Ev
                0x0000000000148a80                _ZN9NesSystem9BadOpcodeEt
                0x0000000000148200                _ZN9NesSystemD2Ev
                0x0000000000148cd8                _ZN9NesSystem12GetSRAMBytesEv
                0x0000000000148748                _ZN9NesSystem5ResetEv
                0x00000000001488d8                _ZN9NesSystem11ExecuteLineEv
                0x0000000000148d38                _ZN9NesSystem9GetStringE13EmuSysStringE
                0x0000000000148b90                _ZN9NesSystem9WriteTrapEjh
                0x00000000001487b0                _ZN9NesSystem9SoftResetEv
                0x0000000000148560                _ZN9NesSystem10SetNesDiskEP7NesDisk
                0x0000000000148450                _ZN9NesSystem9SetNesRomEP6NesRom
                0x0000000000148110                _ZN9NesSystemC1Ev
                0x0000000000148ae0                _ZN9NesSystem8ReadTrapEj
                0x0000000000148370                _ZN9NesSystemD0Ev
                0x0000000000148d08                _ZN9NesSystem11GetSRAMDataEv
                0x0000000000148920                _ZN9NesSystem12ExecuteFrameEP12EmuSysInputTP14CRenderSurfaceP10CMixBuffer11EmuSysModeE
                0x0000000000148020                _ZN9NesSystemC2Ev
                0x00000000001487f8                _ZN9NesSystem17ExecuteRasterLineEv
 .text          0x0000000000148d98     0x1430 /dev/ps2dev/ps2lib/dev/ee/lib/libmc.a(libmc.o)
                0x00000000001496a8                mcFlush
                0x00000000001492f0                mcClose
                0x00000000001490d0                mcGetInfo
                0x0000000000149f80                mcChangeThreadPriority
                0x0000000000149c00                mcFormat
                0x0000000000149cc0                mcUnformat
                0x0000000000148f50                mcInit
                0x00000000001493a8                mcSeek
                0x000000000014a128                strcpy_sjis
                0x0000000000149e60                mcRename
                0x0000000000149b20                mcDelete
                0x0000000000149d80                mcGetEntSpace
                0x000000000014a038                mcSync
                0x0000000000149470                mcRead
                0x0000000000149790                mcChdir
                0x0000000000149568                mcWrite
                0x00000000001499a8                mcSetFileInfo
                0x0000000000149210                mcOpen
                0x0000000000149760                mcMkDir
                0x0000000000149898                mcGetDir
 .text          0x000000000014a1c8      0xc48 /dev/ps2dev/ps2lib/dev/ee/lib/libpad.a(libpad.o)
                0x000000000014aa40                padEnterPressMode
                0x000000000014aa80                padGetButtonMask
                0x000000000014ac80                padSetActAlign
                0x000000000014aa60                padExitPressMode
                0x000000000014a890                padInfoMode
                0x000000000014a230                padInit
                0x000000000014ae08                padGetConnection
                0x000000000014a758                padReqStateInt2String
                0x000000000014ad60                padSetActDirect
                0x000000000014aa10                padInfoPressMode
                0x000000000014a6e0                padSetReqState
                0x000000000014a710                padStateInt2String
                0x000000000014a410                padPortOpen
                0x000000000014abb8                padInfoAct
                0x000000000014a950                padSetMainMode
                0x000000000014ab00                padSetButtonInfo
                0x000000000014a548                padPortClose
                0x000000000014a600                padRead
                0x000000000014a390                padEnd
                0x000000000014a7a0                padGetPortMax
                0x000000000014a648                padGetState
                0x000000000014a810                padGetSlotMax
                0x000000000014a888                padGetModVersion
                0x000000000014a6c0                padGetReqState
 .text          0x000000000014ae10      0x958 /dev/ps2dev/ps2net/dev/ps2ip/ee/lib/libps2ip.a(ps2ipc.o)
                0x000000000014b200                recv
                0x000000000014b068                connect
                0x000000000014b6d0                ps2ip_getconfig
                0x000000000014b2d8                recvfrom
                0x000000000014b5c8                socket
                0x000000000014b3e0                send
                0x000000000014ae10                ps2ip_init
                0x000000000014aeb0                accept
                0x000000000014af68                bind
                0x000000000014aff8                disconnect
                0x000000000014b648                ps2ip_setconfig
                0x000000000014b4c0                sendto
                0x000000000014b0f8                listen
 .text          0x000000000014b768       0xac /dev/ps2dev/ps2lib/dev/ee/lib/libkernel.a(memcpy.o)
                0x000000000014b768                memcpy
 .text          0x000000000014b814       0xac /dev/ps2dev/ps2lib/dev/ee/lib/libkernel.a(memset.o)
                0x000000000014b814                memset
 .text          0x000000000014b8c0      0x12c /dev/ps2dev/ps2lib/dev/ee/lib/libkernel.a(strcat.o)
                0x000000000014b8c0                strcat
 *fill*         0x000000000014b9ec        0x4 00
 .text          0x000000000014b9f0      0x1b8 /dev/ps2dev/ps2lib/dev/ee/lib/libkernel.a(strncmp.o)
                0x000000000014b9f0                strncmp
 .text          0x000000000014bba8       0x94 /dev/ps2dev/ps2lib/dev/ee/lib/libkernel.a(memcmp.o)
                0x000000000014bba8                memcmp
 .text          0x000000000014bc3c       0xfc /dev/ps2dev/ps2lib/dev/ee/lib/libkernel.a(memmove.o)
                0x000000000014bc3c                memmove
 .text          0x000000000014bd38      0x110 /dev/ps2dev/ps2lib/dev/ee/lib/libkernel.a(strcpy.o)
                0x000000000014bd38                strcpy
 .text          0x000000000014be48      0x1b8 /dev/ps2dev/ps2lib/dev/ee/lib/libkernel.a(strncpy.o)
                0x000000000014be48                strncpy
 .text          0x000000000014c000      0x138 /dev/ps2dev/ps2lib/dev/ee/lib/libkernel.a(strlen.o)
                0x000000000014c000                strlen
 .text          0x000000000014c138      0x190 /dev/ps2dev/ps2lib/dev/ee/lib/libkernel.a(strchr.o)
                0x000000000014c138                strchr
 .text          0x000000000014c2c8      0x144 /dev/ps2dev/ps2lib/dev/ee/lib/libkernel.a(strcmp.o)
                0x000000000014c2c8                strcmp
 *fill*         0x000000000014c40c        0x4 00
 .text          0x000000000014c410      0x128 /dev/ps2dev/ps2lib/dev/ee/lib/libkernel.a(SifBindRpc.o)
                0x000000000014c410                SifBindRpc
 .text          0x000000000014c538      0x1b8 /dev/ps2dev/ps2lib/dev/ee/lib/libkernel.a(SifCallRpc.o)
                0x000000000014c538                SifCallRpc
 .text          0x000000000014c6f0       0xd0 /dev/ps2dev/ps2lib/dev/ee/lib/libkernel.a(SifRegisterRpc.o)
                0x000000000014c6f0                SifRegisterRpc
 .text          0x000000000014c7c0       0xa8 /dev/ps2dev/ps2lib/dev/ee/lib/libkernel.a(SifSetRpcQueue.o)
                0x000000000014c7c0                SifSetRpcQueue
 .text          0x000000000014c868       0x58 /dev/ps2dev/ps2lib/dev/ee/lib/libkernel.a(SifGetNextRequest.o)
                0x000000000014c868                SifGetNextRequest
 .text          0x000000000014c8c0      0x1d0 /dev/ps2dev/ps2lib/dev/ee/lib/libkernel.a(SifExecRequest.o)
                0x000000000014c900                SifExecRequest
 .text          0x000000000014ca90      0x428 /dev/ps2dev/ps2lib/dev/ee/lib/libkernel.a(SifRpcMain.o)
                0x000000000014cd48                SifInitRpc
                0x000000000014ce90                SifExitRpc
 .text          0x000000000014ceb8       0xc0 /dev/ps2dev/ps2lib/dev/ee/lib/libkernel.a(_rpc_get_packet.o)
                0x000000000014ceb8                _rpc_get_packet
 .text          0x000000000014cf78       0x30 /dev/ps2dev/ps2lib/dev/ee/lib/libkernel.a(_rpc_get_fpacket.o)
                0x000000000014cf78                _rpc_get_fpacket
 .text          0x000000000014cfa8       0x30 /dev/ps2dev/ps2lib/dev/ee/lib/libkernel.a(SifCheckStatRpc.o)
                0x000000000014cfa8                SifCheckStatRpc
 *fill*         0x000000000014cfd8        0x8 00
 .text          0x000000000014cfe0       0x10 /dev/ps2dev/ps2lib/dev/ee/lib/libkernel.a(SetVTLBRefillHandler.o)
                0x000000000014cfe0                SetVTLBRefillHandler
 .text          0x000000000014cff0       0x10 /dev/ps2dev/ps2lib/dev/ee/lib/libkernel.a(SetVCommonHandler.o)
                0x000000000014cff0                SetVCommonHandler
 .text          0x000000000014d000       0x10 /dev/ps2dev/ps2lib/dev/ee/lib/libkernel.a(GetThreadId.o)
                0x000000000014d000                GetThreadId
 .text          0x000000000014d010       0x10 /dev/ps2dev/ps2lib/dev/ee/lib/libkernel.a(SleepThread.o)
                0x000000000014d010                SleepThread
 .text          0x000000000014d020       0x10 /dev/ps2dev/ps2lib/dev/ee/lib/libkernel.a(iWakeupThread.o)
                0x000000000014d020                iWakeupThread
 .text          0x000000000014d030       0x10 /dev/ps2dev/ps2lib/dev/ee/lib/libkernel.a(CreateSema.o)
                0x000000000014d030                CreateSema
 .text          0x000000000014d040       0x10 /dev/ps2dev/ps2lib/dev/ee/lib/libkernel.a(DeleteSema.o)
                0x000000000014d040                DeleteSema
 .text          0x000000000014d050       0x10 /dev/ps2dev/ps2lib/dev/ee/lib/libkernel.a(iSignalSema.o)
                0x000000000014d050                iSignalSema
 .text          0x000000000014d060       0x10 /dev/ps2dev/ps2lib/dev/ee/lib/libkernel.a(SignalSema.o)
                0x000000000014d060                SignalSema
 .text          0x000000000014d070       0x10 /dev/ps2dev/ps2lib/dev/ee/lib/libkernel.a(WaitSema.o)
                0x000000000014d070                WaitSema
 .text          0x000000000014d080       0x10 /dev/ps2dev/ps2lib/dev/ee/lib/libkernel.a(FlushCache.o)
                0x000000000014d080                FlushCache
 .text          0x000000000014d090       0x10 /dev/ps2dev/ps2lib/dev/ee/lib/libkernel.a(SifDmaStat.o)
                0x000000000014d090                SifDmaStat
 .text          0x000000000014d0a0       0x10 /dev/ps2dev/ps2lib/dev/ee/lib/libkernel.a(SifSetDma.o)
                0x000000000014d0a0                SifSetDma
 .text          0x000000000014d0b0       0x10 /dev/ps2dev/ps2lib/dev/ee/lib/libkernel.a(SifSetReg.o)
                0x000000000014d0b0                SifSetReg
 .text          0x000000000014d0c0       0x10 /dev/ps2dev/ps2lib/dev/ee/lib/libkernel.a(SifGetReg.o)
                0x000000000014d0c0                SifGetReg
 .text          0x000000000014d0d0       0xb0 /dev/ps2dev/ps2lib/dev/ee/lib/libkernel.a(SifWriteBackDCache.o)
                0x000000000014d0d0                SifWriteBackDCache
 .text          0x000000000014d180       0x10 /dev/ps2dev/ps2lib/dev/ee/lib/libkernel.a(__errno.o)
                0x000000000014d180                __errno
 .text          0x000000000014d190       0x30 /dev/ps2dev/ps2lib/dev/ee/lib/libkernel.a(fio_exit.o)
                0x000000000014d190                fioExit
 .text          0x000000000014d1c0       0xd8 /dev/ps2dev/ps2lib/dev/ee/lib/libkernel.a(fio_open.o)
                0x000000000014d1c0                fioOpen
 .text          0x000000000014d298       0x90 /dev/ps2dev/ps2lib/dev/ee/lib/libkernel.a(fio_close.o)
                0x000000000014d298                fioClose
 .text          0x000000000014d328      0x128 /dev/ps2dev/ps2lib/dev/ee/lib/libkernel.a(fio_read.o)
                0x000000000014d328                fioRead
 .text          0x000000000014d450      0x120 /dev/ps2dev/ps2lib/dev/ee/lib/libkernel.a(fio_write.o)
                0x000000000014d450                fioWrite
 .text          0x000000000014d570       0xb0 /dev/ps2dev/ps2lib/dev/ee/lib/libkernel.a(fio_lseek.o)
                0x000000000014d570                fioLseek
 .text          0x000000000014d620       0xa0 /dev/ps2dev/ps2lib/dev/ee/lib/libkernel.a(fio_mkdir.o)
                0x000000000014d620                fioMkdir
 .text          0x000000000014d6c0       0x88 /dev/ps2dev/ps2lib/dev/ee/lib/libkernel.a(_fio_read_intr.o)
                0x000000000014d6c0                _fio_read_intr
 .text          0x000000000014d748       0xa0 /dev/ps2dev/ps2lib/dev/ee/lib/libkernel.a(fio_dopen.o)
                0x000000000014d748                fioDopen
 .text          0x000000000014d7e8       0x90 /dev/ps2dev/ps2lib/dev/ee/lib/libkernel.a(fio_dclose.o)
                0x000000000014d7e8                fioDclose
 .text          0x000000000014d878       0xc8 /dev/ps2dev/ps2lib/dev/ee/lib/libkernel.a(fio_dread.o)
                0x000000000014d878                fioDread
 .text          0x000000000014d940       0xa0 /dev/ps2dev/ps2lib/dev/ee/lib/libkernel.a(fio_remove.o)
                0x000000000014d940                fioRemove
 .text          0x000000000014d9e0       0xa0 /dev/ps2dev/ps2lib/dev/ee/lib/libkernel.a(fio_rmdir.o)
                0x000000000014d9e0                fioRmdir
 .text          0x000000000014da80       0x30 /dev/ps2dev/ps2lib/dev/ee/lib/libkernel.a(SifLoadFileExit.o)
                0x000000000014da80                SifLoadFileExit
 .text          0x000000000014dab0       0x20 /dev/ps2dev/ps2lib/dev/ee/lib/libkernel.a(SifLoadModule.o)
                0x000000000014dab0                SifLoadModule
 .text          0x000000000014dad0       0x20 /dev/ps2dev/ps2lib/dev/ee/lib/libkernel.a(SifLoadModuleBuffer.o)
                0x000000000014dad0                SifLoadModuleBuffer
 .text          0x000000000014daf0       0x10 /dev/ps2dev/ps2lib/dev/ee/lib/libkernel.a(SifExitIopHeap.o)
                0x000000000014daf0                SifExitIopHeap
 .text          0x000000000014db00       0x80 /dev/ps2dev/ps2lib/dev/ee/lib/libkernel.a(SifAllocIopHeap.o)
                0x000000000014db00                SifAllocIopHeap
 .text          0x000000000014db80       0x88 /dev/ps2dev/ps2lib/dev/ee/lib/libkernel.a(SifFreeIopHeap.o)
                0x000000000014db80                SifFreeIopHeap
 .text          0x000000000014dc08       0xa8 /dev/ps2dev/ps2lib/dev/ee/lib/libkernel.a(SifLoadIopHeap.o)
                0x000000000014dc08                SifLoadIopHeap
 .text          0x000000000014dcb0      0x110 /dev/ps2dev/ps2lib/dev/ee/lib/libkernel.a(SifIopReset.o)
                0x000000000014dcb0                SifIopReset
 .text          0x000000000014ddc0       0x48 /dev/ps2dev/ps2lib/dev/ee/lib/libkernel.a(SifIopSync.o)
                0x000000000014ddc0                SifIopSync
 .text          0x000000000014de08      0xb18 /dev/ps2dev/ps2lib/dev/ee/lib/libkernel.a(vsnprintf.o)
                0x000000000014e898                vsnprintf
 .text          0x000000000014e920       0x28 /dev/ps2dev/ps2lib/dev/ee/lib/libkernel.a(vsprintf.o)
                0x000000000014e920                vsprintf
 .text          0x000000000014e948       0x48 /dev/ps2dev/ps2lib/dev/ee/lib/libkernel.a(printf.o)
                0x000000000014e948                printf
 .text          0x000000000014e990       0x48 /dev/ps2dev/ps2lib/dev/ee/lib/libkernel.a(sprintf.o)
                0x000000000014e990                sprintf
 .text          0x000000000014e9d8      0x1e0 /dev/ps2dev/ps2lib/dev/ee/lib/libkernel.a(malloc.o)
                0x000000000014e9d8                _heap_mem_fit
 .text          0x000000000014ebb8       0x50 /dev/ps2dev/ps2lib/dev/ee/lib/libkernel.a(calloc.o)
 .text          0x000000000014ec08       0xd8 /dev/ps2dev/ps2lib/dev/ee/lib/libkernel.a(free.o)
 .text          0x000000000014ece0       0x90 /dev/ps2dev/ps2lib/dev/ee/lib/libkernel.a(strcasecmp.o)
                0x000000000014ece0                strcasecmp
 .text          0x000000000014ed70       0x58 /dev/ps2dev/ps2lib/dev/ee/lib/libkernel.a(strrchr.o)
                0x000000000014ed70                strrchr
 .text          0x000000000014edc8      0x280 /dev/ps2dev/ps2lib/dev/ee/lib/libkernel.a(ctype.o)
                0x000000000014ee40                islower
                0x000000000014edc8                tolower
                0x000000000014ef90                ispunct
                0x000000000014efe0                isspace
                0x000000000014f000                isxdigit
                0x000000000014ee28                isupper
                0x000000000014ee58                isalpha
                0x000000000014ef30                isgraph
                0x000000000014eec0                isalnum
                0x000000000014ef70                isprint
                0x000000000014eea8                isdigit
                0x000000000014ef10                iscntrl
                0x000000000014edf8                toupper
 .text          0x000000000014f048       0x50 /dev/ps2dev/ps2lib/dev/ee/lib/libkernel.a(DIntr.o)
                0x000000000014f048                DIntr
 .text          0x000000000014f098       0x18 /dev/ps2dev/ps2lib/dev/ee/lib/libkernel.a(EIntr.o)
                0x000000000014f098                EIntr
 .text          0x000000000014f0b0       0x80 /dev/ps2dev/ps2lib/dev/ee/lib/libkernel.a(SyncDCache.o)
                0x000000000014f0b0                SyncDCache
 .text          0x000000000014f130      0x508 /dev/ps2dev/ps2lib/dev/ee/lib/libkernel.a(graph.o)
                0x000000000014f2d0                _putchar
                0x000000000014f238                init_scr
                0x000000000014f458                scr_printf
 .text          0x000000000014f638       0xc8 /dev/ps2dev/ps2lib/dev/ee/lib/libkernel.a(sbrk.o)
                0x000000000014f638                ps2_sbrk
 .text          0x000000000014f700      0x1b0 /dev/ps2dev/ps2lib/dev/ee/lib/libkernel.a(sif_cmd_send.o)
                0x000000000014f830                SifSendCmd
                0x000000000014f870                iSifSendCmd
 .text          0x000000000014f8b0      0x288 /dev/ps2dev/ps2lib/dev/ee/lib/libkernel.a(sif_cmd_main.o)
                0x000000000014f8e0                SifInitCmd
                0x000000000014fb00                SifExitCmd
 .text          0x000000000014fb38       0x38 /dev/ps2dev/ps2lib/dev/ee/lib/libkernel.a(sif_cmd_addhandler.o)
                0x000000000014fb38                SifAddCmdHandler
 .text          0x000000000014fb70       0x18 /dev/ps2dev/ps2lib/dev/ee/lib/libkernel.a(sif_sreg_get.o)
                0x000000000014fb70                SifGetSreg
 *fill*         0x000000000014fb88        0x8 00
 .text          0x000000000014fb90       0x10 /dev/ps2dev/ps2lib/dev/ee/lib/libkernel.a(SetGsCrt.o)
                0x000000000014fb90                SetGsCrt
 .text          0x000000000014fba0       0x10 /dev/ps2dev/ps2lib/dev/ee/lib/libkernel.a(AddDmacHandler.o)
                0x000000000014fba0                AddDmacHandler
 .text          0x000000000014fbb0       0x10 /dev/ps2dev/ps2lib/dev/ee/lib/libkernel.a(RemoveDmacHandler.o)
                0x000000000014fbb0                RemoveDmacHandler
 .text          0x000000000014fbc0       0x10 /dev/ps2dev/ps2lib/dev/ee/lib/libkernel.a(EndOfHeap.o)
                0x000000000014fbc0                EndOfHeap
 .text          0x000000000014fbd0       0x10 /dev/ps2dev/ps2lib/dev/ee/lib/libkernel.a(SifStopDma.o)
                0x000000000014fbd0                SifStopDma
 .text          0x000000000014fbe0       0x10 /dev/ps2dev/ps2lib/dev/ee/lib/libkernel.a(GsPutIMR.o)
                0x000000000014fbe0                GsPutIMR
 .text          0x000000000014fbf0       0x10 /dev/ps2dev/ps2lib/dev/ee/lib/libkernel.a(iSifSetDma.o)
                0x000000000014fbf0                iSifSetDma
 .text          0x000000000014fc00       0x10 /dev/ps2dev/ps2lib/dev/ee/lib/libkernel.a(SifSetDChain.o)
                0x000000000014fc00                SifSetDChain
 .text          0x000000000014fc10       0xa8 /dev/ps2dev/ps2lib/dev/ee/lib/libkernel.a(_SyncDCache.o)
                0x000000000014fc10                _SyncDCache
 .text          0x000000000014fcb8      0x1f8 /dev/ps2dev/ps2lib/dev/ee/lib/libkernel.a(fio_main.o)
                0x000000000014fcb8                fioInit
                0x000000000014fda8                _fio_intr
                0x000000000014fea0                fioSetBlockMode
                0x000000000014fdc8                fioSync
 .text          0x000000000014feb0       0xc8 /dev/ps2dev/ps2lib/dev/ee/lib/libkernel.a(SifLoadFileInit.o)
                0x000000000014feb0                SifLoadFileInit
 .text          0x000000000014ff78      0x110 /dev/ps2dev/ps2lib/dev/ee/lib/libkernel.a(_SifLoadModule.o)
                0x000000000014ff78                _SifLoadModule
 .text          0x0000000000150088       0xf8 /dev/ps2dev/ps2lib/dev/ee/lib/libkernel.a(_SifLoadModuleBuffer.o)
                0x0000000000150088                _SifLoadModuleBuffer
 .text          0x0000000000150180       0xc8 /dev/ps2dev/ps2lib/dev/ee/lib/libkernel.a(SifInitIopHeap.o)
                0x0000000000150180                SifInitIopHeap
 .text          0x0000000000150248       0x58 /dev/ps2dev/ps2lib/dev/ee/lib/libkernel.a(vprintf.o)
                0x0000000000150248                vprintf
 .text          0x00000000001502a0       0x78 /dev/ps2dev/ps2lib/dev/ee/lib/libkernel.a(EnableDmac.o)
                0x00000000001502a0                EnableDmac
 .text          0x0000000000150318       0x78 /dev/ps2dev/ps2lib/dev/ee/lib/libkernel.a(DisableDmac.o)
                0x0000000000150318                DisableDmac
 .text          0x0000000000150390       0xe0 /dev/ps2dev/ps2lib/dev/ee/lib/libkernel.a(_sif_cmd_int_handler.o)
                0x0000000000150390                _SifCmdIntHandler
 .text          0x0000000000150470       0x10 /dev/ps2dev/ps2lib/dev/ee/lib/libkernel.a(_EnableDmac.o)
                0x0000000000150470                _EnableDmac
 .text          0x0000000000150480       0x10 /dev/ps2dev/ps2lib/dev/ee/lib/libkernel.a(_DisableDmac.o)
                0x0000000000150480                _DisableDmac
 .text          0x0000000000150490       0x10 /dev/ps2dev/ps2lib/dev/ee/lib/libkernel.a(PollSema.o)
                0x0000000000150490                PollSema
 .text          0x00000000001504a0       0x10 /dev/ps2dev/ps2lib/dev/ee/lib/libkernel.a(iSifSetDChain.o)
                0x00000000001504a0                iSifSetDChain
 .text          0x00000000001504b0       0x30 /dev/ps2dev/gcc/3.2.2-b1/install/i686-pc-cygwin/ee/ee/lib/libc.a(assert.o)
                0x00000000001504b0                __assert
 .text          0x00000000001504e0      0x128 /dev/ps2dev/gcc/3.2.2-b1/install/i686-pc-cygwin/ee/ee/lib/libc.a(fclose.o)
                0x00000000001504e0                fclose
 .text          0x0000000000150608       0xf0 /dev/ps2dev/gcc/3.2.2-b1/install/i686-pc-cygwin/ee/ee/lib/libc.a(fdopen.o)
                0x0000000000150608                _fdopen_r
                0x00000000001506c8                fdopen
 .text          0x00000000001506f8      0x108 /dev/ps2dev/gcc/3.2.2-b1/install/i686-pc-cygwin/ee/ee/lib/libc.a(fflush.o)
                0x00000000001506f8                fflush
 .text          0x0000000000150800      0x130 /dev/ps2dev/gcc/3.2.2-b1/install/i686-pc-cygwin/ee/ee/lib/libc.a(fgets.o)
                0x0000000000150800                fgets
 .text          0x0000000000150930      0x288 /dev/ps2dev/gcc/3.2.2-b1/install/i686-pc-cygwin/ee/ee/lib/libc.a(findfp.o)
                0x0000000000150b28                __sinit
                0x0000000000150990                __sfmoreglue
                0x0000000000150b00                _cleanup
                0x0000000000150ae0                _cleanup_r
                0x0000000000150a00                __sfp
 .text          0x0000000000150bb8       0x48 /dev/ps2dev/gcc/3.2.2-b1/install/i686-pc-cygwin/ee/ee/lib/libc.a(fiprintf.o)
                0x0000000000150bb8                fiprintf
 .text          0x0000000000150c00       0xa8 /dev/ps2dev/gcc/3.2.2-b1/install/i686-pc-cygwin/ee/ee/lib/libc.a(flags.o)
                0x0000000000150c00                __sflags
 .text          0x0000000000150ca8      0x128 /dev/ps2dev/gcc/3.2.2-b1/install/i686-pc-cygwin/ee/ee/lib/libc.a(fopen.o)
                0x0000000000150da0                fopen
                0x0000000000150ca8                _fopen_r
 .text          0x0000000000150dd0       0x48 /dev/ps2dev/gcc/3.2.2-b1/install/i686-pc-cygwin/ee/ee/lib/libc.a(fprintf.o)
                0x0000000000150dd0                fprintf
 .text          0x0000000000150e18       0x98 /dev/ps2dev/gcc/3.2.2-b1/install/i686-pc-cygwin/ee/ee/lib/libc.a(fputc.o)
                0x0000000000150e18                fputc
 .text          0x0000000000150eb0      0x118 /dev/ps2dev/gcc/3.2.2-b1/install/i686-pc-cygwin/ee/ee/lib/libc.a(fread.o)
                0x0000000000150eb0                fread
 .text          0x0000000000150fc8      0x498 /dev/ps2dev/gcc/3.2.2-b1/install/i686-pc-cygwin/ee/ee/lib/libc.a(fseek.o)
                0x0000000000150fc8                fseek
 .text          0x0000000000151460       0x60 /dev/ps2dev/gcc/3.2.2-b1/install/i686-pc-cygwin/ee/ee/lib/libc.a(fstatr.o)
                0x0000000000151460                _fstat_r
 .text          0x00000000001514c0      0x108 /dev/ps2dev/gcc/3.2.2-b1/install/i686-pc-cygwin/ee/ee/lib/libc.a(ftell.o)
                0x00000000001514c0                ftell
 .text          0x00000000001515c8       0x98 /dev/ps2dev/gcc/3.2.2-b1/install/i686-pc-cygwin/ee/ee/lib/libc.a(fwalk.o)
                0x00000000001515c8                _fwalk
 .text          0x0000000000151660       0x88 /dev/ps2dev/gcc/3.2.2-b1/install/i686-pc-cygwin/ee/ee/lib/libc.a(fwrite.o)
                0x0000000000151660                fwrite
 .text          0x00000000001516e8      0x150 /dev/ps2dev/gcc/3.2.2-b1/install/i686-pc-cygwin/ee/ee/lib/libc.a(makebuf.o)
                0x00000000001516e8                __smakebuf
 .text          0x0000000000151838       0xe0 /dev/ps2dev/gcc/3.2.2-b1/install/i686-pc-cygwin/ee/ee/lib/libc.a(memchr.o)
                0x0000000000151838                memchr
 .text          0x0000000000151918       0x60 /dev/ps2dev/gcc/3.2.2-b1/install/i686-pc-cygwin/ee/ee/lib/libc.a(openr.o)
                0x0000000000151918                _open_r
 .text          0x0000000000151978      0x9b8 /dev/ps2dev/gcc/3.2.2-b1/install/i686-pc-cygwin/ee/ee/lib/libc.a(qsort.o)
                0x0000000000151978                qsort
 .text          0x0000000000152330      0x1d8 /dev/ps2dev/gcc/3.2.2-b1/install/i686-pc-cygwin/ee/ee/lib/libc.a(refill.o)
                0x0000000000152370                __srefill
 .text          0x0000000000152508       0x38 /dev/ps2dev/gcc/3.2.2-b1/install/i686-pc-cygwin/ee/ee/lib/libc.a(rewind.o)
                0x0000000000152508                rewind
 .text          0x0000000000152540      0x1b0 /dev/ps2dev/gcc/3.2.2-b1/install/i686-pc-cygwin/ee/ee/lib/libc.a(setvbuf.o)
                0x0000000000152540                setvbuf
 .text          0x00000000001526f0      0x180 /dev/ps2dev/gcc/3.2.2-b1/install/i686-pc-cygwin/ee/ee/lib/libc.a(stdio.o)
                0x00000000001527e8                __sseek
                0x00000000001526f0                __sread
                0x0000000000152850                __sclose
                0x0000000000152758                __swrite
 .text          0x0000000000152870      0xe18 /dev/ps2dev/gcc/3.2.2-b1/install/i686-pc-cygwin/ee/ee/lib/libc.a(vfiprintf.o)
                0x0000000000152970                vfiprintf
                0x00000000001529f0                _vfiprintf_r
 .text          0x0000000000153688     0x1b70 /dev/ps2dev/gcc/3.2.2-b1/install/i686-pc-cygwin/ee/ee/lib/libc.a(vfprintf.o)
                0x0000000000153808                _vfprintf_r
                0x0000000000153788                vfprintf
 .text          0x00000000001551f8      0x128 /dev/ps2dev/gcc/3.2.2-b1/install/i686-pc-cygwin/ee/ee/lib/libc.a(wbuf.o)
                0x00000000001551f8                __swbuf
 .text          0x0000000000155320       0x70 /dev/ps2dev/gcc/3.2.2-b1/install/i686-pc-cygwin/ee/ee/lib/libc.a(writer.o)
                0x0000000000155320                _write_r
 .text          0x0000000000155390      0x120 /dev/ps2dev/gcc/3.2.2-b1/install/i686-pc-cygwin/ee/ee/lib/libc.a(wsetup.o)
                0x0000000000155390                __swsetup
 .text          0x00000000001554b0       0x18 /dev/ps2dev/gcc/3.2.2-b1/install/i686-pc-cygwin/ee/ee/lib/libc.a(abort.o)
                0x00000000001554b0                abort
 .text          0x00000000001554c8       0x58 /dev/ps2dev/gcc/3.2.2-b1/install/i686-pc-cygwin/ee/ee/lib/libc.a(closer.o)
                0x00000000001554c8                _close_r
 .text          0x0000000000155520     0x1ad8 /dev/ps2dev/gcc/3.2.2-b1/install/i686-pc-cygwin/ee/ee/lib/libc.a(dlmalloc-ps2.o)
                0x0000000000156f50                _malloc_usable_size_r
                0x0000000000156f90                _mallinfo_r
                0x0000000000156d58                malloc_stats
                0x00000000001559c0                malloc
                0x0000000000156ae0                pvalloc
                0x00000000001567c8                independent_calloc
                0x0000000000156ef0                _realloc_r
                0x0000000000156fb8                _malloc_stats_r
                0x00000000001566e8                calloc
                0x0000000000156b70                malloc_usable_size
                0x0000000000156f10                _free_r
                0x0000000000156228                realloc
                0x0000000000156b48                malloc_trim
                0x0000000000156f70                _calloc_r
                0x0000000000156db8                mallopt
                0x0000000000156ed0                _malloc_r
                0x0000000000156fd8                _mallopt_r
                0x00000000001564e8                memalign
                0x00000000001567a8                cfree
                0x0000000000156a80                valloc
                0x0000000000156bc8                mallinfo
                0x0000000000156f30                _memalign_r
                0x00000000001567f8                independent_comalloc
                0x0000000000155fc8                free
 .text          0x0000000000156ff8     0x14a8 /dev/ps2dev/gcc/3.2.2-b1/install/i686-pc-cygwin/ee/ee/lib/libc.a(dtoa.o)
                0x0000000000157240                _dtoa_r
 .text          0x00000000001584a0       0x18 /dev/ps2dev/gcc/3.2.2-b1/install/i686-pc-cygwin/ee/ee/lib/libc.a(fstat.o)
                0x00000000001584a0                fstat
 .text          0x00000000001584b8      0x3c0 /dev/ps2dev/gcc/3.2.2-b1/install/i686-pc-cygwin/ee/ee/lib/libc.a(fvwrite.o)
                0x00000000001584b8                __sfvwrite
 .text          0x0000000000158878        0x8 /dev/ps2dev/gcc/3.2.2-b1/install/i686-pc-cygwin/ee/ee/lib/libc.a(isatty.o)
                0x0000000000158878                isatty
 .text          0x0000000000158880       0xf8 /dev/ps2dev/gcc/3.2.2-b1/install/i686-pc-cygwin/ee/ee/lib/libc.a(locale.o)
                0x0000000000158880                _setlocale_r
                0x0000000000158918                _localeconv_r
                0x0000000000158928                setlocale
                0x0000000000158958                localeconv
 .text          0x0000000000158978       0x60 /dev/ps2dev/gcc/3.2.2-b1/install/i686-pc-cygwin/ee/ee/lib/libc.a(lseekr.o)
                0x0000000000158978                _lseek_r
 .text          0x00000000001589d8       0x30 /dev/ps2dev/gcc/3.2.2-b1/install/i686-pc-cygwin/ee/ee/lib/libc.a(mbtowc_r.o)
                0x00000000001589d8                _mbtowc_r
 .text          0x0000000000158a08     0x1078 /dev/ps2dev/gcc/3.2.2-b1/install/i686-pc-cygwin/ee/ee/lib/libc.a(mprec.o)
                0x0000000000159a08                _mprec_log10
                0x0000000000158d38                _hi0bits
                0x0000000000158a08                _Balloc
                0x00000000001597b0                _d2b
                0x0000000000158eb0                _multiply
                0x0000000000159940                _ratio
                0x0000000000158bf8                _s2b
                0x0000000000158e78                _i2b
                0x0000000000158db8                _lo0bits
                0x0000000000159358                __mcmp
                0x00000000001590d0                _pow5mult
                0x0000000000159550                _ulp
                0x0000000000159610                _b2d
                0x0000000000158ae8                _multadd
                0x00000000001593c0                __mdiff
                0x00000000001591f0                _lshift
                0x0000000000158ab8                _Bfree
 .text          0x0000000000159a80       0x20 /dev/ps2dev/gcc/3.2.2-b1/install/i686-pc-cygwin/ee/ee/lib/libc.a(open.o)
                0x0000000000159a80                open
 .text          0x0000000000159aa0       0x70 /dev/ps2dev/gcc/3.2.2-b1/install/i686-pc-cygwin/ee/ee/lib/libc.a(readr.o)
                0x0000000000159aa0                _read_r
 .text          0x0000000000159b10       0x48 /dev/ps2dev/gcc/3.2.2-b1/install/i686-pc-cygwin/ee/ee/lib/libc.a(s_isinf.o)
                0x0000000000159b10                isinf
 .text          0x0000000000159b58       0x38 /dev/ps2dev/gcc/3.2.2-b1/install/i686-pc-cygwin/ee/ee/lib/libc.a(s_isnan.o)
                0x0000000000159b58                isnan
 .text          0x0000000000159b90       0x20 /dev/ps2dev/gcc/3.2.2-b1/install/i686-pc-cygwin/ee/ee/lib/libc.a(sbrk.o)
                0x0000000000159b90                sbrk
 .text          0x0000000000159bb0      0x300 /dev/ps2dev/gcc/3.2.2-b1/install/i686-pc-cygwin/ee/ee/lib/libc.a(signal.o)
                0x0000000000159c20                _signal_r
                0x0000000000159ca8                _raise_r
                0x0000000000159d70                __sigtramp_r
                0x0000000000159e38                signal
                0x0000000000159e68                _init_signal
                0x0000000000159bb0                _init_signal_r
                0x0000000000159e88                __sigtramp
                0x0000000000159e10                raise
 .text          0x0000000000159eb0       0x80 /dev/ps2dev/gcc/3.2.2-b1/install/i686-pc-cygwin/ee/ee/lib/libc.a(signalr.o)
                0x0000000000159eb0                _kill_r
                0x0000000000159f10                _getpid_r
 .text          0x0000000000159f30       0x20 /dev/ps2dev/gcc/3.2.2-b1/install/i686-pc-cygwin/ee/ee/lib/libc.a(write.o)
                0x0000000000159f30                write
 .text          0x0000000000159f50       0x20 /dev/ps2dev/gcc/3.2.2-b1/install/i686-pc-cygwin/ee/ee/lib/libc.a(close.o)
                0x0000000000159f50                close
 .text          0x0000000000159f70        0x8 /dev/ps2dev/gcc/3.2.2-b1/install/i686-pc-cygwin/ee/ee/lib/libc.a(getpid.o)
                0x0000000000159f70                getpid
 .text          0x0000000000159f78        0x8 /dev/ps2dev/gcc/3.2.2-b1/install/i686-pc-cygwin/ee/ee/lib/libc.a(kill.o)
                0x0000000000159f78                kill
 .text          0x0000000000159f80       0x20 /dev/ps2dev/gcc/3.2.2-b1/install/i686-pc-cygwin/ee/ee/lib/libc.a(lseek.o)
                0x0000000000159f80                lseek
 .text          0x0000000000159fa0       0x20 /dev/ps2dev/gcc/3.2.2-b1/install/i686-pc-cygwin/ee/ee/lib/libc.a(read.o)
                0x0000000000159fa0                read
 .text          0x0000000000159fc0       0xd0 /dev/ps2dev/gcc/3.2.2-b1/install/i686-pc-cygwin/ee/ee/lib/libm.a(sf_cos.o)
                0x0000000000159fc0                cosf
 .text          0x000000000015a090       0xe8 /dev/ps2dev/gcc/3.2.2-b1/install/i686-pc-cygwin/ee/ee/lib/libm.a(sf_sin.o)
                0x000000000015a090                sinf
 .text          0x000000000015a178      0x120 /dev/ps2dev/gcc/3.2.2-b1/install/i686-pc-cygwin/ee/ee/lib/libm.a(wf_sqrt.o)
                0x000000000015a178                sqrtf
 .text          0x000000000015a298      0x408 /dev/ps2dev/gcc/3.2.2-b1/install/i686-pc-cygwin/ee/ee/lib/libm.a(ef_rem_pio2.o)
                0x000000000015a298                __ieee754_rem_pio2f
 .text          0x000000000015a6a0      0x160 /dev/ps2dev/gcc/3.2.2-b1/install/i686-pc-cygwin/ee/ee/lib/libm.a(ef_sqrt.o)
                0x000000000015a6a0                __ieee754_sqrtf
 .text          0x000000000015a800      0x158 /dev/ps2dev/gcc/3.2.2-b1/install/i686-pc-cygwin/ee/ee/lib/libm.a(kf_cos.o)
                0x000000000015a800                __kernel_cosf
 .text          0x000000000015a958      0x870 /dev/ps2dev/gcc/3.2.2-b1/install/i686-pc-cygwin/ee/ee/lib/libm.a(kf_rem_pio2.o)
                0x000000000015a958                __kernel_rem_pio2f
 .text          0x000000000015b1c8      0x108 /dev/ps2dev/gcc/3.2.2-b1/install/i686-pc-cygwin/ee/ee/lib/libm.a(kf_sin.o)
                0x000000000015b1c8                __kernel_sinf
 .text          0x000000000015b2d0       0x30 /dev/ps2dev/gcc/3.2.2-b1/install/i686-pc-cygwin/ee/ee/lib/libm.a(s_matherr.o)
                0x000000000015b2d0                matherr
 .text          0x000000000015b300       0x20 /dev/ps2dev/gcc/3.2.2-b1/install/i686-pc-cygwin/ee/ee/lib/libm.a(sf_fabs.o)
                0x000000000015b300                fabsf
 .text          0x000000000015b320       0xf0 /dev/ps2dev/gcc/3.2.2-b1/install/i686-pc-cygwin/ee/ee/lib/libm.a(sf_floor.o)
                0x000000000015b320                floorf
 .text          0x000000000015b410       0x20 /dev/ps2dev/gcc/3.2.2-b1/install/i686-pc-cygwin/ee/ee/lib/libm.a(sf_isnan.o)
                0x000000000015b410                isnanf
 .text          0x000000000015b430      0x160 /dev/ps2dev/gcc/3.2.2-b1/install/i686-pc-cygwin/ee/ee/lib/libm.a(sf_scalbn.o)
                0x000000000015b430                scalbnf
 .text          0x000000000015b590       0x30 /dev/ps2dev/gcc/3.2.2-b1/install/i686-pc-cygwin/ee/ee/lib/libm.a(sf_copysign.o)
                0x000000000015b590                copysignf
 .text          0x000000000015b5c0       0x78 /dev/ps2dev/gcc/3.2.2-b1/install/i686-pc-cygwin/ee/bin/../lib/gcc-lib/ee/3.2.2/libgcc.a(_muldi3.o)
                0x000000000015b5c0                __muldi3
 .text          0x000000000015b638      0x6c8 /dev/ps2dev/gcc/3.2.2-b1/install/i686-pc-cygwin/ee/bin/../lib/gcc-lib/ee/3.2.2/libgcc.a(_udivdi3.o)
                0x000000000015b638                __udivdi3
 .text          0x000000000015bd00      0x6c8 /dev/ps2dev/gcc/3.2.2-b1/install/i686-pc-cygwin/ee/bin/../lib/gcc-lib/ee/3.2.2/libgcc.a(_umoddi3.o)
                0x000000000015bd00                __umoddi3
 .text          0x000000000015c3c8       0x40 /dev/ps2dev/gcc/3.2.2-b1/install/i686-pc-cygwin/ee/bin/../lib/gcc-lib/ee/3.2.2/libgcc.a(_sf_to_df.o)
                0x000000000015c3c8                fptodp
 .text          0x000000000015c408      0x300 /dev/ps2dev/gcc/3.2.2-b1/install/i686-pc-cygwin/ee/bin/../lib/gcc-lib/ee/3.2.2/libgcc.a(_addsub_df.o)
                0x000000000015c698                dpsub
                0x000000000015c638                dpadd
 .text          0x000000000015c708      0x2d0 /dev/ps2dev/gcc/3.2.2-b1/install/i686-pc-cygwin/ee/bin/../lib/gcc-lib/ee/3.2.2/libgcc.a(_mul_df.o)
                0x000000000015c708                dpmul
 .text          0x000000000015c9d8      0x188 /dev/ps2dev/gcc/3.2.2-b1/install/i686-pc-cygwin/ee/bin/../lib/gcc-lib/ee/3.2.2/libgcc.a(_div_df.o)
                0x000000000015c9d8                dpdiv
 .text          0x000000000015cb60       0x58 /dev/ps2dev/gcc/3.2.2-b1/install/i686-pc-cygwin/ee/bin/../lib/gcc-lib/ee/3.2.2/libgcc.a(_compare_df.o)
                0x000000000015cb60                dpcmp
 .text          0x000000000015cbb8       0xc0 /dev/ps2dev/gcc/3.2.2-b1/install/i686-pc-cygwin/ee/bin/../lib/gcc-lib/ee/3.2.2/libgcc.a(_si_to_df.o)
                0x000000000015cbb8                litodp
 .text          0x000000000015cc78       0xa0 /dev/ps2dev/gcc/3.2.2-b1/install/i686-pc-cygwin/ee/bin/../lib/gcc-lib/ee/3.2.2/libgcc.a(_df_to_si.o)
                0x000000000015cc78                dptoli
 .text          0x000000000015cd18       0x30 /dev/ps2dev/gcc/3.2.2-b1/install/i686-pc-cygwin/ee/bin/../lib/gcc-lib/ee/3.2.2/libgcc.a(_make_df.o)
                0x000000000015cd18                __make_dp
 .text          0x000000000015cd48       0x58 /dev/ps2dev/gcc/3.2.2-b1/install/i686-pc-cygwin/ee/bin/../lib/gcc-lib/ee/3.2.2/libgcc.a(_df_to_sf.o)
                0x000000000015cd48                dptofp
 .text          0x000000000015cda0       0xe0 /dev/ps2dev/gcc/3.2.2-b1/install/i686-pc-cygwin/ee/bin/../lib/gcc-lib/ee/3.2.2/libgcc.a(_unpack_sf.o)
                0x000000000015cda0                __unpack_f
 .text          0x000000000015ce80       0x30 /dev/ps2dev/gcc/3.2.2-b1/install/i686-pc-cygwin/ee/bin/../lib/gcc-lib/ee/3.2.2/libgcc.a(_make_sf.o)
                0x000000000015ce80                __make_fp
 .text          0x000000000015ceb0      0x190 /dev/ps2dev/gcc/3.2.2-b1/install/i686-pc-cygwin/ee/bin/../lib/gcc-lib/ee/3.2.2/libgcc.a(_pack_df.o)
                0x000000000015ceb0                __pack_d
 .text          0x000000000015d040       0xe8 /dev/ps2dev/gcc/3.2.2-b1/install/i686-pc-cygwin/ee/bin/../lib/gcc-lib/ee/3.2.2/libgcc.a(_unpack_df.o)
                0x000000000015d040                __unpack_d
 .text          0x000000000015d128      0x108 /dev/ps2dev/gcc/3.2.2-b1/install/i686-pc-cygwin/ee/bin/../lib/gcc-lib/ee/3.2.2/libgcc.a(_fpcmp_parts_df.o)
                0x000000000015d128                __fpcmp_parts_d
 .text          0x000000000015d230      0x160 /dev/ps2dev/gcc/3.2.2-b1/install/i686-pc-cygwin/ee/bin/../lib/gcc-lib/ee/3.2.2/libgcc.a(_pack_sf.o)
                0x000000000015d230                __pack_f
 .text          0x000000000015d390       0x10 /dev/ps2dev/gcc/3.2.2-b1/install/i686-pc-cygwin/ee/ee/lib/libstdc++.a(pure.o)
                0x000000000015d390                __cxa_pure_virtual
 .text          0x000000000015d3a0      0xb70 /dev/ps2dev/gcc/3.2.2-b1/install/i686-pc-cygwin/ee/ee/lib/libstdc++.a(eh_personality.o)
                0x000000000015ddf0                __cxa_call_unexpected
                0x000000000015d990                __gxx_personality_v0
 .text          0x000000000015df10       0xb0 /dev/ps2dev/gcc/3.2.2-b1/install/i686-pc-cygwin/ee/ee/lib/libstdc++.a(eh_terminate.o)
                0x000000000015df88                _ZSt10unexpectedv
                0x000000000015dfb0                _ZSt14set_unexpectedPFvvE
                0x000000000015dfa0                _ZSt13set_terminatePFvvE
                0x000000000015df58                _ZSt9terminatev
                0x000000000015df70                _ZN10__cxxabiv112__unexpectedEPFvvE
                0x000000000015df10                _ZN10__cxxabiv111__terminateEPFvvE
 .text          0x000000000015dfc0      0x130 /dev/ps2dev/gcc/3.2.2-b1/install/i686-pc-cygwin/ee/ee/lib/libstdc++.a(eh_throw.o)
                0x000000000015e0a8                __cxa_rethrow
                0x000000000015e020                __cxa_throw
 .text          0x000000000015e0f0      0x138 /dev/ps2dev/gcc/3.2.2-b1/install/i686-pc-cygwin/ee/ee/lib/libstdc++.a(eh_alloc.o)
                0x000000000015e1b8                __cxa_free_exception
                0x000000000015e0f0                __cxa_allocate_exception
 .text          0x000000000015e228      0x138 /dev/ps2dev/gcc/3.2.2-b1/install/i686-pc-cygwin/ee/ee/lib/libstdc++.a(eh_catch.o)
                0x000000000015e338                _ZSt18uncaught_exceptionv
                0x000000000015e290                __cxa_end_catch
                0x000000000015e228                __cxa_begin_catch
 .text          0x000000000015e360       0xe0 /dev/ps2dev/gcc/3.2.2-b1/install/i686-pc-cygwin/ee/ee/lib/libstdc++.a(eh_exception.o)
                0x000000000015e360                _ZNSt9exceptionD2Ev
                0x000000000015e430                _ZNKSt9exception4whatEv
                0x000000000015e3a8                _ZNSt13bad_exceptionD2Ev
                0x000000000015e3d0                _ZNSt13bad_exceptionD1Ev
                0x000000000015e3f8                _ZNSt13bad_exceptionD0Ev
                0x000000000015e370                _ZNSt9exceptionD1Ev
                0x000000000015e380                _ZNSt9exceptionD0Ev
 .text          0x000000000015e440       0x20 /dev/ps2dev/gcc/3.2.2-b1/install/i686-pc-cygwin/ee/ee/lib/libstdc++.a(eh_globals.o)
                0x000000000015e440                __cxa_get_globals_fast
                0x000000000015e450                __cxa_get_globals
 .text          0x000000000015e460     0x1010 /dev/ps2dev/gcc/3.2.2-b1/install/i686-pc-cygwin/ee/ee/lib/libstdc++.a(tinfo.o)
                0x000000000015e5c0                _ZNKSt9type_info15__is_function_pEv
                0x000000000015e670                _ZN10__cxxabiv120__si_class_type_infoD2Ev
                0x000000000015f090                _ZNK10__cxxabiv121__vmi_class_type_info11__do_upcastEPKNS_17__class_type_infoEPKvRNS1_15__upcast_resultE
                0x000000000015e580                _ZNSt10bad_typeidD0Ev
                0x000000000015e4f8                _ZNSt8bad_castD0Ev
                0x000000000015e848                _ZNK10__cxxabiv117__class_type_info20__do_find_public_srcEiPKvPKS0_S2_
                0x000000000015e610                _ZN10__cxxabiv117__class_type_infoD1Ev
                0x000000000015e720                _ZN10__cxxabiv121__vmi_class_type_infoD1Ev
                0x000000000015e780                _ZNK10__cxxabiv117__class_type_info10__do_catchEPKSt9type_infoPPvj
                0x000000000015e4d0                _ZNSt8bad_castD1Ev
                0x000000000015efd8                _ZNK10__cxxabiv117__class_type_info11__do_upcastEPKS0_PKvRNS0_15__upcast_resultE
                0x000000000015e748                _ZN10__cxxabiv121__vmi_class_type_infoD0Ev
                0x000000000015e8b8                _ZNK10__cxxabiv121__vmi_class_type_info20__do_find_public_srcEiPKvPKNS_17__class_type_infoES2_
                0x000000000015e470                _ZNSt9type_infoD1Ev
                0x000000000015e480                _ZNSt9type_infoD0Ev
                0x000000000015e5e0                _ZNKSt9type_info11__do_upcastEPKN10__cxxabiv117__class_type_infoEPPv
                0x000000000015ea00                _ZNK10__cxxabiv117__class_type_info12__do_dyncastEiNS0_10__sub_kindEPKS0_PKvS3_S5_RNS0_16__dyncast_resultE
                0x000000000015e6f8                _ZN10__cxxabiv121__vmi_class_type_infoD2Ev
                0x000000000015e7d8                _ZNK10__cxxabiv117__class_type_info11__do_upcastEPKS0_PPv
                0x000000000015ea48                _ZNK10__cxxabiv120__si_class_type_info12__do_dyncastEiNS_17__class_type_info10__sub_kindEPKS1_PKvS4_S6_RNS1_16__dyncast_resultE
                0x000000000015e460                _ZNSt9type_infoD2Ev
                0x000000000015f010                _ZNK10__cxxabiv120__si_class_type_info11__do_upcastEPKNS_17__class_type_infoEPKvRNS1_15__upcast_resultE
                0x000000000015e698                _ZN10__cxxabiv120__si_class_type_infoD1Ev
                0x000000000015e5b8                _ZNKSt9type_info14__is_pointer_pEv
                0x000000000015e4a8                _ZNSt8bad_castD2Ev
                0x000000000015e6c0                _ZN10__cxxabiv120__si_class_type_infoD0Ev
                0x000000000015e5e8                _ZN10__cxxabiv117__class_type_infoD2Ev
                0x000000000015eaf0                _ZNK10__cxxabiv121__vmi_class_type_info12__do_dyncastEiNS_17__class_type_info10__sub_kindEPKS1_PKvS4_S6_RNS1_16__dyncast_resultE
                0x000000000015e860                _ZNK10__cxxabiv120__si_class_type_info20__do_find_public_srcEiPKvPKNS_17__class_type_infoES2_
                0x000000000015e558                _ZNSt10bad_typeidD1Ev
                0x000000000015e530                _ZNSt10bad_typeidD2Ev
                0x000000000015f328                __dynamic_cast
                0x000000000015e5c8                _ZNKSt9type_info10__do_catchEPKS_PPvj
                0x000000000015e638                _ZN10__cxxabiv117__class_type_infoD0Ev
 .text          0x000000000015f470     0x1f00 /dev/ps2dev/gcc/3.2.2-b1/install/i686-pc-cygwin/ee/bin/../lib/gcc-lib/ee/3.2.2/libgcc.a(unwind-dw2.o)
                0x0000000000161360                _Unwind_GetIP
                0x000000000015f7a0                _Unwind_GetRegionStart
                0x00000000001605a0                __frame_state_for
                0x0000000000161170                _Unwind_Resume
                0x0000000000161308                _Unwind_DeleteException
                0x0000000000160c58                _Unwind_RaiseException
                0x0000000000161368                _Unwind_SetIP
                0x000000000015f7b0                _Unwind_GetTextRelBase
                0x000000000015f798                _Unwind_GetLanguageSpecificData
                0x0000000000160fc8                _Unwind_ForcedUnwind
                0x0000000000161348                _Unwind_SetGR
                0x0000000000161330                _Unwind_GetGR
                0x000000000015f7a8                _Unwind_GetDataRelBase
 .text          0x0000000000161370     0x18c0 /dev/ps2dev/gcc/3.2.2-b1/install/i686-pc-cygwin/ee/bin/../lib/gcc-lib/ee/3.2.2/libgcc.a(unwind-dw2-fde.o)
                0x00000000001625e0                _Unwind_Find_FDE
                0x0000000000161650                __register_frame
                0x0000000000161708                __register_frame_table
                0x00000000001615e0                __register_frame_info_bases
                0x0000000000161818                __deregister_frame_info
                0x0000000000161740                __deregister_frame_info_bases
                0x00000000001616a0                __register_frame_info_table_bases
                0x0000000000161838                __deregister_frame
                0x00000000001616e8                __register_frame_info_table
                0x0000000000161630                __register_frame_info
 .text          0x0000000000162c30      0x7f8 /dev/ps2dev/gcc/3.2.2-b1/install/i686-pc-cygwin/ee/bin/../lib/gcc-lib/ee/3.2.2/libgcc.a(_divdi3.o)
                0x0000000000162c30                __divdi3
 .text          0x0000000000163428      0x7f8 /dev/ps2dev/gcc/3.2.2-b1/install/i686-pc-cygwin/ee/bin/../lib/gcc-lib/ee/3.2.2/libgcc.a(_moddi3.o)
                0x0000000000163428                __moddi3

.gnu.linkonce.t._ZN14CRenderSurfaceD1Ev
                0x0000000000163c20       0x28
 .gnu.linkonce.t._ZN14CRenderSurfaceD1Ev
                0x0000000000163c20       0x28 rendersurface.o
                0x0000000000163c20                _ZN14CRenderSurfaceD1Ev

.gnu.linkonce.t._ZN14CRenderSurfaceD0Ev
                0x0000000000163c48       0x38
 .gnu.linkonce.t._ZN14CRenderSurfaceD0Ev
                0x0000000000163c48       0x38 rendersurface.o
                0x0000000000163c48                _ZN14CRenderSurfaceD0Ev

.gnu.linkonce.t._ZN12CInputDevice13GetNumButtonsEv
                0x0000000000163c80        0x8
 .gnu.linkonce.t._ZN12CInputDevice13GetNumButtonsEv
                0x0000000000163c80        0x8 inputdevice.o
                0x0000000000163c80                _ZN12CInputDevice13GetNumButtonsEv

.gnu.linkonce.t._ZN12CInputDevice14GetButtonStateEi
                0x0000000000163c88       0x20
 .gnu.linkonce.t._ZN12CInputDevice14GetButtonStateEi
                0x0000000000163c88       0x20 inputdevice.o
                0x0000000000163c88                _ZN12CInputDevice14GetButtonStateEi

.gnu.linkonce.t._ZN12CInputDevice10GetNumAxesEv
                0x0000000000163ca8        0x8
 .gnu.linkonce.t._ZN12CInputDevice10GetNumAxesEv
                0x0000000000163ca8        0x8 inputdevice.o
                0x0000000000163ca8                _ZN12CInputDevice10GetNumAxesEv

.gnu.linkonce.t._ZN12CInputDevice12GetAxisStateE10InputAxisE
                0x0000000000163cb0       0x28
 .gnu.linkonce.t._ZN12CInputDevice12GetAxisStateE10InputAxisE
                0x0000000000163cb0       0x28 inputdevice.o
                0x0000000000163cb0                _ZN12CInputDevice12GetAxisStateE10InputAxisE

.gnu.linkonce.t._ZN12CInputDevice9GetStatusEv
                0x0000000000163cd8        0x8
 .gnu.linkonce.t._ZN12CInputDevice9GetStatusEv
                0x0000000000163cd8        0x8 inputdevice.o
                0x0000000000163cd8                _ZN12CInputDevice9GetStatusEv

.gnu.linkonce.t._ZN7CFileIOD1Ev
                0x0000000000163ce0       0x28
 .gnu.linkonce.t._ZN7CFileIOD1Ev
                0x0000000000163ce0       0x28 dataio.o
                0x0000000000163ce0                _ZN7CFileIOD1Ev

.gnu.linkonce.t._ZN7CFileIOD0Ev
                0x0000000000163d08       0x38
 .gnu.linkonce.t._ZN7CFileIOD0Ev
                0x0000000000163d08       0x38 dataio.o
                0x0000000000163d08                _ZN7CFileIOD0Ev

.gnu.linkonce.t._ZN10CMemFileIOD1Ev
                0x0000000000163d40       0x28
 .gnu.linkonce.t._ZN10CMemFileIOD1Ev
                0x0000000000163d40       0x28 dataio.o
                0x0000000000163d40                _ZN10CMemFileIOD1Ev

.gnu.linkonce.t._ZN10CMemFileIOD0Ev
                0x0000000000163d68       0x38
 .gnu.linkonce.t._ZN10CMemFileIOD0Ev
                0x0000000000163d68       0x38 dataio.o
                0x0000000000163d68                _ZN10CMemFileIOD0Ev

.gnu.linkonce.t._ZN7CDataIO7ReadPtrEi
                0x0000000000163da0        0x8
 .gnu.linkonce.t._ZN7CDataIO7ReadPtrEi
                0x0000000000163da0        0x8 dataio.o
                0x0000000000163da0                _ZN7CDataIO7ReadPtrEi

.gnu.linkonce.t._ZN7CDataIO5CloseEv
                0x0000000000163da8        0x8
 .gnu.linkonce.t._ZN7CDataIO5CloseEv
                0x0000000000163da8        0x8 dataio.o
                0x0000000000163da8                _ZN7CDataIO5CloseEv

.gnu.linkonce.t._ZN10CMemFileIO6GetPosEv
                0x0000000000163db0        0x8
 .gnu.linkonce.t._ZN10CMemFileIO6GetPosEv
                0x0000000000163db0        0x8 dataio.o
                0x0000000000163db0                _ZN10CMemFileIO6GetPosEv

.gnu.linkonce.t._ZN7CScreenD1Ev
                0x0000000000163db8       0x10
 .gnu.linkonce.t._ZN7CScreenD1Ev
                0x0000000000163db8       0x10 uiBrowser.o
                0x0000000000163db8                _ZN7CScreenD1Ev

.gnu.linkonce.t._ZN7CScreenD0Ev
                0x0000000000163dc8       0x28
 .gnu.linkonce.t._ZN7CScreenD0Ev
                0x0000000000163dc8       0x28 uiBrowser.o
                0x0000000000163dc8                _ZN7CScreenD0Ev

.gnu.linkonce.t._ZN7CScreen8ActivateEv
                0x0000000000163df0        0x8
 .gnu.linkonce.t._ZN7CScreen8ActivateEv
                0x0000000000163df0        0x8 uiBrowser.o
                0x0000000000163df0                _ZN7CScreen8ActivateEv

.gnu.linkonce.t._ZN7CScreen10DeactivateEv
                0x0000000000163df8        0x8
 .gnu.linkonce.t._ZN7CScreen10DeactivateEv
                0x0000000000163df8        0x8 uiBrowser.o
                0x0000000000163df8                _ZN7CScreen10DeactivateEv

.gnu.linkonce.t._ZN7CScreen4DrawEv
                0x0000000000163e00        0x8
 .gnu.linkonce.t._ZN7CScreen4DrawEv
                0x0000000000163e00        0x8 uiBrowser.o
                0x0000000000163e00                _ZN7CScreen4DrawEv

.gnu.linkonce.t._ZN7CScreen7ProcessEv
                0x0000000000163e08        0x8
 .gnu.linkonce.t._ZN7CScreen7ProcessEv
                0x0000000000163e08        0x8 uiBrowser.o
                0x0000000000163e08                _ZN7CScreen7ProcessEv

.gnu.linkonce.t._ZN7CScreen5InputEjj
                0x0000000000163e10        0x8
 .gnu.linkonce.t._ZN7CScreen5InputEjj
                0x0000000000163e10        0x8 uiBrowser.o
                0x0000000000163e10                _ZN7CScreen5InputEjj

.gnu.linkonce.t._ZN14CNetworkScreenD1Ev
                0x0000000000163e18       0x10
 .gnu.linkonce.t._ZN14CNetworkScreenD1Ev
                0x0000000000163e18       0x10 uiNetwork.o
                0x0000000000163e18                _ZN14CNetworkScreenD1Ev

.gnu.linkonce.t._ZN14CNetworkScreenD0Ev
                0x0000000000163e28       0x28
 .gnu.linkonce.t._ZN14CNetworkScreenD0Ev
                0x0000000000163e28       0x28 uiNetwork.o
                0x0000000000163e28                _ZN14CNetworkScreenD0Ev

.gnu.linkonce.t._ZN11CMenuScreenD1Ev
                0x0000000000163e50       0x10
 .gnu.linkonce.t._ZN11CMenuScreenD1Ev
                0x0000000000163e50       0x10 uiMenu.o
                0x0000000000163e50                _ZN11CMenuScreenD1Ev

.gnu.linkonce.t._ZN11CMenuScreenD0Ev
                0x0000000000163e60       0x28
 .gnu.linkonce.t._ZN11CMenuScreenD0Ev
                0x0000000000163e60       0x28 uiMenu.o
                0x0000000000163e60                _ZN11CMenuScreenD0Ev

.gnu.linkonce.t._ZN10CLogScreenD1Ev
                0x0000000000163e88       0x10
 .gnu.linkonce.t._ZN10CLogScreenD1Ev
                0x0000000000163e88       0x10 uiLog.o
                0x0000000000163e88                _ZN10CLogScreenD1Ev

.gnu.linkonce.t._ZN10CLogScreenD0Ev
                0x0000000000163e98       0x28
 .gnu.linkonce.t._ZN10CLogScreenD0Ev
                0x0000000000163e98       0x28 uiLog.o
                0x0000000000163e98                _ZN10CLogScreenD0Ev

.gnu.linkonce.t._ZN7CEmuRom11GetRomTitleEv
                0x0000000000163ec0        0x8
 .gnu.linkonce.t._ZN7CEmuRom11GetRomTitleEv
                0x0000000000163ec0        0x8 emurom.o
                0x0000000000163ec0                _ZN7CEmuRom11GetRomTitleEv

.gnu.linkonce.t._ZN7CEmuRom13GetMapperNameEv
                0x0000000000163ec8        0x8
 .gnu.linkonce.t._ZN7CEmuRom13GetMapperNameEv
                0x0000000000163ec8        0x8 emurom.o
                0x0000000000163ec8                _ZN7CEmuRom13GetMapperNameEv

.gnu.linkonce.t._ZN10CEmuSystem12GetSRAMBytesEv
                0x0000000000163ed0        0x8
 .gnu.linkonce.t._ZN10CEmuSystem12GetSRAMBytesEv
                0x0000000000163ed0        0x8 emusys.o
                0x0000000000163ed0                _ZN10CEmuSystem12GetSRAMBytesEv

.gnu.linkonce.t._ZN10CEmuSystem11GetSRAMDataEv
                0x0000000000163ed8        0x8
 .gnu.linkonce.t._ZN10CEmuSystem11GetSRAMDataEv
                0x0000000000163ed8        0x8 emusys.o
                0x0000000000163ed8                _ZN10CEmuSystem11GetSRAMDataEv

.gnu.linkonce.t._ZN10CEmuSystem9GetStringE13EmuSysStringE
                0x0000000000163ee0       0x10
 .gnu.linkonce.t._ZN10CEmuSystem9GetStringE13EmuSysStringE
                0x0000000000163ee0       0x10 emusys.o
                0x0000000000163ee0                _ZN10CEmuSystem9GetStringE13EmuSysStringE

.gnu.linkonce.t._ZN10CEmuSystem13GetSampleRateEv
                0x0000000000163ef0        0x8
 .gnu.linkonce.t._ZN10CEmuSystem13GetSampleRateEv
                0x0000000000163ef0        0x8 emusys.o
                0x0000000000163ef0                _ZN10CEmuSystem13GetSampleRateEv

.gnu.linkonce.t._ZN10SnesSystem13GetSampleRateEv
                0x0000000000163ef8        0x8
 .gnu.linkonce.t._ZN10SnesSystem13GetSampleRateEv
                0x0000000000163ef8        0x8 snes.o
                0x0000000000163ef8                _ZN10SnesSystem13GetSampleRateEv

.gnu.linkonce.t._ZN7NesDiskD1Ev
                0x0000000000163f00       0x28
 .gnu.linkonce.t._ZN7NesDiskD1Ev
                0x0000000000163f00       0x28 nesdisk.o
                0x0000000000163f00                _ZN7NesDiskD1Ev

.gnu.linkonce.t._ZN7NesDiskD0Ev
                0x0000000000163f28       0x38
 .gnu.linkonce.t._ZN7NesDiskD0Ev
                0x0000000000163f28       0x38 nesdisk.o
                0x0000000000163f28                _ZN7NesDiskD0Ev

.gnu.linkonce.t._ZN6NesMMU10InsertDiskEi
                0x0000000000163f60        0x8
 .gnu.linkonce.t._ZN6NesMMU10InsertDiskEi
                0x0000000000163f60        0x8 nesmmu.o
                0x0000000000163f60                _ZN6NesMMU10InsertDiskEi

.gnu.linkonce.t._ZN11NesMMU_MMC19SaveStateEPh
                0x0000000000163f68       0x38
 .gnu.linkonce.t._ZN11NesMMU_MMC19SaveStateEPh
                0x0000000000163f68       0x38 nesmmu.o
                0x0000000000163f68                _ZN11NesMMU_MMC19SaveStateEPh

.gnu.linkonce.t._ZN11NesMMU_MMC112RestoreStateEPh
                0x0000000000163fa0       0x38
 .gnu.linkonce.t._ZN11NesMMU_MMC112RestoreStateEPh
                0x0000000000163fa0       0x38 nesmmu.o
                0x0000000000163fa0                _ZN11NesMMU_MMC112RestoreStateEPh

.gnu.linkonce.t._ZN11NesMMU_MMC15ResetEv
                0x0000000000163fd8       0x50
 .gnu.linkonce.t._ZN11NesMMU_MMC15ResetEv
                0x0000000000163fd8       0x50 nesmmu.o
                0x0000000000163fd8                _ZN11NesMMU_MMC15ResetEv

.gnu.linkonce.t._ZN11NesMMU_MMC15WriteEjh
                0x0000000000164028       0xa0
 .gnu.linkonce.t._ZN11NesMMU_MMC15WriteEjh
                0x0000000000164028       0xa0 nesmmu.o
                0x0000000000164028                _ZN11NesMMU_MMC15WriteEjh

.gnu.linkonce.t._ZN12NesMMU_UNROM5WriteEjh
                0x00000000001640c8       0x20
 .gnu.linkonce.t._ZN12NesMMU_UNROM5WriteEjh
                0x00000000001640c8       0x20 nesmmu.o
                0x00000000001640c8                _ZN12NesMMU_UNROM5WriteEjh

.gnu.linkonce.t._ZN12NesMMU_CNROM5WriteEjh
                0x00000000001640e8       0x20
 .gnu.linkonce.t._ZN12NesMMU_CNROM5WriteEjh
                0x00000000001640e8       0x20 nesmmu.o
                0x00000000001640e8                _ZN12NesMMU_CNROM5WriteEjh

.gnu.linkonce.t._ZN12NesMMU_AOROM5ResetEv
                0x0000000000164108       0x30
 .gnu.linkonce.t._ZN12NesMMU_AOROM5ResetEv
                0x0000000000164108       0x30 nesmmu.o
                0x0000000000164108                _ZN12NesMMU_AOROM5ResetEv

.gnu.linkonce.t._ZN12NesMMU_AOROM5WriteEjh
                0x0000000000164138       0x48
 .gnu.linkonce.t._ZN12NesMMU_AOROM5WriteEjh
                0x0000000000164138       0x48 nesmmu.o
                0x0000000000164138                _ZN12NesMMU_AOROM5WriteEjh

.gnu.linkonce.t._ZN12NesMMU_GNROM5ResetEv
                0x0000000000164180       0x40
 .gnu.linkonce.t._ZN12NesMMU_GNROM5ResetEv
                0x0000000000164180       0x40 nesmmu.o
                0x0000000000164180                _ZN12NesMMU_GNROM5ResetEv

.gnu.linkonce.t._ZN12NesMMU_GNROM5WriteEjh
                0x00000000001641c0       0x48
 .gnu.linkonce.t._ZN12NesMMU_GNROM5WriteEjh
                0x00000000001641c0       0x48 nesmmu.o
                0x00000000001641c0                _ZN12NesMMU_GNROM5WriteEjh

.gnu.linkonce.t._ZN18NesMMU_ColorDreams5ResetEv
                0x0000000000164208       0x40
 .gnu.linkonce.t._ZN18NesMMU_ColorDreams5ResetEv
                0x0000000000164208       0x40 nesmmu.o
                0x0000000000164208                _ZN18NesMMU_ColorDreams5ResetEv

.gnu.linkonce.t._ZN18NesMMU_ColorDreams5WriteEjh
                0x0000000000164248       0x48
 .gnu.linkonce.t._ZN18NesMMU_ColorDreams5WriteEjh
                0x0000000000164248       0x48 nesmmu.o
                0x0000000000164248                _ZN18NesMMU_ColorDreams5WriteEjh

.gnu.linkonce.t._ZN13NesMMU_100in15ResetEv
                0x0000000000164290       0x30
 .gnu.linkonce.t._ZN13NesMMU_100in15ResetEv
                0x0000000000164290       0x30 nesmmu.o
                0x0000000000164290                _ZN13NesMMU_100in15ResetEv

.gnu.linkonce.t._ZN13NesMMU_100in15WriteEjh
                0x00000000001642c0      0x1e0
 .gnu.linkonce.t._ZN13NesMMU_100in15WriteEjh
                0x00000000001642c0      0x1e0 nesmmu.o
                0x00000000001642c0                _ZN13NesMMU_100in15WriteEjh

.gnu.linkonce.t._ZN11NesMMU_MMC39SaveStateEPh
                0x00000000001644a0       0x30
 .gnu.linkonce.t._ZN11NesMMU_MMC39SaveStateEPh
                0x00000000001644a0       0x30 nesmmu.o
                0x00000000001644a0                _ZN11NesMMU_MMC39SaveStateEPh

.gnu.linkonce.t._ZN11NesMMU_MMC312RestoreStateEPh
                0x00000000001644d0       0x30
 .gnu.linkonce.t._ZN11NesMMU_MMC312RestoreStateEPh
                0x00000000001644d0       0x30 nesmmu.o
                0x00000000001644d0                _ZN11NesMMU_MMC312RestoreStateEPh

.gnu.linkonce.t._ZN11NesMMU_MMC35ResetEv
                0x0000000000164500       0x88
 .gnu.linkonce.t._ZN11NesMMU_MMC35ResetEv
                0x0000000000164500       0x88 nesmmu.o
                0x0000000000164500                _ZN11NesMMU_MMC35ResetEv

.gnu.linkonce.t._ZN11NesMMU_MMC35WriteEjh
                0x0000000000164588      0x130
 .gnu.linkonce.t._ZN11NesMMU_MMC35WriteEjh
                0x0000000000164588      0x130 nesmmu.o
                0x0000000000164588                _ZN11NesMMU_MMC35WriteEjh

.gnu.linkonce.t._ZN11NesMMU_MMC38ScanLineEi
                0x00000000001646b8       0x70
 .gnu.linkonce.t._ZN11NesMMU_MMC38ScanLineEi
                0x00000000001646b8       0x70 nesmmu.o
                0x00000000001646b8                _ZN11NesMMU_MMC38ScanLineEi

.gnu.linkonce.t._ZN11NesMMU_MMC29SaveStateEPh
                0x0000000000164728       0x38
 .gnu.linkonce.t._ZN11NesMMU_MMC29SaveStateEPh
                0x0000000000164728       0x38 nesmmu.o
                0x0000000000164728                _ZN11NesMMU_MMC29SaveStateEPh

.gnu.linkonce.t._ZN11NesMMU_MMC212RestoreStateEPh
                0x0000000000164760       0x38
 .gnu.linkonce.t._ZN11NesMMU_MMC212RestoreStateEPh
                0x0000000000164760       0x38 nesmmu.o
                0x0000000000164760                _ZN11NesMMU_MMC212RestoreStateEPh

.gnu.linkonce.t._ZN11NesMMU_MMC25ResetEv
                0x0000000000164798       0xb0
 .gnu.linkonce.t._ZN11NesMMU_MMC25ResetEv
                0x0000000000164798       0xb0 nesmmu.o
                0x0000000000164798                _ZN11NesMMU_MMC25ResetEv

.gnu.linkonce.t._ZN11NesMMU_MMC213GetLatchTableEv
                0x0000000000164848        0x8
 .gnu.linkonce.t._ZN11NesMMU_MMC213GetLatchTableEv
                0x0000000000164848        0x8 nesmmu.o
                0x0000000000164848                _ZN11NesMMU_MMC213GetLatchTableEv

.gnu.linkonce.t._ZN11NesMMU_MMC25LatchEt
                0x0000000000164850       0xf0
 .gnu.linkonce.t._ZN11NesMMU_MMC25LatchEt
                0x0000000000164850       0xf0 nesmmu.o
                0x0000000000164850                _ZN11NesMMU_MMC25LatchEt

.gnu.linkonce.t._ZN11NesMMU_MMC25WriteEjh
                0x0000000000164940       0xf0
 .gnu.linkonce.t._ZN11NesMMU_MMC25WriteEjh
                0x0000000000164940       0xf0 nesmmu.o
                0x0000000000164940                _ZN11NesMMU_MMC25WriteEjh

.gnu.linkonce.t._ZN11NesMMU_MMC55ResetEv
                0x0000000000164a30       0x38
 .gnu.linkonce.t._ZN11NesMMU_MMC55ResetEv
                0x0000000000164a30       0x38 nesmmu.o
                0x0000000000164a30                _ZN11NesMMU_MMC55ResetEv

.gnu.linkonce.t._ZN11NesMMU_MMC55WriteEjh
                0x0000000000164a68       0x28
 .gnu.linkonce.t._ZN11NesMMU_MMC55WriteEjh
                0x0000000000164a68       0x28 nesmmu.o
                0x0000000000164a68                _ZN11NesMMU_MMC55WriteEjh

.gnu.linkonce.t._ZN11NesMMU_MMC59Write5000Ejh
                0x0000000000164a90      0x228
 .gnu.linkonce.t._ZN11NesMMU_MMC59Write5000Ejh
                0x0000000000164a90      0x228 nesmmu.o
                0x0000000000164a90                _ZN11NesMMU_MMC59Write5000Ejh

.gnu.linkonce.t._ZN11NesMMU_MMC58Read5000Ej
                0x0000000000164cb8       0x60
 .gnu.linkonce.t._ZN11NesMMU_MMC58Read5000Ej
                0x0000000000164cb8       0x60 nesmmu.o
                0x0000000000164cb8                _ZN11NesMMU_MMC58Read5000Ej

.gnu.linkonce.t._ZN11NesMMU_MMC58ScanLineEi
                0x0000000000164d18       0x60
 .gnu.linkonce.t._ZN11NesMMU_MMC58ScanLineEi
                0x0000000000164d18       0x60 nesmmu.o
                0x0000000000164d18                _ZN11NesMMU_MMC58ScanLineEi

.gnu.linkonce.t._ZN10NesMMU_FDS5ResetEv
                0x0000000000164d78       0x80
 .gnu.linkonce.t._ZN10NesMMU_FDS5ResetEv
                0x0000000000164d78       0x80 nesmmu.o
                0x0000000000164d78                _ZN10NesMMU_FDS5ResetEv

.gnu.linkonce.t._ZN10NesMMU_FDS5WriteEjh
                0x0000000000164df8       0x28
 .gnu.linkonce.t._ZN10NesMMU_FDS5WriteEjh
                0x0000000000164df8       0x28 nesmmu.o
                0x0000000000164df8                _ZN10NesMMU_FDS5WriteEjh

.gnu.linkonce.t._ZN10NesMMU_FDS8ScanLineEi
                0x0000000000164e20       0xd0
 .gnu.linkonce.t._ZN10NesMMU_FDS8ScanLineEi
                0x0000000000164e20       0xd0 nesmmu.o
                0x0000000000164e20                _ZN10NesMMU_FDS8ScanLineEi

.gnu.linkonce.t._ZN10NesMMU_FDS10InsertDiskEi
                0x0000000000164ef0       0x90
 .gnu.linkonce.t._ZN10NesMMU_FDS10InsertDiskEi
                0x0000000000164ef0       0x90 nesmmu.o
                0x0000000000164ef0                _ZN10NesMMU_FDS10InsertDiskEi

.gnu.linkonce.t._ZN10NesMMU_FDS9Write4000Ejh
                0x0000000000164f80      0x230
 .gnu.linkonce.t._ZN10NesMMU_FDS9Write4000Ejh
                0x0000000000164f80      0x230 nesmmu.o
                0x0000000000164f80                _ZN10NesMMU_FDS9Write4000Ejh

.gnu.linkonce.t._ZN10NesMMU_FDS8Read4000Ej
                0x00000000001651b0       0xd8
 .gnu.linkonce.t._ZN10NesMMU_FDS8Read4000Ej
                0x00000000001651b0       0xd8 nesmmu.o
                0x00000000001651b0                _ZN10NesMMU_FDS8Read4000Ej

.gnu.linkonce.t._ZN11NesMMU_MMC18WriteRegEhh
                0x0000000000165288      0x160
 .gnu.linkonce.t._ZN11NesMMU_MMC18WriteRegEhh
                0x0000000000165288      0x160 nesmmu.o
                0x0000000000165288                _ZN11NesMMU_MMC18WriteRegEhh

.gnu.linkonce.t._ZN11NesMMU_MMC312WriteCommandEhh
                0x00000000001653e8      0x108
 .gnu.linkonce.t._ZN11NesMMU_MMC312WriteCommandEhh
                0x00000000001653e8      0x108 nesmmu.o
                0x00000000001653e8                _ZN11NesMMU_MMC312WriteCommandEhh

.gnu.linkonce.t._ZN11NesMMU_MMC59SetPrgRegEjh
                0x00000000001654f0      0x180
 .gnu.linkonce.t._ZN11NesMMU_MMC59SetPrgRegEjh
                0x00000000001654f0      0x180 nesmmu.o
                0x00000000001654f0                _ZN11NesMMU_MMC59SetPrgRegEjh

.gnu.linkonce.t._ZN11NesMMU_MMC114UpdateRomBanksEv
                0x0000000000165670      0x110
 .gnu.linkonce.t._ZN11NesMMU_MMC114UpdateRomBanksEv
                0x0000000000165670      0x110 nesmmu.o
                0x0000000000165670                _ZN11NesMMU_MMC114UpdateRomBanksEv

.gnu.linkonce.t._ZN10NesFDSBiosD1Ev
                0x0000000000165780       0x28
 .gnu.linkonce.t._ZN10NesFDSBiosD1Ev
                0x0000000000165780       0x28 nesrom.o
                0x0000000000165780                _ZN10NesFDSBiosD1Ev

.gnu.linkonce.t._ZN10NesFDSBiosD0Ev
                0x00000000001657a8       0x38
 .gnu.linkonce.t._ZN10NesFDSBiosD0Ev
                0x00000000001657a8       0x38 nesrom.o
                0x00000000001657a8                _ZN10NesFDSBiosD0Ev

.gnu.linkonce.t._ZN9NesSystem13GetSampleRateEv
                0x00000000001657e0        0x8
 .gnu.linkonce.t._ZN9NesSystem13GetSampleRateEv
                0x00000000001657e0        0x8 nes.o
                0x00000000001657e0                _ZN9NesSystem13GetSampleRateEv

.reginfo        0x0000000000165800       0x18
 *(.reginfo)
 .reginfo       0x0000000000165800       0x18 crt0.o

.rodata         0x0000000000165880     0x82f0
 *(.rodata)
 .rodata        0x0000000000165880       0x28 main.o
 .rodata        0x00000000001658a8      0x148 excepHandler.o
 .rodata        0x00000000001659f0      0x140 array.o
 .rodata        0x0000000000165b30       0x2c pixelformat.o
 *fill*         0x0000000000165b5c        0x4 00
 .rodata        0x0000000000165b60       0xc0 bmpfile.o
 .rodata        0x0000000000165c20       0x28 wavfile.o
 .rodata        0x0000000000165c48        0x8 compress.o
 .rodata        0x0000000000165c50      0x800 crc32.o
 .rodata        0x0000000000166450       0xb8 deflate.o
                0x0000000000166450                deflate_copyright
 .rodata        0x0000000000166508       0x38 gzio.o
 .rodata        0x0000000000166540       0xf8 infblock.o
 .rodata        0x0000000000166638       0x60 infcodes.o
 .rodata        0x0000000000166698       0x38 inffast.o
 .rodata        0x00000000001666d0       0xb8 inflate.o
 .rodata        0x0000000000166788      0x320 inftrees.o
                0x0000000000166788                inflate_copyright
 .rodata        0x0000000000166aa8      0xa40 trees.o
                0x00000000001672f8                _length_code
                0x00000000001670f8                _dist_code
 .rodata        0x00000000001674e8        0x8 uncompr.o
 .rodata        0x00000000001674f0       0xa0 zutil.o
 .rodata        0x0000000000167590       0x68 unzip.o
                0x0000000000167590                unz_copyright
 .rodata        0x00000000001675f8      0x1a8 proflog.o
 .rodata        0x00000000001677a0       0xc0 gpfifo.o
 .rodata        0x0000000000167860       0xb0 libxpad.o
 .rodata        0x0000000000167910       0xe0 gslist.o
 .rodata        0x00000000001679f0      0x1e0 titleman.o
 .rodata        0x0000000000167bd0        0x8 netplay_ee.o
 .rodata        0x0000000000167bd8       0x60 font.o
 .rodata        0x0000000000167c38       0x60 input.o
 .rodata        0x0000000000167c98       0xa8 version.o
 .rodata        0x0000000000167d40      0xae0 mainloop.o
 .rodata        0x0000000000168820      0x118 uiBrowser.o
 .rodata        0x0000000000168938      0x250 uiNetwork.o
 .rodata        0x0000000000168b88        0x8 uiMenu.o
 .rodata        0x0000000000168b90       0x18 uiLog.o
 .rodata        0x0000000000168ba8       0xb0 memcard.o
 .rodata        0x0000000000168c58        0x8 emusys.o
 .rodata        0x0000000000168c60       0xa0 emumovie.o
 .rodata        0x0000000000168d00       0x70 snstate.o
 .rodata        0x0000000000168d70     0x1400 sncpu_c.o
 .rodata        0x000000000016a170      0x8e8 snrom.o
 .rodata        0x000000000016aa58      0x440 sndisasm.o
 .rodata        0x000000000016ae98      0x360 snspcdisasm.o
 .rodata        0x000000000016b1f8       0xd0 sncpu.o
 .rodata        0x000000000016b2c8       0xe0 sndma.o
 .rodata        0x000000000016b3a8      0x128 snppu.o
 .rodata        0x000000000016b4d0      0x2b0 snes.o
 .rodata        0x000000000016b780       0x68 snmemmap.o
 .rodata        0x000000000016b7e8       0x20 snppurender8.o
 .rodata        0x000000000016b808       0x48 snppubg.o
 .rodata        0x000000000016b850       0x68 snspcio.o
 .rodata        0x000000000016b8b8      0x400 snspc_c.o
 .rodata        0x000000000016bcb8       0x2c snspcmix.o
 *fill*         0x000000000016bce4        0x4 00
 .rodata        0x000000000016bce8       0x48 snspc.o
 .rodata        0x000000000016bd30       0x60 nesdisk.o
 .rodata        0x000000000016bd90      0x148 nesmmu.o
 .rodata        0x000000000016bed8       0x50 n6502.o
 .rodata        0x000000000016bf28      0x3fc ncpu_c.o
 *fill*         0x000000000016c324        0x4 00
 .rodata        0x000000000016c328      0x2b0 ndisasm.o
 .rodata        0x000000000016c5d8       0x48 nescpu.o
 .rodata        0x000000000016c620       0x40 nesppu.o
 .rodata        0x000000000016c660       0x38 nespal.o
 .rodata        0x000000000016c698       0x70 nesrom.o
 .rodata        0x000000000016c708       0x78 nesspu.o
 .rodata        0x000000000016c780        0x8 nesstate.o
 .rodata        0x000000000016c788       0x90 nes.o
 .rodata        0x000000000016c818       0x88 /dev/ps2dev/ps2lib/dev/ee/lib/libmc.a(libmc.o)
 .rodata        0x000000000016c8a0       0xb0 /dev/ps2dev/ps2lib/dev/ee/lib/libpad.a(libpad.o)
 .rodata        0x000000000016c950      0x230 /dev/ps2dev/ps2lib/dev/ee/lib/libkernel.a(vsnprintf.o)
 .rodata        0x000000000016cb80       0x30 /dev/ps2dev/gcc/3.2.2-b1/install/i686-pc-cygwin/ee/ee/lib/libc.a(assert.o)
 .rodata        0x000000000016cbb0        0x8 /dev/ps2dev/gcc/3.2.2-b1/install/i686-pc-cygwin/ee/ee/lib/libc.a(impure.o)
 .rodata        0x000000000016cbb8      0x1e0 /dev/ps2dev/gcc/3.2.2-b1/install/i686-pc-cygwin/ee/ee/lib/libc.a(vfiprintf.o)
 .rodata        0x000000000016cd98      0x200 /dev/ps2dev/gcc/3.2.2-b1/install/i686-pc-cygwin/ee/ee/lib/libc.a(vfprintf.o)
 .rodata        0x000000000016cf98       0x78 /dev/ps2dev/gcc/3.2.2-b1/install/i686-pc-cygwin/ee/ee/lib/libc.a(dlmalloc-ps2.o)
 .rodata        0x000000000016d010       0x50 /dev/ps2dev/gcc/3.2.2-b1/install/i686-pc-cygwin/ee/ee/lib/libc.a(dtoa.o)
 .rodata        0x000000000016d060       0x48 /dev/ps2dev/gcc/3.2.2-b1/install/i686-pc-cygwin/ee/ee/lib/libc.a(locale.o)
 .rodata        0x000000000016d0a8      0x128 /dev/ps2dev/gcc/3.2.2-b1/install/i686-pc-cygwin/ee/ee/lib/libc.a(mprec.o)
                0x000000000016d1a8                __mprec_tinytens
                0x000000000016d0b8                __mprec_tens
                0x000000000016d180                __mprec_bigtens
 .rodata        0x000000000016d1d0        0x4 /dev/ps2dev/gcc/3.2.2-b1/install/i686-pc-cygwin/ee/ee/lib/libm.a(sf_cos.o)
 *fill*         0x000000000016d1d4        0x4 00
 .rodata        0x000000000016d1d8       0x10 /dev/ps2dev/gcc/3.2.2-b1/install/i686-pc-cygwin/ee/ee/lib/libm.a(wf_sqrt.o)
 .rodata        0x000000000016d1e8      0x3c0 /dev/ps2dev/gcc/3.2.2-b1/install/i686-pc-cygwin/ee/ee/lib/libm.a(ef_rem_pio2.o)
 .rodata        0x000000000016d5a8        0x8 /dev/ps2dev/gcc/3.2.2-b1/install/i686-pc-cygwin/ee/ee/lib/libm.a(ef_sqrt.o)
 .rodata        0x000000000016d5b0       0x1c /dev/ps2dev/gcc/3.2.2-b1/install/i686-pc-cygwin/ee/ee/lib/libm.a(kf_cos.o)
 *fill*         0x000000000016d5cc        0x4 00
 .rodata        0x000000000016d5d0       0x50 /dev/ps2dev/gcc/3.2.2-b1/install/i686-pc-cygwin/ee/ee/lib/libm.a(kf_rem_pio2.o)
 .rodata        0x000000000016d620       0x1c /dev/ps2dev/gcc/3.2.2-b1/install/i686-pc-cygwin/ee/ee/lib/libm.a(kf_sin.o)
 .rodata        0x000000000016d63c        0x4 /dev/ps2dev/gcc/3.2.2-b1/install/i686-pc-cygwin/ee/ee/lib/libm.a(s_lib_ver.o)
                0x000000000016d63c                __fdlib_version
 .rodata        0x000000000016d640        0x4 /dev/ps2dev/gcc/3.2.2-b1/install/i686-pc-cygwin/ee/ee/lib/libm.a(sf_floor.o)
 .rodata        0x000000000016d644       0x10 /dev/ps2dev/gcc/3.2.2-b1/install/i686-pc-cygwin/ee/ee/lib/libm.a(sf_scalbn.o)
 *fill*         0x000000000016d654        0x4 00
 .rodata        0x000000000016d658       0x18 /dev/ps2dev/gcc/3.2.2-b1/install/i686-pc-cygwin/ee/bin/../lib/gcc-lib/ee/3.2.2/libgcc.a(_thenan_df.o)
                0x000000000016d658                __thenan_df
 .rodata        0x000000000016d670      0x100 /dev/ps2dev/gcc/3.2.2-b1/install/i686-pc-cygwin/ee/bin/../lib/gcc-lib/ee/3.2.2/libgcc.a(_clz.o)
                0x000000000016d670                __clz_tab
 .rodata        0x000000000016d770       0x34 /dev/ps2dev/gcc/3.2.2-b1/install/i686-pc-cygwin/ee/ee/lib/libstdc++.a(eh_personality.o)
 .rodata        0x000000000016d7a4      0x398 /dev/ps2dev/gcc/3.2.2-b1/install/i686-pc-cygwin/ee/bin/../lib/gcc-lib/ee/3.2.2/libgcc.a(unwind-dw2.o)
 .rodata        0x000000000016db3c       0x34 /dev/ps2dev/gcc/3.2.2-b1/install/i686-pc-cygwin/ee/bin/../lib/gcc-lib/ee/3.2.2/libgcc.a(unwind-dw2-fde.o)

.rel.dyn

.gnu.linkonce.r._ZTSSt13bad_exception
                0x000000000016db70       0x18
 .gnu.linkonce.r._ZTSSt13bad_exception
                0x000000000016db70       0x18 /dev/ps2dev/gcc/3.2.2-b1/install/i686-pc-cygwin/ee/ee/lib/libstdc++.a(eh_exception.o)
                0x000000000016db70                _ZTSSt13bad_exception

.gnu.linkonce.r._ZTSSt9exception
                0x000000000016db88       0x10
 .gnu.linkonce.r._ZTSSt9exception
                0x000000000016db88       0x10 /dev/ps2dev/gcc/3.2.2-b1/install/i686-pc-cygwin/ee/ee/lib/libstdc++.a(eh_exception.o)
                0x000000000016db88                _ZTSSt9exception

.gnu.linkonce.r._ZTSN10__cxxabiv121__vmi_class_type_infoE
                0x000000000016db98       0x28
 .gnu.linkonce.r._ZTSN10__cxxabiv121__vmi_class_type_infoE
                0x000000000016db98       0x28 /dev/ps2dev/gcc/3.2.2-b1/install/i686-pc-cygwin/ee/ee/lib/libstdc++.a(tinfo.o)
                0x000000000016db98                _ZTSN10__cxxabiv121__vmi_class_type_infoE

.gnu.linkonce.r._ZTSN10__cxxabiv120__si_class_type_infoE
                0x000000000016dbc0       0x28
 .gnu.linkonce.r._ZTSN10__cxxabiv120__si_class_type_infoE
                0x000000000016dbc0       0x28 /dev/ps2dev/gcc/3.2.2-b1/install/i686-pc-cygwin/ee/ee/lib/libstdc++.a(tinfo.o)
                0x000000000016dbc0                _ZTSN10__cxxabiv120__si_class_type_infoE

.gnu.linkonce.r._ZTSN10__cxxabiv117__class_type_infoE
                0x000000000016dbe8       0x28
 .gnu.linkonce.r._ZTSN10__cxxabiv117__class_type_infoE
                0x000000000016dbe8       0x28 /dev/ps2dev/gcc/3.2.2-b1/install/i686-pc-cygwin/ee/ee/lib/libstdc++.a(tinfo.o)
                0x000000000016dbe8                _ZTSN10__cxxabiv117__class_type_infoE

.gnu.linkonce.r._ZTSSt10bad_typeid
                0x000000000016dc10       0x10
 .gnu.linkonce.r._ZTSSt10bad_typeid
                0x000000000016dc10       0x10 /dev/ps2dev/gcc/3.2.2-b1/install/i686-pc-cygwin/ee/ee/lib/libstdc++.a(tinfo.o)
                0x000000000016dc10                _ZTSSt10bad_typeid

.gnu.linkonce.r._ZTSSt8bad_cast
                0x000000000016dc20       0x10
 .gnu.linkonce.r._ZTSSt8bad_cast
                0x000000000016dc20       0x10 /dev/ps2dev/gcc/3.2.2-b1/install/i686-pc-cygwin/ee/ee/lib/libstdc++.a(tinfo.o)
                0x000000000016dc20                _ZTSSt8bad_cast

.gnu.linkonce.r._ZTSSt9type_info
                0x000000000016dc30       0x10
 .gnu.linkonce.r._ZTSSt9type_info
                0x000000000016dc30       0x10 /dev/ps2dev/gcc/3.2.2-b1/install/i686-pc-cygwin/ee/ee/lib/libstdc++.a(tinfo.o)
                0x000000000016dc30                _ZTSSt9type_info

.data           0x000000000016dc80    0x230c4
 *(.data)
 .data          0x000000000016dc80        0x8 main.o
                0x000000000016dc80                updateloader
                0x000000000016dc84                eeloadcnf
 *fill*         0x000000000016dc88        0x8 00
 .data          0x000000000016dc90     0x2380 excepHandler.o
                0x000000000016ddd0                _exceptionStack
                0x000000000016fdd0                _savedRegs
 .data          0x0000000000170010       0x80 pixelformat.o
 .data          0x0000000000170090        0x4 pathext.o
 .data          0x0000000000170094        0x4 deflate.o
 .data          0x0000000000170098        0x8 gzio.o
 .data          0x00000000001700a0     0x1108 inftrees.o
 .data          0x00000000001711a8       0x48 infutil.o
                0x00000000001711a8                inflate_mask
 .data          0x00000000001711f0       0x48 trees.o
 .data          0x0000000000171238       0x28 zutil.o
                0x0000000000171238                z_errmsg
 .data          0x0000000000171260     0x82d8 explode.o
                0x0000000000179510                crc32val
                0x0000000000171260                cplen2
                0x00000000001714e0                mask_bits
                0x000000000017952c                hufts
                0x00000000001712e0                cplen3
                0x0000000000179520                bitbuf
                0x0000000000171460                cpdist8
                0x0000000000179530                bytebuf
                0x0000000000179528                zipeof
                0x0000000000171360                extra
                0x00000000001713e0                cpdist4
                0x0000000000179518                bits_left
                0x0000000000171508                area
 .data          0x0000000000179538      0x558 unreduce.o
                0x0000000000179570                D_mask
                0x0000000000179588                B_table
                0x0000000000179540                L_table
                0x0000000000179538                followers
                0x0000000000179a88                factor
                0x0000000000179558                D_shift
                0x0000000000179988                Slen
 .data          0x0000000000179a90       0x10 unshrink.o
                0x0000000000179a98                maxcodemax
                0x0000000000179a9c                free_ent
                0x0000000000179a90                codesize
                0x0000000000179a94                maxcode
 .data          0x0000000000179aa0        0x8 unzip.o
                0x0000000000179aa4                pUnzip
                0x0000000000179aa0                pfile_in_zip_read_info
 .data          0x0000000000179aa8        0x8 prof.o
                0x0000000000179aac                Prof_pLogEntry
 .data          0x0000000000179ab0        0xc poly.o
 .data          0x0000000000179abc        0x4 cd.o
                0x0000000000179abc                cdvdInitialised
 .data          0x0000000000179ac0      0x230 gs.o
                0x0000000000179bd0                draw_env1
                0x0000000000179ce0                disp_env
                0x0000000000179ac0                draw_env0
 .data          0x0000000000179cf0       0x10 hw.o
 .data          0x0000000000179d00        0x1 gpfifo.o
 *fill*         0x0000000000179d01        0x3 00
 .data          0x0000000000179d04        0x4 libxpad.o
 .data          0x0000000000179d08        0x4 libxmtap.o
 .data          0x0000000000179d0c       0x14 sjpcm_rpc.o
                0x0000000000179d18                pcmbufr
                0x0000000000179d0c                sjpcm_inited
                0x0000000000179d1c                bufpos
                0x0000000000179d14                pcmbufl
 .data          0x0000000000179d20        0x4 cdvd_rpc.o
                0x0000000000179d20                cdvd_inited
 .data          0x0000000000179d24        0x8 mcsave_ee.o
 *fill*         0x0000000000179d2c        0x4 00
 .data          0x0000000000179d30      0x478 titleman.o
                0x0000000000179e80                progname
                0x000000000017a090                titlename
                0x0000000000179d38                verbose
                0x0000000000179d34                progopt
                0x000000000017a0a0                batchname
                0x0000000000179f88                outname
                0x0000000000179d40                exploit_data
                0x0000000000179d30                dbname
 .data          0x000000000017a1a8        0x4 netplay_ee.o
 *fill*         0x000000000017a1ac        0x4 00
 .data          0x000000000017a1b0     0x8000 font_04b16b.o
                0x000000000017a1b0                _FontData_04b16b
 .data          0x00000000001821b0       0x18 input.o
 .data          0x00000000001821c8      0x238 mainloop.o
                0x00000000001823d0                dispy
                0x00000000001823cc                dispx
 .data          0x0000000000182400       0x10 uiBrowser.o
 .data          0x0000000000182410       0x58 uiNetwork.o
 .data          0x0000000000182468     0x8450 memcard.o
 .data          0x000000000018a8b8      0x548 snrom.o
 .data          0x000000000018ae00      0xd80 sndisasm.o
 .data          0x000000000018bb80     0x13e8 snspcdisasm.o
 .data          0x000000000018cf68       0x10 sncpu.o
 .data          0x000000000018cf78       0x28 sndma.o
 .data          0x000000000018cfa0        0x8 snppu.o
 .data          0x000000000018cfa8      0x220 snmemmap.o
 *fill*         0x000000000018d1c8        0x8 00
 .data          0x000000000018d1d0       0x40 snppublend_gs.o
 *fill*         0x000000000018d210       0x10 00
 .data          0x000000000018d220     0x1240 snppurender.o
                0x000000000018d223                _tsw
                0x000000000018d240                _SnesPPU_PlaneLookup
                0x000000000018d221                _tmw
                0x000000000018e240                _SnesPPU_HFlipLookup
                0x000000000018d220                _tm
                0x000000000018d222                _ts
 .data          0x000000000018e460      0x2e0 snppurender8.o
 .data          0x000000000018e740       0x50 snppubg.o
 .data          0x000000000018e790       0x10 snppuobj.o
 .data          0x000000000018e7a0      0x268 snspcmix.o
                0x000000000018e7a0                _ChMask
 .data          0x000000000018ea08       0x20 snspcbrr.o
 .data          0x000000000018ea28       0x10 snspc.o
 .data          0x000000000018ea38       0x40 snspcrom.o
 .data          0x000000000018ea78       0x10 n6502.o
 .data          0x000000000018ea88      0x2e0 ndisasm.o
 .data          0x000000000018ed68       0x10 nesppurender.o
 .data          0x000000000018ed78      0x200 nespal.o
 .data          0x000000000018ef78       0x88 nesspu.o
                0x000000000018eff8                _iOverShift
 .data          0x000000000018f000       0x60 nesspumix.o
 .data          0x000000000018f060        0x4 nes.o
                0x000000000018f060                _Delay
 .data          0x000000000018f064        0xc /dev/ps2dev/ps2lib/dev/ee/lib/libmc.a(libmc.o)
 .data          0x000000000018f070        0x4 /dev/ps2dev/ps2lib/dev/ee/lib/libpad.a(libpad.o)
 *fill*         0x000000000018f074        0x4 00
 .data          0x000000000018f078       0x30 /dev/ps2dev/ps2lib/dev/ee/lib/libkernel.a(SifRpcMain.o)
                0x000000000018f078                _sif_rpc_data
 .data          0x000000000018f0a8        0x4 /dev/ps2dev/ps2lib/dev/ee/lib/libkernel.a(errno.o)
                0x000000000018f0a8                errno
 .data          0x000000000018f0ac        0xc /dev/ps2dev/ps2lib/dev/ee/lib/libkernel.a(malloc.o)
                0x000000000018f0b0                __alloc_heap_head
                0x000000000018f0ac                __alloc_heap_base
                0x000000000018f0b4                __alloc_heap_tail
 *fill*         0x000000000018f0b8        0x8 00
 .data          0x000000000018f0c0      0x160 /dev/ps2dev/ps2lib/dev/ee/lib/libkernel.a(graph.o)
 .data          0x000000000018f220        0x4 /dev/ps2dev/ps2lib/dev/ee/lib/libkernel.a(sbrk.o)
 *fill*         0x000000000018f224        0x4 00
 .data          0x000000000018f228       0x28 /dev/ps2dev/ps2lib/dev/ee/lib/libkernel.a(sif_cmd_main.o)
                0x000000000018f228                _sif_cmd_data
 .data          0x000000000018f250        0x4 /dev/ps2dev/ps2lib/dev/ee/lib/libkernel.a(fio_main.o)
                0x000000000018f250                _fio_init
 .data          0x000000000018f254        0x4 /dev/ps2dev/ps2lib/dev/ee/lib/libkernel.a(SifLoadFileInit.o)
                0x000000000018f254                _lf_init
 .data          0x000000000018f258        0x4 /dev/ps2dev/ps2lib/dev/ee/lib/libkernel.a(SifInitIopHeap.o)
                0x000000000018f258                _ih_caps
 *fill*         0x000000000018f25c        0x4 00
 .data          0x000000000018f260      0x800 /dev/ps2dev/ps2lib/dev/ee/lib/libkernel.a(font.o)
                0x000000000018f260                msx
 .data          0x000000000018fa60      0x2f8 /dev/ps2dev/gcc/3.2.2-b1/install/i686-pc-cygwin/ee/ee/lib/libc.a(impure.o)
                0x000000000018fd50                _impure_ptr
 .data          0x000000000018fd58        0x4 /dev/ps2dev/gcc/3.2.2-b1/install/i686-pc-cygwin/ee/ee/lib/libc.a(locale.o)
                0x000000000018fd58                __mb_cur_max
 .data          0x000000000018fd5c       0x54 /dev/ps2dev/gcc/3.2.2-b1/install/i686-pc-cygwin/ee/bin/../lib/gcc-lib/ee/3.2.2/libgcc.a(_udivdi3.o)
                0x000000000018fd5c                _GLOBAL__F___udivdi3
 .data          0x000000000018fdb0       0x54 /dev/ps2dev/gcc/3.2.2-b1/install/i686-pc-cygwin/ee/bin/../lib/gcc-lib/ee/3.2.2/libgcc.a(_umoddi3.o)
                0x000000000018fdb0                _GLOBAL__F___umoddi3
 .data          0x000000000018fe04       0x3c /dev/ps2dev/gcc/3.2.2-b1/install/i686-pc-cygwin/ee/ee/lib/libstdc++.a(pure.o)
                0x000000000018fe04                _GLOBAL__F___cxa_pure_virtual
 .data          0x000000000018fe40      0x180 /dev/ps2dev/gcc/3.2.2-b1/install/i686-pc-cygwin/ee/ee/lib/libstdc++.a(eh_personality.o)
                0x000000000018fe40                _GLOBAL__F___gxx_personality_v0
 .data          0x000000000018ffc0       0xb8 /dev/ps2dev/gcc/3.2.2-b1/install/i686-pc-cygwin/ee/ee/lib/libstdc++.a(eh_terminate.o)
                0x000000000018ffc8                _GLOBAL__F__ZN10__cxxabiv119__terminate_handlerE
                0x000000000018ffc0                _ZN10__cxxabiv119__terminate_handlerE
                0x000000000018ffc4                _ZN10__cxxabiv120__unexpected_handlerE
 .data          0x0000000000190078       0x90 /dev/ps2dev/gcc/3.2.2-b1/install/i686-pc-cygwin/ee/ee/lib/libstdc++.a(eh_throw.o)
                0x0000000000190078                _GLOBAL__F___cxa_throw
 .data          0x0000000000190108       0x48 /dev/ps2dev/gcc/3.2.2-b1/install/i686-pc-cygwin/ee/ee/lib/libstdc++.a(eh_alloc.o)
                0x0000000000190108                _GLOBAL__F___cxa_allocate_exception
 .data          0x0000000000190150       0x44 /dev/ps2dev/gcc/3.2.2-b1/install/i686-pc-cygwin/ee/ee/lib/libstdc++.a(eh_catch.o)
                0x0000000000190150                _GLOBAL__F___cxa_begin_catch
 .data          0x0000000000190194      0x208 /dev/ps2dev/gcc/3.2.2-b1/install/i686-pc-cygwin/ee/ee/lib/libstdc++.a(tinfo.o)
                0x0000000000190194                _GLOBAL__F__ZNSt9type_infoD2Ev
 .data          0x000000000019039c      0x4cc /dev/ps2dev/gcc/3.2.2-b1/install/i686-pc-cygwin/ee/bin/../lib/gcc-lib/ee/3.2.2/libgcc.a(unwind-dw2.o)
                0x000000000019039c                _GLOBAL__F__Unwind_GetLanguageSpecificData
 .data          0x0000000000190868      0x424 /dev/ps2dev/gcc/3.2.2-b1/install/i686-pc-cygwin/ee/bin/../lib/gcc-lib/ee/3.2.2/libgcc.a(unwind-dw2-fde.o)
                0x000000000019086c                _GLOBAL__F___register_frame_info_bases
 .data          0x0000000000190c8c       0x5c /dev/ps2dev/gcc/3.2.2-b1/install/i686-pc-cygwin/ee/bin/../lib/gcc-lib/ee/3.2.2/libgcc.a(_divdi3.o)
                0x0000000000190c8c                _GLOBAL__F___divdi3
 .data          0x0000000000190ce8       0x5c /dev/ps2dev/gcc/3.2.2-b1/install/i686-pc-cygwin/ee/bin/../lib/gcc-lib/ee/3.2.2/libgcc.a(_moddi3.o)
                0x0000000000190ce8                _GLOBAL__F___moddi3

.gnu.linkonce.d._ZTV8CSurface
                0x0000000000190d48       0x18
 .gnu.linkonce.d._ZTV8CSurface
                0x0000000000190d48       0x18 surface.o
                0x0000000000190d48                _ZTV8CSurface

.gnu.linkonce.d._ZTV14CRenderSurface
                0x0000000000190d60       0x18
 .gnu.linkonce.d._ZTV14CRenderSurface
                0x0000000000190d60       0x18 rendersurface.o
                0x0000000000190d60                _ZTV14CRenderSurface

.gnu.linkonce.d._ZTV9CInputMap
                0x0000000000190d78       0x28
 .gnu.linkonce.d._ZTV9CInputMap
                0x0000000000190d78       0x28 inputdevice.o
                0x0000000000190d78                _ZTV9CInputMap

.gnu.linkonce.d._ZTV12CInputDevice
                0x0000000000190da0       0x28
 .gnu.linkonce.d._ZTV12CInputDevice
                0x0000000000190da0       0x28 inputdevice.o
                0x0000000000190da0                _ZTV12CInputDevice

.gnu.linkonce.d._ZTV10CMixBuffer
                0x0000000000190dc8       0x20
 .gnu.linkonce.d._ZTV10CMixBuffer
                0x0000000000190dc8       0x20 mixbuffer.o
                0x0000000000190dc8                _ZTV10CMixBuffer

.gnu.linkonce.d._ZTV8CWavFile
                0x0000000000190de8       0x28
 .gnu.linkonce.d._ZTV8CWavFile
                0x0000000000190de8       0x28 wavfile.o
                0x0000000000190de8                _ZTV8CWavFile

.gnu.linkonce.d._ZTV10CMemFileIO
                0x0000000000190e10       0x30
 .gnu.linkonce.d._ZTV10CMemFileIO
                0x0000000000190e10       0x30 dataio.o
                0x0000000000190e10                _ZTV10CMemFileIO

.gnu.linkonce.d._ZTV7CFileIO
                0x0000000000190e40       0x30
 .gnu.linkonce.d._ZTV7CFileIO
                0x0000000000190e40       0x30 dataio.o
                0x0000000000190e40                _ZTV7CFileIO

.gnu.linkonce.d._ZTV7CDataIO
                0x0000000000190e70       0x28
 .gnu.linkonce.d._ZTV7CDataIO
                0x0000000000190e70       0x28 dataio.o
                0x0000000000190e70                _ZTV7CDataIO

.gnu.linkonce.d._ZTV14SJPCMMixBuffer
                0x0000000000190e98       0x20
 .gnu.linkonce.d._ZTV14SJPCMMixBuffer
                0x0000000000190e98       0x20 sjpcmbuffer.o
                0x0000000000190e98                _ZTV14SJPCMMixBuffer

.ctors          0x0000000000190eb8        0x4
 .ctors         0x0000000000190eb8        0x4 mainloop.o

.dtors          0x0000000000190ebc        0x4
 .dtors         0x0000000000190ebc        0x4 mainloop.o

.gnu.linkonce.d._ZTV14CBrowserScreen
                0x0000000000190ec0       0x28
 .gnu.linkonce.d._ZTV14CBrowserScreen
                0x0000000000190ec0       0x28 uiBrowser.o
                0x0000000000190ec0                _ZTV14CBrowserScreen

.gnu.linkonce.d._ZTV7CScreen
                0x0000000000190ee8       0x28
 .gnu.linkonce.d._ZTV7CScreen
                0x0000000000190ee8       0x28 uiBrowser.o
                0x0000000000190ee8                _ZTV7CScreen

.gnu.linkonce.d._ZTV14CNetworkScreen
                0x0000000000190f10       0x28
 .gnu.linkonce.d._ZTV14CNetworkScreen
                0x0000000000190f10       0x28 uiNetwork.o
                0x0000000000190f10                _ZTV14CNetworkScreen

.gnu.linkonce.d._ZTV11CMenuScreen
                0x0000000000190f38       0x28
 .gnu.linkonce.d._ZTV11CMenuScreen
                0x0000000000190f38       0x28 uiMenu.o
                0x0000000000190f38                _ZTV11CMenuScreen

.gnu.linkonce.d._ZTV10CLogScreen
                0x0000000000190f60       0x28
 .gnu.linkonce.d._ZTV10CLogScreen
                0x0000000000190f60       0x28 uiLog.o
                0x0000000000190f60                _ZTV10CLogScreen

.gnu.linkonce.d._ZTV7CEmuRom
                0x0000000000190f88       0x38
 .gnu.linkonce.d._ZTV7CEmuRom
                0x0000000000190f88       0x38 emurom.o
                0x0000000000190f88                _ZTV7CEmuRom

.gnu.linkonce.d._ZTV10CEmuSystem
                0x0000000000190fc0       0x40
 .gnu.linkonce.d._ZTV10CEmuSystem
                0x0000000000190fc0       0x40 emusys.o
                0x0000000000190fc0                _ZTV10CEmuSystem

.gnu.linkonce.d._ZTV7SnesRom
                0x0000000000191000       0x38
 .gnu.linkonce.d._ZTV7SnesRom
                0x0000000000191000       0x38 snrom.o
                0x0000000000191000                _ZTV7SnesRom

.gnu.linkonce.d._ZTV10SnesSystem
                0x0000000000191038       0x40
 .gnu.linkonce.d._ZTV10SnesSystem
                0x0000000000191038       0x40 snes.o
                0x0000000000191038                _ZTV10SnesSystem

.gnu.linkonce.d._ZTV12SNPPUBlendGS
                0x0000000000191078       0x20
 .gnu.linkonce.d._ZTV12SNPPUBlendGS
                0x0000000000191078       0x20 snppublend_gs.o
                0x0000000000191078                _ZTV12SNPPUBlendGS

.gnu.linkonce.d._ZTV13SnesPPURender
                0x0000000000191098       0x20
 .gnu.linkonce.d._ZTV13SnesPPURender
                0x0000000000191098       0x20 snppurender.o
                0x0000000000191098                _ZTV13SnesPPURender

.gnu.linkonce.d._ZTV15SNSpcDspMixFull
                0x00000000001910b8       0x18
 .gnu.linkonce.d._ZTV15SNSpcDspMixFull
                0x00000000001910b8       0x18 snspcmix.o
                0x00000000001910b8                _ZTV15SNSpcDspMixFull

.gnu.linkonce.d._ZTV17SNSpcDspMixSilent
                0x00000000001910d0       0x18
 .gnu.linkonce.d._ZTV17SNSpcDspMixSilent
                0x00000000001910d0       0x18 snspcmix.o
                0x00000000001910d0                _ZTV17SNSpcDspMixSilent

.gnu.linkonce.d._ZTV11SNSpcDspMix
                0x00000000001910e8       0x18
 .gnu.linkonce.d._ZTV11SNSpcDspMix
                0x00000000001910e8       0x18 snspcmix.o
                0x00000000001910e8                _ZTV11SNSpcDspMix

.gnu.linkonce.d._ZTV7NesDisk
                0x0000000000191100       0x38
 .gnu.linkonce.d._ZTV7NesDisk
                0x0000000000191100       0x38 nesdisk.o
                0x0000000000191100                _ZTV7NesDisk

.gnu.linkonce.d._ZTV10NesMMU_FDS
                0x0000000000191138       0x38
 .gnu.linkonce.d._ZTV10NesMMU_FDS
                0x0000000000191138       0x38 nesmmu.o
                0x0000000000191138                _ZTV10NesMMU_FDS

.gnu.linkonce.d._ZTV11NesMMU_MMC5
                0x0000000000191170       0x38
 .gnu.linkonce.d._ZTV11NesMMU_MMC5
                0x0000000000191170       0x38 nesmmu.o
                0x0000000000191170                _ZTV11NesMMU_MMC5

.gnu.linkonce.d._ZTV11NesMMU_MMC2
                0x00000000001911a8       0x38
 .gnu.linkonce.d._ZTV11NesMMU_MMC2
                0x00000000001911a8       0x38 nesmmu.o
                0x00000000001911a8                _ZTV11NesMMU_MMC2

.gnu.linkonce.d._ZTV11NesMMU_MMC3
                0x00000000001911e0       0x38
 .gnu.linkonce.d._ZTV11NesMMU_MMC3
                0x00000000001911e0       0x38 nesmmu.o
                0x00000000001911e0                _ZTV11NesMMU_MMC3

.gnu.linkonce.d._ZTV13NesMMU_100in1
                0x0000000000191218       0x38
 .gnu.linkonce.d._ZTV13NesMMU_100in1
                0x0000000000191218       0x38 nesmmu.o
                0x0000000000191218                _ZTV13NesMMU_100in1

.gnu.linkonce.d._ZTV18NesMMU_ColorDreams
                0x0000000000191250       0x38
 .gnu.linkonce.d._ZTV18NesMMU_ColorDreams
                0x0000000000191250       0x38 nesmmu.o
                0x0000000000191250                _ZTV18NesMMU_ColorDreams

.gnu.linkonce.d._ZTV12NesMMU_GNROM
                0x0000000000191288       0x38
 .gnu.linkonce.d._ZTV12NesMMU_GNROM
                0x0000000000191288       0x38 nesmmu.o
                0x0000000000191288                _ZTV12NesMMU_GNROM

.gnu.linkonce.d._ZTV12NesMMU_AOROM
                0x00000000001912c0       0x38
 .gnu.linkonce.d._ZTV12NesMMU_AOROM
                0x00000000001912c0       0x38 nesmmu.o
                0x00000000001912c0                _ZTV12NesMMU_AOROM

.gnu.linkonce.d._ZTV12NesMMU_CNROM
                0x00000000001912f8       0x38
 .gnu.linkonce.d._ZTV12NesMMU_CNROM
                0x00000000001912f8       0x38 nesmmu.o
                0x00000000001912f8                _ZTV12NesMMU_CNROM

.gnu.linkonce.d._ZTV12NesMMU_UNROM
                0x0000000000191330       0x38
 .gnu.linkonce.d._ZTV12NesMMU_UNROM
                0x0000000000191330       0x38 nesmmu.o
                0x0000000000191330                _ZTV12NesMMU_UNROM

.gnu.linkonce.d._ZTV11NesMMU_MMC1
                0x0000000000191368       0x38
 .gnu.linkonce.d._ZTV11NesMMU_MMC1
                0x0000000000191368       0x38 nesmmu.o
                0x0000000000191368                _ZTV11NesMMU_MMC1

.gnu.linkonce.d._ZTV6NesMMU
                0x00000000001913a0       0x38
 .gnu.linkonce.d._ZTV6NesMMU
                0x00000000001913a0       0x38 nesmmu.o
                0x00000000001913a0                _ZTV6NesMMU

.gnu.linkonce.d._ZTV10NesFDSBios
                0x00000000001913d8       0x38
 .gnu.linkonce.d._ZTV10NesFDSBios
                0x00000000001913d8       0x38 nesrom.o
                0x00000000001913d8                _ZTV10NesFDSBios

.gnu.linkonce.d._ZTV6NesRom
                0x0000000000191410       0x38
 .gnu.linkonce.d._ZTV6NesRom
                0x0000000000191410       0x38 nesrom.o
                0x0000000000191410                _ZTV6NesRom

.gnu.linkonce.d._ZTV9NesSystem
                0x0000000000191448       0x40
 .gnu.linkonce.d._ZTV9NesSystem
                0x0000000000191448       0x40 nes.o
                0x0000000000191448                _ZTV9NesSystem

.gcc_except_table
                0x0000000000191488       0x3c
 .gcc_except_table
                0x0000000000191488       0x28 /dev/ps2dev/gcc/3.2.2-b1/install/i686-pc-cygwin/ee/ee/lib/libstdc++.a(eh_personality.o)
 .gcc_except_table
                0x00000000001914b0       0x14 /dev/ps2dev/gcc/3.2.2-b1/install/i686-pc-cygwin/ee/ee/lib/libstdc++.a(eh_terminate.o)

.gnu.linkonce.d._ZTVSt13bad_exception
                0x00000000001914c8       0x18
 .gnu.linkonce.d._ZTVSt13bad_exception
                0x00000000001914c8       0x18 /dev/ps2dev/gcc/3.2.2-b1/install/i686-pc-cygwin/ee/ee/lib/libstdc++.a(eh_exception.o)
                0x00000000001914c8                _ZTVSt13bad_exception

.gnu.linkonce.d._ZTVSt9exception
                0x00000000001914e0       0x18
 .gnu.linkonce.d._ZTVSt9exception
                0x00000000001914e0       0x18 /dev/ps2dev/gcc/3.2.2-b1/install/i686-pc-cygwin/ee/ee/lib/libstdc++.a(eh_exception.o)
                0x00000000001914e0                _ZTVSt9exception

.gnu.linkonce.d._ZTISt9exception
                0x00000000001914f8        0x8
 .gnu.linkonce.d._ZTISt9exception
                0x00000000001914f8        0x8 /dev/ps2dev/gcc/3.2.2-b1/install/i686-pc-cygwin/ee/ee/lib/libstdc++.a(eh_exception.o)
                0x00000000001914f8                _ZTISt9exception

.gnu.linkonce.d._ZTISt13bad_exception
                0x0000000000191500       0x10
 .gnu.linkonce.d._ZTISt13bad_exception
                0x0000000000191500       0x10 /dev/ps2dev/gcc/3.2.2-b1/install/i686-pc-cygwin/ee/ee/lib/libstdc++.a(eh_exception.o)
                0x0000000000191500                _ZTISt13bad_exception

.gnu.linkonce.d._ZTVN10__cxxabiv121__vmi_class_type_infoE
                0x0000000000191510       0x30
 .gnu.linkonce.d._ZTVN10__cxxabiv121__vmi_class_type_infoE
                0x0000000000191510       0x30 /dev/ps2dev/gcc/3.2.2-b1/install/i686-pc-cygwin/ee/ee/lib/libstdc++.a(tinfo.o)
                0x0000000000191510                _ZTVN10__cxxabiv121__vmi_class_type_infoE

.gnu.linkonce.d._ZTVN10__cxxabiv120__si_class_type_infoE
                0x0000000000191540       0x30
 .gnu.linkonce.d._ZTVN10__cxxabiv120__si_class_type_infoE
                0x0000000000191540       0x30 /dev/ps2dev/gcc/3.2.2-b1/install/i686-pc-cygwin/ee/ee/lib/libstdc++.a(tinfo.o)
                0x0000000000191540                _ZTVN10__cxxabiv120__si_class_type_infoE

.gnu.linkonce.d._ZTVN10__cxxabiv117__class_type_infoE
                0x0000000000191570       0x30
 .gnu.linkonce.d._ZTVN10__cxxabiv117__class_type_infoE
                0x0000000000191570       0x30 /dev/ps2dev/gcc/3.2.2-b1/install/i686-pc-cygwin/ee/ee/lib/libstdc++.a(tinfo.o)
                0x0000000000191570                _ZTVN10__cxxabiv117__class_type_infoE

.gnu.linkonce.d._ZTVSt10bad_typeid
                0x00000000001915a0       0x18
 .gnu.linkonce.d._ZTVSt10bad_typeid
                0x00000000001915a0       0x18 /dev/ps2dev/gcc/3.2.2-b1/install/i686-pc-cygwin/ee/ee/lib/libstdc++.a(tinfo.o)
                0x00000000001915a0                _ZTVSt10bad_typeid

.gnu.linkonce.d._ZTVSt8bad_cast
                0x00000000001915b8       0x18
 .gnu.linkonce.d._ZTVSt8bad_cast
                0x00000000001915b8       0x18 /dev/ps2dev/gcc/3.2.2-b1/install/i686-pc-cygwin/ee/ee/lib/libstdc++.a(tinfo.o)
                0x00000000001915b8                _ZTVSt8bad_cast

.gnu.linkonce.d._ZTVSt9type_info
                0x00000000001915d0       0x20
 .gnu.linkonce.d._ZTVSt9type_info
                0x00000000001915d0       0x20 /dev/ps2dev/gcc/3.2.2-b1/install/i686-pc-cygwin/ee/ee/lib/libstdc++.a(tinfo.o)
                0x00000000001915d0                _ZTVSt9type_info

.gnu.linkonce.d._ZTISt9type_info
                0x00000000001915f0        0x8
 .gnu.linkonce.d._ZTISt9type_info
                0x00000000001915f0        0x8 /dev/ps2dev/gcc/3.2.2-b1/install/i686-pc-cygwin/ee/ee/lib/libstdc++.a(tinfo.o)
                0x00000000001915f0                _ZTISt9type_info

.gnu.linkonce.d._ZTISt8bad_cast
                0x00000000001915f8       0x10
 .gnu.linkonce.d._ZTISt8bad_cast
                0x00000000001915f8       0x10 /dev/ps2dev/gcc/3.2.2-b1/install/i686-pc-cygwin/ee/ee/lib/libstdc++.a(tinfo.o)
                0x00000000001915f8                _ZTISt8bad_cast

.gnu.linkonce.d._ZTISt10bad_typeid
                0x0000000000191608       0x10
 .gnu.linkonce.d._ZTISt10bad_typeid
                0x0000000000191608       0x10 /dev/ps2dev/gcc/3.2.2-b1/install/i686-pc-cygwin/ee/ee/lib/libstdc++.a(tinfo.o)
                0x0000000000191608                _ZTISt10bad_typeid

.gnu.linkonce.d._ZTIN10__cxxabiv117__class_type_infoE
                0x0000000000191618       0x10
 .gnu.linkonce.d._ZTIN10__cxxabiv117__class_type_infoE
                0x0000000000191618       0x10 /dev/ps2dev/gcc/3.2.2-b1/install/i686-pc-cygwin/ee/ee/lib/libstdc++.a(tinfo.o)
                0x0000000000191618                _ZTIN10__cxxabiv117__class_type_infoE

.gnu.linkonce.d._ZTIN10__cxxabiv120__si_class_type_infoE
                0x0000000000191628       0x10
 .gnu.linkonce.d._ZTIN10__cxxabiv120__si_class_type_infoE
                0x0000000000191628       0x10 /dev/ps2dev/gcc/3.2.2-b1/install/i686-pc-cygwin/ee/ee/lib/libstdc++.a(tinfo.o)
                0x0000000000191628                _ZTIN10__cxxabiv120__si_class_type_infoE

.gnu.linkonce.d._ZTIN10__cxxabiv121__vmi_class_type_infoE
                0x0000000000191638       0x10
 .gnu.linkonce.d._ZTIN10__cxxabiv121__vmi_class_type_infoE
                0x0000000000191638       0x10 /dev/ps2dev/gcc/3.2.2-b1/install/i686-pc-cygwin/ee/ee/lib/libstdc++.a(tinfo.o)
                0x0000000000191638                _ZTIN10__cxxabiv121__vmi_class_type_infoE

.rdata
 *(.rdata)
                0x0000000000199670                _gp = (ALIGN (0x80) + 0x7ff0)

.lit4
 *(.lit4)

.lit8
 *(.lit8)

.sdata          0x0000000000191680        0x4
 *(.sdata)
 .sdata         0x0000000000191680        0x4 /dev/ps2dev/ps2net/dev/ps2ip/ee/lib/libps2ip.a(ps2ipc.o)

.sbss           0x0000000000191700        0x8
                0x0000000000191700                _fbss = .
 *(.scommon)
 .scommon       0x0000000000191700        0x8 /dev/ps2dev/ps2lib/dev/ee/lib/libkernel.a(fio_main.o)
                                          0x0 (size before relaxing)
                0x0000000000191700                _fio_completion_sema
                0x0000000000191704                _fio_block_mode
 *(.sbss)

.bss            0x0000000000191780   0x4f8734
 *(.bss)
 .bss           0x0000000000191780      0x180 crt0.o
 .bss           0x0000000000191900      0x108 main.o
 .bss           0x0000000000191a08        0x4 excepHandler.o
 *fill*         0x0000000000191a0c        0x4 00
 .bss           0x0000000000191a10       0xc0 pathext.o
 .bss           0x0000000000191ad0       0x10 prof.o
 .bss           0x0000000000191ae0      0x608 proflog.o
 .bss           0x00000000001920e8       0x30 poly.o
 *fill*         0x0000000000192118       0x28 00
 .bss           0x0000000000192140      0x140 cd.o
 .bss           0x0000000000192280        0x4 gs.o
 *fill*         0x0000000000192284        0x4 00
 .bss           0x0000000000192288       0x10 gpfifo.o
 *fill*         0x0000000000192298       0x28 00
 .bss           0x00000000001922c0      0x240 libxpad.o
 .bss           0x0000000000192500      0x100 libxmtap.o
 .bss           0x0000000000192600      0x540 sjpcm_rpc.o
 .bss           0x0000000000192b40     0x4c40 cdvd_rpc.o
 .bss           0x0000000000197780      0x240 mcsave_ee.o
 .bss           0x00000000001979c0       0x20 gslist.o
 .bss           0x00000000001979e0      0x408 vram.o
 *fill*         0x0000000000197de8       0x18 00
 .bss           0x0000000000197e00     0x14c0 netplay_ee.o
 .bss           0x00000000001992c0      0xcd0 font.o
 *fill*         0x0000000000199f90       0x30 00
 .bss           0x0000000000199fc0      0x540 input.o
 .bss           0x000000000019a500   0x4c6e80 mainloop.o
 .bss           0x0000000000661380      0x200 uiBrowser.o
 .bss           0x0000000000661580    0x20000 snppucolor.o
 .bss           0x0000000000681580        0x4 snppurender.o
 *fill*         0x0000000000681584        0xc 00
 .bss           0x0000000000681590      0x880 snspcmix.o
 .bss           0x0000000000681e10     0x1100 nesppurender.o
 .bss           0x0000000000682f10     0x1900 nesspu.o
 *fill*         0x0000000000684810       0x30 00
 .bss           0x0000000000684840     0x1240 /dev/ps2dev/ps2lib/dev/ee/lib/libmc.a(libmc.o)
 .bss           0x0000000000685a80      0x240 /dev/ps2dev/ps2lib/dev/ee/lib/libpad.a(libpad.o)
 .bss           0x0000000000685cc0      0x8c0 /dev/ps2dev/ps2net/dev/ps2ip/ee/lib/libps2ip.a(ps2ipc.o)
 .bss           0x0000000000686580     0x1800 /dev/ps2dev/ps2lib/dev/ee/lib/libkernel.a(SifRpcMain.o)
 .bss           0x0000000000687d80      0x100 /dev/ps2dev/ps2lib/dev/ee/lib/libkernel.a(graph.o)
 .bss           0x0000000000687e80      0x340 /dev/ps2dev/ps2lib/dev/ee/lib/libkernel.a(sif_cmd_main.o)
 .bss           0x00000000006881c0     0x1000 /dev/ps2dev/ps2lib/dev/ee/lib/libkernel.a(vprintf.o)
 .bss           0x00000000006891c0      0x480 /dev/ps2dev/gcc/3.2.2-b1/install/i686-pc-cygwin/ee/ee/lib/libc.a(dlmalloc-ps2.o)
 .bss           0x0000000000689640      0x810 /dev/ps2dev/gcc/3.2.2-b1/install/i686-pc-cygwin/ee/ee/lib/libstdc++.a(eh_alloc.o)
 .bss           0x0000000000689e50        0x8 /dev/ps2dev/gcc/3.2.2-b1/install/i686-pc-cygwin/ee/ee/lib/libstdc++.a(eh_globals.o)
 .bss           0x0000000000689e58       0x50 /dev/ps2dev/gcc/3.2.2-b1/install/i686-pc-cygwin/ee/bin/../lib/gcc-lib/ee/3.2.2/libgcc.a(unwind-dw2.o)
 .bss           0x0000000000689ea8        0xc /dev/ps2dev/gcc/3.2.2-b1/install/i686-pc-cygwin/ee/bin/../lib/gcc-lib/ee/3.2.2/libgcc.a(unwind-dw2-fde.o)

.COMMON         0x0000000000689f00      0x908
 *(COMMON)
 COMMON         0x0000000000689f00      0x8b0 /dev/ps2dev/ps2lib/dev/ee/lib/libkernel.a(fio_main.o)
                                          0x0 (size before relaxing)
                0x0000000000689f00                _fio_cd
                0x0000000000689f30                _fio_intr_data
                0x0000000000689fb0                _fio_recv_data
 COMMON         0x000000000068a7b0       0x28 /dev/ps2dev/ps2lib/dev/ee/lib/libkernel.a(SifLoadFileInit.o)
                                          0x0 (size before relaxing)
                0x000000000068a7b0                _lf_cd
 *fill*         0x000000000068a7d8        0x8 00
 COMMON         0x000000000068a7e0       0x28 /dev/ps2dev/ps2lib/dev/ee/lib/libkernel.a(SifInitIopHeap.o)
                                          0x0 (size before relaxing)
                0x000000000068a7e0                _ih_cd
                0x000000000068a808                _end_bss = .
                0x000000000068a808                _end = .
                0x000000000068a808                PROVIDE (end, .)
                0xffffffffffffffff                PROVIDE (_heap_size, 0xffffffffffffffff)
                0xffffffffffffffff                PROVIDE (_stack, 0xffffffffffffffff)
                0x0000000000020000                PROVIDE (_stack_size, 0x20000)
OUTPUT(temp.elf elf32-littlemips)

.mdebug         0x0000000000000000    0x741d4
 .mdebug        0x0000000000000000      0x3a4 crt0.o
 .mdebug        0x00000000000003a4      0x6b0 main.o
 .mdebug        0x0000000000000a54      0x398 excepHandler.o
 .mdebug        0x0000000000000dec      0x574 exceptions.o
 .mdebug        0x0000000000001360      0xa2c array.o
 .mdebug        0x0000000000001d8c      0x2f0 file.o
 .mdebug        0x000000000000207c      0x8c8 surface.o
 .mdebug        0x0000000000002944      0xb7c rendersurface.o
 .mdebug        0x00000000000034c0      0x3bc pixelformat.o
 .mdebug        0x000000000000387c      0xa6c memspace.o
 .mdebug        0x00000000000042e8      0xa8c inputdevice.o
 .mdebug        0x0000000000004d74      0x1dc console.o
 .mdebug        0x0000000000004f50      0x388 bmpfile.o
 .mdebug        0x00000000000052d8      0x468 mixbuffer.o
 .mdebug        0x0000000000005740      0x9a0 wavfile.o
 .mdebug        0x00000000000060e0     0x1188 dataio.o
 .mdebug        0x0000000000007268      0x45c pathext.o
 .mdebug        0x00000000000076c4      0x180 adler32.o
 .mdebug        0x0000000000007844      0x230 compress.o
 .mdebug        0x0000000000007a74      0x210 crc32.o
 .mdebug        0x0000000000007c84      0xb1c deflate.o
 .mdebug        0x00000000000087a0      0xf08 gzio.o
 .mdebug        0x00000000000096a8      0x590 infblock.o
 .mdebug        0x0000000000009c38      0x2dc infcodes.o
 .mdebug        0x0000000000009f14      0x18c inffast.o
 .mdebug        0x000000000000a0a0      0x638 inflate.o
 .mdebug        0x000000000000a6d8      0x494 inftrees.o
 .mdebug        0x000000000000ab6c      0x1a8 infutil.o
 .mdebug        0x000000000000ad14      0xdac trees.o
 .mdebug        0x000000000000bac0      0x1bc uncompr.o
 .mdebug        0x000000000000bc7c      0x308 zutil.o
 .mdebug        0x000000000000bf84      0x8d4 explode.o
 .mdebug        0x000000000000c858      0x368 unreduce.o
 .mdebug        0x000000000000cbc0      0x300 unshrink.o
 .mdebug        0x000000000000cec0      0xf6c unzip.o
 .mdebug        0x000000000000de2c      0x450 prof.o
 .mdebug        0x000000000000e27c      0x6f8 proflog.o
 .mdebug        0x000000000000e974      0x2f4 profctr.o
 .mdebug        0x000000000000ec68      0x8fc poly.o
 .mdebug        0x000000000000f564      0x284 cd.o
 .mdebug        0x000000000000f7e8      0x5c0 gs.o
 .mdebug        0x000000000000fda8      0x894 hw.o
 .mdebug        0x000000000001063c      0x7d0 gpfifo.o
 .mdebug        0x0000000000010e0c     0x1010 libxpad.o
 .mdebug        0x0000000000011e1c      0x2ac libxmtap.o
 .mdebug        0x00000000000120c8      0xc38 sjpcm_rpc.o
 .mdebug        0x0000000000012d00      0x54c cdvd_rpc.o
 .mdebug        0x000000000001324c      0x76c ps2dma.o
 .mdebug        0x00000000000139b8      0x6e0 mcsave_ee.o
 .mdebug        0x0000000000014098      0x828 sjpcmbuffer.o
 .mdebug        0x00000000000148c0      0xbb4 gslist.o
 .mdebug        0x0000000000015474      0x538 gpprim.o
 .mdebug        0x00000000000159ac      0x3ec vram.o
 .mdebug        0x0000000000015d98      0x60c titleman.o
 .mdebug        0x00000000000163a4      0xbbc netplay_ee.o
 .mdebug        0x0000000000016f60     0x1084 font.o
 .mdebug        0x0000000000017fe4      0x550 texture.o
 .mdebug        0x0000000000018534      0x110 font_04b16b.o
 .mdebug        0x0000000000018644      0x86c input.o
 .mdebug        0x0000000000018eb0      0x23c version.o
 .mdebug        0x00000000000190ec     0x4c2c mainloop.o
 .mdebug        0x000000000001dd18     0x16b8 uiBrowser.o
 .mdebug        0x000000000001f3d0     0x10e4 uiNetwork.o
 .mdebug        0x00000000000204b4      0xd40 uiMenu.o
 .mdebug        0x00000000000211f4      0xbd8 uiLog.o
 .mdebug        0x0000000000021dcc      0x740 memcard.o
 .mdebug        0x000000000002250c      0x940 emurom.o
 .mdebug        0x0000000000022e4c      0x6ac emusys.o
 .mdebug        0x00000000000234f8      0x7c0 emumovie.o
 .mdebug        0x0000000000023cb8      0xedc snstate.o
 .mdebug        0x0000000000024b94      0xa68 sncpu_c.o
 .mdebug        0x00000000000255fc      0xdec snrom.o
 .mdebug        0x00000000000263e8      0x5ac sndisasm.o
 .mdebug        0x0000000000026994      0x5cc snspcdisasm.o
 .mdebug        0x0000000000026f60     0x1678 sncpu.o
 .mdebug        0x00000000000285d8      0x6dc snio.o
 .mdebug        0x0000000000028cb4      0xa4c sndma.o
 .mdebug        0x0000000000029700      0xc9c snppu.o
 .mdebug        0x000000000002a39c     0x1ee4 snes.o
 .mdebug        0x000000000002c280      0x2ac snesreg.o
 .mdebug        0x000000000002c52c     0xf628 sn65816.o
 .mdebug        0x000000000003bb54      0x6b0 snmemmap.o
 .mdebug        0x000000000003c204      0x4cc snppucolor.o
 .mdebug        0x000000000003c6d0      0xe1c snppublend_gs.o
 .mdebug        0x000000000003d4ec      0xadc snppurender.o
 .mdebug        0x000000000003dfc8     0x1330 snppurender8.o
 .mdebug        0x000000000003f2f8      0xb70 snppubg.o
 .mdebug        0x000000000003fe68      0x668 snppuobj.o
 .mdebug        0x00000000000404d0      0x45c snspctimer.o
 .mdebug        0x000000000004092c      0x5c0 snspcio.o
 .mdebug        0x0000000000040eec      0x550 snspc_c.o
 .mdebug        0x000000000004143c      0x7e8 snspcdsp.o
 .mdebug        0x0000000000041c24     0x131c snspcmix.o
 .mdebug        0x0000000000042f40      0x2b4 snspcbrr.o
 .mdebug        0x00000000000431f4      0xfcc snspc.o
 .mdebug        0x00000000000441c0      0x3e0 snmask128.o
 .mdebug        0x00000000000445a0      0x1b4 snspcrom.o
 .mdebug        0x0000000000044754      0xaa0 nesdisk.o
 .mdebug        0x00000000000451f4      0x438 nesio.o
 .mdebug        0x000000000004562c     0x2c28 nesmmu.o
 .mdebug        0x0000000000048254      0xf94 n6502.o
 .mdebug        0x00000000000491e8      0x650 ncpu_c.o
 .mdebug        0x0000000000049838      0x244 ndisasm.o
 .mdebug        0x0000000000049a7c      0x490 nescpu.o
 .mdebug        0x0000000000049f0c     0x12e4 nesppu.o
 .mdebug        0x000000000004b1f0      0xed4 nesppurender.o
 .mdebug        0x000000000004c0c4      0x5a8 nespal.o
 .mdebug        0x000000000004c66c     0x10b0 nesrom.o
 .mdebug        0x000000000004d71c     0x1c3c nesspu.o
 .mdebug        0x000000000004f358      0x7f4 nesspumix.o
 .mdebug        0x000000000004fb4c      0xc58 nesstate.o
 .mdebug        0x00000000000507a4     0x1bc8 nes.o
 .mdebug        0x000000000005236c      0x1d4 /dev/ps2dev/gcc/3.2.2-b1/install/i686-pc-cygwin/ee/ee/lib/libc.a(assert.o)
 .mdebug        0x0000000000052540      0x1e8 /dev/ps2dev/gcc/3.2.2-b1/install/i686-pc-cygwin/ee/ee/lib/libc.a(fclose.o)
 .mdebug        0x0000000000052728      0x2ac /dev/ps2dev/gcc/3.2.2-b1/install/i686-pc-cygwin/ee/ee/lib/libc.a(fdopen.o)
 .mdebug        0x00000000000529d4      0x1d0 /dev/ps2dev/gcc/3.2.2-b1/install/i686-pc-cygwin/ee/ee/lib/libc.a(fflush.o)
 .mdebug        0x0000000000052ba4      0x1cc /dev/ps2dev/gcc/3.2.2-b1/install/i686-pc-cygwin/ee/ee/lib/libc.a(fgets.o)
 .mdebug        0x0000000000052d70      0x4ac /dev/ps2dev/gcc/3.2.2-b1/install/i686-pc-cygwin/ee/ee/lib/libc.a(findfp.o)
 .mdebug        0x000000000005321c      0x1a4 /dev/ps2dev/gcc/3.2.2-b1/install/i686-pc-cygwin/ee/ee/lib/libc.a(fiprintf.o)
 .mdebug        0x00000000000533c0      0x188 /dev/ps2dev/gcc/3.2.2-b1/install/i686-pc-cygwin/ee/ee/lib/libc.a(flags.o)
 .mdebug        0x0000000000053548      0x2d4 /dev/ps2dev/gcc/3.2.2-b1/install/i686-pc-cygwin/ee/ee/lib/libc.a(fopen.o)
 .mdebug        0x000000000005381c      0x1a4 /dev/ps2dev/gcc/3.2.2-b1/install/i686-pc-cygwin/ee/ee/lib/libc.a(fprintf.o)
 .mdebug        0x00000000000539c0      0x19c /dev/ps2dev/gcc/3.2.2-b1/install/i686-pc-cygwin/ee/ee/lib/libc.a(fputc.o)
 .mdebug        0x0000000000053b5c      0x1b4 /dev/ps2dev/gcc/3.2.2-b1/install/i686-pc-cygwin/ee/ee/lib/libc.a(fread.o)
 .mdebug        0x0000000000053d10      0x24c /dev/ps2dev/gcc/3.2.2-b1/install/i686-pc-cygwin/ee/ee/lib/libc.a(fseek.o)
 .mdebug        0x0000000000053f5c      0x1b8 /dev/ps2dev/gcc/3.2.2-b1/install/i686-pc-cygwin/ee/ee/lib/libc.a(fstatr.o)
 .mdebug        0x0000000000054114      0x1d0 /dev/ps2dev/gcc/3.2.2-b1/install/i686-pc-cygwin/ee/ee/lib/libc.a(ftell.o)
 .mdebug        0x00000000000542e4      0x184 /dev/ps2dev/gcc/3.2.2-b1/install/i686-pc-cygwin/ee/ee/lib/libc.a(fwalk.o)
 .mdebug        0x0000000000054468      0x1a0 /dev/ps2dev/gcc/3.2.2-b1/install/i686-pc-cygwin/ee/ee/lib/libc.a(fwrite.o)
 .mdebug        0x0000000000054608      0x160 /dev/ps2dev/gcc/3.2.2-b1/install/i686-pc-cygwin/ee/ee/lib/libc.a(impure.o)
 .mdebug        0x0000000000054768      0x208 /dev/ps2dev/gcc/3.2.2-b1/install/i686-pc-cygwin/ee/ee/lib/libc.a(makebuf.o)
 .mdebug        0x0000000000054970      0x440 /dev/ps2dev/gcc/3.2.2-b1/install/i686-pc-cygwin/ee/ee/lib/libc.a(memchr.o)
 .mdebug        0x0000000000054db0      0x1b0 /dev/ps2dev/gcc/3.2.2-b1/install/i686-pc-cygwin/ee/ee/lib/libc.a(openr.o)
 .mdebug        0x0000000000054f60      0x184 /dev/ps2dev/gcc/3.2.2-b1/install/i686-pc-cygwin/ee/ee/lib/libc.a(qsort.o)
 .mdebug        0x00000000000550e4      0x294 /dev/ps2dev/gcc/3.2.2-b1/install/i686-pc-cygwin/ee/ee/lib/libc.a(refill.o)
 .mdebug        0x0000000000055378      0x19c /dev/ps2dev/gcc/3.2.2-b1/install/i686-pc-cygwin/ee/ee/lib/libc.a(rewind.o)
 .mdebug        0x0000000000055514      0x220 /dev/ps2dev/gcc/3.2.2-b1/install/i686-pc-cygwin/ee/ee/lib/libc.a(setvbuf.o)
 .mdebug        0x0000000000055734      0x34c /dev/ps2dev/gcc/3.2.2-b1/install/i686-pc-cygwin/ee/ee/lib/libc.a(stdio.o)
 .mdebug        0x0000000000055a80      0x470 /dev/ps2dev/gcc/3.2.2-b1/install/i686-pc-cygwin/ee/ee/lib/libc.a(vfiprintf.o)
 .mdebug        0x0000000000055ef0      0x5d8 /dev/ps2dev/gcc/3.2.2-b1/install/i686-pc-cygwin/ee/ee/lib/libc.a(vfprintf.o)
 .mdebug        0x00000000000564c8      0x1ec /dev/ps2dev/gcc/3.2.2-b1/install/i686-pc-cygwin/ee/ee/lib/libc.a(wbuf.o)
 .mdebug        0x00000000000566b4      0x1b8 /dev/ps2dev/gcc/3.2.2-b1/install/i686-pc-cygwin/ee/ee/lib/libc.a(writer.o)
 .mdebug        0x000000000005686c      0x1f4 /dev/ps2dev/gcc/3.2.2-b1/install/i686-pc-cygwin/ee/ee/lib/libc.a(wsetup.o)
 .mdebug        0x0000000000056a60      0x1b0 /dev/ps2dev/gcc/3.2.2-b1/install/i686-pc-cygwin/ee/ee/lib/libc.a(abort.o)
 .mdebug        0x0000000000056c10      0x1b8 /dev/ps2dev/gcc/3.2.2-b1/install/i686-pc-cygwin/ee/ee/lib/libc.a(closer.o)
 .mdebug        0x0000000000056dc8      0xfb8 /dev/ps2dev/gcc/3.2.2-b1/install/i686-pc-cygwin/ee/ee/lib/libc.a(dlmalloc-ps2.o)
 .mdebug        0x0000000000057d80      0x3f0 /dev/ps2dev/gcc/3.2.2-b1/install/i686-pc-cygwin/ee/ee/lib/libc.a(dtoa.o)
 .mdebug        0x0000000000058170      0x184 /dev/ps2dev/gcc/3.2.2-b1/install/i686-pc-cygwin/ee/ee/lib/libc.a(fstat.o)
 .mdebug        0x00000000000582f4      0x1ec /dev/ps2dev/gcc/3.2.2-b1/install/i686-pc-cygwin/ee/ee/lib/libc.a(fvwrite.o)
 .mdebug        0x00000000000584e0      0x188 /dev/ps2dev/gcc/3.2.2-b1/install/i686-pc-cygwin/ee/ee/lib/libc.a(isatty.o)
 .mdebug        0x0000000000058668      0x37c /dev/ps2dev/gcc/3.2.2-b1/install/i686-pc-cygwin/ee/ee/lib/libc.a(locale.o)
 .mdebug        0x00000000000589e4      0x1b8 /dev/ps2dev/gcc/3.2.2-b1/install/i686-pc-cygwin/ee/ee/lib/libc.a(lseekr.o)
 .mdebug        0x0000000000058b9c      0x190 /dev/ps2dev/gcc/3.2.2-b1/install/i686-pc-cygwin/ee/ee/lib/libc.a(mbtowc_r.o)
 .mdebug        0x0000000000058d2c      0x99c /dev/ps2dev/gcc/3.2.2-b1/install/i686-pc-cygwin/ee/ee/lib/libc.a(mprec.o)
 .mdebug        0x00000000000596c8      0x19c /dev/ps2dev/gcc/3.2.2-b1/install/i686-pc-cygwin/ee/ee/lib/libc.a(open.o)
 .mdebug        0x0000000000059864      0x1b0 /dev/ps2dev/gcc/3.2.2-b1/install/i686-pc-cygwin/ee/ee/lib/libc.a(readr.o)
 .mdebug        0x0000000000059a14      0x184 /dev/ps2dev/gcc/3.2.2-b1/install/i686-pc-cygwin/ee/ee/lib/libc.a(s_isinf.o)
 .mdebug        0x0000000000059b98      0x184 /dev/ps2dev/gcc/3.2.2-b1/install/i686-pc-cygwin/ee/ee/lib/libc.a(s_isnan.o)
 .mdebug        0x0000000000059d1c      0x19c /dev/ps2dev/gcc/3.2.2-b1/install/i686-pc-cygwin/ee/ee/lib/libc.a(sbrk.o)
 .mdebug        0x0000000000059eb8      0x544 /dev/ps2dev/gcc/3.2.2-b1/install/i686-pc-cygwin/ee/ee/lib/libc.a(signal.o)
 .mdebug        0x000000000005a3fc      0x240 /dev/ps2dev/gcc/3.2.2-b1/install/i686-pc-cygwin/ee/ee/lib/libc.a(signalr.o)
 .mdebug        0x000000000005a63c      0x19c /dev/ps2dev/gcc/3.2.2-b1/install/i686-pc-cygwin/ee/ee/lib/libc.a(write.o)
 .mdebug        0x000000000005a7d8      0x19c /dev/ps2dev/gcc/3.2.2-b1/install/i686-pc-cygwin/ee/ee/lib/libc.a(close.o)
 .mdebug        0x000000000005a974      0x188 /dev/ps2dev/gcc/3.2.2-b1/install/i686-pc-cygwin/ee/ee/lib/libc.a(getpid.o)
 .mdebug        0x000000000005aafc      0x184 /dev/ps2dev/gcc/3.2.2-b1/install/i686-pc-cygwin/ee/ee/lib/libc.a(kill.o)
 .mdebug        0x000000000005ac80      0x19c /dev/ps2dev/gcc/3.2.2-b1/install/i686-pc-cygwin/ee/ee/lib/libc.a(lseek.o)
 .mdebug        0x000000000005ae1c      0x19c /dev/ps2dev/gcc/3.2.2-b1/install/i686-pc-cygwin/ee/ee/lib/libc.a(read.o)
 .mdebug        0x000000000005afb8      0x204 /dev/ps2dev/gcc/3.2.2-b1/install/i686-pc-cygwin/ee/ee/lib/libm.a(sf_cos.o)
 .mdebug        0x000000000005b1bc      0x1e0 /dev/ps2dev/gcc/3.2.2-b1/install/i686-pc-cygwin/ee/ee/lib/libm.a(sf_sin.o)
 .mdebug        0x000000000005b39c      0x238 /dev/ps2dev/gcc/3.2.2-b1/install/i686-pc-cygwin/ee/ee/lib/libm.a(wf_sqrt.o)
 .mdebug        0x000000000005b5d4      0x3e0 /dev/ps2dev/gcc/3.2.2-b1/install/i686-pc-cygwin/ee/ee/lib/libm.a(ef_rem_pio2.o)
 .mdebug        0x000000000005b9b4      0x1e4 /dev/ps2dev/gcc/3.2.2-b1/install/i686-pc-cygwin/ee/ee/lib/libm.a(ef_sqrt.o)
 .mdebug        0x000000000005bb98      0x280 /dev/ps2dev/gcc/3.2.2-b1/install/i686-pc-cygwin/ee/ee/lib/libm.a(kf_cos.o)
 .mdebug        0x000000000005be18      0x2b8 /dev/ps2dev/gcc/3.2.2-b1/install/i686-pc-cygwin/ee/ee/lib/libm.a(kf_rem_pio2.o)
 .mdebug        0x000000000005c0d0      0x284 /dev/ps2dev/gcc/3.2.2-b1/install/i686-pc-cygwin/ee/ee/lib/libm.a(kf_sin.o)
 .mdebug        0x000000000005c354      0x134 /dev/ps2dev/gcc/3.2.2-b1/install/i686-pc-cygwin/ee/ee/lib/libm.a(s_lib_ver.o)
 .mdebug        0x000000000005c488      0x1a0 /dev/ps2dev/gcc/3.2.2-b1/install/i686-pc-cygwin/ee/ee/lib/libm.a(s_matherr.o)
 .mdebug        0x000000000005c628      0x184 /dev/ps2dev/gcc/3.2.2-b1/install/i686-pc-cygwin/ee/ee/lib/libm.a(sf_fabs.o)
 .mdebug        0x000000000005c7ac      0x1ac /dev/ps2dev/gcc/3.2.2-b1/install/i686-pc-cygwin/ee/ee/lib/libm.a(sf_floor.o)
 .mdebug        0x000000000005c958      0x184 /dev/ps2dev/gcc/3.2.2-b1/install/i686-pc-cygwin/ee/ee/lib/libm.a(sf_isnan.o)
 .mdebug        0x000000000005cadc      0x244 /dev/ps2dev/gcc/3.2.2-b1/install/i686-pc-cygwin/ee/ee/lib/libm.a(sf_scalbn.o)
 .mdebug        0x000000000005cd20      0x190 /dev/ps2dev/gcc/3.2.2-b1/install/i686-pc-cygwin/ee/ee/lib/libm.a(sf_copysign.o)
 .mdebug        0x000000000005ceb0     0x1ed0 /dev/ps2dev/gcc/3.2.2-b1/install/i686-pc-cygwin/ee/bin/../lib/gcc-lib/ee/3.2.2/libgcc.a(_muldi3.o)
 .mdebug        0x000000000005ed80     0x3c78 /dev/ps2dev/gcc/3.2.2-b1/install/i686-pc-cygwin/ee/bin/../lib/gcc-lib/ee/3.2.2/libgcc.a(_udivdi3.o)
 .mdebug        0x00000000000629f8     0x3cd0 /dev/ps2dev/gcc/3.2.2-b1/install/i686-pc-cygwin/ee/bin/../lib/gcc-lib/ee/3.2.2/libgcc.a(_umoddi3.o)
 .mdebug        0x00000000000666c8     0x1e60 /dev/ps2dev/gcc/3.2.2-b1/install/i686-pc-cygwin/ee/bin/../lib/gcc-lib/ee/3.2.2/libgcc.a(_sf_to_df.o)
 .mdebug        0x0000000000068528     0x3614 /dev/ps2dev/gcc/3.2.2-b1/install/i686-pc-cygwin/ee/bin/../lib/gcc-lib/ee/3.2.2/libgcc.a(_addsub_df.o)
 .mdebug        0x000000000006bb3c     0x3cf0 /dev/ps2dev/gcc/3.2.2-b1/install/i686-pc-cygwin/ee/bin/../lib/gcc-lib/ee/3.2.2/libgcc.a(_mul_df.o)
 .mdebug        0x000000000006f82c     0x2d54 /dev/ps2dev/gcc/3.2.2-b1/install/i686-pc-cygwin/ee/bin/../lib/gcc-lib/ee/3.2.2/libgcc.a(_div_df.o)
 .mdebug        0x0000000000072580     0x1f34 /dev/ps2dev/gcc/3.2.2-b1/install/i686-pc-cygwin/ee/bin/../lib/gcc-lib/ee/3.2.2/libgcc.a(_compare_df.o)
 .mdebug        0x00000000000744b4     0x2140 /dev/ps2dev/gcc/3.2.2-b1/install/i686-pc-cygwin/ee/bin/../lib/gcc-lib/ee/3.2.2/libgcc.a(_si_to_df.o)
 .mdebug        0x00000000000765f4     0x2304 /dev/ps2dev/gcc/3.2.2-b1/install/i686-pc-cygwin/ee/bin/../lib/gcc-lib/ee/3.2.2/libgcc.a(_df_to_si.o)
 .mdebug        0x00000000000788f8     0x1ebc /dev/ps2dev/gcc/3.2.2-b1/install/i686-pc-cygwin/ee/bin/../lib/gcc-lib/ee/3.2.2/libgcc.a(_make_df.o)
 .mdebug        0x000000000007a7b4     0x1ff4 /dev/ps2dev/gcc/3.2.2-b1/install/i686-pc-cygwin/ee/bin/../lib/gcc-lib/ee/3.2.2/libgcc.a(_df_to_sf.o)
 .mdebug        0x000000000007c7a8     0x1c08 /dev/ps2dev/gcc/3.2.2-b1/install/i686-pc-cygwin/ee/bin/../lib/gcc-lib/ee/3.2.2/libgcc.a(_thenan_df.o)
 .mdebug        0x000000000007e3b0     0x1a8c /dev/ps2dev/gcc/3.2.2-b1/install/i686-pc-cygwin/ee/bin/../lib/gcc-lib/ee/3.2.2/libgcc.a(_clz.o)
 .mdebug        0x000000000007fe3c     0x23bc /dev/ps2dev/gcc/3.2.2-b1/install/i686-pc-cygwin/ee/bin/../lib/gcc-lib/ee/3.2.2/libgcc.a(_unpack_sf.o)
 .mdebug        0x00000000000821f8     0x1e90 /dev/ps2dev/gcc/3.2.2-b1/install/i686-pc-cygwin/ee/bin/../lib/gcc-lib/ee/3.2.2/libgcc.a(_make_sf.o)
 .mdebug        0x0000000000084088     0x2990 /dev/ps2dev/gcc/3.2.2-b1/install/i686-pc-cygwin/ee/bin/../lib/gcc-lib/ee/3.2.2/libgcc.a(_pack_df.o)
 .mdebug        0x0000000000086a18     0x23bc /dev/ps2dev/gcc/3.2.2-b1/install/i686-pc-cygwin/ee/bin/../lib/gcc-lib/ee/3.2.2/libgcc.a(_unpack_df.o)
 .mdebug        0x0000000000088dd4     0x2880 /dev/ps2dev/gcc/3.2.2-b1/install/i686-pc-cygwin/ee/bin/../lib/gcc-lib/ee/3.2.2/libgcc.a(_fpcmp_parts_df.o)
 .mdebug        0x000000000008b654     0x2a7c /dev/ps2dev/gcc/3.2.2-b1/install/i686-pc-cygwin/ee/bin/../lib/gcc-lib/ee/3.2.2/libgcc.a(_pack_sf.o)
 .mdebug        0x000000000008e0d0     0x1dec /dev/ps2dev/gcc/3.2.2-b1/install/i686-pc-cygwin/ee/ee/lib/libstdc++.a(pure.o)
 .mdebug        0x000000000008febc     0x7850 /dev/ps2dev/gcc/3.2.2-b1/install/i686-pc-cygwin/ee/ee/lib/libstdc++.a(eh_personality.o)
 .mdebug        0x000000000009770c     0x2d8c /dev/ps2dev/gcc/3.2.2-b1/install/i686-pc-cygwin/ee/ee/lib/libstdc++.a(eh_terminate.o)
 .mdebug        0x000000000009a498     0x1c8c /dev/ps2dev/gcc/3.2.2-b1/install/i686-pc-cygwin/ee/ee/lib/libstdc++.a(eh_throw.o)
 .mdebug        0x000000000009c124     0x2a00 /dev/ps2dev/gcc/3.2.2-b1/install/i686-pc-cygwin/ee/ee/lib/libstdc++.a(eh_alloc.o)
 .mdebug        0x000000000009eb24     0x2a24 /dev/ps2dev/gcc/3.2.2-b1/install/i686-pc-cygwin/ee/ee/lib/libstdc++.a(eh_catch.o)
 .mdebug        0x00000000000a1548     0x1bc4 /dev/ps2dev/gcc/3.2.2-b1/install/i686-pc-cygwin/ee/ee/lib/libstdc++.a(eh_exception.o)
 .mdebug        0x00000000000a310c     0x1f30 /dev/ps2dev/gcc/3.2.2-b1/install/i686-pc-cygwin/ee/ee/lib/libstdc++.a(eh_globals.o)
 .mdebug        0x00000000000a503c     0xbacc /dev/ps2dev/gcc/3.2.2-b1/install/i686-pc-cygwin/ee/ee/lib/libstdc++.a(tinfo.o)
 .mdebug        0x00000000000b0b08    0x152ec /dev/ps2dev/gcc/3.2.2-b1/install/i686-pc-cygwin/ee/bin/../lib/gcc-lib/ee/3.2.2/libgcc.a(unwind-dw2.o)
 .mdebug        0x00000000000c5df4    0x12b60 /dev/ps2dev/gcc/3.2.2-b1/install/i686-pc-cygwin/ee/bin/../lib/gcc-lib/ee/3.2.2/libgcc.a(unwind-dw2-fde.o)
 .mdebug        0x00000000000d8954     0x4394 /dev/ps2dev/gcc/3.2.2-b1/install/i686-pc-cygwin/ee/bin/../lib/gcc-lib/ee/3.2.2/libgcc.a(_divdi3.o)
 .mdebug        0x00000000000dcce8     0x43c4 /dev/ps2dev/gcc/3.2.2-b1/install/i686-pc-cygwin/ee/bin/../lib/gcc-lib/ee/3.2.2/libgcc.a(_moddi3.o)

.mdebug.eabi64  0x0000000000000000        0x0

.comment        0x0000000000000000     0x1344
 .comment       0x0000000000000000       0x12 main.o
 .comment       0x0000000000000012       0x12 excepHandler.o
 .comment       0x0000000000000024       0x12 array.o
 .comment       0x0000000000000036       0x12 file.o
 .comment       0x0000000000000048       0x12 surface.o
 .comment       0x000000000000005a       0x12 rendersurface.o
 .comment       0x000000000000006c       0x12 pixelformat.o
 .comment       0x000000000000007e       0x12 memspace.o
 .comment       0x0000000000000090       0x12 inputdevice.o
 .comment       0x00000000000000a2       0x12 console.o
 .comment       0x00000000000000b4       0x12 bmpfile.o
 .comment       0x00000000000000c6       0x12 mixbuffer.o
 .comment       0x00000000000000d8       0x12 wavfile.o
 .comment       0x00000000000000ea       0x12 dataio.o
 .comment       0x00000000000000fc       0x12 pathext.o
 .comment       0x000000000000010e       0x12 adler32.o
 .comment       0x0000000000000120       0x12 compress.o
 .comment       0x0000000000000132       0x12 crc32.o
 .comment       0x0000000000000144       0x12 deflate.o
 .comment       0x0000000000000156       0x12 gzio.o
 .comment       0x0000000000000168       0x12 infblock.o
 .comment       0x000000000000017a       0x12 infcodes.o
 .comment       0x000000000000018c       0x12 inffast.o
 .comment       0x000000000000019e       0x12 inflate.o
 .comment       0x00000000000001b0       0x12 inftrees.o
 .comment       0x00000000000001c2       0x12 infutil.o
 .comment       0x00000000000001d4       0x12 trees.o
 .comment       0x00000000000001e6       0x12 uncompr.o
 .comment       0x00000000000001f8       0x12 zutil.o
 .comment       0x000000000000020a       0x12 explode.o
 .comment       0x000000000000021c       0x12 unreduce.o
 .comment       0x000000000000022e       0x12 unshrink.o
 .comment       0x0000000000000240       0x12 unzip.o
 .comment       0x0000000000000252       0x12 prof.o
 .comment       0x0000000000000264       0x12 proflog.o
 .comment       0x0000000000000276       0x12 profctr.o
 .comment       0x0000000000000288       0x12 poly.o
 .comment       0x000000000000029a       0x12 cd.o
 .comment       0x00000000000002ac       0x12 gs.o
 .comment       0x00000000000002be       0x12 gpfifo.o
 .comment       0x00000000000002d0       0x12 libxpad.o
 .comment       0x00000000000002e2       0x12 libxmtap.o
 .comment       0x00000000000002f4       0x12 sjpcm_rpc.o
 .comment       0x0000000000000306       0x12 cdvd_rpc.o
 .comment       0x0000000000000318       0x12 ps2dma.o
 .comment       0x000000000000032a       0x12 mcsave_ee.o
 .comment       0x000000000000033c       0x12 sjpcmbuffer.o
 .comment       0x000000000000034e       0x12 gslist.o
 .comment       0x0000000000000360       0x12 gpprim.o
 .comment       0x0000000000000372       0x12 vram.o
 .comment       0x0000000000000384       0x12 titleman.o
 .comment       0x0000000000000396       0x12 netplay_ee.o
 .comment       0x00000000000003a8       0x12 font.o
 .comment       0x00000000000003ba       0x12 texture.o
 .comment       0x00000000000003cc       0x12 font_04b16b.o
 .comment       0x00000000000003de       0x12 input.o
 .comment       0x00000000000003f0       0x12 version.o
 .comment       0x0000000000000402       0x12 mainloop.o
 .comment       0x0000000000000414       0x12 uiBrowser.o
 .comment       0x0000000000000426       0x12 uiNetwork.o
 .comment       0x0000000000000438       0x12 uiMenu.o
 .comment       0x000000000000044a       0x12 uiLog.o
 .comment       0x000000000000045c       0x12 memcard.o
 .comment       0x000000000000046e       0x12 emurom.o
 .comment       0x0000000000000480       0x12 emusys.o
 .comment       0x0000000000000492       0x12 emumovie.o
 .comment       0x00000000000004a4       0x12 snstate.o
 .comment       0x00000000000004b6       0x12 sncpu_c.o
 .comment       0x00000000000004c8       0x12 snrom.o
 .comment       0x00000000000004da       0x12 sndisasm.o
 .comment       0x00000000000004ec       0x12 snspcdisasm.o
 .comment       0x00000000000004fe       0x12 sncpu.o
 .comment       0x0000000000000510       0x12 snio.o
 .comment       0x0000000000000522       0x12 sndma.o
 .comment       0x0000000000000534       0x12 snppu.o
 .comment       0x0000000000000546       0x12 snes.o
 .comment       0x0000000000000558       0x12 snesreg.o
 .comment       0x000000000000056a       0x12 snmemmap.o
 .comment       0x000000000000057c       0x12 snppucolor.o
 .comment       0x000000000000058e       0x12 snppublend_gs.o
 .comment       0x00000000000005a0       0x12 snppurender.o
 .comment       0x00000000000005b2       0x12 snppurender8.o
 .comment       0x00000000000005c4       0x12 snppubg.o
 .comment       0x00000000000005d6       0x12 snppuobj.o
 .comment       0x00000000000005e8       0x12 snspctimer.o
 .comment       0x00000000000005fa       0x12 snspcio.o
 .comment       0x000000000000060c       0x12 snspc_c.o
 .comment       0x000000000000061e       0x12 snspcdsp.o
 .comment       0x0000000000000630       0x12 snspcmix.o
 .comment       0x0000000000000642       0x12 snspcbrr.o
 .comment       0x0000000000000654       0x12 snspc.o
 .comment       0x0000000000000666       0x12 snmask128.o
 .comment       0x0000000000000678       0x12 snspcrom.o
 .comment       0x000000000000068a       0x12 nesdisk.o
 .comment       0x000000000000069c       0x12 nesio.o
 .comment       0x00000000000006ae       0x12 nesmmu.o
 .comment       0x00000000000006c0       0x12 n6502.o
 .comment       0x00000000000006d2       0x12 ncpu_c.o
 .comment       0x00000000000006e4       0x12 ndisasm.o
 .comment       0x00000000000006f6       0x12 nescpu.o
 .comment       0x0000000000000708       0x12 nesppu.o
 .comment       0x000000000000071a       0x12 nesppurender.o
 .comment       0x000000000000072c       0x12 nespal.o
 .comment       0x000000000000073e       0x12 nesrom.o
 .comment       0x0000000000000750       0x12 nesspu.o
 .comment       0x0000000000000762       0x12 nesspumix.o
 .comment       0x0000000000000774       0x12 nesstate.o
 .comment       0x0000000000000786       0x12 nes.o
 .comment       0x0000000000000798       0x12 /dev/ps2dev/ps2lib/dev/ee/lib/libmc.a(libmc.o)
 .comment       0x00000000000007aa       0x12 /dev/ps2dev/ps2lib/dev/ee/lib/libpad.a(libpad.o)
 .comment       0x00000000000007bc       0x12 /dev/ps2dev/ps2net/dev/ps2ip/ee/lib/libps2ip.a(ps2ipc.o)
 .comment       0x00000000000007ce       0x12 /dev/ps2dev/ps2lib/dev/ee/lib/libkernel.a(SifBindRpc.o)
 .comment       0x00000000000007e0       0x12 /dev/ps2dev/ps2lib/dev/ee/lib/libkernel.a(SifCallRpc.o)
 .comment       0x00000000000007f2       0x12 /dev/ps2dev/ps2lib/dev/ee/lib/libkernel.a(SifRegisterRpc.o)
 .comment       0x0000000000000804       0x12 /dev/ps2dev/ps2lib/dev/ee/lib/libkernel.a(SifSetRpcQueue.o)
 .comment       0x0000000000000816       0x12 /dev/ps2dev/ps2lib/dev/ee/lib/libkernel.a(SifGetNextRequest.o)
 .comment       0x0000000000000828       0x12 /dev/ps2dev/ps2lib/dev/ee/lib/libkernel.a(SifExecRequest.o)
 .comment       0x000000000000083a       0x12 /dev/ps2dev/ps2lib/dev/ee/lib/libkernel.a(SifRpcMain.o)
 .comment       0x000000000000084c       0x12 /dev/ps2dev/ps2lib/dev/ee/lib/libkernel.a(_rpc_get_packet.o)
 .comment       0x000000000000085e       0x12 /dev/ps2dev/ps2lib/dev/ee/lib/libkernel.a(_rpc_get_fpacket.o)
 .comment       0x0000000000000870       0x12 /dev/ps2dev/ps2lib/dev/ee/lib/libkernel.a(SifCheckStatRpc.o)
 .comment       0x0000000000000882       0x12 /dev/ps2dev/ps2lib/dev/ee/lib/libkernel.a(fio_exit.o)
 .comment       0x0000000000000894       0x12 /dev/ps2dev/ps2lib/dev/ee/lib/libkernel.a(fio_open.o)
 .comment       0x00000000000008a6       0x12 /dev/ps2dev/ps2lib/dev/ee/lib/libkernel.a(fio_close.o)
 .comment       0x00000000000008b8       0x12 /dev/ps2dev/ps2lib/dev/ee/lib/libkernel.a(fio_read.o)
 .comment       0x00000000000008ca       0x12 /dev/ps2dev/ps2lib/dev/ee/lib/libkernel.a(fio_write.o)
 .comment       0x00000000000008dc       0x12 /dev/ps2dev/ps2lib/dev/ee/lib/libkernel.a(fio_lseek.o)
 .comment       0x00000000000008ee       0x12 /dev/ps2dev/ps2lib/dev/ee/lib/libkernel.a(fio_mkdir.o)
 .comment       0x0000000000000900       0x12 /dev/ps2dev/ps2lib/dev/ee/lib/libkernel.a(_fio_read_intr.o)
 .comment       0x0000000000000912       0x12 /dev/ps2dev/ps2lib/dev/ee/lib/libkernel.a(fio_dopen.o)
 .comment       0x0000000000000924       0x12 /dev/ps2dev/ps2lib/dev/ee/lib/libkernel.a(fio_dclose.o)
 .comment       0x0000000000000936       0x12 /dev/ps2dev/ps2lib/dev/ee/lib/libkernel.a(fio_dread.o)
 .comment       0x0000000000000948       0x12 /dev/ps2dev/ps2lib/dev/ee/lib/libkernel.a(fio_remove.o)
 .comment       0x000000000000095a       0x12 /dev/ps2dev/ps2lib/dev/ee/lib/libkernel.a(fio_rmdir.o)
 .comment       0x000000000000096c       0x12 /dev/ps2dev/ps2lib/dev/ee/lib/libkernel.a(SifLoadFileExit.o)
 .comment       0x000000000000097e       0x12 /dev/ps2dev/ps2lib/dev/ee/lib/libkernel.a(SifLoadModule.o)
 .comment       0x0000000000000990       0x12 /dev/ps2dev/ps2lib/dev/ee/lib/libkernel.a(SifLoadModuleBuffer.o)
 .comment       0x00000000000009a2       0x12 /dev/ps2dev/ps2lib/dev/ee/lib/libkernel.a(SifExitIopHeap.o)
 .comment       0x00000000000009b4       0x12 /dev/ps2dev/ps2lib/dev/ee/lib/libkernel.a(SifAllocIopHeap.o)
 .comment       0x00000000000009c6       0x12 /dev/ps2dev/ps2lib/dev/ee/lib/libkernel.a(SifFreeIopHeap.o)
 .comment       0x00000000000009d8       0x12 /dev/ps2dev/ps2lib/dev/ee/lib/libkernel.a(SifLoadIopHeap.o)
 .comment       0x00000000000009ea       0x12 /dev/ps2dev/ps2lib/dev/ee/lib/libkernel.a(SifIopReset.o)
 .comment       0x00000000000009fc       0x12 /dev/ps2dev/ps2lib/dev/ee/lib/libkernel.a(SifIopSync.o)
 .comment       0x0000000000000a0e       0x12 /dev/ps2dev/ps2lib/dev/ee/lib/libkernel.a(vsnprintf.o)
 .comment       0x0000000000000a20       0x12 /dev/ps2dev/ps2lib/dev/ee/lib/libkernel.a(vsprintf.o)
 .comment       0x0000000000000a32       0x12 /dev/ps2dev/ps2lib/dev/ee/lib/libkernel.a(printf.o)
 .comment       0x0000000000000a44       0x12 /dev/ps2dev/ps2lib/dev/ee/lib/libkernel.a(sprintf.o)
 .comment       0x0000000000000a56       0x12 /dev/ps2dev/ps2lib/dev/ee/lib/libkernel.a(malloc.o)
 .comment       0x0000000000000a68       0x12 /dev/ps2dev/ps2lib/dev/ee/lib/libkernel.a(calloc.o)
 .comment       0x0000000000000a7a       0x12 /dev/ps2dev/ps2lib/dev/ee/lib/libkernel.a(free.o)
 .comment       0x0000000000000a8c       0x12 /dev/ps2dev/ps2lib/dev/ee/lib/libkernel.a(strcasecmp.o)
 .comment       0x0000000000000a9e       0x12 /dev/ps2dev/ps2lib/dev/ee/lib/libkernel.a(strrchr.o)
 .comment       0x0000000000000ab0       0x12 /dev/ps2dev/ps2lib/dev/ee/lib/libkernel.a(ctype.o)
 .comment       0x0000000000000ac2       0x12 /dev/ps2dev/ps2lib/dev/ee/lib/libkernel.a(DIntr.o)
 .comment       0x0000000000000ad4       0x12 /dev/ps2dev/ps2lib/dev/ee/lib/libkernel.a(EIntr.o)
 .comment       0x0000000000000ae6       0x12 /dev/ps2dev/ps2lib/dev/ee/lib/libkernel.a(SyncDCache.o)
 .comment       0x0000000000000af8       0x12 /dev/ps2dev/ps2lib/dev/ee/lib/libkernel.a(graph.o)
 .comment       0x0000000000000b0a       0x12 /dev/ps2dev/ps2lib/dev/ee/lib/libkernel.a(sbrk.o)
 .comment       0x0000000000000b1c       0x12 /dev/ps2dev/ps2lib/dev/ee/lib/libkernel.a(sif_cmd_send.o)
 .comment       0x0000000000000b2e       0x12 /dev/ps2dev/ps2lib/dev/ee/lib/libkernel.a(sif_cmd_main.o)
 .comment       0x0000000000000b40       0x12 /dev/ps2dev/ps2lib/dev/ee/lib/libkernel.a(sif_cmd_addhandler.o)
 .comment       0x0000000000000b52       0x12 /dev/ps2dev/ps2lib/dev/ee/lib/libkernel.a(sif_sreg_get.o)
 .comment       0x0000000000000b64       0x12 /dev/ps2dev/ps2lib/dev/ee/lib/libkernel.a(fio_main.o)
 .comment       0x0000000000000b76       0x12 /dev/ps2dev/ps2lib/dev/ee/lib/libkernel.a(SifLoadFileInit.o)
 .comment       0x0000000000000b88       0x12 /dev/ps2dev/ps2lib/dev/ee/lib/libkernel.a(_SifLoadModule.o)
 .comment       0x0000000000000b9a       0x12 /dev/ps2dev/ps2lib/dev/ee/lib/libkernel.a(_SifLoadModuleBuffer.o)
 .comment       0x0000000000000bac       0x12 /dev/ps2dev/ps2lib/dev/ee/lib/libkernel.a(SifInitIopHeap.o)
 .comment       0x0000000000000bbe       0x12 /dev/ps2dev/ps2lib/dev/ee/lib/libkernel.a(vprintf.o)
 .comment       0x0000000000000bd0       0x12 /dev/ps2dev/ps2lib/dev/ee/lib/libkernel.a(EnableDmac.o)
 .comment       0x0000000000000be2       0x12 /dev/ps2dev/ps2lib/dev/ee/lib/libkernel.a(DisableDmac.o)
 .comment       0x0000000000000bf4       0x12 /dev/ps2dev/ps2lib/dev/ee/lib/libkernel.a(font.o)
 .comment       0x0000000000000c06       0x12 /dev/ps2dev/ps2lib/dev/ee/lib/libkernel.a(_sif_cmd_int_handler.o)
 .comment       0x0000000000000c18       0x12 /dev/ps2dev/gcc/3.2.2-b1/install/i686-pc-cygwin/ee/ee/lib/libc.a(assert.o)
 .comment       0x0000000000000c2a       0x12 /dev/ps2dev/gcc/3.2.2-b1/install/i686-pc-cygwin/ee/ee/lib/libc.a(fclose.o)
 .comment       0x0000000000000c3c       0x12 /dev/ps2dev/gcc/3.2.2-b1/install/i686-pc-cygwin/ee/ee/lib/libc.a(fdopen.o)
 .comment       0x0000000000000c4e       0x12 /dev/ps2dev/gcc/3.2.2-b1/install/i686-pc-cygwin/ee/ee/lib/libc.a(fflush.o)
 .comment       0x0000000000000c60       0x12 /dev/ps2dev/gcc/3.2.2-b1/install/i686-pc-cygwin/ee/ee/lib/libc.a(fgets.o)
 .comment       0x0000000000000c72       0x12 /dev/ps2dev/gcc/3.2.2-b1/install/i686-pc-cygwin/ee/ee/lib/libc.a(findfp.o)
 .comment       0x0000000000000c84       0x12 /dev/ps2dev/gcc/3.2.2-b1/install/i686-pc-cygwin/ee/ee/lib/libc.a(fiprintf.o)
 .comment       0x0000000000000c96       0x12 /dev/ps2dev/gcc/3.2.2-b1/install/i686-pc-cygwin/ee/ee/lib/libc.a(flags.o)
 .comment       0x0000000000000ca8       0x12 /dev/ps2dev/gcc/3.2.2-b1/install/i686-pc-cygwin/ee/ee/lib/libc.a(fopen.o)
 .comment       0x0000000000000cba       0x12 /dev/ps2dev/gcc/3.2.2-b1/install/i686-pc-cygwin/ee/ee/lib/libc.a(fprintf.o)
 .comment       0x0000000000000ccc       0x12 /dev/ps2dev/gcc/3.2.2-b1/install/i686-pc-cygwin/ee/ee/lib/libc.a(fputc.o)
 .comment       0x0000000000000cde       0x12 /dev/ps2dev/gcc/3.2.2-b1/install/i686-pc-cygwin/ee/ee/lib/libc.a(fread.o)
 .comment       0x0000000000000cf0       0x12 /dev/ps2dev/gcc/3.2.2-b1/install/i686-pc-cygwin/ee/ee/lib/libc.a(fseek.o)
 .comment       0x0000000000000d02       0x12 /dev/ps2dev/gcc/3.2.2-b1/install/i686-pc-cygwin/ee/ee/lib/libc.a(fstatr.o)
 .comment       0x0000000000000d14       0x12 /dev/ps2dev/gcc/3.2.2-b1/install/i686-pc-cygwin/ee/ee/lib/libc.a(ftell.o)
 .comment       0x0000000000000d26       0x12 /dev/ps2dev/gcc/3.2.2-b1/install/i686-pc-cygwin/ee/ee/lib/libc.a(fwalk.o)
 .comment       0x0000000000000d38       0x12 /dev/ps2dev/gcc/3.2.2-b1/install/i686-pc-cygwin/ee/ee/lib/libc.a(fwrite.o)
 .comment       0x0000000000000d4a       0x12 /dev/ps2dev/gcc/3.2.2-b1/install/i686-pc-cygwin/ee/ee/lib/libc.a(impure.o)
 .comment       0x0000000000000d5c       0x12 /dev/ps2dev/gcc/3.2.2-b1/install/i686-pc-cygwin/ee/ee/lib/libc.a(makebuf.o)
 .comment       0x0000000000000d6e       0x12 /dev/ps2dev/gcc/3.2.2-b1/install/i686-pc-cygwin/ee/ee/lib/libc.a(openr.o)
 .comment       0x0000000000000d80       0x12 /dev/ps2dev/gcc/3.2.2-b1/install/i686-pc-cygwin/ee/ee/lib/libc.a(qsort.o)
 .comment       0x0000000000000d92       0x12 /dev/ps2dev/gcc/3.2.2-b1/install/i686-pc-cygwin/ee/ee/lib/libc.a(refill.o)
 .comment       0x0000000000000da4       0x12 /dev/ps2dev/gcc/3.2.2-b1/install/i686-pc-cygwin/ee/ee/lib/libc.a(rewind.o)
 .comment       0x0000000000000db6       0x12 /dev/ps2dev/gcc/3.2.2-b1/install/i686-pc-cygwin/ee/ee/lib/libc.a(setvbuf.o)
 .comment       0x0000000000000dc8       0x12 /dev/ps2dev/gcc/3.2.2-b1/install/i686-pc-cygwin/ee/ee/lib/libc.a(stdio.o)
 .comment       0x0000000000000dda       0x12 /dev/ps2dev/gcc/3.2.2-b1/install/i686-pc-cygwin/ee/ee/lib/libc.a(vfiprintf.o)
 .comment       0x0000000000000dec       0x12 /dev/ps2dev/gcc/3.2.2-b1/install/i686-pc-cygwin/ee/ee/lib/libc.a(vfprintf.o)
 .comment       0x0000000000000dfe       0x12 /dev/ps2dev/gcc/3.2.2-b1/install/i686-pc-cygwin/ee/ee/lib/libc.a(wbuf.o)
 .comment       0x0000000000000e10       0x12 /dev/ps2dev/gcc/3.2.2-b1/install/i686-pc-cygwin/ee/ee/lib/libc.a(writer.o)
 .comment       0x0000000000000e22       0x12 /dev/ps2dev/gcc/3.2.2-b1/install/i686-pc-cygwin/ee/ee/lib/libc.a(wsetup.o)
 .comment       0x0000000000000e34       0x12 /dev/ps2dev/gcc/3.2.2-b1/install/i686-pc-cygwin/ee/ee/lib/libc.a(abort.o)
 .comment       0x0000000000000e46       0x12 /dev/ps2dev/gcc/3.2.2-b1/install/i686-pc-cygwin/ee/ee/lib/libc.a(closer.o)
 .comment       0x0000000000000e58       0x12 /dev/ps2dev/gcc/3.2.2-b1/install/i686-pc-cygwin/ee/ee/lib/libc.a(dlmalloc-ps2.o)
 .comment       0x0000000000000e6a       0x12 /dev/ps2dev/gcc/3.2.2-b1/install/i686-pc-cygwin/ee/ee/lib/libc.a(dtoa.o)
 .comment       0x0000000000000e7c       0x12 /dev/ps2dev/gcc/3.2.2-b1/install/i686-pc-cygwin/ee/ee/lib/libc.a(fstat.o)
 .comment       0x0000000000000e8e       0x12 /dev/ps2dev/gcc/3.2.2-b1/install/i686-pc-cygwin/ee/ee/lib/libc.a(fvwrite.o)
 .comment       0x0000000000000ea0       0x12 /dev/ps2dev/gcc/3.2.2-b1/install/i686-pc-cygwin/ee/ee/lib/libc.a(isatty.o)
 .comment       0x0000000000000eb2       0x12 /dev/ps2dev/gcc/3.2.2-b1/install/i686-pc-cygwin/ee/ee/lib/libc.a(locale.o)
 .comment       0x0000000000000ec4       0x12 /dev/ps2dev/gcc/3.2.2-b1/install/i686-pc-cygwin/ee/ee/lib/libc.a(lseekr.o)
 .comment       0x0000000000000ed6       0x12 /dev/ps2dev/gcc/3.2.2-b1/install/i686-pc-cygwin/ee/ee/lib/libc.a(mbtowc_r.o)
 .comment       0x0000000000000ee8       0x12 /dev/ps2dev/gcc/3.2.2-b1/install/i686-pc-cygwin/ee/ee/lib/libc.a(mprec.o)
 .comment       0x0000000000000efa       0x12 /dev/ps2dev/gcc/3.2.2-b1/install/i686-pc-cygwin/ee/ee/lib/libc.a(open.o)
 .comment       0x0000000000000f0c       0x12 /dev/ps2dev/gcc/3.2.2-b1/install/i686-pc-cygwin/ee/ee/lib/libc.a(readr.o)
 .comment       0x0000000000000f1e       0x12 /dev/ps2dev/gcc/3.2.2-b1/install/i686-pc-cygwin/ee/ee/lib/libc.a(s_isinf.o)
 .comment       0x0000000000000f30       0x12 /dev/ps2dev/gcc/3.2.2-b1/install/i686-pc-cygwin/ee/ee/lib/libc.a(s_isnan.o)
 .comment       0x0000000000000f42       0x12 /dev/ps2dev/gcc/3.2.2-b1/install/i686-pc-cygwin/ee/ee/lib/libc.a(sbrk.o)
 .comment       0x0000000000000f54       0x12 /dev/ps2dev/gcc/3.2.2-b1/install/i686-pc-cygwin/ee/ee/lib/libc.a(signal.o)
 .comment       0x0000000000000f66       0x12 /dev/ps2dev/gcc/3.2.2-b1/install/i686-pc-cygwin/ee/ee/lib/libc.a(signalr.o)
 .comment       0x0000000000000f78       0x12 /dev/ps2dev/gcc/3.2.2-b1/install/i686-pc-cygwin/ee/ee/lib/libc.a(write.o)
 .comment       0x0000000000000f8a       0x12 /dev/ps2dev/gcc/3.2.2-b1/install/i686-pc-cygwin/ee/ee/lib/libc.a(close.o)
 .comment       0x0000000000000f9c       0x12 /dev/ps2dev/gcc/3.2.2-b1/install/i686-pc-cygwin/ee/ee/lib/libc.a(getpid.o)
 .comment       0x0000000000000fae       0x12 /dev/ps2dev/gcc/3.2.2-b1/install/i686-pc-cygwin/ee/ee/lib/libc.a(kill.o)
 .comment       0x0000000000000fc0       0x12 /dev/ps2dev/gcc/3.2.2-b1/install/i686-pc-cygwin/ee/ee/lib/libc.a(lseek.o)
 .comment       0x0000000000000fd2       0x12 /dev/ps2dev/gcc/3.2.2-b1/install/i686-pc-cygwin/ee/ee/lib/libc.a(read.o)
 .comment       0x0000000000000fe4       0x12 /dev/ps2dev/gcc/3.2.2-b1/install/i686-pc-cygwin/ee/ee/lib/libm.a(sf_cos.o)
 .comment       0x0000000000000ff6       0x12 /dev/ps2dev/gcc/3.2.2-b1/install/i686-pc-cygwin/ee/ee/lib/libm.a(sf_sin.o)
 .comment       0x0000000000001008       0x12 /dev/ps2dev/gcc/3.2.2-b1/install/i686-pc-cygwin/ee/ee/lib/libm.a(wf_sqrt.o)
 .comment       0x000000000000101a       0x12 /dev/ps2dev/gcc/3.2.2-b1/install/i686-pc-cygwin/ee/ee/lib/libm.a(ef_rem_pio2.o)
 .comment       0x000000000000102c       0x12 /dev/ps2dev/gcc/3.2.2-b1/install/i686-pc-cygwin/ee/ee/lib/libm.a(ef_sqrt.o)
 .comment       0x000000000000103e       0x12 /dev/ps2dev/gcc/3.2.2-b1/install/i686-pc-cygwin/ee/ee/lib/libm.a(kf_cos.o)
 .comment       0x0000000000001050       0x12 /dev/ps2dev/gcc/3.2.2-b1/install/i686-pc-cygwin/ee/ee/lib/libm.a(kf_rem_pio2.o)
 .comment       0x0000000000001062       0x12 /dev/ps2dev/gcc/3.2.2-b1/install/i686-pc-cygwin/ee/ee/lib/libm.a(kf_sin.o)
 .comment       0x0000000000001074       0x12 /dev/ps2dev/gcc/3.2.2-b1/install/i686-pc-cygwin/ee/ee/lib/libm.a(s_lib_ver.o)
 .comment       0x0000000000001086       0x12 /dev/ps2dev/gcc/3.2.2-b1/install/i686-pc-cygwin/ee/ee/lib/libm.a(s_matherr.o)
 .comment       0x0000000000001098       0x12 /dev/ps2dev/gcc/3.2.2-b1/install/i686-pc-cygwin/ee/ee/lib/libm.a(sf_fabs.o)
 .comment       0x00000000000010aa       0x12 /dev/ps2dev/gcc/3.2.2-b1/install/i686-pc-cygwin/ee/ee/lib/libm.a(sf_floor.o)
 .comment       0x00000000000010bc       0x12 /dev/ps2dev/gcc/3.2.2-b1/install/i686-pc-cygwin/ee/ee/lib/libm.a(sf_isnan.o)
 .comment       0x00000000000010ce       0x12 /dev/ps2dev/gcc/3.2.2-b1/install/i686-pc-cygwin/ee/ee/lib/libm.a(sf_scalbn.o)
 .comment       0x00000000000010e0       0x12 /dev/ps2dev/gcc/3.2.2-b1/install/i686-pc-cygwin/ee/ee/lib/libm.a(sf_copysign.o)
 .comment       0x00000000000010f2       0x12 /dev/ps2dev/gcc/3.2.2-b1/install/i686-pc-cygwin/ee/bin/../lib/gcc-lib/ee/3.2.2/libgcc.a(_muldi3.o)
 .comment       0x0000000000001104       0x12 /dev/ps2dev/gcc/3.2.2-b1/install/i686-pc-cygwin/ee/bin/../lib/gcc-lib/ee/3.2.2/libgcc.a(_udivdi3.o)
 .comment       0x0000000000001116       0x12 /dev/ps2dev/gcc/3.2.2-b1/install/i686-pc-cygwin/ee/bin/../lib/gcc-lib/ee/3.2.2/libgcc.a(_umoddi3.o)
 .comment       0x0000000000001128       0x12 /dev/ps2dev/gcc/3.2.2-b1/install/i686-pc-cygwin/ee/bin/../lib/gcc-lib/ee/3.2.2/libgcc.a(_sf_to_df.o)
 .comment       0x000000000000113a       0x12 /dev/ps2dev/gcc/3.2.2-b1/install/i686-pc-cygwin/ee/bin/../lib/gcc-lib/ee/3.2.2/libgcc.a(_addsub_df.o)
 .comment       0x000000000000114c       0x12 /dev/ps2dev/gcc/3.2.2-b1/install/i686-pc-cygwin/ee/bin/../lib/gcc-lib/ee/3.2.2/libgcc.a(_mul_df.o)
 .comment       0x000000000000115e       0x12 /dev/ps2dev/gcc/3.2.2-b1/install/i686-pc-cygwin/ee/bin/../lib/gcc-lib/ee/3.2.2/libgcc.a(_div_df.o)
 .comment       0x0000000000001170       0x12 /dev/ps2dev/gcc/3.2.2-b1/install/i686-pc-cygwin/ee/bin/../lib/gcc-lib/ee/3.2.2/libgcc.a(_compare_df.o)
 .comment       0x0000000000001182       0x12 /dev/ps2dev/gcc/3.2.2-b1/install/i686-pc-cygwin/ee/bin/../lib/gcc-lib/ee/3.2.2/libgcc.a(_si_to_df.o)
 .comment       0x0000000000001194       0x12 /dev/ps2dev/gcc/3.2.2-b1/install/i686-pc-cygwin/ee/bin/../lib/gcc-lib/ee/3.2.2/libgcc.a(_df_to_si.o)
 .comment       0x00000000000011a6       0x12 /dev/ps2dev/gcc/3.2.2-b1/install/i686-pc-cygwin/ee/bin/../lib/gcc-lib/ee/3.2.2/libgcc.a(_make_df.o)
 .comment       0x00000000000011b8       0x12 /dev/ps2dev/gcc/3.2.2-b1/install/i686-pc-cygwin/ee/bin/../lib/gcc-lib/ee/3.2.2/libgcc.a(_df_to_sf.o)
 .comment       0x00000000000011ca       0x12 /dev/ps2dev/gcc/3.2.2-b1/install/i686-pc-cygwin/ee/bin/../lib/gcc-lib/ee/3.2.2/libgcc.a(_thenan_df.o)
 .comment       0x00000000000011dc       0x12 /dev/ps2dev/gcc/3.2.2-b1/install/i686-pc-cygwin/ee/bin/../lib/gcc-lib/ee/3.2.2/libgcc.a(_clz.o)
 .comment       0x00000000000011ee       0x12 /dev/ps2dev/gcc/3.2.2-b1/install/i686-pc-cygwin/ee/bin/../lib/gcc-lib/ee/3.2.2/libgcc.a(_unpack_sf.o)
 .comment       0x0000000000001200       0x12 /dev/ps2dev/gcc/3.2.2-b1/install/i686-pc-cygwin/ee/bin/../lib/gcc-lib/ee/3.2.2/libgcc.a(_make_sf.o)
 .comment       0x0000000000001212       0x12 /dev/ps2dev/gcc/3.2.2-b1/install/i686-pc-cygwin/ee/bin/../lib/gcc-lib/ee/3.2.2/libgcc.a(_pack_df.o)
 .comment       0x0000000000001224       0x12 /dev/ps2dev/gcc/3.2.2-b1/install/i686-pc-cygwin/ee/bin/../lib/gcc-lib/ee/3.2.2/libgcc.a(_unpack_df.o)
 .comment       0x0000000000001236       0x12 /dev/ps2dev/gcc/3.2.2-b1/install/i686-pc-cygwin/ee/bin/../lib/gcc-lib/ee/3.2.2/libgcc.a(_fpcmp_parts_df.o)
 .comment       0x0000000000001248       0x12 /dev/ps2dev/gcc/3.2.2-b1/install/i686-pc-cygwin/ee/bin/../lib/gcc-lib/ee/3.2.2/libgcc.a(_pack_sf.o)
 .comment       0x000000000000125a       0x12 /dev/ps2dev/gcc/3.2.2-b1/install/i686-pc-cygwin/ee/ee/lib/libstdc++.a(pure.o)
 .comment       0x000000000000126c       0x12 /dev/ps2dev/gcc/3.2.2-b1/install/i686-pc-cygwin/ee/ee/lib/libstdc++.a(eh_personality.o)
 .comment       0x000000000000127e       0x12 /dev/ps2dev/gcc/3.2.2-b1/install/i686-pc-cygwin/ee/ee/lib/libstdc++.a(eh_terminate.o)
 .comment       0x0000000000001290       0x12 /dev/ps2dev/gcc/3.2.2-b1/install/i686-pc-cygwin/ee/ee/lib/libstdc++.a(eh_throw.o)
 .comment       0x00000000000012a2       0x12 /dev/ps2dev/gcc/3.2.2-b1/install/i686-pc-cygwin/ee/ee/lib/libstdc++.a(eh_alloc.o)
 .comment       0x00000000000012b4       0x12 /dev/ps2dev/gcc/3.2.2-b1/install/i686-pc-cygwin/ee/ee/lib/libstdc++.a(eh_catch.o)
 .comment       0x00000000000012c6       0x12 /dev/ps2dev/gcc/3.2.2-b1/install/i686-pc-cygwin/ee/ee/lib/libstdc++.a(eh_exception.o)
 .comment       0x00000000000012d8       0x12 /dev/ps2dev/gcc/3.2.2-b1/install/i686-pc-cygwin/ee/ee/lib/libstdc++.a(eh_globals.o)
 .comment       0x00000000000012ea       0x12 /dev/ps2dev/gcc/3.2.2-b1/install/i686-pc-cygwin/ee/ee/lib/libstdc++.a(tinfo.o)
 .comment       0x00000000000012fc       0x12 /dev/ps2dev/gcc/3.2.2-b1/install/i686-pc-cygwin/ee/bin/../lib/gcc-lib/ee/3.2.2/libgcc.a(unwind-dw2.o)
 .comment       0x000000000000130e       0x12 /dev/ps2dev/gcc/3.2.2-b1/install/i686-pc-cygwin/ee/bin/../lib/gcc-lib/ee/3.2.2/libgcc.a(unwind-dw2-fde.o)
 .comment       0x0000000000001320       0x12 /dev/ps2dev/gcc/3.2.2-b1/install/i686-pc-cygwin/ee/bin/../lib/gcc-lib/ee/3.2.2/libgcc.a(_divdi3.o)
 .comment       0x0000000000001332       0x12 /dev/ps2dev/gcc/3.2.2-b1/install/i686-pc-cygwin/ee/bin/../lib/gcc-lib/ee/3.2.2/libgcc.a(_moddi3.o)

.pdr            0x0000000000000000     0x1980
 .pdr           0x0000000000000000      0x2e0 /dev/ps2dev/ps2lib/dev/ee/lib/libmc.a(libmc.o)
 .pdr           0x00000000000002e0      0x320 /dev/ps2dev/ps2lib/dev/ee/lib/libpad.a(libpad.o)
 .pdr           0x0000000000000600      0x1c0 /dev/ps2dev/ps2net/dev/ps2ip/ee/lib/libps2ip.a(ps2ipc.o)
 .pdr           0x00000000000007c0       0x20 /dev/ps2dev/ps2lib/dev/ee/lib/libkernel.a(memcpy.o)
 .pdr           0x00000000000007e0       0x20 /dev/ps2dev/ps2lib/dev/ee/lib/libkernel.a(memset.o)
 .pdr           0x0000000000000800       0x20 /dev/ps2dev/ps2lib/dev/ee/lib/libkernel.a(strcat.o)
 .pdr           0x0000000000000820       0x20 /dev/ps2dev/ps2lib/dev/ee/lib/libkernel.a(strncmp.o)
 .pdr           0x0000000000000840       0x20 /dev/ps2dev/ps2lib/dev/ee/lib/libkernel.a(memcmp.o)
 .pdr           0x0000000000000860       0x20 /dev/ps2dev/ps2lib/dev/ee/lib/libkernel.a(memmove.o)
 .pdr           0x0000000000000880       0x20 /dev/ps2dev/ps2lib/dev/ee/lib/libkernel.a(strcpy.o)
 .pdr           0x00000000000008a0       0x20 /dev/ps2dev/ps2lib/dev/ee/lib/libkernel.a(strncpy.o)
 .pdr           0x00000000000008c0       0x20 /dev/ps2dev/ps2lib/dev/ee/lib/libkernel.a(strlen.o)
 .pdr           0x00000000000008e0       0x20 /dev/ps2dev/ps2lib/dev/ee/lib/libkernel.a(strchr.o)
 .pdr           0x0000000000000900       0x20 /dev/ps2dev/ps2lib/dev/ee/lib/libkernel.a(strcmp.o)
 .pdr           0x0000000000000920       0x20 /dev/ps2dev/ps2lib/dev/ee/lib/libkernel.a(SifBindRpc.o)
 .pdr           0x0000000000000940       0x20 /dev/ps2dev/ps2lib/dev/ee/lib/libkernel.a(SifCallRpc.o)
 .pdr           0x0000000000000960       0x20 /dev/ps2dev/ps2lib/dev/ee/lib/libkernel.a(SifRegisterRpc.o)
 .pdr           0x0000000000000980       0x20 /dev/ps2dev/ps2lib/dev/ee/lib/libkernel.a(SifSetRpcQueue.o)
 .pdr           0x00000000000009a0       0x20 /dev/ps2dev/ps2lib/dev/ee/lib/libkernel.a(SifGetNextRequest.o)
 .pdr           0x00000000000009c0       0x40 /dev/ps2dev/ps2lib/dev/ee/lib/libkernel.a(SifExecRequest.o)
 .pdr           0x0000000000000a00      0x100 /dev/ps2dev/ps2lib/dev/ee/lib/libkernel.a(SifRpcMain.o)
 .pdr           0x0000000000000b00       0x20 /dev/ps2dev/ps2lib/dev/ee/lib/libkernel.a(_rpc_get_packet.o)
 .pdr           0x0000000000000b20       0x20 /dev/ps2dev/ps2lib/dev/ee/lib/libkernel.a(_rpc_get_fpacket.o)
 .pdr           0x0000000000000b40       0x20 /dev/ps2dev/ps2lib/dev/ee/lib/libkernel.a(SifCheckStatRpc.o)
 .pdr           0x0000000000000b60       0x20 /dev/ps2dev/ps2lib/dev/ee/lib/libkernel.a(SetVTLBRefillHandler.o)
 .pdr           0x0000000000000b80       0x20 /dev/ps2dev/ps2lib/dev/ee/lib/libkernel.a(SetVCommonHandler.o)
 .pdr           0x0000000000000ba0       0x20 /dev/ps2dev/ps2lib/dev/ee/lib/libkernel.a(GetThreadId.o)
 .pdr           0x0000000000000bc0       0x20 /dev/ps2dev/ps2lib/dev/ee/lib/libkernel.a(SleepThread.o)
 .pdr           0x0000000000000be0       0x20 /dev/ps2dev/ps2lib/dev/ee/lib/libkernel.a(iWakeupThread.o)
 .pdr           0x0000000000000c00       0x20 /dev/ps2dev/ps2lib/dev/ee/lib/libkernel.a(CreateSema.o)
 .pdr           0x0000000000000c20       0x20 /dev/ps2dev/ps2lib/dev/ee/lib/libkernel.a(DeleteSema.o)
 .pdr           0x0000000000000c40       0x20 /dev/ps2dev/ps2lib/dev/ee/lib/libkernel.a(iSignalSema.o)
 .pdr           0x0000000000000c60       0x20 /dev/ps2dev/ps2lib/dev/ee/lib/libkernel.a(SignalSema.o)
 .pdr           0x0000000000000c80       0x20 /dev/ps2dev/ps2lib/dev/ee/lib/libkernel.a(WaitSema.o)
 .pdr           0x0000000000000ca0       0x20 /dev/ps2dev/ps2lib/dev/ee/lib/libkernel.a(FlushCache.o)
 .pdr           0x0000000000000cc0       0x20 /dev/ps2dev/ps2lib/dev/ee/lib/libkernel.a(SifDmaStat.o)
 .pdr           0x0000000000000ce0       0x20 /dev/ps2dev/ps2lib/dev/ee/lib/libkernel.a(SifSetDma.o)
 .pdr           0x0000000000000d00       0x20 /dev/ps2dev/ps2lib/dev/ee/lib/libkernel.a(SifSetReg.o)
 .pdr           0x0000000000000d20       0x20 /dev/ps2dev/ps2lib/dev/ee/lib/libkernel.a(SifGetReg.o)
 .pdr           0x0000000000000d40       0x20 /dev/ps2dev/ps2lib/dev/ee/lib/libkernel.a(SifWriteBackDCache.o)
 .pdr           0x0000000000000d60       0x20 /dev/ps2dev/ps2lib/dev/ee/lib/libkernel.a(__errno.o)
 .pdr           0x0000000000000d80       0x20 /dev/ps2dev/ps2lib/dev/ee/lib/libkernel.a(fio_exit.o)
 .pdr           0x0000000000000da0       0x20 /dev/ps2dev/ps2lib/dev/ee/lib/libkernel.a(fio_open.o)
 .pdr           0x0000000000000dc0       0x20 /dev/ps2dev/ps2lib/dev/ee/lib/libkernel.a(fio_close.o)
 .pdr           0x0000000000000de0       0x20 /dev/ps2dev/ps2lib/dev/ee/lib/libkernel.a(fio_read.o)
 .pdr           0x0000000000000e00       0x20 /dev/ps2dev/ps2lib/dev/ee/lib/libkernel.a(fio_write.o)
 .pdr           0x0000000000000e20       0x20 /dev/ps2dev/ps2lib/dev/ee/lib/libkernel.a(fio_lseek.o)
 .pdr           0x0000000000000e40       0x20 /dev/ps2dev/ps2lib/dev/ee/lib/libkernel.a(fio_mkdir.o)
 .pdr           0x0000000000000e60       0x20 /dev/ps2dev/ps2lib/dev/ee/lib/libkernel.a(_fio_read_intr.o)
 .pdr           0x0000000000000e80       0x20 /dev/ps2dev/ps2lib/dev/ee/lib/libkernel.a(fio_dopen.o)
 .pdr           0x0000000000000ea0       0x20 /dev/ps2dev/ps2lib/dev/ee/lib/libkernel.a(fio_dclose.o)
 .pdr           0x0000000000000ec0       0x20 /dev/ps2dev/ps2lib/dev/ee/lib/libkernel.a(fio_dread.o)
 .pdr           0x0000000000000ee0       0x20 /dev/ps2dev/ps2lib/dev/ee/lib/libkernel.a(fio_remove.o)
 .pdr           0x0000000000000f00       0x20 /dev/ps2dev/ps2lib/dev/ee/lib/libkernel.a(fio_rmdir.o)
 .pdr           0x0000000000000f20       0x20 /dev/ps2dev/ps2lib/dev/ee/lib/libkernel.a(SifLoadFileExit.o)
 .pdr           0x0000000000000f40       0x20 /dev/ps2dev/ps2lib/dev/ee/lib/libkernel.a(SifLoadModule.o)
 .pdr           0x0000000000000f60       0x20 /dev/ps2dev/ps2lib/dev/ee/lib/libkernel.a(SifLoadModuleBuffer.o)
 .pdr           0x0000000000000f80       0x20 /dev/ps2dev/ps2lib/dev/ee/lib/libkernel.a(SifExitIopHeap.o)
 .pdr           0x0000000000000fa0       0x20 /dev/ps2dev/ps2lib/dev/ee/lib/libkernel.a(SifAllocIopHeap.o)
 .pdr           0x0000000000000fc0       0x20 /dev/ps2dev/ps2lib/dev/ee/lib/libkernel.a(SifFreeIopHeap.o)
 .pdr           0x0000000000000fe0       0x20 /dev/ps2dev/ps2lib/dev/ee/lib/libkernel.a(SifLoadIopHeap.o)
 .pdr           0x0000000000001000       0x20 /dev/ps2dev/ps2lib/dev/ee/lib/libkernel.a(SifIopReset.o)
 .pdr           0x0000000000001020       0x20 /dev/ps2dev/ps2lib/dev/ee/lib/libkernel.a(SifIopSync.o)
 .pdr           0x0000000000001040       0xe0 /dev/ps2dev/ps2lib/dev/ee/lib/libkernel.a(vsnprintf.o)
 .pdr           0x0000000000001120       0x20 /dev/ps2dev/ps2lib/dev/ee/lib/libkernel.a(vsprintf.o)
 .pdr           0x0000000000001140       0x20 /dev/ps2dev/ps2lib/dev/ee/lib/libkernel.a(printf.o)
 .pdr           0x0000000000001160       0x20 /dev/ps2dev/ps2lib/dev/ee/lib/libkernel.a(sprintf.o)
 .pdr           0x0000000000001180       0x40 /dev/ps2dev/ps2lib/dev/ee/lib/libkernel.a(malloc.o)
 .pdr           0x00000000000011c0       0x20 /dev/ps2dev/ps2lib/dev/ee/lib/libkernel.a(calloc.o)
 .pdr           0x00000000000011e0       0x20 /dev/ps2dev/ps2lib/dev/ee/lib/libkernel.a(free.o)
 .pdr           0x0000000000001200       0x20 /dev/ps2dev/ps2lib/dev/ee/lib/libkernel.a(strcasecmp.o)
 .pdr           0x0000000000001220       0x20 /dev/ps2dev/ps2lib/dev/ee/lib/libkernel.a(strrchr.o)
 .pdr           0x0000000000001240      0x1a0 /dev/ps2dev/ps2lib/dev/ee/lib/libkernel.a(ctype.o)
 .pdr           0x00000000000013e0       0x20 /dev/ps2dev/ps2lib/dev/ee/lib/libkernel.a(DIntr.o)
 .pdr           0x0000000000001400       0x20 /dev/ps2dev/ps2lib/dev/ee/lib/libkernel.a(EIntr.o)
 .pdr           0x0000000000001420       0x20 /dev/ps2dev/ps2lib/dev/ee/lib/libkernel.a(SyncDCache.o)
 .pdr           0x0000000000001440       0xe0 /dev/ps2dev/ps2lib/dev/ee/lib/libkernel.a(graph.o)
 .pdr           0x0000000000001520       0x20 /dev/ps2dev/ps2lib/dev/ee/lib/libkernel.a(sbrk.o)
 .pdr           0x0000000000001540       0x60 /dev/ps2dev/ps2lib/dev/ee/lib/libkernel.a(sif_cmd_send.o)
 .pdr           0x00000000000015a0       0x80 /dev/ps2dev/ps2lib/dev/ee/lib/libkernel.a(sif_cmd_main.o)
 .pdr           0x0000000000001620       0x20 /dev/ps2dev/ps2lib/dev/ee/lib/libkernel.a(sif_cmd_addhandler.o)
 .pdr           0x0000000000001640       0x20 /dev/ps2dev/ps2lib/dev/ee/lib/libkernel.a(sif_sreg_get.o)
 .pdr           0x0000000000001660       0x20 /dev/ps2dev/ps2lib/dev/ee/lib/libkernel.a(SetGsCrt.o)
 .pdr           0x0000000000001680       0x20 /dev/ps2dev/ps2lib/dev/ee/lib/libkernel.a(AddDmacHandler.o)
 .pdr           0x00000000000016a0       0x20 /dev/ps2dev/ps2lib/dev/ee/lib/libkernel.a(RemoveDmacHandler.o)
 .pdr           0x00000000000016c0       0x20 /dev/ps2dev/ps2lib/dev/ee/lib/libkernel.a(EndOfHeap.o)
 .pdr           0x00000000000016e0       0x20 /dev/ps2dev/ps2lib/dev/ee/lib/libkernel.a(SifStopDma.o)
 .pdr           0x0000000000001700       0x20 /dev/ps2dev/ps2lib/dev/ee/lib/libkernel.a(GsPutIMR.o)
 .pdr           0x0000000000001720       0x20 /dev/ps2dev/ps2lib/dev/ee/lib/libkernel.a(iSifSetDma.o)
 .pdr           0x0000000000001740       0x20 /dev/ps2dev/ps2lib/dev/ee/lib/libkernel.a(SifSetDChain.o)
 .pdr           0x0000000000001760       0x20 /dev/ps2dev/ps2lib/dev/ee/lib/libkernel.a(_SyncDCache.o)
 .pdr           0x0000000000001780       0x80 /dev/ps2dev/ps2lib/dev/ee/lib/libkernel.a(fio_main.o)
 .pdr           0x0000000000001800       0x20 /dev/ps2dev/ps2lib/dev/ee/lib/libkernel.a(SifLoadFileInit.o)
 .pdr           0x0000000000001820       0x20 /dev/ps2dev/ps2lib/dev/ee/lib/libkernel.a(_SifLoadModule.o)
 .pdr           0x0000000000001840       0x20 /dev/ps2dev/ps2lib/dev/ee/lib/libkernel.a(_SifLoadModuleBuffer.o)
 .pdr           0x0000000000001860       0x20 /dev/ps2dev/ps2lib/dev/ee/lib/libkernel.a(SifInitIopHeap.o)
 .pdr           0x0000000000001880       0x20 /dev/ps2dev/ps2lib/dev/ee/lib/libkernel.a(vprintf.o)
 .pdr           0x00000000000018a0       0x20 /dev/ps2dev/ps2lib/dev/ee/lib/libkernel.a(EnableDmac.o)
 .pdr           0x00000000000018c0       0x20 /dev/ps2dev/ps2lib/dev/ee/lib/libkernel.a(DisableDmac.o)
 .pdr           0x00000000000018e0       0x20 /dev/ps2dev/ps2lib/dev/ee/lib/libkernel.a(_sif_cmd_int_handler.o)
 .pdr           0x0000000000001900       0x20 /dev/ps2dev/ps2lib/dev/ee/lib/libkernel.a(_EnableDmac.o)
 .pdr           0x0000000000001920       0x20 /dev/ps2dev/ps2lib/dev/ee/lib/libkernel.a(_DisableDmac.o)
 .pdr           0x0000000000001940       0x20 /dev/ps2dev/ps2lib/dev/ee/lib/libkernel.a(PollSema.o)
 .pdr           0x0000000000001960       0x20 /dev/ps2dev/ps2lib/dev/ee/lib/libkernel.a(iSifSetDChain.o)

.debug_abbrev   0x0000000000000000     0x424f
 .debug_abbrev  0x0000000000000000      0x141 /dev/ps2dev/gcc/3.2.2-b1/install/i686-pc-cygwin/ee/bin/../lib/gcc-lib/ee/3.2.2/libgcc.a(_muldi3.o)
 .debug_abbrev  0x0000000000000141      0x1cb /dev/ps2dev/gcc/3.2.2-b1/install/i686-pc-cygwin/ee/bin/../lib/gcc-lib/ee/3.2.2/libgcc.a(_udivdi3.o)
 .debug_abbrev  0x000000000000030c      0x1da /dev/ps2dev/gcc/3.2.2-b1/install/i686-pc-cygwin/ee/bin/../lib/gcc-lib/ee/3.2.2/libgcc.a(_umoddi3.o)
 .debug_abbrev  0x00000000000004e6      0x180 /dev/ps2dev/gcc/3.2.2-b1/install/i686-pc-cygwin/ee/bin/../lib/gcc-lib/ee/3.2.2/libgcc.a(_sf_to_df.o)
 .debug_abbrev  0x0000000000000666      0x20f /dev/ps2dev/gcc/3.2.2-b1/install/i686-pc-cygwin/ee/bin/../lib/gcc-lib/ee/3.2.2/libgcc.a(_addsub_df.o)
 .debug_abbrev  0x0000000000000875      0x22a /dev/ps2dev/gcc/3.2.2-b1/install/i686-pc-cygwin/ee/bin/../lib/gcc-lib/ee/3.2.2/libgcc.a(_mul_df.o)
 .debug_abbrev  0x0000000000000a9f      0x22e /dev/ps2dev/gcc/3.2.2-b1/install/i686-pc-cygwin/ee/bin/../lib/gcc-lib/ee/3.2.2/libgcc.a(_div_df.o)
 .debug_abbrev  0x0000000000000ccd      0x180 /dev/ps2dev/gcc/3.2.2-b1/install/i686-pc-cygwin/ee/bin/../lib/gcc-lib/ee/3.2.2/libgcc.a(_compare_df.o)
 .debug_abbrev  0x0000000000000e4d      0x180 /dev/ps2dev/gcc/3.2.2-b1/install/i686-pc-cygwin/ee/bin/../lib/gcc-lib/ee/3.2.2/libgcc.a(_si_to_df.o)
 .debug_abbrev  0x0000000000000fcd      0x1bf /dev/ps2dev/gcc/3.2.2-b1/install/i686-pc-cygwin/ee/bin/../lib/gcc-lib/ee/3.2.2/libgcc.a(_df_to_si.o)
 .debug_abbrev  0x000000000000118c      0x18f /dev/ps2dev/gcc/3.2.2-b1/install/i686-pc-cygwin/ee/bin/../lib/gcc-lib/ee/3.2.2/libgcc.a(_make_df.o)
 .debug_abbrev  0x000000000000131b      0x18f /dev/ps2dev/gcc/3.2.2-b1/install/i686-pc-cygwin/ee/bin/../lib/gcc-lib/ee/3.2.2/libgcc.a(_df_to_sf.o)
 .debug_abbrev  0x00000000000014aa      0x146 /dev/ps2dev/gcc/3.2.2-b1/install/i686-pc-cygwin/ee/bin/../lib/gcc-lib/ee/3.2.2/libgcc.a(_thenan_df.o)
 .debug_abbrev  0x00000000000015f0      0x10b /dev/ps2dev/gcc/3.2.2-b1/install/i686-pc-cygwin/ee/bin/../lib/gcc-lib/ee/3.2.2/libgcc.a(_clz.o)
 .debug_abbrev  0x00000000000016fb      0x18d /dev/ps2dev/gcc/3.2.2-b1/install/i686-pc-cygwin/ee/bin/../lib/gcc-lib/ee/3.2.2/libgcc.a(_unpack_sf.o)
 .debug_abbrev  0x0000000000001888      0x18f /dev/ps2dev/gcc/3.2.2-b1/install/i686-pc-cygwin/ee/bin/../lib/gcc-lib/ee/3.2.2/libgcc.a(_make_sf.o)
 .debug_abbrev  0x0000000000001a17      0x1ca /dev/ps2dev/gcc/3.2.2-b1/install/i686-pc-cygwin/ee/bin/../lib/gcc-lib/ee/3.2.2/libgcc.a(_pack_df.o)
 .debug_abbrev  0x0000000000001be1      0x19a /dev/ps2dev/gcc/3.2.2-b1/install/i686-pc-cygwin/ee/bin/../lib/gcc-lib/ee/3.2.2/libgcc.a(_unpack_df.o)
 .debug_abbrev  0x0000000000001d7b      0x1b0 /dev/ps2dev/gcc/3.2.2-b1/install/i686-pc-cygwin/ee/bin/../lib/gcc-lib/ee/3.2.2/libgcc.a(_fpcmp_parts_df.o)
 .debug_abbrev  0x0000000000001f2b      0x1ca /dev/ps2dev/gcc/3.2.2-b1/install/i686-pc-cygwin/ee/bin/../lib/gcc-lib/ee/3.2.2/libgcc.a(_pack_sf.o)
 .debug_abbrev  0x00000000000020f5      0x18c /dev/ps2dev/gcc/3.2.2-b1/install/i686-pc-cygwin/ee/ee/lib/libstdc++.a(pure.o)
 .debug_abbrev  0x0000000000002281      0x3a1 /dev/ps2dev/gcc/3.2.2-b1/install/i686-pc-cygwin/ee/ee/lib/libstdc++.a(eh_personality.o)
 .debug_abbrev  0x0000000000002622      0x202 /dev/ps2dev/gcc/3.2.2-b1/install/i686-pc-cygwin/ee/ee/lib/libstdc++.a(eh_terminate.o)
 .debug_abbrev  0x0000000000002824      0x1a4 /dev/ps2dev/gcc/3.2.2-b1/install/i686-pc-cygwin/ee/ee/lib/libstdc++.a(eh_throw.o)
 .debug_abbrev  0x00000000000029c8      0x204 /dev/ps2dev/gcc/3.2.2-b1/install/i686-pc-cygwin/ee/ee/lib/libstdc++.a(eh_alloc.o)
 .debug_abbrev  0x0000000000002bcc      0x229 /dev/ps2dev/gcc/3.2.2-b1/install/i686-pc-cygwin/ee/ee/lib/libstdc++.a(eh_catch.o)
 .debug_abbrev  0x0000000000002df5      0x221 /dev/ps2dev/gcc/3.2.2-b1/install/i686-pc-cygwin/ee/ee/lib/libstdc++.a(eh_exception.o)
 .debug_abbrev  0x0000000000003016      0x1a6 /dev/ps2dev/gcc/3.2.2-b1/install/i686-pc-cygwin/ee/ee/lib/libstdc++.a(eh_globals.o)
 .debug_abbrev  0x00000000000031bc      0x476 /dev/ps2dev/gcc/3.2.2-b1/install/i686-pc-cygwin/ee/ee/lib/libstdc++.a(tinfo.o)
 .debug_abbrev  0x0000000000003632      0x416 /dev/ps2dev/gcc/3.2.2-b1/install/i686-pc-cygwin/ee/bin/../lib/gcc-lib/ee/3.2.2/libgcc.a(unwind-dw2.o)
 .debug_abbrev  0x0000000000003a48      0x3bb /dev/ps2dev/gcc/3.2.2-b1/install/i686-pc-cygwin/ee/bin/../lib/gcc-lib/ee/3.2.2/libgcc.a(unwind-dw2-fde.o)
 .debug_abbrev  0x0000000000003e03      0x226 /dev/ps2dev/gcc/3.2.2-b1/install/i686-pc-cygwin/ee/bin/../lib/gcc-lib/ee/3.2.2/libgcc.a(_divdi3.o)
 .debug_abbrev  0x0000000000004029      0x226 /dev/ps2dev/gcc/3.2.2-b1/install/i686-pc-cygwin/ee/bin/../lib/gcc-lib/ee/3.2.2/libgcc.a(_moddi3.o)

.debug_info     0x0000000000000000    0x19b6e
 .debug_info    0x0000000000000000      0x620 /dev/ps2dev/gcc/3.2.2-b1/install/i686-pc-cygwin/ee/bin/../lib/gcc-lib/ee/3.2.2/libgcc.a(_muldi3.o)
 .debug_info    0x0000000000000620      0xae7 /dev/ps2dev/gcc/3.2.2-b1/install/i686-pc-cygwin/ee/bin/../lib/gcc-lib/ee/3.2.2/libgcc.a(_udivdi3.o)
 .debug_info    0x0000000000001107      0xaf4 /dev/ps2dev/gcc/3.2.2-b1/install/i686-pc-cygwin/ee/bin/../lib/gcc-lib/ee/3.2.2/libgcc.a(_umoddi3.o)
 .debug_info    0x0000000000001bfb      0x6cf /dev/ps2dev/gcc/3.2.2-b1/install/i686-pc-cygwin/ee/bin/../lib/gcc-lib/ee/3.2.2/libgcc.a(_sf_to_df.o)
 .debug_info    0x00000000000022ca      0x91b /dev/ps2dev/gcc/3.2.2-b1/install/i686-pc-cygwin/ee/bin/../lib/gcc-lib/ee/3.2.2/libgcc.a(_addsub_df.o)
 .debug_info    0x0000000000002be5      0x9a1 /dev/ps2dev/gcc/3.2.2-b1/install/i686-pc-cygwin/ee/bin/../lib/gcc-lib/ee/3.2.2/libgcc.a(_mul_df.o)
 .debug_info    0x0000000000003586      0x88b /dev/ps2dev/gcc/3.2.2-b1/install/i686-pc-cygwin/ee/bin/../lib/gcc-lib/ee/3.2.2/libgcc.a(_div_df.o)
 .debug_info    0x0000000000003e11      0x6fd /dev/ps2dev/gcc/3.2.2-b1/install/i686-pc-cygwin/ee/bin/../lib/gcc-lib/ee/3.2.2/libgcc.a(_compare_df.o)
 .debug_info    0x000000000000450e      0x6c5 /dev/ps2dev/gcc/3.2.2-b1/install/i686-pc-cygwin/ee/bin/../lib/gcc-lib/ee/3.2.2/libgcc.a(_si_to_df.o)
 .debug_info    0x0000000000004bd3      0x778 /dev/ps2dev/gcc/3.2.2-b1/install/i686-pc-cygwin/ee/bin/../lib/gcc-lib/ee/3.2.2/libgcc.a(_df_to_si.o)
 .debug_info    0x000000000000534b      0x6f6 /dev/ps2dev/gcc/3.2.2-b1/install/i686-pc-cygwin/ee/bin/../lib/gcc-lib/ee/3.2.2/libgcc.a(_make_df.o)
 .debug_info    0x0000000000005a41      0x6ef /dev/ps2dev/gcc/3.2.2-b1/install/i686-pc-cygwin/ee/bin/../lib/gcc-lib/ee/3.2.2/libgcc.a(_df_to_sf.o)
 .debug_info    0x0000000000006130      0x686 /dev/ps2dev/gcc/3.2.2-b1/install/i686-pc-cygwin/ee/bin/../lib/gcc-lib/ee/3.2.2/libgcc.a(_thenan_df.o)
 .debug_info    0x00000000000067b6      0x5de /dev/ps2dev/gcc/3.2.2-b1/install/i686-pc-cygwin/ee/bin/../lib/gcc-lib/ee/3.2.2/libgcc.a(_clz.o)
 .debug_info    0x0000000000006d94      0x6e4 /dev/ps2dev/gcc/3.2.2-b1/install/i686-pc-cygwin/ee/bin/../lib/gcc-lib/ee/3.2.2/libgcc.a(_unpack_sf.o)
 .debug_info    0x0000000000007478      0x6ea /dev/ps2dev/gcc/3.2.2-b1/install/i686-pc-cygwin/ee/bin/../lib/gcc-lib/ee/3.2.2/libgcc.a(_make_sf.o)
 .debug_info    0x0000000000007b62      0x791 /dev/ps2dev/gcc/3.2.2-b1/install/i686-pc-cygwin/ee/bin/../lib/gcc-lib/ee/3.2.2/libgcc.a(_pack_df.o)
 .debug_info    0x00000000000082f3      0x6ee /dev/ps2dev/gcc/3.2.2-b1/install/i686-pc-cygwin/ee/bin/../lib/gcc-lib/ee/3.2.2/libgcc.a(_unpack_df.o)
 .debug_info    0x00000000000089e1      0x7f3 /dev/ps2dev/gcc/3.2.2-b1/install/i686-pc-cygwin/ee/bin/../lib/gcc-lib/ee/3.2.2/libgcc.a(_fpcmp_parts_df.o)
 .debug_info    0x00000000000091d4      0x785 /dev/ps2dev/gcc/3.2.2-b1/install/i686-pc-cygwin/ee/bin/../lib/gcc-lib/ee/3.2.2/libgcc.a(_pack_sf.o)
 .debug_info    0x0000000000009959      0xf26 /dev/ps2dev/gcc/3.2.2-b1/install/i686-pc-cygwin/ee/ee/lib/libstdc++.a(pure.o)
 .debug_info    0x000000000000a87f     0x1a54 /dev/ps2dev/gcc/3.2.2-b1/install/i686-pc-cygwin/ee/ee/lib/libstdc++.a(eh_personality.o)
 .debug_info    0x000000000000c2d3     0x1147 /dev/ps2dev/gcc/3.2.2-b1/install/i686-pc-cygwin/ee/ee/lib/libstdc++.a(eh_terminate.o)
 .debug_info    0x000000000000d41a      0x571 /dev/ps2dev/gcc/3.2.2-b1/install/i686-pc-cygwin/ee/ee/lib/libstdc++.a(eh_throw.o)
 .debug_info    0x000000000000d98b     0x1137 /dev/ps2dev/gcc/3.2.2-b1/install/i686-pc-cygwin/ee/ee/lib/libstdc++.a(eh_alloc.o)
 .debug_info    0x000000000000eac2     0x1121 /dev/ps2dev/gcc/3.2.2-b1/install/i686-pc-cygwin/ee/ee/lib/libstdc++.a(eh_catch.o)
 .debug_info    0x000000000000fbe3      0x7f8 /dev/ps2dev/gcc/3.2.2-b1/install/i686-pc-cygwin/ee/ee/lib/libstdc++.a(eh_exception.o)
 .debug_info    0x00000000000103db     0x1065 /dev/ps2dev/gcc/3.2.2-b1/install/i686-pc-cygwin/ee/ee/lib/libstdc++.a(eh_globals.o)
 .debug_info    0x0000000000011440     0x2023 /dev/ps2dev/gcc/3.2.2-b1/install/i686-pc-cygwin/ee/ee/lib/libstdc++.a(tinfo.o)
 .debug_info    0x0000000000013463     0x2893 /dev/ps2dev/gcc/3.2.2-b1/install/i686-pc-cygwin/ee/bin/../lib/gcc-lib/ee/3.2.2/libgcc.a(unwind-dw2.o)
 .debug_info    0x0000000000015cf6     0x270f /dev/ps2dev/gcc/3.2.2-b1/install/i686-pc-cygwin/ee/bin/../lib/gcc-lib/ee/3.2.2/libgcc.a(unwind-dw2-fde.o)
 .debug_info    0x0000000000018405      0xbb3 /dev/ps2dev/gcc/3.2.2-b1/install/i686-pc-cygwin/ee/bin/../lib/gcc-lib/ee/3.2.2/libgcc.a(_divdi3.o)
 .debug_info    0x0000000000018fb8      0xbb6 /dev/ps2dev/gcc/3.2.2-b1/install/i686-pc-cygwin/ee/bin/../lib/gcc-lib/ee/3.2.2/libgcc.a(_moddi3.o)

.debug_line     0x0000000000000000     0x8448
 .debug_line    0x0000000000000000      0x153 /dev/ps2dev/gcc/3.2.2-b1/install/i686-pc-cygwin/ee/bin/../lib/gcc-lib/ee/3.2.2/libgcc.a(_muldi3.o)
 .debug_line    0x0000000000000153      0x3cb /dev/ps2dev/gcc/3.2.2-b1/install/i686-pc-cygwin/ee/bin/../lib/gcc-lib/ee/3.2.2/libgcc.a(_udivdi3.o)
 .debug_line    0x000000000000051e      0x3db /dev/ps2dev/gcc/3.2.2-b1/install/i686-pc-cygwin/ee/bin/../lib/gcc-lib/ee/3.2.2/libgcc.a(_umoddi3.o)
 .debug_line    0x00000000000008f9       0xd4 /dev/ps2dev/gcc/3.2.2-b1/install/i686-pc-cygwin/ee/bin/../lib/gcc-lib/ee/3.2.2/libgcc.a(_sf_to_df.o)
 .debug_line    0x00000000000009cd      0x3ad /dev/ps2dev/gcc/3.2.2-b1/install/i686-pc-cygwin/ee/bin/../lib/gcc-lib/ee/3.2.2/libgcc.a(_addsub_df.o)
 .debug_line    0x0000000000000d7a      0x42d /dev/ps2dev/gcc/3.2.2-b1/install/i686-pc-cygwin/ee/bin/../lib/gcc-lib/ee/3.2.2/libgcc.a(_mul_df.o)
 .debug_line    0x00000000000011a7      0x2b5 /dev/ps2dev/gcc/3.2.2-b1/install/i686-pc-cygwin/ee/bin/../lib/gcc-lib/ee/3.2.2/libgcc.a(_div_df.o)
 .debug_line    0x000000000000145c       0xec /dev/ps2dev/gcc/3.2.2-b1/install/i686-pc-cygwin/ee/bin/../lib/gcc-lib/ee/3.2.2/libgcc.a(_compare_df.o)
 .debug_line    0x0000000000001548      0x136 /dev/ps2dev/gcc/3.2.2-b1/install/i686-pc-cygwin/ee/bin/../lib/gcc-lib/ee/3.2.2/libgcc.a(_si_to_df.o)
 .debug_line    0x000000000000167e      0x15c /dev/ps2dev/gcc/3.2.2-b1/install/i686-pc-cygwin/ee/bin/../lib/gcc-lib/ee/3.2.2/libgcc.a(_df_to_si.o)
 .debug_line    0x00000000000017da       0xe4 /dev/ps2dev/gcc/3.2.2-b1/install/i686-pc-cygwin/ee/bin/../lib/gcc-lib/ee/3.2.2/libgcc.a(_make_df.o)
 .debug_line    0x00000000000018be      0x114 /dev/ps2dev/gcc/3.2.2-b1/install/i686-pc-cygwin/ee/bin/../lib/gcc-lib/ee/3.2.2/libgcc.a(_df_to_sf.o)
 .debug_line    0x00000000000019d2       0xa9 /dev/ps2dev/gcc/3.2.2-b1/install/i686-pc-cygwin/ee/bin/../lib/gcc-lib/ee/3.2.2/libgcc.a(_thenan_df.o)
 .debug_line    0x0000000000001a7b      0x100 /dev/ps2dev/gcc/3.2.2-b1/install/i686-pc-cygwin/ee/bin/../lib/gcc-lib/ee/3.2.2/libgcc.a(_clz.o)
 .debug_line    0x0000000000001b7b      0x1cc /dev/ps2dev/gcc/3.2.2-b1/install/i686-pc-cygwin/ee/bin/../lib/gcc-lib/ee/3.2.2/libgcc.a(_unpack_sf.o)
 .debug_line    0x0000000000001d47       0xe4 /dev/ps2dev/gcc/3.2.2-b1/install/i686-pc-cygwin/ee/bin/../lib/gcc-lib/ee/3.2.2/libgcc.a(_make_sf.o)
 .debug_line    0x0000000000001e2b      0x258 /dev/ps2dev/gcc/3.2.2-b1/install/i686-pc-cygwin/ee/bin/../lib/gcc-lib/ee/3.2.2/libgcc.a(_pack_df.o)
 .debug_line    0x0000000000002083      0x1c4 /dev/ps2dev/gcc/3.2.2-b1/install/i686-pc-cygwin/ee/bin/../lib/gcc-lib/ee/3.2.2/libgcc.a(_unpack_df.o)
 .debug_line    0x0000000000002247      0x1d6 /dev/ps2dev/gcc/3.2.2-b1/install/i686-pc-cygwin/ee/bin/../lib/gcc-lib/ee/3.2.2/libgcc.a(_fpcmp_parts_df.o)
 .debug_line    0x000000000000241d      0x278 /dev/ps2dev/gcc/3.2.2-b1/install/i686-pc-cygwin/ee/bin/../lib/gcc-lib/ee/3.2.2/libgcc.a(_pack_sf.o)
 .debug_line    0x0000000000002695      0x1d0 /dev/ps2dev/gcc/3.2.2-b1/install/i686-pc-cygwin/ee/ee/lib/libstdc++.a(pure.o)
 .debug_line    0x0000000000002865      0x9ff /dev/ps2dev/gcc/3.2.2-b1/install/i686-pc-cygwin/ee/ee/lib/libstdc++.a(eh_personality.o)
 .debug_line    0x0000000000003264      0x295 /dev/ps2dev/gcc/3.2.2-b1/install/i686-pc-cygwin/ee/ee/lib/libstdc++.a(eh_terminate.o)
 .debug_line    0x00000000000034f9      0x29d /dev/ps2dev/gcc/3.2.2-b1/install/i686-pc-cygwin/ee/ee/lib/libstdc++.a(eh_throw.o)
 .debug_line    0x0000000000003796      0x359 /dev/ps2dev/gcc/3.2.2-b1/install/i686-pc-cygwin/ee/ee/lib/libstdc++.a(eh_alloc.o)
 .debug_line    0x0000000000003aef      0x304 /dev/ps2dev/gcc/3.2.2-b1/install/i686-pc-cygwin/ee/ee/lib/libstdc++.a(eh_catch.o)
 .debug_line    0x0000000000003df3      0x19c /dev/ps2dev/gcc/3.2.2-b1/install/i686-pc-cygwin/ee/ee/lib/libstdc++.a(eh_exception.o)
 .debug_line    0x0000000000003f8f      0x249 /dev/ps2dev/gcc/3.2.2-b1/install/i686-pc-cygwin/ee/ee/lib/libstdc++.a(eh_globals.o)
 .debug_line    0x00000000000041d8      0xc52 /dev/ps2dev/gcc/3.2.2-b1/install/i686-pc-cygwin/ee/ee/lib/libstdc++.a(tinfo.o)
 .debug_line    0x0000000000004e2a     0x1905 /dev/ps2dev/gcc/3.2.2-b1/install/i686-pc-cygwin/ee/bin/../lib/gcc-lib/ee/3.2.2/libgcc.a(unwind-dw2.o)
 .debug_line    0x000000000000672f     0x1377 /dev/ps2dev/gcc/3.2.2-b1/install/i686-pc-cygwin/ee/bin/../lib/gcc-lib/ee/3.2.2/libgcc.a(unwind-dw2-fde.o)
 .debug_line    0x0000000000007aa6      0x4d0 /dev/ps2dev/gcc/3.2.2-b1/install/i686-pc-cygwin/ee/bin/../lib/gcc-lib/ee/3.2.2/libgcc.a(_divdi3.o)
 .debug_line    0x0000000000007f76      0x4d2 /dev/ps2dev/gcc/3.2.2-b1/install/i686-pc-cygwin/ee/bin/../lib/gcc-lib/ee/3.2.2/libgcc.a(_moddi3.o)

.debug_frame    0x0000000000000000     0x1898
 .debug_frame   0x0000000000000000       0x20 /dev/ps2dev/gcc/3.2.2-b1/install/i686-pc-cygwin/ee/bin/../lib/gcc-lib/ee/3.2.2/libgcc.a(_muldi3.o)
 .debug_frame   0x0000000000000020       0x50 /dev/ps2dev/gcc/3.2.2-b1/install/i686-pc-cygwin/ee/bin/../lib/gcc-lib/ee/3.2.2/libgcc.a(_udivdi3.o)
 .debug_frame   0x0000000000000070       0x50 /dev/ps2dev/gcc/3.2.2-b1/install/i686-pc-cygwin/ee/bin/../lib/gcc-lib/ee/3.2.2/libgcc.a(_umoddi3.o)
 .debug_frame   0x00000000000000c0       0x30 /dev/ps2dev/gcc/3.2.2-b1/install/i686-pc-cygwin/ee/bin/../lib/gcc-lib/ee/3.2.2/libgcc.a(_sf_to_df.o)
 .debug_frame   0x00000000000000f0       0x68 /dev/ps2dev/gcc/3.2.2-b1/install/i686-pc-cygwin/ee/bin/../lib/gcc-lib/ee/3.2.2/libgcc.a(_addsub_df.o)
 .debug_frame   0x0000000000000158       0x44 /dev/ps2dev/gcc/3.2.2-b1/install/i686-pc-cygwin/ee/bin/../lib/gcc-lib/ee/3.2.2/libgcc.a(_mul_df.o)
 .debug_frame   0x000000000000019c       0x44 /dev/ps2dev/gcc/3.2.2-b1/install/i686-pc-cygwin/ee/bin/../lib/gcc-lib/ee/3.2.2/libgcc.a(_div_df.o)
 .debug_frame   0x00000000000001e0       0x34 /dev/ps2dev/gcc/3.2.2-b1/install/i686-pc-cygwin/ee/bin/../lib/gcc-lib/ee/3.2.2/libgcc.a(_compare_df.o)
 .debug_frame   0x0000000000000214       0x30 /dev/ps2dev/gcc/3.2.2-b1/install/i686-pc-cygwin/ee/bin/../lib/gcc-lib/ee/3.2.2/libgcc.a(_si_to_df.o)
 .debug_frame   0x0000000000000244       0x30 /dev/ps2dev/gcc/3.2.2-b1/install/i686-pc-cygwin/ee/bin/../lib/gcc-lib/ee/3.2.2/libgcc.a(_df_to_si.o)
 .debug_frame   0x0000000000000274       0x30 /dev/ps2dev/gcc/3.2.2-b1/install/i686-pc-cygwin/ee/bin/../lib/gcc-lib/ee/3.2.2/libgcc.a(_make_df.o)
 .debug_frame   0x00000000000002a4       0x30 /dev/ps2dev/gcc/3.2.2-b1/install/i686-pc-cygwin/ee/bin/../lib/gcc-lib/ee/3.2.2/libgcc.a(_df_to_sf.o)
 .debug_frame   0x00000000000002d4       0x10 /dev/ps2dev/gcc/3.2.2-b1/install/i686-pc-cygwin/ee/bin/../lib/gcc-lib/ee/3.2.2/libgcc.a(_thenan_df.o)
 .debug_frame   0x00000000000002e4       0x10 /dev/ps2dev/gcc/3.2.2-b1/install/i686-pc-cygwin/ee/bin/../lib/gcc-lib/ee/3.2.2/libgcc.a(_clz.o)
 .debug_frame   0x00000000000002f4       0x20 /dev/ps2dev/gcc/3.2.2-b1/install/i686-pc-cygwin/ee/bin/../lib/gcc-lib/ee/3.2.2/libgcc.a(_unpack_sf.o)
 .debug_frame   0x0000000000000314       0x30 /dev/ps2dev/gcc/3.2.2-b1/install/i686-pc-cygwin/ee/bin/../lib/gcc-lib/ee/3.2.2/libgcc.a(_make_sf.o)
 .debug_frame   0x0000000000000344       0x20 /dev/ps2dev/gcc/3.2.2-b1/install/i686-pc-cygwin/ee/bin/../lib/gcc-lib/ee/3.2.2/libgcc.a(_pack_df.o)
 .debug_frame   0x0000000000000364       0x20 /dev/ps2dev/gcc/3.2.2-b1/install/i686-pc-cygwin/ee/bin/../lib/gcc-lib/ee/3.2.2/libgcc.a(_unpack_df.o)
 .debug_frame   0x0000000000000384       0x20 /dev/ps2dev/gcc/3.2.2-b1/install/i686-pc-cygwin/ee/bin/../lib/gcc-lib/ee/3.2.2/libgcc.a(_fpcmp_parts_df.o)
 .debug_frame   0x00000000000003a4       0x20 /dev/ps2dev/gcc/3.2.2-b1/install/i686-pc-cygwin/ee/bin/../lib/gcc-lib/ee/3.2.2/libgcc.a(_pack_sf.o)
 .debug_frame   0x00000000000003c4       0x30 /dev/ps2dev/gcc/3.2.2-b1/install/i686-pc-cygwin/ee/ee/lib/libstdc++.a(pure.o)
 .debug_frame   0x00000000000003f4      0x210 /dev/ps2dev/gcc/3.2.2-b1/install/i686-pc-cygwin/ee/ee/lib/libstdc++.a(eh_personality.o)
 .debug_frame   0x0000000000000604       0xb0 /dev/ps2dev/gcc/3.2.2-b1/install/i686-pc-cygwin/ee/ee/lib/libstdc++.a(eh_terminate.o)
 .debug_frame   0x00000000000006b4       0x84 /dev/ps2dev/gcc/3.2.2-b1/install/i686-pc-cygwin/ee/ee/lib/libstdc++.a(eh_throw.o)
 .debug_frame   0x0000000000000738       0x5c /dev/ps2dev/gcc/3.2.2-b1/install/i686-pc-cygwin/ee/ee/lib/libstdc++.a(eh_alloc.o)
 .debug_frame   0x0000000000000794       0x7c /dev/ps2dev/gcc/3.2.2-b1/install/i686-pc-cygwin/ee/ee/lib/libstdc++.a(eh_catch.o)
 .debug_frame   0x0000000000000810       0xc4 /dev/ps2dev/gcc/3.2.2-b1/install/i686-pc-cygwin/ee/ee/lib/libstdc++.a(eh_exception.o)
 .debug_frame   0x00000000000008d4       0x30 /dev/ps2dev/gcc/3.2.2-b1/install/i686-pc-cygwin/ee/ee/lib/libstdc++.a(eh_globals.o)
 .debug_frame   0x0000000000000904      0x498 /dev/ps2dev/gcc/3.2.2-b1/install/i686-pc-cygwin/ee/ee/lib/libstdc++.a(tinfo.o)
 .debug_frame   0x0000000000000d9c      0x5a0 /dev/ps2dev/gcc/3.2.2-b1/install/i686-pc-cygwin/ee/bin/../lib/gcc-lib/ee/3.2.2/libgcc.a(unwind-dw2.o)
 .debug_frame   0x000000000000133c      0x4ac /dev/ps2dev/gcc/3.2.2-b1/install/i686-pc-cygwin/ee/bin/../lib/gcc-lib/ee/3.2.2/libgcc.a(unwind-dw2-fde.o)
 .debug_frame   0x00000000000017e8       0x58 /dev/ps2dev/gcc/3.2.2-b1/install/i686-pc-cygwin/ee/bin/../lib/gcc-lib/ee/3.2.2/libgcc.a(_divdi3.o)
 .debug_frame   0x0000000000001840       0x58 /dev/ps2dev/gcc/3.2.2-b1/install/i686-pc-cygwin/ee/bin/../lib/gcc-lib/ee/3.2.2/libgcc.a(_moddi3.o)

.debug_pubnames
                0x0000000000000000     0x103b
 .debug_pubnames
                0x0000000000000000       0x1f /dev/ps2dev/gcc/3.2.2-b1/install/i686-pc-cygwin/ee/bin/../lib/gcc-lib/ee/3.2.2/libgcc.a(_muldi3.o)
 .debug_pubnames
                0x000000000000001f       0x20 /dev/ps2dev/gcc/3.2.2-b1/install/i686-pc-cygwin/ee/bin/../lib/gcc-lib/ee/3.2.2/libgcc.a(_udivdi3.o)
 .debug_pubnames
                0x000000000000003f       0x20 /dev/ps2dev/gcc/3.2.2-b1/install/i686-pc-cygwin/ee/bin/../lib/gcc-lib/ee/3.2.2/libgcc.a(_umoddi3.o)
 .debug_pubnames
                0x000000000000005f       0x1d /dev/ps2dev/gcc/3.2.2-b1/install/i686-pc-cygwin/ee/bin/../lib/gcc-lib/ee/3.2.2/libgcc.a(_sf_to_df.o)
 .debug_pubnames
                0x000000000000007c       0x26 /dev/ps2dev/gcc/3.2.2-b1/install/i686-pc-cygwin/ee/bin/../lib/gcc-lib/ee/3.2.2/libgcc.a(_addsub_df.o)
 .debug_pubnames
                0x00000000000000a2       0x1c /dev/ps2dev/gcc/3.2.2-b1/install/i686-pc-cygwin/ee/bin/../lib/gcc-lib/ee/3.2.2/libgcc.a(_mul_df.o)
 .debug_pubnames
                0x00000000000000be       0x1c /dev/ps2dev/gcc/3.2.2-b1/install/i686-pc-cygwin/ee/bin/../lib/gcc-lib/ee/3.2.2/libgcc.a(_div_df.o)
 .debug_pubnames
                0x00000000000000da       0x1c /dev/ps2dev/gcc/3.2.2-b1/install/i686-pc-cygwin/ee/bin/../lib/gcc-lib/ee/3.2.2/libgcc.a(_compare_df.o)
 .debug_pubnames
                0x00000000000000f6       0x1d /dev/ps2dev/gcc/3.2.2-b1/install/i686-pc-cygwin/ee/bin/../lib/gcc-lib/ee/3.2.2/libgcc.a(_si_to_df.o)
 .debug_pubnames
                0x0000000000000113       0x1d /dev/ps2dev/gcc/3.2.2-b1/install/i686-pc-cygwin/ee/bin/../lib/gcc-lib/ee/3.2.2/libgcc.a(_df_to_si.o)
 .debug_pubnames
                0x0000000000000130       0x20 /dev/ps2dev/gcc/3.2.2-b1/install/i686-pc-cygwin/ee/bin/../lib/gcc-lib/ee/3.2.2/libgcc.a(_make_df.o)
 .debug_pubnames
                0x0000000000000150       0x1d /dev/ps2dev/gcc/3.2.2-b1/install/i686-pc-cygwin/ee/bin/../lib/gcc-lib/ee/3.2.2/libgcc.a(_df_to_sf.o)
 .debug_pubnames
                0x000000000000016d       0x22 /dev/ps2dev/gcc/3.2.2-b1/install/i686-pc-cygwin/ee/bin/../lib/gcc-lib/ee/3.2.2/libgcc.a(_thenan_df.o)
 .debug_pubnames
                0x000000000000018f       0x20 /dev/ps2dev/gcc/3.2.2-b1/install/i686-pc-cygwin/ee/bin/../lib/gcc-lib/ee/3.2.2/libgcc.a(_clz.o)
 .debug_pubnames
                0x00000000000001af       0x21 /dev/ps2dev/gcc/3.2.2-b1/install/i686-pc-cygwin/ee/bin/../lib/gcc-lib/ee/3.2.2/libgcc.a(_unpack_sf.o)
 .debug_pubnames
                0x00000000000001d0       0x20 /dev/ps2dev/gcc/3.2.2-b1/install/i686-pc-cygwin/ee/bin/../lib/gcc-lib/ee/3.2.2/libgcc.a(_make_sf.o)
 .debug_pubnames
                0x00000000000001f0       0x1f /dev/ps2dev/gcc/3.2.2-b1/install/i686-pc-cygwin/ee/bin/../lib/gcc-lib/ee/3.2.2/libgcc.a(_pack_df.o)
 .debug_pubnames
                0x000000000000020f       0x21 /dev/ps2dev/gcc/3.2.2-b1/install/i686-pc-cygwin/ee/bin/../lib/gcc-lib/ee/3.2.2/libgcc.a(_unpack_df.o)
 .debug_pubnames
                0x0000000000000230       0x26 /dev/ps2dev/gcc/3.2.2-b1/install/i686-pc-cygwin/ee/bin/../lib/gcc-lib/ee/3.2.2/libgcc.a(_fpcmp_parts_df.o)
 .debug_pubnames
                0x0000000000000256       0x1f /dev/ps2dev/gcc/3.2.2-b1/install/i686-pc-cygwin/ee/bin/../lib/gcc-lib/ee/3.2.2/libgcc.a(_pack_sf.o)
 .debug_pubnames
                0x0000000000000275       0x29 /dev/ps2dev/gcc/3.2.2-b1/install/i686-pc-cygwin/ee/ee/lib/libstdc++.a(pure.o)
 .debug_pubnames
                0x000000000000029e       0x45 /dev/ps2dev/gcc/3.2.2-b1/install/i686-pc-cygwin/ee/ee/lib/libstdc++.a(eh_personality.o)
 .debug_pubnames
                0x00000000000002e3       0xa6 /dev/ps2dev/gcc/3.2.2-b1/install/i686-pc-cygwin/ee/ee/lib/libstdc++.a(eh_terminate.o)
 .debug_pubnames
                0x0000000000000389       0x34 /dev/ps2dev/gcc/3.2.2-b1/install/i686-pc-cygwin/ee/ee/lib/libstdc++.a(eh_throw.o)
 .debug_pubnames
                0x00000000000003bd       0x48 /dev/ps2dev/gcc/3.2.2-b1/install/i686-pc-cygwin/ee/ee/lib/libstdc++.a(eh_alloc.o)
 .debug_pubnames
                0x0000000000000405       0x53 /dev/ps2dev/gcc/3.2.2-b1/install/i686-pc-cygwin/ee/ee/lib/libstdc++.a(eh_catch.o)
 .debug_pubnames
                0x0000000000000458      0x15b /dev/ps2dev/gcc/3.2.2-b1/install/i686-pc-cygwin/ee/ee/lib/libstdc++.a(eh_exception.o)
 .debug_pubnames
                0x00000000000005b3       0x43 /dev/ps2dev/gcc/3.2.2-b1/install/i686-pc-cygwin/ee/ee/lib/libstdc++.a(eh_globals.o)
 .debug_pubnames
                0x00000000000005f6      0x793 /dev/ps2dev/gcc/3.2.2-b1/install/i686-pc-cygwin/ee/ee/lib/libstdc++.a(tinfo.o)
 .debug_pubnames
                0x0000000000000d89      0x148 /dev/ps2dev/gcc/3.2.2-b1/install/i686-pc-cygwin/ee/bin/../lib/gcc-lib/ee/3.2.2/libgcc.a(unwind-dw2.o)
 .debug_pubnames
                0x0000000000000ed1      0x12c /dev/ps2dev/gcc/3.2.2-b1/install/i686-pc-cygwin/ee/bin/../lib/gcc-lib/ee/3.2.2/libgcc.a(unwind-dw2-fde.o)
 .debug_pubnames
                0x0000000000000ffd       0x1f /dev/ps2dev/gcc/3.2.2-b1/install/i686-pc-cygwin/ee/bin/../lib/gcc-lib/ee/3.2.2/libgcc.a(_divdi3.o)
 .debug_pubnames
                0x000000000000101c       0x1f /dev/ps2dev/gcc/3.2.2-b1/install/i686-pc-cygwin/ee/bin/../lib/gcc-lib/ee/3.2.2/libgcc.a(_moddi3.o)

.debug_aranges  0x0000000000000000      0x3e0
 .debug_aranges
                0x0000000000000000       0x20 /dev/ps2dev/gcc/3.2.2-b1/install/i686-pc-cygwin/ee/bin/../lib/gcc-lib/ee/3.2.2/libgcc.a(_muldi3.o)
 .debug_aranges
                0x0000000000000020       0x20 /dev/ps2dev/gcc/3.2.2-b1/install/i686-pc-cygwin/ee/bin/../lib/gcc-lib/ee/3.2.2/libgcc.a(_udivdi3.o)
 .debug_aranges
                0x0000000000000040       0x20 /dev/ps2dev/gcc/3.2.2-b1/install/i686-pc-cygwin/ee/bin/../lib/gcc-lib/ee/3.2.2/libgcc.a(_umoddi3.o)
 .debug_aranges
                0x0000000000000060       0x20 /dev/ps2dev/gcc/3.2.2-b1/install/i686-pc-cygwin/ee/bin/../lib/gcc-lib/ee/3.2.2/libgcc.a(_sf_to_df.o)
 .debug_aranges
                0x0000000000000080       0x20 /dev/ps2dev/gcc/3.2.2-b1/install/i686-pc-cygwin/ee/bin/../lib/gcc-lib/ee/3.2.2/libgcc.a(_addsub_df.o)
 .debug_aranges
                0x00000000000000a0       0x20 /dev/ps2dev/gcc/3.2.2-b1/install/i686-pc-cygwin/ee/bin/../lib/gcc-lib/ee/3.2.2/libgcc.a(_mul_df.o)
 .debug_aranges
                0x00000000000000c0       0x20 /dev/ps2dev/gcc/3.2.2-b1/install/i686-pc-cygwin/ee/bin/../lib/gcc-lib/ee/3.2.2/libgcc.a(_div_df.o)
 .debug_aranges
                0x00000000000000e0       0x20 /dev/ps2dev/gcc/3.2.2-b1/install/i686-pc-cygwin/ee/bin/../lib/gcc-lib/ee/3.2.2/libgcc.a(_compare_df.o)
 .debug_aranges
                0x0000000000000100       0x20 /dev/ps2dev/gcc/3.2.2-b1/install/i686-pc-cygwin/ee/bin/../lib/gcc-lib/ee/3.2.2/libgcc.a(_si_to_df.o)
 .debug_aranges
                0x0000000000000120       0x20 /dev/ps2dev/gcc/3.2.2-b1/install/i686-pc-cygwin/ee/bin/../lib/gcc-lib/ee/3.2.2/libgcc.a(_df_to_si.o)
 .debug_aranges
                0x0000000000000140       0x20 /dev/ps2dev/gcc/3.2.2-b1/install/i686-pc-cygwin/ee/bin/../lib/gcc-lib/ee/3.2.2/libgcc.a(_make_df.o)
 .debug_aranges
                0x0000000000000160       0x20 /dev/ps2dev/gcc/3.2.2-b1/install/i686-pc-cygwin/ee/bin/../lib/gcc-lib/ee/3.2.2/libgcc.a(_df_to_sf.o)
 .debug_aranges
                0x0000000000000180       0x20 /dev/ps2dev/gcc/3.2.2-b1/install/i686-pc-cygwin/ee/bin/../lib/gcc-lib/ee/3.2.2/libgcc.a(_unpack_sf.o)
 .debug_aranges
                0x00000000000001a0       0x20 /dev/ps2dev/gcc/3.2.2-b1/install/i686-pc-cygwin/ee/bin/../lib/gcc-lib/ee/3.2.2/libgcc.a(_make_sf.o)
 .debug_aranges
                0x00000000000001c0       0x20 /dev/ps2dev/gcc/3.2.2-b1/install/i686-pc-cygwin/ee/bin/../lib/gcc-lib/ee/3.2.2/libgcc.a(_pack_df.o)
 .debug_aranges
                0x00000000000001e0       0x20 /dev/ps2dev/gcc/3.2.2-b1/install/i686-pc-cygwin/ee/bin/../lib/gcc-lib/ee/3.2.2/libgcc.a(_unpack_df.o)
 .debug_aranges
                0x0000000000000200       0x20 /dev/ps2dev/gcc/3.2.2-b1/install/i686-pc-cygwin/ee/bin/../lib/gcc-lib/ee/3.2.2/libgcc.a(_fpcmp_parts_df.o)
 .debug_aranges
                0x0000000000000220       0x20 /dev/ps2dev/gcc/3.2.2-b1/install/i686-pc-cygwin/ee/bin/../lib/gcc-lib/ee/3.2.2/libgcc.a(_pack_sf.o)
 .debug_aranges
                0x0000000000000240       0x20 /dev/ps2dev/gcc/3.2.2-b1/install/i686-pc-cygwin/ee/ee/lib/libstdc++.a(pure.o)
 .debug_aranges
                0x0000000000000260       0x20 /dev/ps2dev/gcc/3.2.2-b1/install/i686-pc-cygwin/ee/ee/lib/libstdc++.a(eh_personality.o)
 .debug_aranges
                0x0000000000000280       0x20 /dev/ps2dev/gcc/3.2.2-b1/install/i686-pc-cygwin/ee/ee/lib/libstdc++.a(eh_terminate.o)
 .debug_aranges
                0x00000000000002a0       0x20 /dev/ps2dev/gcc/3.2.2-b1/install/i686-pc-cygwin/ee/ee/lib/libstdc++.a(eh_throw.o)
 .debug_aranges
                0x00000000000002c0       0x20 /dev/ps2dev/gcc/3.2.2-b1/install/i686-pc-cygwin/ee/ee/lib/libstdc++.a(eh_alloc.o)
 .debug_aranges
                0x00000000000002e0       0x20 /dev/ps2dev/gcc/3.2.2-b1/install/i686-pc-cygwin/ee/ee/lib/libstdc++.a(eh_catch.o)
 .debug_aranges
                0x0000000000000300       0x20 /dev/ps2dev/gcc/3.2.2-b1/install/i686-pc-cygwin/ee/ee/lib/libstdc++.a(eh_exception.o)
 .debug_aranges
                0x0000000000000320       0x20 /dev/ps2dev/gcc/3.2.2-b1/install/i686-pc-cygwin/ee/ee/lib/libstdc++.a(eh_globals.o)
 .debug_aranges
                0x0000000000000340       0x20 /dev/ps2dev/gcc/3.2.2-b1/install/i686-pc-cygwin/ee/ee/lib/libstdc++.a(tinfo.o)
 .debug_aranges
                0x0000000000000360       0x20 /dev/ps2dev/gcc/3.2.2-b1/install/i686-pc-cygwin/ee/bin/../lib/gcc-lib/ee/3.2.2/libgcc.a(unwind-dw2.o)
 .debug_aranges
                0x0000000000000380       0x20 /dev/ps2dev/gcc/3.2.2-b1/install/i686-pc-cygwin/ee/bin/../lib/gcc-lib/ee/3.2.2/libgcc.a(unwind-dw2-fde.o)
 .debug_aranges
                0x00000000000003a0       0x20 /dev/ps2dev/gcc/3.2.2-b1/install/i686-pc-cygwin/ee/bin/../lib/gcc-lib/ee/3.2.2/libgcc.a(_divdi3.o)
 .debug_aranges
                0x00000000000003c0       0x20 /dev/ps2dev/gcc/3.2.2-b1/install/i686-pc-cygwin/ee/bin/../lib/gcc-lib/ee/3.2.2/libgcc.a(_moddi3.o)

.debug_ranges   0x0000000000000000      0x878
 .debug_ranges  0x0000000000000000       0x28 /dev/ps2dev/gcc/3.2.2-b1/install/i686-pc-cygwin/ee/bin/../lib/gcc-lib/ee/3.2.2/libgcc.a(_muldi3.o)
 .debug_ranges  0x0000000000000028      0x100 /dev/ps2dev/gcc/3.2.2-b1/install/i686-pc-cygwin/ee/bin/../lib/gcc-lib/ee/3.2.2/libgcc.a(_udivdi3.o)
 .debug_ranges  0x0000000000000128      0x100 /dev/ps2dev/gcc/3.2.2-b1/install/i686-pc-cygwin/ee/bin/../lib/gcc-lib/ee/3.2.2/libgcc.a(_umoddi3.o)
 .debug_ranges  0x0000000000000228       0x18 /dev/ps2dev/gcc/3.2.2-b1/install/i686-pc-cygwin/ee/bin/../lib/gcc-lib/ee/3.2.2/libgcc.a(_addsub_df.o)
 .debug_ranges  0x0000000000000240       0xa0 /dev/ps2dev/gcc/3.2.2-b1/install/i686-pc-cygwin/ee/bin/../lib/gcc-lib/ee/3.2.2/libgcc.a(_mul_df.o)
 .debug_ranges  0x00000000000002e0       0x18 /dev/ps2dev/gcc/3.2.2-b1/install/i686-pc-cygwin/ee/bin/../lib/gcc-lib/ee/3.2.2/libgcc.a(_pack_df.o)
 .debug_ranges  0x00000000000002f8       0x18 /dev/ps2dev/gcc/3.2.2-b1/install/i686-pc-cygwin/ee/bin/../lib/gcc-lib/ee/3.2.2/libgcc.a(_pack_sf.o)
 .debug_ranges  0x0000000000000310       0x20 /dev/ps2dev/gcc/3.2.2-b1/install/i686-pc-cygwin/ee/ee/lib/libstdc++.a(eh_personality.o)
 .debug_ranges  0x0000000000000330       0x18 /dev/ps2dev/gcc/3.2.2-b1/install/i686-pc-cygwin/ee/ee/lib/libstdc++.a(eh_alloc.o)
 .debug_ranges  0x0000000000000348       0xd0 /dev/ps2dev/gcc/3.2.2-b1/install/i686-pc-cygwin/ee/ee/lib/libstdc++.a(tinfo.o)
 .debug_ranges  0x0000000000000418       0xf0 /dev/ps2dev/gcc/3.2.2-b1/install/i686-pc-cygwin/ee/bin/../lib/gcc-lib/ee/3.2.2/libgcc.a(unwind-dw2.o)
 .debug_ranges  0x0000000000000508      0x170 /dev/ps2dev/gcc/3.2.2-b1/install/i686-pc-cygwin/ee/bin/../lib/gcc-lib/ee/3.2.2/libgcc.a(unwind-dw2-fde.o)
 .debug_ranges  0x0000000000000678      0x100 /dev/ps2dev/gcc/3.2.2-b1/install/i686-pc-cygwin/ee/bin/../lib/gcc-lib/ee/3.2.2/libgcc.a(_divdi3.o)
 .debug_ranges  0x0000000000000778      0x100 /dev/ps2dev/gcc/3.2.2-b1/install/i686-pc-cygwin/ee/bin/../lib/gcc-lib/ee/3.2.2/libgcc.a(_moddi3.o)

.debug_str      0x0000000000000000     0x5cf6
 .debug_str     0x0000000000000000      0x6bd /dev/ps2dev/gcc/3.2.2-b1/install/i686-pc-cygwin/ee/bin/../lib/gcc-lib/ee/3.2.2/libgcc.a(_muldi3.o)
                                        0x782 (size before relaxing)
 .debug_str     0x00000000000006bd       0x44 /dev/ps2dev/gcc/3.2.2-b1/install/i686-pc-cygwin/ee/bin/../lib/gcc-lib/ee/3.2.2/libgcc.a(_udivdi3.o)
                                        0x7bd (size before relaxing)
 .debug_str     0x0000000000000701        0xa /dev/ps2dev/gcc/3.2.2-b1/install/i686-pc-cygwin/ee/bin/../lib/gcc-lib/ee/3.2.2/libgcc.a(_umoddi3.o)
                                        0x7bd (size before relaxing)
 .debug_str     0x000000000000070b       0xf9 /dev/ps2dev/gcc/3.2.2-b1/install/i686-pc-cygwin/ee/bin/../lib/gcc-lib/ee/3.2.2/libgcc.a(_sf_to_df.o)
                                        0x7ef (size before relaxing)
 .debug_str     0x0000000000000804       0x86 /dev/ps2dev/gcc/3.2.2-b1/install/i686-pc-cygwin/ee/bin/../lib/gcc-lib/ee/3.2.2/libgcc.a(_addsub_df.o)
                                        0x85f (size before relaxing)
 .debug_str     0x000000000000088a       0x3d /dev/ps2dev/gcc/3.2.2-b1/install/i686-pc-cygwin/ee/bin/../lib/gcc-lib/ee/3.2.2/libgcc.a(_mul_df.o)
                                        0x849 (size before relaxing)
 .debug_str     0x00000000000008c7       0x28 /dev/ps2dev/gcc/3.2.2-b1/install/i686-pc-cygwin/ee/bin/../lib/gcc-lib/ee/3.2.2/libgcc.a(_div_df.o)
                                        0x839 (size before relaxing)
 .debug_str     0x00000000000008ef        0x6 /dev/ps2dev/gcc/3.2.2-b1/install/i686-pc-cygwin/ee/bin/../lib/gcc-lib/ee/3.2.2/libgcc.a(_compare_df.o)
                                        0x7fa (size before relaxing)
 .debug_str     0x00000000000008f5        0x7 /dev/ps2dev/gcc/3.2.2-b1/install/i686-pc-cygwin/ee/bin/../lib/gcc-lib/ee/3.2.2/libgcc.a(_si_to_df.o)
                                        0x7f5 (size before relaxing)
 .debug_str     0x00000000000008fc        0x7 /dev/ps2dev/gcc/3.2.2-b1/install/i686-pc-cygwin/ee/bin/../lib/gcc-lib/ee/3.2.2/libgcc.a(_df_to_si.o)
                                        0x808 (size before relaxing)
 .debug_str     0x0000000000000903        0xa /dev/ps2dev/gcc/3.2.2-b1/install/i686-pc-cygwin/ee/bin/../lib/gcc-lib/ee/3.2.2/libgcc.a(_make_df.o)
                                        0x7f7 (size before relaxing)
 .debug_str     0x000000000000090d        0xe /dev/ps2dev/gcc/3.2.2-b1/install/i686-pc-cygwin/ee/bin/../lib/gcc-lib/ee/3.2.2/libgcc.a(_df_to_sf.o)
                                        0x7fc (size before relaxing)
 .debug_str     0x000000000000091b      0x7e8 /dev/ps2dev/gcc/3.2.2-b1/install/i686-pc-cygwin/ee/bin/../lib/gcc-lib/ee/3.2.2/libgcc.a(_thenan_df.o)
 .debug_str     0x0000000000001103      0x783 /dev/ps2dev/gcc/3.2.2-b1/install/i686-pc-cygwin/ee/bin/../lib/gcc-lib/ee/3.2.2/libgcc.a(_clz.o)
 .debug_str     0x0000000000001886        0xb /dev/ps2dev/gcc/3.2.2-b1/install/i686-pc-cygwin/ee/bin/../lib/gcc-lib/ee/3.2.2/libgcc.a(_unpack_sf.o)
                                        0x7ed (size before relaxing)
 .debug_str     0x0000000000001891        0xa /dev/ps2dev/gcc/3.2.2-b1/install/i686-pc-cygwin/ee/bin/../lib/gcc-lib/ee/3.2.2/libgcc.a(_make_sf.o)
                                        0x7f1 (size before relaxing)
 .debug_str     0x000000000000189b        0x9 /dev/ps2dev/gcc/3.2.2-b1/install/i686-pc-cygwin/ee/bin/../lib/gcc-lib/ee/3.2.2/libgcc.a(_pack_df.o)
                                        0x80a (size before relaxing)
 .debug_str     0x00000000000018a4        0xb /dev/ps2dev/gcc/3.2.2-b1/install/i686-pc-cygwin/ee/bin/../lib/gcc-lib/ee/3.2.2/libgcc.a(_unpack_df.o)
                                        0x7f3 (size before relaxing)
 .debug_str     0x00000000000018af       0x10 /dev/ps2dev/gcc/3.2.2-b1/install/i686-pc-cygwin/ee/bin/../lib/gcc-lib/ee/3.2.2/libgcc.a(_fpcmp_parts_df.o)
                                        0x80b (size before relaxing)
 .debug_str     0x00000000000018bf        0x9 /dev/ps2dev/gcc/3.2.2-b1/install/i686-pc-cygwin/ee/bin/../lib/gcc-lib/ee/3.2.2/libgcc.a(_pack_sf.o)
                                        0x804 (size before relaxing)
 .debug_str     0x00000000000018c8      0x6d0 /dev/ps2dev/gcc/3.2.2-b1/install/i686-pc-cygwin/ee/ee/lib/libstdc++.a(pure.o)
                                        0x7ee (size before relaxing)
 .debug_str     0x0000000000001f98      0x42f /dev/ps2dev/gcc/3.2.2-b1/install/i686-pc-cygwin/ee/ee/lib/libstdc++.a(eh_personality.o)
                                        0xc05 (size before relaxing)
 .debug_str     0x00000000000023c7      0x19b /dev/ps2dev/gcc/3.2.2-b1/install/i686-pc-cygwin/ee/ee/lib/libstdc++.a(eh_terminate.o)
                                        0x944 (size before relaxing)
 .debug_str     0x0000000000002562       0xac /dev/ps2dev/gcc/3.2.2-b1/install/i686-pc-cygwin/ee/ee/lib/libstdc++.a(eh_throw.o)
                                        0x54b (size before relaxing)
 .debug_str     0x000000000000260e       0xe5 /dev/ps2dev/gcc/3.2.2-b1/install/i686-pc-cygwin/ee/ee/lib/libstdc++.a(eh_alloc.o)
                                        0x871 (size before relaxing)
 .debug_str     0x00000000000026f3       0xb3 /dev/ps2dev/gcc/3.2.2-b1/install/i686-pc-cygwin/ee/ee/lib/libstdc++.a(eh_catch.o)
                                        0x879 (size before relaxing)
 .debug_str     0x00000000000027a6      0x136 /dev/ps2dev/gcc/3.2.2-b1/install/i686-pc-cygwin/ee/ee/lib/libstdc++.a(eh_exception.o)
                                        0x5c3 (size before relaxing)
 .debug_str     0x00000000000028dc       0x89 /dev/ps2dev/gcc/3.2.2-b1/install/i686-pc-cygwin/ee/ee/lib/libstdc++.a(eh_globals.o)
                                        0x822 (size before relaxing)
 .debug_str     0x0000000000002965      0xeb8 /dev/ps2dev/gcc/3.2.2-b1/install/i686-pc-cygwin/ee/ee/lib/libstdc++.a(tinfo.o)
                                       0x104a (size before relaxing)
 .debug_str     0x000000000000381d     0x2148 /dev/ps2dev/gcc/3.2.2-b1/install/i686-pc-cygwin/ee/bin/../lib/gcc-lib/ee/3.2.2/libgcc.a(unwind-dw2.o)
                                       0x2b14 (size before relaxing)
 .debug_str     0x0000000000005965      0x376 /dev/ps2dev/gcc/3.2.2-b1/install/i686-pc-cygwin/ee/bin/../lib/gcc-lib/ee/3.2.2/libgcc.a(unwind-dw2-fde.o)
                                       0x29b3 (size before relaxing)
 .debug_str     0x0000000000005cdb       0x12 /dev/ps2dev/gcc/3.2.2-b1/install/i686-pc-cygwin/ee/bin/../lib/gcc-lib/ee/3.2.2/libgcc.a(_divdi3.o)
                                        0x7c5 (size before relaxing)
 .debug_str     0x0000000000005ced        0x9 /dev/ps2dev/gcc/3.2.2-b1/install/i686-pc-cygwin/ee/bin/../lib/gcc-lib/ee/3.2.2/libgcc.a(_moddi3.o)
                                        0x7c5 (size before relaxing)
