GAS LISTING  			page 1


   1              	.file 1 "../../Source/common/snspc_c.c"
   2              	.section .mdebug.eabi64
   3              	.previous
   4              	.text
   5              	.align 2
   6              	.p2align 3,,7
   7              	.ent _SNSPCRead8
   8              	_SNSPCRead8:
   9              	.frame $sp,16,$31
  10              	.mask 0x80000000,-16
  11              	.fmask 0x00000000,0
  12 0000 10FFA224 	addu $2,$5,-240
  13 0004 F0FFBD27 	subu $sp,$sp,16
  14 0008 1000422C 	sltu $2,$2,16
  15 000c 0000BFFF 	sd $31,0($sp)
  16              	.set noreorder
  17              	.set nomacro
  18 0010 07004014 	bne $2,$0,$L5
  19 0014 2118A400 	addu $3,$5,$4
  20              	.set macro
  21              	.set reorder
  22              	
  23 0018 20006290 	lbu $2,32($3)
  24 001c 0000BFDF 	ld $31,0($sp)
  25              	$L6:
  26 0020 FF004230 	andi $2,$2,0x00ff
  27              	.set noreorder
  28              	.set nomacro
  29 0024 0800E003 	j $31
  30 0028 1000BD27 	addu $sp,$sp,16
  31              	.set macro
  32              	.set reorder
  33              	
  34 002c 00000000 	.p2align 3
  35              	$L5:
  36 0030 1800828C 	lw $2,24($4)
  37              	
  38 0034 09F84000 	jal $31,$2
  38      00000000 
  39              	.set noreorder
  40              	.set nomacro
  41 003c F8FF0010 	b $L6
  42 0040 0000BFDF 	ld $31,0($sp)
  43              	.set macro
  44              	.set reorder
  45              	
  46              	.end _SNSPCRead8
  47              	$Lfe1:
  48              	.size _SNSPCRead8,$Lfe1-_SNSPCRead8
  49              	.align 2
  50 0044 00000000 	.p2align 3,,7
  51              	.ent _SNSPCRead16
  52              	_SNSPCRead16:
  53              	.frame $sp,64,$31
  54              	.mask 0x80070000,-16
  55              	.fmask 0x00000000,0
  56 0048 10FFA224 	addu $2,$5,-240
GAS LISTING  			page 2


  57 004c C0FFBD27 	subu $sp,$sp,64
  58 0050 1000422C 	sltu $2,$2,16
  59 0054 2000B2FF 	sd $18,32($sp)
  60 0058 0000B0FF 	sd $16,0($sp)
  61 005c 2118A400 	addu $3,$5,$4
  62 0060 3000BFFF 	sd $31,48($sp)
  63 0064 2D80A000 	move $16,$5
  64 0068 1000B1FF 	sd $17,16($sp)
  65              	.set noreorder
  66              	.set nomacro
  67 006c 1C004014 	bne $2,$0,$L14
  68 0070 2D908000 	move $18,$4
  69              	.set macro
  70              	.set reorder
  71              	
  72 0074 20006390 	lbu $3,32($3)
  73              	$L9:
  74 0078 11FF0226 	addu $2,$16,-239
  75 007c FF007130 	andi $17,$3,0x00ff
  76 0080 1000422C 	sltu $2,$2,16
  77 0084 01000326 	addu $3,$16,1
  78 0088 2D286000 	move $5,$3
  79 008c 2D204002 	move $4,$18
  80              	.set noreorder
  81              	.set nomacro
  82 0090 0D004014 	bne $2,$0,$L15
  83 0094 21187200 	addu $3,$3,$18
  84              	.set macro
  85              	.set reorder
  86              	
  87 0098 20006290 	lbu $2,32($3)
  88              	
  89 009c FF004230 	andi $2,$2,0x00ff
  90              	$L16:
  91 00a0 3000BFDF 	ld $31,48($sp)
  92 00a4 00120200 	sll $2,$2,8
  93 00a8 2000B2DF 	ld $18,32($sp)
  94 00ac 25882202 	or $17,$17,$2
  95 00b0 0000B0DF 	ld $16,0($sp)
  96 00b4 FFFF2232 	andi $2,$17,0xffff
  97 00b8 1000B1DF 	ld $17,16($sp)
  98              	
  99              	.set noreorder
 100              	.set nomacro
 101 00bc 0800E003 	j $31
 102 00c0 4000BD27 	addu $sp,$sp,64
 103              	.set macro
 104              	.set reorder
 105              	
 106 00c4 00000000 	.p2align 3
 107              	$L15:
 108 00c8 1800428E 	lw $2,24($18)
 109              	
 110 00cc 09F84000 	jal $31,$2
 110      00000000 
 111              	.set noreorder
 112              	.set nomacro
GAS LISTING  			page 3


 113 00d4 F2FF0010 	b $L16
 114 00d8 FF004230 	andi $2,$2,0x00ff
 115              	.set macro
 116              	.set reorder
 117              	
 118 00dc 00000000 	.p2align 3
 119              	$L14:
 120 00e0 1800828C 	lw $2,24($4)
 121              	
 122 00e4 09F84000 	jal $31,$2
 122      00000000 
 123              	.set noreorder
 124              	.set nomacro
 125 00ec E2FF0010 	b $L9
 126 00f0 2D184000 	move $3,$2
 127              	.set macro
 128              	.set reorder
 129              	
 130              	.end _SNSPCRead16
 131              	$Lfe2:
 132              	.size _SNSPCRead16,$Lfe2-_SNSPCRead16
 133              	.align 2
 134 00f4 00000000 	.p2align 3,,7
 135              	.ent _SNSPCWrite8
 136              	_SNSPCWrite8:
 137              	.frame $sp,16,$31
 138              	.mask 0x80000000,-16
 139              	.fmask 0x00000000,0
 140 00f8 BFFF0334 	li $3,65471
 141 00fc 2D408000 	move $8,$4
 142 0100 0100023C 	li $2,65536
 143 0104 F0FFBD27 	subu $sp,$sp,16
 144 0108 2B186500 	sltu $3,$3,$5
 145 010c 21208200 	addu $4,$4,$2
 146 0110 0000BFFF 	sd $31,0($sp)
 147 0114 2D38A000 	move $7,$5
 148 0118 2110A800 	addu $2,$5,$8
 149              	.set noreorder
 150              	.set nomacro
 151 011c 10006014 	bne $3,$0,$L18
 152 0120 FF00C630 	andi $6,$6,0x00ff
 153              	.set macro
 154              	.set reorder
 155              	
 156 0124 200046A0 	sb $6,32($2)
 157              	$L19:
 158 0128 10FFE224 	addu $2,$7,-240
 159 012c 2D200001 	move $4,$8
 160 0130 1000422C 	sltu $2,$2,16
 161              	.set noreorder
 162              	.set nomacro
 163 0134 04004014 	bne $2,$0,$L24
 164 0138 2D28E000 	move $5,$7
 165              	.set macro
 166              	.set reorder
 167              	
 168 013c 0000BFDF 	ld $31,0($sp)
GAS LISTING  			page 4


 169              	$L25:
 170              	.set noreorder
 171              	.set nomacro
 172 0140 0800E003 	j $31
 173 0144 1000BD27 	addu $sp,$sp,16
 174              	.set macro
 175              	.set reorder
 176              	
 177              	.p2align 3
 178              	$L24:
 179 0148 1C00028D 	lw $2,28($8)
 180              	
 181 014c 09F84000 	jal $31,$2
 181      00000000 
 182              	.set noreorder
 183              	.set nomacro
 184 0154 FAFF0010 	b $L25
 185 0158 0000BFDF 	ld $31,0($sp)
 186              	.set macro
 187              	.set reorder
 188              	
 189 015c 00000000 	.p2align 3
 190              	$L18:
 191 0160 3F00A230 	andi $2,$5,0x3f
 192 0164 0100033C 	li $3,65536
 193 0168 60008490 	lbu $4,96($4)
 194 016c 20006334 	ori $3,$3,0x20
 195 0170 21104800 	addu $2,$2,$8
 196 0174 2128A800 	addu $5,$5,$8
 197              	.set noreorder
 198              	.set nomacro
 199 0178 03008014 	bne $4,$0,$L20
 200 017c 21104300 	addu $2,$2,$3
 201              	.set macro
 202              	.set reorder
 203              	
 204              	.set noreorder
 205              	.set nomacro
 206 0180 E9FF0010 	b $L19
 207 0184 2000A6A0 	sb $6,32($5)
 208              	.set macro
 209              	.set reorder
 210              	
 211              	.p2align 3
 212              	$L20:
 213              	.set noreorder
 214              	.set nomacro
 215 0188 E7FF0010 	b $L19
 216 018c 000046A0 	sb $6,0($2)
 217              	.set macro
 218              	.set reorder
 219              	
 220              	.end _SNSPCWrite8
 221              	$Lfe3:
 222              	.size _SNSPCWrite8,$Lfe3-_SNSPCWrite8
 223              	.align 2
 224              	.p2align 3,,7
GAS LISTING  			page 5


 225              	.ent _SNSPCWrite16
 226              	_SNSPCWrite16:
 227              	.frame $sp,64,$31
 228              	.mask 0x80070000,-16
 229              	.fmask 0x00000000,0
 230 0190 C0FFBD27 	subu $sp,$sp,64
 231 0194 BFFF0234 	li $2,65471
 232 0198 2000B2FF 	sd $18,32($sp)
 233 019c 2B104500 	sltu $2,$2,$5
 234 01a0 FFFFD230 	andi $18,$6,0xffff
 235 01a4 1000B1FF 	sd $17,16($sp)
 236 01a8 0000B0FF 	sd $16,0($sp)
 237 01ac FF004632 	andi $6,$18,0x00ff
 238 01b0 3000BFFF 	sd $31,48($sp)
 239 01b4 2D80A000 	move $16,$5
 240              	.set noreorder
 241              	.set nomacro
 242 01b8 06004010 	beq $2,$0,$L39
 243 01bc 2D888000 	move $17,$4
 244              	.set macro
 245              	.set reorder
 246              	
 247 01c0 0100023C 	li $2,65536
 248 01c4 21108200 	addu $2,$4,$2
 249 01c8 60004390 	lbu $3,96($2)
 250              	
 251              	.set noreorder
 252              	.set nomacro
 253 01cc 2E006014 	bne $3,$0,$L29
 254 01d0 3F00A230 	andi $2,$5,0x3f
 255              	.set macro
 256              	.set reorder
 257              	
 258              	$L39:
 259 01d4 21101102 	addu $2,$16,$17
 260 01d8 200046A0 	sb $6,32($2)
 261              	$L28:
 262 01dc 10FF0226 	addu $2,$16,-240
 263 01e0 1000422C 	sltu $2,$2,16
 264              	.set noreorder
 265              	.set nomacro
 266 01e4 22004054 	bnel $2,$0,$L41
 267 01e8 1C00228E 	lw $2,28($17)
 268              	.set macro
 269              	.set reorder
 270              	
 271 01ec 01000526 	addu $5,$16,1
 272              	$L44:
 273 01f0 BFFF0234 	li $2,65471
 274 01f4 2B104500 	sltu $2,$2,$5
 275              	.set noreorder
 276              	.set nomacro
 277 01f8 06004010 	beq $2,$0,$L40
 278 01fc 02321200 	srl $6,$18,8
 279              	.set macro
 280              	.set reorder
 281              	
GAS LISTING  			page 6


 282 0200 0100023C 	li $2,65536
 283 0204 21102202 	addu $2,$17,$2
 284 0208 60004390 	lbu $3,96($2)
 285              	
 286              	.set noreorder
 287              	.set nomacro
 288 020c 12006014 	bne $3,$0,$L35
 289 0210 3F00A230 	andi $2,$5,0x3f
 290              	.set macro
 291              	.set reorder
 292              	
 293              	$L40:
 294 0214 2110B100 	addu $2,$5,$17
 295 0218 200046A0 	sb $6,32($2)
 296              	$L34:
 297 021c 10FFA224 	addu $2,$5,-240
 298 0220 1000422C 	sltu $2,$2,16
 299              	.set noreorder
 300              	.set nomacro
 301 0224 08004054 	bnel $2,$0,$L42
 302 0228 1C00228E 	lw $2,28($17)
 303              	.set macro
 304              	.set reorder
 305              	
 306 022c 3000BFDF 	ld $31,48($sp)
 307              	$L43:
 308 0230 2000B2DF 	ld $18,32($sp)
 309 0234 1000B1DF 	ld $17,16($sp)
 310 0238 0000B0DF 	ld $16,0($sp)
 311              	
 312              	.set noreorder
 313              	.set nomacro
 314 023c 0800E003 	j $31
 315 0240 4000BD27 	addu $sp,$sp,64
 316              	.set macro
 317              	.set reorder
 318              	
 319 0244 00000000 	.p2align 3
 320              	$L42:
 321              	.set noreorder
 322              	.set nomacro
 323 0248 09F84000 	jal $31,$2
 324 024c 2D202002 	move $4,$17
 325              	.set macro
 326              	.set reorder
 327              	
 328              	.set noreorder
 329              	.set nomacro
 330 0250 F7FF0010 	b $L43
 331 0254 3000BFDF 	ld $31,48($sp)
 332              	.set macro
 333              	.set reorder
 334              	
 335              	.p2align 3
 336              	$L35:
 337 0258 0100033C 	li $3,65536
 338 025c 21105100 	addu $2,$2,$17
GAS LISTING  			page 7


 339 0260 20006334 	ori $3,$3,0x20
 340 0264 21104300 	addu $2,$2,$3
 341              	.set noreorder
 342              	.set nomacro
 343 0268 ECFF0010 	b $L34
 344 026c 000046A0 	sb $6,0($2)
 345              	.set macro
 346              	.set reorder
 347              	
 348              	.p2align 3
 349              	$L41:
 350 0270 2D202002 	move $4,$17
 351              	.set noreorder
 352              	.set nomacro
 353 0274 09F84000 	jal $31,$2
 354 0278 2D280002 	move $5,$16
 355              	.set macro
 356              	.set reorder
 357              	
 358              	.set noreorder
 359              	.set nomacro
 360 027c DCFF0010 	b $L44
 361 0280 01000526 	addu $5,$16,1
 362              	.set macro
 363              	.set reorder
 364              	
 365 0284 00000000 	.p2align 3
 366              	$L29:
 367 0288 0100033C 	li $3,65536
 368 028c 21104400 	addu $2,$2,$4
 369 0290 20006334 	ori $3,$3,0x20
 370 0294 21104300 	addu $2,$2,$3
 371              	.set noreorder
 372              	.set nomacro
 373 0298 D0FF0010 	b $L28
 374 029c 000046A0 	sb $6,0($2)
 375              	.set macro
 376              	.set reorder
 377              	
 378              	.end _SNSPCWrite16
 379              	$Lfe4:
 380              	.size _SNSPCWrite16,$Lfe4-_SNSPCWrite16
 381              	.align 2
 382              	.p2align 3,,7
 383              	.ent _SNSPCPush8
 384              	_SNSPCPush8:
 385              	.frame $sp,0,$31
 386              	.mask 0x00000000,0
 387              	.fmask 0x00000000,0
 388 02a0 05008290 	lbu $2,5($4)
 389              	
 390 02a4 FFFF4324 	addu $3,$2,-1
 391 02a8 21108200 	addu $2,$4,$2
 392 02ac 200145A0 	sb $5,288($2)
 393              	.set noreorder
 394              	.set nomacro
 395 02b0 0800E003 	j $31
GAS LISTING  			page 8


 396 02b4 050083A0 	sb $3,5($4)
 397              	.set macro
 398              	.set reorder
 399              	
 400              	.end _SNSPCPush8
 401              	$Lfe5:
 402              	.size _SNSPCPush8,$Lfe5-_SNSPCPush8
 403              	.align 2
 404              	.p2align 3,,7
 405              	.ent _SNSPCPush16
 406              	_SNSPCPush16:
 407              	.frame $sp,0,$31
 408              	.mask 0x00000000,0
 409              	.fmask 0x00000000,0
 410 02b8 05008690 	lbu $6,5($4)
 411 02bc FFFFA530 	andi $5,$5,0xffff
 412 02c0 023A0500 	srl $7,$5,8
 413 02c4 FFFFC224 	addu $2,$6,-1
 414 02c8 21308600 	addu $6,$4,$6
 415 02cc FF004330 	andi $3,$2,0x00ff
 416 02d0 2001C7A0 	sb $7,288($6)
 417 02d4 FFFF4224 	addu $2,$2,-1
 418 02d8 21186400 	addu $3,$3,$4
 419 02dc 050082A0 	sb $2,5($4)
 420              	.set noreorder
 421              	.set nomacro
 422 02e0 0800E003 	j $31
 423 02e4 200165A0 	sb $5,288($3)
 424              	.set macro
 425              	.set reorder
 426              	
 427              	.end _SNSPCPush16
 428              	$Lfe6:
 429              	.size _SNSPCPush16,$Lfe6-_SNSPCPush16
 430              	.align 2
 431              	.p2align 3,,7
 432              	.ent _SNSPCPop8
 433              	_SNSPCPop8:
 434              	.frame $sp,0,$31
 435              	.mask 0x00000000,0
 436              	.fmask 0x00000000,0
 437 02e8 05008290 	lbu $2,5($4)
 438              	
 439 02ec 01004224 	addu $2,$2,1
 440 02f0 FF004330 	andi $3,$2,0x00ff
 441 02f4 050082A0 	sb $2,5($4)
 442 02f8 21186400 	addu $3,$3,$4
 443              	.set noreorder
 444              	.set nomacro
 445 02fc 0800E003 	j $31
 446 0300 20016290 	lbu $2,288($3)
 447              	.set macro
 448              	.set reorder
 449              	
 450              	.end _SNSPCPop8
 451              	$Lfe7:
 452              	.size _SNSPCPop8,$Lfe7-_SNSPCPop8
GAS LISTING  			page 9


 453              	.align 2
 454 0304 00000000 	.p2align 3,,7
 455              	.ent _SNSPCPop16
 456              	_SNSPCPop16:
 457              	.frame $sp,0,$31
 458              	.mask 0x00000000,0
 459              	.fmask 0x00000000,0
 460 0308 05008390 	lbu $3,5($4)
 461              	
 462 030c 01006324 	addu $3,$3,1
 463 0310 01006724 	addu $7,$3,1
 464 0314 FF006330 	andi $3,$3,0x00ff
 465 0318 FF00E630 	andi $6,$7,0x00ff
 466 031c 21186400 	addu $3,$3,$4
 467 0320 2130C400 	addu $6,$6,$4
 468 0324 20016290 	lbu $2,288($3)
 469 0328 2001C590 	lbu $5,288($6)
 470 032c 050087A0 	sb $7,5($4)
 471 0330 002A0500 	sll $5,$5,8
 472              	.set noreorder
 473              	.set nomacro
 474 0334 0800E003 	j $31
 475 0338 25104500 	or $2,$2,$5
 476              	.set macro
 477              	.set reorder
 478              	
 479              	.end _SNSPCPop16
 480              	$Lfe8:
 481              	.size _SNSPCPop16,$Lfe8-_SNSPCPop16
 482              	.align 2
 483 033c 00000000 	.p2align 3,,7
 484              	.globl SNSPCExecute_C
 485              	.ent SNSPCExecute_C
 486              	SNSPCExecute_C:
 487              	.frame $sp,176,$31
 488              	.mask 0xc0ff0000,-16
 489              	.fmask 0x00000000,0
 490 0340 50FFBD27 	subu $sp,$sp,176
 491 0344 4000B3FF 	sd $19,64($sp)
 492 0348 A000BFFF 	sd $31,160($sp)
 493 034c 9000BEFF 	sd $fp,144($sp)
 494 0350 8000B7FF 	sd $23,128($sp)
 495 0354 7000B6FF 	sd $22,112($sp)
 496 0358 6000B5FF 	sd $21,96($sp)
 497 035c 5000B4FF 	sd $20,80($sp)
 498 0360 3000B2FF 	sd $18,48($sp)
 499 0364 2000B1FF 	sd $17,32($sp)
 500 0368 1000B0FF 	sd $16,16($sp)
 501 036c 0800958C 	lw $21,8($4)
 502              	
 503              	.set noreorder
 504              	.set nomacro
 505 0370 2C00A01A 	blez $21,$L49
 506 0374 2D988000 	move $19,$4
 507              	.set macro
 508              	.set reorder
 509              	
GAS LISTING  			page 10


 510 0378 06008290 	lbu $2,6($4)
 511 037c 00009494 	lhu $20,0($4)
 512 0380 02004330 	andi $3,$2,0x2
 513 0384 20004430 	andi $4,$2,0x20
 514 0388 02006338 	xori $3,$3,0x2
 515 038c 00BA0200 	sll $23,$2,8
 516 0390 C0F00400 	sll $fp,$4,3
 517 0394 FF007630 	andi $22,$3,0x00ff
 518 0398 01004230 	andi $2,$2,0x1
 519              	$L832:
 520 039c 0000A2AF 	sw $2,0($sp)
 521              	.p2align 3
 522              	$L828:
 523 03a0 21189302 	addu $3,$20,$19
 524              	$L1057:
 525 03a4 20006390 	lbu $3,32($3)
 526              	
 527 03a8 0001622C 	sltu $2,$3,256
 528              	.set noreorder
 529              	.set nomacro
 530 03ac E70B4010 	beq $2,$0,$L826
 531 03b0 01009426 	addu $20,$20,1
 532              	.set macro
 533              	.set reorder
 534              	
 535 03b4 80100300 	sll $2,$3,2
 536 03b8 0000033C 	lui $3,%hi($L827)
 537 03bc 00006324 	addiu $3,$3,%lo($L827)
 538 03c0 21104300 	addu $2,$2,$3
 539 03c4 0000448C 	lw $4,0($2)
 540              	
 541 03c8 08008000 	j $4
 541      00000000 
 542              	.rdata
 543              	.align 2
 544              	$L827:
 545 0000 D0030000 	.word $L56
 546 0004 58040000 	.word $L794
 547 0008 8C040000 	.word $L577
 548 000c DC040000 	.word $L702
 549 0010 38050000 	.word $L444
 550 0014 84050000 	.word $L450
 551 0018 B4050000 	.word $L442
 552 001c CC050000 	.word $L459
 553 0020 14060000 	.word $L439
 554 0024 34060000 	.word $L467
 555 0028 4C330000 	.word $L826
 556 002c A8060000 	.word $L94
 557 0030 08070000 	.word $L100
 558 0034 68070000 	.word $L81
 559 0038 BC070000 	.word $L625
 560 003c 1C080000 	.word $L791
 561 0040 98080000 	.word $L643
 562 0044 CC080000 	.word $L796
 563 0048 E4080000 	.word $L601
 564 004c 28090000 	.word $L742
 565 0050 70090000 	.word $L447
GAS LISTING  			page 11


 566 0054 A0090000 	.word $L453
 567 0058 D8090000 	.word $L456
 568 005c EC090000 	.word $L462
 569 0060 300A0000 	.word $L471
 570 0064 880A0000 	.word $L465
 571 0068 BC0A0000 	.word $L550
 572 006c 080B0000 	.word $L97
 573 0070 380B0000 	.word $L92
 574 0074 6C0B0000 	.word $L513
 575 0078 900B0000 	.word $L381
 576 007c EC0B0000 	.word $L574
 577 0080 2C0C0000 	.word $L71
 578 0084 4C0C0000 	.word $L798
 579 0088 640C0000 	.word $L580
 580 008c 980C0000 	.word $L707
 581 0090 D00C0000 	.word $L408
 582 0094 100D0000 	.word $L414
 583 0098 400D0000 	.word $L406
 584 009c 580D0000 	.word $L423
 585 00a0 A00D0000 	.word $L403
 586 00a4 C00D0000 	.word $L431
 587 00a8 4C330000 	.word $L826
 588 00ac 180E0000 	.word $L116
 589 00b0 640E0000 	.word $L122
 590 00b4 B80E0000 	.word $L75
 591 00b8 CC0E0000 	.word $L678
 592 00bc 140F0000 	.word $L675
 593 00c0 340F0000 	.word $L647
 594 00c4 5C0F0000 	.word $L800
 595 00c8 740F0000 	.word $L604
 596 00cc B00F0000 	.word $L747
 597 00d0 E80F0000 	.word $L411
 598 00d4 18100000 	.word $L417
 599 00d8 50100000 	.word $L420
 600 00dc 64100000 	.word $L426
 601 00e0 A8100000 	.word $L435
 602 00e4 E8100000 	.word $L429
 603 00e8 1C110000 	.word $L547
 604 00ec 50110000 	.word $L119
 605 00f0 9C110000 	.word $L114
 606 00f4 BC110000 	.word $L519
 607 00f8 D8110000 	.word $L378
 608 00fc 00120000 	.word $L566
 609 0100 38120000 	.word $L73
 610 0104 58120000 	.word $L802
 611 0108 70120000 	.word $L583
 612 010c A4120000 	.word $L712
 613 0110 DC120000 	.word $L480
 614 0114 1C130000 	.word $L486
 615 0118 4C130000 	.word $L478
 616 011c 64130000 	.word $L495
 617 0120 AC130000 	.word $L475
 618 0124 CC130000 	.word $L503
 619 0128 4C330000 	.word $L826
 620 012c 24140000 	.word $L105
 621 0130 80140000 	.word $L111
 622 0134 E8140000 	.word $L77
GAS LISTING  			page 12


 623 0138 FC140000 	.word $L628
 624 013c 60150000 	.word $L631
 625 0140 90150000 	.word $L667
 626 0144 B0150000 	.word $L804
 627 0148 C8150000 	.word $L607
 628 014c 04160000 	.word $L752
 629 0150 3C160000 	.word $L483
 630 0154 6C160000 	.word $L489
 631 0158 A4160000 	.word $L492
 632 015c B8160000 	.word $L498
 633 0160 FC160000 	.word $L507
 634 0164 3C170000 	.word $L501
 635 0168 70170000 	.word $L561
 636 016c C4170000 	.word $L108
 637 0170 0C180000 	.word $L103
 638 0174 38180000 	.word $L237
 639 0178 58180000 	.word $L390
 640 017c 98180000 	.word $L571
 641 0180 BC180000 	.word $L65
 642 0184 D0180000 	.word $L806
 643 0188 E8180000 	.word $L586
 644 018c 1C190000 	.word $L717
 645 0190 54190000 	.word $L354
 646 0194 90190000 	.word $L360
 647 0198 C0190000 	.word $L352
 648 019c D8190000 	.word $L369
 649 01a0 201A0000 	.word $L349
 650 01a4 401A0000 	.word $L395
 651 01a8 4C330000 	.word $L826
 652 01ac 981A0000 	.word $L127
 653 01b0 F81A0000 	.word $L133
 654 01b4 581B0000 	.word $L79
 655 01b8 6C1B0000 	.word $L688
 656 01bc B41B0000 	.word $L569
 657 01c0 D01B0000 	.word $L671
 658 01c4 F01B0000 	.word $L808
 659 01c8 081C0000 	.word $L610
 660 01cc 441C0000 	.word $L757
 661 01d0 7C1C0000 	.word $L357
 662 01d4 AC1C0000 	.word $L363
 663 01d8 E41C0000 	.word $L366
 664 01dc F81C0000 	.word $L372
 665 01e0 3C1D0000 	.word $L399
 666 01e4 6C1D0000 	.word $L393
 667 01e8 A01D0000 	.word $L553
 668 01ec 381E0000 	.word $L130
 669 01f0 881E0000 	.word $L125
 670 01f4 B01E0000 	.word $L233
 671 01f8 D01E0000 	.word $L387
 672 01fc 4C330000 	.word $L826
 673 0200 F81E0000 	.word $L67
 674 0204 0C1F0000 	.word $L810
 675 0208 241F0000 	.word $L589
 676 020c 581F0000 	.word $L722
 677 0210 901F0000 	.word $L260
 678 0214 20200000 	.word $L268
 679 0218 B4200000 	.word $L257
GAS LISTING  			page 13


 680 021c CC200000 	.word $L280
 681 0220 78210000 	.word $L253
 682 0224 E8210000 	.word $L291
 683 0228 98220000 	.word $L637
 684 022c EC220000 	.word $L532
 685 0230 38230000 	.word $L538
 686 0234 80230000 	.word $L178
 687 0238 A4230000 	.word $L90
 688 023c E8230000 	.word $L249
 689 0240 24240000 	.word $L659
 690 0244 40240000 	.word $L812
 691 0248 58240000 	.word $L613
 692 024c 94240000 	.word $L762
 693 0250 CC240000 	.word $L264
 694 0254 FC240000 	.word $L272
 695 0258 98250000 	.word $L276
 696 025c AC250000 	.word $L284
 697 0260 EC250000 	.word $L296
 698 0264 84260000 	.word $L288
 699 0268 B8260000 	.word $L557
 700 026c 30270000 	.word $L535
 701 0270 60270000 	.word $L511
 702 0274 7C270000 	.word $L241
 703 0278 90270000 	.word $L697
 704 027c 08280000 	.word $L136
 705 0280 30280000 	.word $L59
 706 0284 4C280000 	.word $L814
 707 0288 64280000 	.word $L592
 708 028c 98280000 	.word $L727
 709 0290 D0280000 	.word $L308
 710 0294 0C290000 	.word $L316
 711 0298 50290000 	.word $L305
 712 029c 68290000 	.word $L328
 713 02a0 C4290000 	.word $L301
 714 02a4 EC290000 	.word $L339
 715 02a8 302A0000 	.word $L634
 716 02ac 782A0000 	.word $L523
 717 02b0 AC2A0000 	.word $L529
 718 02b4 E82A0000 	.word $L384
 719 02b8 FC2A0000 	.word $L84
 720 02bc 182B0000 	.word $L192
 721 02c0 482B0000 	.word $L663
 722 02c4 6C2B0000 	.word $L816
 723 02c8 842B0000 	.word $L616
 724 02cc C02B0000 	.word $L767
 725 02d0 F82B0000 	.word $L312
 726 02d4 282C0000 	.word $L320
 727 02d8 742C0000 	.word $L324
 728 02dc 882C0000 	.word $L332
 729 02e0 C82C0000 	.word $L344
 730 02e4 F42C0000 	.word $L336
 731 02e8 242D0000 	.word $L541
 732 02ec 6C2D0000 	.word $L526
 733 02f0 9C2D0000 	.word $L517
 734 02f4 B82D0000 	.word $L243
 735 02f8 4C330000 	.word $L826
 736 02fc D42D0000 	.word $L143
GAS LISTING  			page 14


 737 0300 0C2E0000 	.word $L61
 738 0304 242E0000 	.word $L818
 739 0308 3C2E0000 	.word $L595
 740 030c 702E0000 	.word $L732
 741 0310 A82E0000 	.word $L194
 742 0314 D82E0000 	.word $L200
 743 0318 102F0000 	.word $L190
 744 031c 342F0000 	.word $L209
 745 0320 802F0000 	.word $L375
 746 0324 942F0000 	.word $L221
 747 0328 A82F0000 	.word $L786
 748 032c 20300000 	.word $L224
 749 0330 34300000 	.word $L230
 750 0334 48300000 	.word $L166
 751 0338 64300000 	.word $L86
 752 033c 80300000 	.word $L564
 753 0340 A0300000 	.word $L655
 754 0344 B4300000 	.word $L820
 755 0348 CC300000 	.word $L619
 756 034c 08310000 	.word $L772
 757 0350 40310000 	.word $L197
 758 0354 7C310000 	.word $L203
 759 0358 C4310000 	.word $L206
 760 035c D8310000 	.word $L212
 761 0360 28320000 	.word $L215
 762 0364 3C320000 	.word $L218
 763 0368 5C320000 	.word $L544
 764 036c 9C320000 	.word $L227
 765 0370 BC320000 	.word $L515
 766 0374 D8320000 	.word $L235
 767 0378 EC320000 	.word $L683
 768 037c 4C330000 	.word $L826
 769 0380 54330000 	.word $L63
 770 0384 70330000 	.word $L822
 771 0388 88330000 	.word $L598
 772 038c BC330000 	.word $L737
 773 0390 F4330000 	.word $L145
 774 0394 1C340000 	.word $L151
 775 0398 4C340000 	.word $L141
 776 039c 64340000 	.word $L160
 777 03a0 AC340000 	.word $L138
 778 03a4 C8340000 	.word $L175
 779 03a8 04350000 	.word $L640
 780 03ac 60350000 	.word $L181
 781 03b0 94350000 	.word $L187
 782 03b4 C4350000 	.word $L69
 783 03b8 DC350000 	.word $L88
 784 03bc F8350000 	.word $L782
 785 03c0 0C360000 	.word $L651
 786 03c4 20360000 	.word $L824
 787 03c8 38360000 	.word $L622
 788 03cc 74360000 	.word $L777
 789 03d0 AC360000 	.word $L148
 790 03d4 DC360000 	.word $L154
 791 03d8 14370000 	.word $L157
 792 03dc 28370000 	.word $L163
 793 03e0 6C370000 	.word $L169
GAS LISTING  			page 15


 794 03e4 94370000 	.word $L172
 795 03e8 C4370000 	.word $L245
 796 03ec 00380000 	.word $L184
 797 03f0 30380000 	.word $L521
 798 03f4 4C380000 	.word $L239
 799 03f8 6C380000 	.word $L693
 800 03fc A4380000 	.word $L784
 801              	.text
 802              	$L56:
 803 03d0 2A00A22A 	slt $2,$21,42
 804              	.set noreorder
 805              	.set nomacro
 806 03d4 04004054 	bnel $2,$0,$L1062
 807 03d8 06006392 	lbu $3,6($19)
 808              	.set macro
 809              	.set reorder
 810              	
 811              	$L674:
 812              	.set noreorder
 813              	.set nomacro
 814 03dc F0FF0010 	b $L828
 815 03e0 D6FFB526 	addu $21,$21,-42
 816              	.set macro
 817              	.set reorder
 818              	
 819              	$L58:
 820 03e4 06006392 	lbu $3,6($19)
 821              	$L1062:
 822 03e8 80FF0224 	li $2,-128
 823 03ec 02221700 	srl $4,$23,8
 824 03f0 FFFFC532 	andi $5,$22,0xffff
 825 03f4 24208200 	and $4,$4,$2
 826 03f8 7C006330 	andi $3,$3,0x7c
 827 03fc 0000A28F 	lw $2,0($sp)
 828 0400 FFFF9426 	addu $20,$20,-1
 829 0404 25186200 	or $3,$3,$2
 830 0408 25106400 	or $2,$3,$4
 831              	.set noreorder
 832              	.set nomacro
 833 040c 0300A014 	bne $5,$0,$L829
 834 0410 060062A2 	sb $2,6($19)
 835              	.set macro
 836              	.set reorder
 837              	
 838 0414 02004234 	ori $2,$2,0x2
 839 0418 060062A2 	sb $2,6($19)
 840              	$L829:
 841 041c 000074A6 	sh $20,0($19)
 842 0420 080075AE 	sw $21,8($19)
 843              	$L49:
 844 0424 A000BFDF 	ld $31,160($sp)
 845 0428 2D100000 	move $2,$0
 846 042c 9000BEDF 	ld $fp,144($sp)
 847 0430 8000B7DF 	ld $23,128($sp)
 848 0434 7000B6DF 	ld $22,112($sp)
 849 0438 6000B5DF 	ld $21,96($sp)
 850 043c 5000B4DF 	ld $20,80($sp)
GAS LISTING  			page 16


 851 0440 4000B3DF 	ld $19,64($sp)
 852 0444 3000B2DF 	ld $18,48($sp)
 853 0448 2000B1DF 	ld $17,32($sp)
 854 044c 1000B0DF 	ld $16,16($sp)
 855              	
 856              	.set noreorder
 857              	.set nomacro
 858 0450 0800E003 	j $31
 859 0454 B000BD27 	addu $sp,$sp,176
 860              	.set macro
 861              	.set reorder
 862              	
 863              	$L794:
 864 0458 A800A22A 	slt $2,$21,168
 865              	.set noreorder
 866              	.set nomacro
 867 045c E1FF4014 	bne $2,$0,$L58
 868 0460 2D206002 	move $4,$19
 869              	.set macro
 870              	.set reorder
 871              	
 872 0464 DEFF0534 	li $5,65502
 873 0468 080075AE 	sw $21,8($19)
 874              	$L830:
 875              	.set noreorder
 876              	.set nomacro
 877 046c 1200000C 	jal _SNSPCRead16
 878 0470 58FFB526 	addu $21,$21,-168
 879              	.set macro
 880              	.set reorder
 881              	
 882 0474 FFFF8532 	andi $5,$20,0xffff
 883 0478 2D206002 	move $4,$19
 884              	.set noreorder
 885              	.set nomacro
 886 047c AE00000C 	jal _SNSPCPush16
 887 0480 2DA04000 	move $20,$2
 888              	.set macro
 889              	.set reorder
 890              	
 891              	.set noreorder
 892              	.set nomacro
 893 0484 C7FF0010 	b $L1057
 894 0488 21189302 	addu $3,$20,$19
 895              	.set macro
 896              	.set reorder
 897              	
 898              	$L577:
 899 048c 5400A22A 	slt $2,$21,84
 900              	.set noreorder
 901              	.set nomacro
 902 0490 D4FF4014 	bne $2,$0,$L58
 903 0494 21109302 	addu $2,$20,$19
 904              	.set macro
 905              	.set reorder
 906              	
 907 0498 080075AE 	sw $21,8($19)
GAS LISTING  			page 17


 908 049c 20005190 	lbu $17,32($2)
 909 04a0 2D206002 	move $4,$19
 910 04a4 01009426 	addu $20,$20,1
 911 04a8 21883E02 	addu $17,$17,$fp
 912              	.set noreorder
 913              	.set nomacro
 914 04ac 0000000C 	jal _SNSPCRead8
 915 04b0 2D282002 	move $5,$17
 916              	.set macro
 917              	.set reorder
 918              	
 919 04b4 2D282002 	move $5,$17
 920 04b8 01005234 	ori $18,$2,0x1
 921              	$L1016:
 922 04bc FF004632 	andi $6,$18,0x00ff
 923 04c0 2D206002 	move $4,$19
 924 04c4 080075AE 	sw $21,8($19)
 925              	$L975:
 926 04c8 ACFFB526 	addu $21,$21,-84
 927              	$L833:
 928 04cc 3E00000C 	jal _SNSPCWrite8
 928      00000000 
 929              	.set noreorder
 930              	.set nomacro
 931 04d4 B3FF0010 	b $L1057
 932 04d8 21189302 	addu $3,$20,$19
 933              	.set macro
 934              	.set reorder
 935              	
 936              	$L702:
 937 04dc 6900A22A 	slt $2,$21,105
 938              	.set noreorder
 939              	.set nomacro
 940 04e0 C0FF4014 	bne $2,$0,$L58
 941 04e4 21109302 	addu $2,$20,$19
 942              	.set macro
 943              	.set reorder
 944              	
 945 04e8 080075AE 	sw $21,8($19)
 946 04ec 20005190 	lbu $17,32($2)
 947 04f0 2D206002 	move $4,$19
 948 04f4 01009426 	addu $20,$20,1
 949 04f8 21883E02 	addu $17,$17,$fp
 950              	.set noreorder
 951              	.set nomacro
 952 04fc 0000000C 	jal _SNSPCRead8
 953 0500 2D282002 	move $5,$17
 954              	.set macro
 955              	.set reorder
 956              	
 957 0504 2D904000 	move $18,$2
 958 0508 21109302 	addu $2,$20,$19
 959 050c 01005232 	andi $18,$18,0x1
 960              	$L952:
 961 0510 20004290 	lbu $2,32($2)
 962              	.set noreorder
 963              	.set nomacro
GAS LISTING  			page 18


 964 0514 05004012 	beq $18,$0,$L781
 965 0518 01009426 	addu $20,$20,1
 966              	.set macro
 967              	.set reorder
 968              	
 969 051c 00160200 	sll $2,$2,24
 970              	$L1058:
 971 0520 D6FFB526 	addu $21,$21,-42
 972 0524 03160200 	sra $2,$2,24
 973 0528 21A08202 	addu $20,$20,$2
 974              	$L781:
 975 052c 97FFB526 	addu $21,$21,-105
 976              	$L1061:
 977              	.set noreorder
 978              	.set nomacro
 979 0530 9CFF0010 	b $L1057
 980 0534 21189302 	addu $3,$20,$19
 981              	.set macro
 982              	.set reorder
 983              	
 984              	$L444:
 985 0538 3F00A22A 	slt $2,$21,63
 986              	.set noreorder
 987              	.set nomacro
 988 053c A9FF4014 	bne $2,$0,$L58
 989 0540 21109302 	addu $2,$20,$19
 990              	.set macro
 991              	.set reorder
 992              	
 993 0544 080075AE 	sw $21,8($19)
 994 0548 20005190 	lbu $17,32($2)
 995 054c 2D206002 	move $4,$19
 996 0550 01009426 	addu $20,$20,1
 997              	$L1054:
 998 0554 C1FFB526 	addu $21,$21,-63
 999              	$L1045:
 1000 0558 21883E02 	addu $17,$17,$fp
 1001              	$L1043:
 1002 055c 2D282002 	move $5,$17
 1003              	$L998:
 1004 0560 0000000C 	jal _SNSPCRead8
 1004      00000000 
 1005 0568 02007092 	lbu $16,2($19)
 1006 056c 2D904000 	move $18,$2
 1007              	$L999:
 1008 0570 25801202 	or $16,$16,$18
 1009              	$L887:
 1010 0574 00B21000 	sll $22,$16,8
 1011 0578 020070A2 	sb $16,2($19)
 1012              	$L836:
 1013              	.set noreorder
 1014              	.set nomacro
 1015 057c 88FF0010 	b $L828
 1016 0580 2DB8C002 	move $23,$22
 1017              	.set macro
 1018              	.set reorder
 1019              	
GAS LISTING  			page 19


 1020              	$L450:
 1021 0584 5400A22A 	slt $2,$21,84
 1022              	.set noreorder
 1023              	.set nomacro
 1024 0588 96FF4014 	bne $2,$0,$L58
 1025 058c 21109302 	addu $2,$20,$19
 1026              	.set macro
 1027              	.set reorder
 1028              	
 1029 0590 080075AE 	sw $21,8($19)
 1030 0594 21004390 	lbu $3,33($2)
 1031 0598 2D206002 	move $4,$19
 1032 059c 20004590 	lbu $5,32($2)
 1033 05a0 02009426 	addu $20,$20,2
 1034 05a4 001A0300 	sll $3,$3,8
 1035 05a8 ACFFB526 	addu $21,$21,-84
 1036              	.set noreorder
 1037              	.set nomacro
 1038 05ac EBFF0010 	b $L1043
 1039 05b0 25886500 	or $17,$3,$5
 1040              	.set macro
 1041              	.set reorder
 1042              	
 1043              	$L442:
 1044 05b4 3F00A22A 	slt $2,$21,63
 1045              	.set noreorder
 1046              	.set nomacro
 1047 05b8 8AFF4014 	bne $2,$0,$L58
 1048 05bc 2D206002 	move $4,$19
 1049              	.set macro
 1050              	.set reorder
 1051              	
 1052 05c0 04007192 	lbu $17,4($19)
 1053              	.set noreorder
 1054              	.set nomacro
 1055 05c4 E3FF0010 	b $L1054
 1056 05c8 080075AE 	sw $21,8($19)
 1057              	.set macro
 1058              	.set reorder
 1059              	
 1060              	$L459:
 1061 05cc 7E00A22A 	slt $2,$21,126
 1062              	.set noreorder
 1063              	.set nomacro
 1064 05d0 84FF4014 	bne $2,$0,$L58
 1065 05d4 21109302 	addu $2,$20,$19
 1066              	.set macro
 1067              	.set reorder
 1068              	
 1069 05d8 04006392 	lbu $3,4($19)
 1070 05dc 20005190 	lbu $17,32($2)
 1071 05e0 2D206002 	move $4,$19
 1072 05e4 080075AE 	sw $21,8($19)
 1073 05e8 01009426 	addu $20,$20,1
 1074 05ec 21882302 	addu $17,$17,$3
 1075 05f0 FF003132 	andi $17,$17,0xff
 1076 05f4 21883E02 	addu $17,$17,$fp
GAS LISTING  			page 20


 1077              	.set noreorder
 1078              	.set nomacro
 1079 05f8 1200000C 	jal _SNSPCRead16
 1080 05fc 2D282002 	move $5,$17
 1081              	.set macro
 1082              	.set reorder
 1083              	
 1084 0600 080075AE 	sw $21,8($19)
 1085 0604 2D206002 	move $4,$19
 1086 0608 2D284000 	move $5,$2
 1087              	.set noreorder
 1088              	.set nomacro
 1089 060c D4FF0010 	b $L998
 1090 0610 82FFB526 	addu $21,$21,-126
 1091              	.set macro
 1092              	.set reorder
 1093              	
 1094              	$L439:
 1095 0614 2A00A22A 	slt $2,$21,42
 1096              	.set noreorder
 1097              	.set nomacro
 1098 0618 72FF4014 	bne $2,$0,$L58
 1099 061c 21109302 	addu $2,$20,$19
 1100              	.set macro
 1101              	.set reorder
 1102              	
 1103 0620 02007092 	lbu $16,2($19)
 1104 0624 20005290 	lbu $18,32($2)
 1105 0628 01009426 	addu $20,$20,1
 1106              	.set noreorder
 1107              	.set nomacro
 1108 062c D0FF0010 	b $L999
 1109 0630 D6FFB526 	addu $21,$21,-42
 1110              	.set macro
 1111              	.set reorder
 1112              	
 1113              	$L467:
 1114 0634 7E00A22A 	slt $2,$21,126
 1115              	.set noreorder
 1116              	.set nomacro
 1117 0638 6AFF4014 	bne $2,$0,$L58
 1118 063c 21109302 	addu $2,$20,$19
 1119              	.set macro
 1120              	.set reorder
 1121              	
 1122 0640 080075AE 	sw $21,8($19)
 1123 0644 20005190 	lbu $17,32($2)
 1124 0648 2D206002 	move $4,$19
 1125 064c 01009426 	addu $20,$20,1
 1126 0650 21883E02 	addu $17,$17,$fp
 1127              	.set noreorder
 1128              	.set nomacro
 1129 0654 0000000C 	jal _SNSPCRead8
 1130 0658 2D282002 	move $5,$17
 1131              	.set macro
 1132              	.set reorder
 1133              	
GAS LISTING  			page 21


 1134 065c 080075AE 	sw $21,8($19)
 1135 0660 2D904000 	move $18,$2
 1136 0664 2D206002 	move $4,$19
 1137 0668 21109302 	addu $2,$20,$19
 1138 066c 01009426 	addu $20,$20,1
 1139 0670 20005190 	lbu $17,32($2)
 1140              	
 1141 0674 21883E02 	addu $17,$17,$fp
 1142              	.set noreorder
 1143              	.set nomacro
 1144 0678 0000000C 	jal _SNSPCRead8
 1145 067c 2D282002 	move $5,$17
 1146              	.set macro
 1147              	.set reorder
 1148              	
 1149 0680 2D282002 	move $5,$17
 1150 0684 25805200 	or $16,$2,$18
 1151              	$L1013:
 1152 0688 080075AE 	sw $21,8($19)
 1153 068c FF000632 	andi $6,$16,0x00ff
 1154 0690 2D206002 	move $4,$19
 1155              	.set noreorder
 1156              	.set nomacro
 1157 0694 3E00000C 	jal _SNSPCWrite8
 1158 0698 00B21000 	sll $22,$16,8
 1159              	.set macro
 1160              	.set reorder
 1161              	
 1162              	$L921:
 1163 069c 2DB8C002 	move $23,$22
 1164              	$L687:
 1165              	$L1059:
 1166              	.set noreorder
 1167              	.set nomacro
 1168 06a0 3FFF0010 	b $L828
 1169 06a4 82FFB526 	addu $21,$21,-126
 1170              	.set macro
 1171              	.set reorder
 1172              	
 1173              	$L94:
 1174 06a8 5400A22A 	slt $2,$21,84
 1175              	.set noreorder
 1176              	.set nomacro
 1177 06ac 4DFF4014 	bne $2,$0,$L58
 1178 06b0 21109302 	addu $2,$20,$19
 1179              	.set macro
 1180              	.set reorder
 1181              	
 1182 06b4 080075AE 	sw $21,8($19)
 1183 06b8 20005190 	lbu $17,32($2)
 1184 06bc 2D206002 	move $4,$19
 1185 06c0 01009426 	addu $20,$20,1
 1186 06c4 21883E02 	addu $17,$17,$fp
 1187              	.set noreorder
 1188              	.set nomacro
 1189 06c8 0000000C 	jal _SNSPCRead8
 1190 06cc 2D282002 	move $5,$17
GAS LISTING  			page 22


 1191              	.set macro
 1192              	.set reorder
 1193              	
 1194 06d0 2D206002 	move $4,$19
 1195 06d4 40900200 	sll $18,$2,1
 1196 06d8 2D282002 	move $5,$17
 1197 06dc FF004632 	andi $6,$18,0x00ff
 1198 06e0 00B21200 	sll $22,$18,8
 1199 06e4 080075AE 	sw $21,8($19)
 1200              	$L922:
 1201              	.set noreorder
 1202              	.set nomacro
 1203 06e8 3E00000C 	jal _SNSPCWrite8
 1204 06ec 02921200 	srl $18,$18,8
 1205              	.set macro
 1206              	.set reorder
 1207              	
 1208 06f0 01005232 	andi $18,$18,0x1
 1209 06f4 0000B2AF 	sw $18,0($sp)
 1210 06f8 2DB8C002 	move $23,$22
 1211              	$L696:
 1212 06fc ACFFB526 	addu $21,$21,-84
 1213              	.set noreorder
 1214              	.set nomacro
 1215 0700 28FF0010 	b $L1057
 1216 0704 21189302 	addu $3,$20,$19
 1217              	.set macro
 1218              	.set reorder
 1219              	
 1220              	$L100:
 1221 0708 6900A22A 	slt $2,$21,105
 1222              	.set noreorder
 1223              	.set nomacro
 1224 070c 35FF4014 	bne $2,$0,$L58
 1225 0710 21189302 	addu $3,$20,$19
 1226              	.set macro
 1227              	.set reorder
 1228              	
 1229 0714 080075AE 	sw $21,8($19)
 1230 0718 21006290 	lbu $2,33($3)
 1231 071c 2D206002 	move $4,$19
 1232 0720 20006590 	lbu $5,32($3)
 1233 0724 02009426 	addu $20,$20,2
 1234 0728 00120200 	sll $2,$2,8
 1235 072c 25884500 	or $17,$2,$5
 1236              	$L928:
 1237              	.set noreorder
 1238              	.set nomacro
 1239 0730 0000000C 	jal _SNSPCRead8
 1240 0734 2D282002 	move $5,$17
 1241              	.set macro
 1242              	.set reorder
 1243              	
 1244 0738 2D206002 	move $4,$19
 1245 073c 40900200 	sll $18,$2,1
 1246 0740 2D282002 	move $5,$17
 1247 0744 FF004632 	andi $6,$18,0x00ff
GAS LISTING  			page 23


 1248 0748 00B21200 	sll $22,$18,8
 1249 074c 080075AE 	sw $21,8($19)
 1250              	$L932:
 1251              	.set noreorder
 1252              	.set nomacro
 1253 0750 3E00000C 	jal _SNSPCWrite8
 1254 0754 02921200 	srl $18,$18,8
 1255              	.set macro
 1256              	.set reorder
 1257              	
 1258 0758 01005232 	andi $18,$18,0x1
 1259 075c 0000B2AF 	sw $18,0($sp)
 1260              	$L949:
 1261              	.set noreorder
 1262              	.set nomacro
 1263 0760 72FF0010 	b $L781
 1264 0764 2DB8C002 	move $23,$22
 1265              	.set macro
 1266              	.set reorder
 1267              	
 1268              	$L81:
 1269 0768 5400A22A 	slt $2,$21,84
 1270              	.set noreorder
 1271              	.set nomacro
 1272 076c 1DFF4014 	bne $2,$0,$L58
 1273 0770 80FF0224 	li $2,-128
 1274              	.set macro
 1275              	.set reorder
 1276              	
 1277 0774 06006392 	lbu $3,6($19)
 1278 0778 0000A68F 	lw $6,0($sp)
 1279 077c 02221700 	srl $4,$23,8
 1280 0780 7C006330 	andi $3,$3,0x7c
 1281 0784 24208200 	and $4,$4,$2
 1282 0788 25186600 	or $3,$3,$6
 1283 078c FFFFC532 	andi $5,$22,0xffff
 1284 0790 25106400 	or $2,$3,$4
 1285              	.set noreorder
 1286              	.set nomacro
 1287 0794 0300A014 	bne $5,$0,$L83
 1288 0798 060062A2 	sb $2,6($19)
 1289              	.set macro
 1290              	.set reorder
 1291              	
 1292 079c 02004234 	ori $2,$2,0x2
 1293 07a0 060062A2 	sb $2,6($19)
 1294              	$L83:
 1295 07a4 06006592 	lbu $5,6($19)
 1296              	$L839:
 1297 07a8 2D206002 	move $4,$19
 1298              	.set noreorder
 1299              	.set nomacro
 1300 07ac A800000C 	jal _SNSPCPush8
 1301 07b0 ACFFB526 	addu $21,$21,-84
 1302              	.set macro
 1303              	.set reorder
 1304              	
GAS LISTING  			page 24


 1305              	.set noreorder
 1306              	.set nomacro
 1307 07b4 FBFE0010 	b $L1057
 1308 07b8 21189302 	addu $3,$20,$19
 1309              	.set macro
 1310              	.set reorder
 1311              	
 1312              	$L625:
 1313 07bc 7E00A22A 	slt $2,$21,126
 1314              	.set noreorder
 1315              	.set nomacro
 1316 07c0 08FF4014 	bne $2,$0,$L58
 1317 07c4 21189302 	addu $3,$20,$19
 1318              	.set macro
 1319              	.set reorder
 1320              	
 1321 07c8 080075AE 	sw $21,8($19)
 1322 07cc 21006290 	lbu $2,33($3)
 1323 07d0 2D206002 	move $4,$19
 1324 07d4 20006590 	lbu $5,32($3)
 1325 07d8 02009426 	addu $20,$20,2
 1326 07dc 00120200 	sll $2,$2,8
 1327 07e0 25884500 	or $17,$2,$5
 1328              	.set noreorder
 1329              	.set nomacro
 1330 07e4 0000000C 	jal _SNSPCRead8
 1331 07e8 2D282002 	move $5,$17
 1332              	.set macro
 1333              	.set reorder
 1334              	
 1335 07ec 080075AE 	sw $21,8($19)
 1336 07f0 2D904000 	move $18,$2
 1337 07f4 2D282002 	move $5,$17
 1338 07f8 02006292 	lbu $2,2($19)
 1339 07fc 2D206002 	move $4,$19
 1340 0800 82FFB526 	addu $21,$21,-126
 1341 0804 24804202 	and $16,$18,$2
 1342 0808 25904202 	or $18,$18,$2
 1343 080c FF004632 	andi $6,$18,0x00ff
 1344 0810 00B21000 	sll $22,$16,8
 1345              	$L955:
 1346              	.set noreorder
 1347              	.set nomacro
 1348 0814 2DFF0010 	b $L833
 1349 0818 2DB8C002 	move $23,$22
 1350              	.set macro
 1351              	.set reorder
 1352              	
 1353              	$L791:
 1354 081c A800A22A 	slt $2,$21,168
 1355              	.set noreorder
 1356              	.set nomacro
 1357 0820 F0FE4014 	bne $2,$0,$L58
 1358 0824 FFFF8532 	andi $5,$20,0xffff
 1359              	.set macro
 1360              	.set reorder
 1361              	
GAS LISTING  			page 25


 1362 0828 06006292 	lbu $2,6($19)
 1363 082c 2D206002 	move $4,$19
 1364 0830 14004234 	ori $2,$2,0x14
 1365              	.set noreorder
 1366              	.set nomacro
 1367 0834 AE00000C 	jal _SNSPCPush16
 1368 0838 060062A2 	sb $2,6($19)
 1369              	.set macro
 1370              	.set reorder
 1371              	
 1372 083c 0000A68F 	lw $6,0($sp)
 1373 0840 06006292 	lbu $2,6($19)
 1374 0844 02221700 	srl $4,$23,8
 1375 0848 80FF0324 	li $3,-128
 1376 084c FFFFC532 	andi $5,$22,0xffff
 1377 0850 7C004230 	andi $2,$2,0x7c
 1378 0854 24208300 	and $4,$4,$3
 1379 0858 25104600 	or $2,$2,$6
 1380 085c 25104400 	or $2,$2,$4
 1381              	.set noreorder
 1382              	.set nomacro
 1383 0860 0300A014 	bne $5,$0,$L793
 1384 0864 060062A2 	sb $2,6($19)
 1385              	.set macro
 1386              	.set reorder
 1387              	
 1388 0868 02004234 	ori $2,$2,0x2
 1389 086c 060062A2 	sb $2,6($19)
 1390              	$L793:
 1391 0870 06006592 	lbu $5,6($19)
 1392              	.set noreorder
 1393              	.set nomacro
 1394 0874 A800000C 	jal _SNSPCPush8
 1395 0878 2D206002 	move $4,$19
 1396              	.set macro
 1397              	.set reorder
 1398              	
 1399 087c 2D206002 	move $4,$19
 1400 0880 080075AE 	sw $21,8($19)
 1401 0884 DEFF0534 	li $5,65502
 1402              	.set noreorder
 1403              	.set nomacro
 1404 0888 1200000C 	jal _SNSPCRead16
 1405 088c 58FFB526 	addu $21,$21,-168
 1406              	.set macro
 1407              	.set reorder
 1408              	
 1409              	.set noreorder
 1410              	.set nomacro
 1411 0890 C3FE0010 	b $L828
 1412 0894 2DA04000 	move $20,$2
 1413              	.set macro
 1414              	.set reorder
 1415              	
 1416              	$L643:
 1417 0898 2A00A22A 	slt $2,$21,42
 1418              	.set noreorder
GAS LISTING  			page 26


 1419              	.set nomacro
 1420 089c D1FE4014 	bne $2,$0,$L58
 1421 08a0 21109302 	addu $2,$20,$19
 1422              	.set macro
 1423              	.set reorder
 1424              	
 1425 08a4 0080E332 	andi $3,$23,0x8000
 1426              	$L1048:
 1427 08a8 20004290 	lbu $2,32($2)
 1428 08ac 01009426 	addu $20,$20,1
 1429              	$L1018:
 1430              	.set noreorder
 1431              	.set nomacro
 1432 08b0 BBFE6054 	bnel $3,$0,$L828
 1433 08b4 D6FFB526 	addu $21,$21,-42
 1434              	.set macro
 1435              	.set reorder
 1436              	
 1437 08b8 00160200 	sll $2,$2,24
 1438              	$L1060:
 1439 08bc D6FFB526 	addu $21,$21,-42
 1440 08c0 03160200 	sra $2,$2,24
 1441              	.set noreorder
 1442              	.set nomacro
 1443 08c4 C5FE0010 	b $L674
 1444 08c8 21A08202 	addu $20,$20,$2
 1445              	.set macro
 1446              	.set reorder
 1447              	
 1448              	$L796:
 1449 08cc A800A22A 	slt $2,$21,168
 1450              	.set noreorder
 1451              	.set nomacro
 1452 08d0 C4FE4014 	bne $2,$0,$L58
 1453 08d4 2D206002 	move $4,$19
 1454              	.set macro
 1455              	.set reorder
 1456              	
 1457 08d8 DCFF0534 	li $5,65500
 1458              	.set noreorder
 1459              	.set nomacro
 1460 08dc E3FE0010 	b $L830
 1461 08e0 080075AE 	sw $21,8($19)
 1462              	.set macro
 1463              	.set reorder
 1464              	
 1465              	$L601:
 1466 08e4 5400A22A 	slt $2,$21,84
 1467              	.set noreorder
 1468              	.set nomacro
 1469 08e8 BEFE4014 	bne $2,$0,$L58
 1470 08ec 21109302 	addu $2,$20,$19
 1471              	.set macro
 1472              	.set reorder
 1473              	
 1474 08f0 080075AE 	sw $21,8($19)
 1475 08f4 20005190 	lbu $17,32($2)
GAS LISTING  			page 27


 1476 08f8 2D206002 	move $4,$19
 1477 08fc 01009426 	addu $20,$20,1
 1478 0900 21883E02 	addu $17,$17,$fp
 1479              	.set noreorder
 1480              	.set nomacro
 1481 0904 0000000C 	jal _SNSPCRead8
 1482 0908 2D282002 	move $5,$17
 1483              	.set macro
 1484              	.set reorder
 1485              	
 1486 090c 080075AE 	sw $21,8($19)
 1487 0910 01005234 	ori $18,$2,0x1
 1488 0914 2D282002 	move $5,$17
 1489 0918 0100523A 	xori $18,$18,0x1
 1490              	$L1015:
 1491 091c 2D206002 	move $4,$19
 1492              	.set noreorder
 1493              	.set nomacro
 1494 0920 E9FE0010 	b $L975
 1495 0924 FF004632 	andi $6,$18,0x00ff
 1496              	.set macro
 1497              	.set reorder
 1498              	
 1499              	$L742:
 1500 0928 6900A22A 	slt $2,$21,105
 1501              	.set noreorder
 1502              	.set nomacro
 1503 092c ADFE4014 	bne $2,$0,$L58
 1504 0930 21109302 	addu $2,$20,$19
 1505              	.set macro
 1506              	.set reorder
 1507              	
 1508 0934 080075AE 	sw $21,8($19)
 1509 0938 20005190 	lbu $17,32($2)
 1510 093c 2D206002 	move $4,$19
 1511 0940 01009426 	addu $20,$20,1
 1512 0944 21883E02 	addu $17,$17,$fp
 1513              	.set noreorder
 1514              	.set nomacro
 1515 0948 0000000C 	jal _SNSPCRead8
 1516 094c 2D282002 	move $5,$17
 1517              	.set macro
 1518              	.set reorder
 1519              	
 1520 0950 2D904000 	move $18,$2
 1521 0954 21109302 	addu $2,$20,$19
 1522 0958 01005232 	andi $18,$18,0x1
 1523              	$L951:
 1524 095c 20004290 	lbu $2,32($2)
 1525              	.set noreorder
 1526              	.set nomacro
 1527 0960 F2FE4016 	bne $18,$0,$L781
 1528 0964 01009426 	addu $20,$20,1
 1529              	.set macro
 1530              	.set reorder
 1531              	
 1532              	.set noreorder
GAS LISTING  			page 28


 1533              	.set nomacro
 1534 0968 EDFE0010 	b $L1058
 1535 096c 00160200 	sll $2,$2,24
 1536              	.set macro
 1537              	.set reorder
 1538              	
 1539              	$L447:
 1540 0970 5400A22A 	slt $2,$21,84
 1541              	.set noreorder
 1542              	.set nomacro
 1543 0974 9BFE4014 	bne $2,$0,$L58
 1544 0978 21109302 	addu $2,$20,$19
 1545              	.set macro
 1546              	.set reorder
 1547              	
 1548 097c 04006392 	lbu $3,4($19)
 1549 0980 20005190 	lbu $17,32($2)
 1550 0984 2D206002 	move $4,$19
 1551 0988 080075AE 	sw $21,8($19)
 1552 098c 01009426 	addu $20,$20,1
 1553 0990 21882302 	addu $17,$17,$3
 1554 0994 ACFFB526 	addu $21,$21,-84
 1555              	.set noreorder
 1556              	.set nomacro
 1557 0998 EFFE0010 	b $L1045
 1558 099c FF003132 	andi $17,$17,0xff
 1559              	.set macro
 1560              	.set reorder
 1561              	
 1562              	$L453:
 1563 09a0 6900A22A 	slt $2,$21,105
 1564              	.set noreorder
 1565              	.set nomacro
 1566 09a4 8FFE4014 	bne $2,$0,$L58
 1567 09a8 21189302 	addu $3,$20,$19
 1568              	.set macro
 1569              	.set reorder
 1570              	
 1571 09ac 04006692 	lbu $6,4($19)
 1572              	$L1044:
 1573 09b0 21006290 	lbu $2,33($3)
 1574 09b4 2D206002 	move $4,$19
 1575 09b8 20006590 	lbu $5,32($3)
 1576 09bc 02009426 	addu $20,$20,2
 1577 09c0 00120200 	sll $2,$2,8
 1578 09c4 080075AE 	sw $21,8($19)
 1579 09c8 25884500 	or $17,$2,$5
 1580 09cc 97FFB526 	addu $21,$21,-105
 1581              	.set noreorder
 1582              	.set nomacro
 1583 09d0 E2FE0010 	b $L1043
 1584 09d4 21882602 	addu $17,$17,$6
 1585              	.set macro
 1586              	.set reorder
 1587              	
 1588              	$L456:
 1589 09d8 6900A22A 	slt $2,$21,105
GAS LISTING  			page 29


 1590              	.set noreorder
 1591              	.set nomacro
 1592 09dc 81FE4014 	bne $2,$0,$L58
 1593 09e0 21189302 	addu $3,$20,$19
 1594              	.set macro
 1595              	.set reorder
 1596              	
 1597              	.set noreorder
 1598              	.set nomacro
 1599 09e4 F2FF0010 	b $L1044
 1600 09e8 03006692 	lbu $6,3($19)
 1601              	.set macro
 1602              	.set reorder
 1603              	
 1604              	$L462:
 1605 09ec 7E00A22A 	slt $2,$21,126
 1606              	.set noreorder
 1607              	.set nomacro
 1608 09f0 7CFE4014 	bne $2,$0,$L58
 1609 09f4 21109302 	addu $2,$20,$19
 1610              	.set macro
 1611              	.set reorder
 1612              	
 1613 09f8 080075AE 	sw $21,8($19)
 1614 09fc 20005190 	lbu $17,32($2)
 1615 0a00 2D206002 	move $4,$19
 1616 0a04 01009426 	addu $20,$20,1
 1617 0a08 21883E02 	addu $17,$17,$fp
 1618              	.set noreorder
 1619              	.set nomacro
 1620 0a0c 1200000C 	jal _SNSPCRead16
 1621 0a10 2D282002 	move $5,$17
 1622              	.set macro
 1623              	.set reorder
 1624              	
 1625 0a14 080075AE 	sw $21,8($19)
 1626 0a18 2D884000 	move $17,$2
 1627 0a1c 2D206002 	move $4,$19
 1628 0a20 03006292 	lbu $2,3($19)
 1629 0a24 82FFB526 	addu $21,$21,-126
 1630              	.set noreorder
 1631              	.set nomacro
 1632 0a28 CCFE0010 	b $L1043
 1633 0a2c 21882202 	addu $17,$17,$2
 1634              	.set macro
 1635              	.set reorder
 1636              	
 1637              	$L471:
 1638 0a30 6900A22A 	slt $2,$21,105
 1639              	.set noreorder
 1640              	.set nomacro
 1641 0a34 6BFE4014 	bne $2,$0,$L58
 1642 0a38 21109302 	addu $2,$20,$19
 1643              	.set macro
 1644              	.set reorder
 1645              	
 1646 0a3c 080075AE 	sw $21,8($19)
GAS LISTING  			page 30


 1647 0a40 01009426 	addu $20,$20,1
 1648 0a44 20005290 	lbu $18,32($2)
 1649 0a48 21189302 	addu $3,$20,$19
 1650 0a4c 2D206002 	move $4,$19
 1651 0a50 20007190 	lbu $17,32($3)
 1652 0a54 01009426 	addu $20,$20,1
 1653              	$L1046:
 1654 0a58 21883E02 	addu $17,$17,$fp
 1655              	.set noreorder
 1656              	.set nomacro
 1657 0a5c 0000000C 	jal _SNSPCRead8
 1658 0a60 2D282002 	move $5,$17
 1659              	.set macro
 1660              	.set reorder
 1661              	
 1662 0a64 2D282002 	move $5,$17
 1663 0a68 25805200 	or $16,$2,$18
 1664              	$L1011:
 1665 0a6c FF000632 	andi $6,$16,0x00ff
 1666 0a70 00B21000 	sll $22,$16,8
 1667 0a74 080075AE 	sw $21,8($19)
 1668              	$L1005:
 1669              	.set noreorder
 1670              	.set nomacro
 1671 0a78 3E00000C 	jal _SNSPCWrite8
 1672 0a7c 2D206002 	move $4,$19
 1673              	.set macro
 1674              	.set reorder
 1675              	
 1676              	.set noreorder
 1677              	.set nomacro
 1678 0a80 AAFE0010 	b $L781
 1679 0a84 2DB8C002 	move $23,$22
 1680              	.set macro
 1681              	.set reorder
 1682              	
 1683              	$L465:
 1684 0a88 6900A22A 	slt $2,$21,105
 1685              	.set noreorder
 1686              	.set nomacro
 1687 0a8c 55FE4014 	bne $2,$0,$L58
 1688 0a90 2D206002 	move $4,$19
 1689              	.set macro
 1690              	.set reorder
 1691              	
 1692 0a94 03007192 	lbu $17,3($19)
 1693 0a98 080075AE 	sw $21,8($19)
 1694 0a9c 21883E02 	addu $17,$17,$fp
 1695              	.set noreorder
 1696              	.set nomacro
 1697 0aa0 0000000C 	jal _SNSPCRead8
 1698 0aa4 2D282002 	move $5,$17
 1699              	.set macro
 1700              	.set reorder
 1701              	
 1702 0aa8 080075AE 	sw $21,8($19)
 1703 0aac 04007192 	lbu $17,4($19)
GAS LISTING  			page 31


 1704 0ab0 2D904000 	move $18,$2
 1705              	.set noreorder
 1706              	.set nomacro
 1707 0ab4 E8FF0010 	b $L1046
 1708 0ab8 2D206002 	move $4,$19
 1709              	.set macro
 1710              	.set reorder
 1711              	
 1712              	$L550:
 1713 0abc 7E00A22A 	slt $2,$21,126
 1714              	.set noreorder
 1715              	.set nomacro
 1716 0ac0 48FE4014 	bne $2,$0,$L58
 1717 0ac4 21109302 	addu $2,$20,$19
 1718              	.set macro
 1719              	.set reorder
 1720              	
 1721 0ac8 080075AE 	sw $21,8($19)
 1722 0acc 20005190 	lbu $17,32($2)
 1723 0ad0 2D206002 	move $4,$19
 1724 0ad4 01009426 	addu $20,$20,1
 1725 0ad8 21883E02 	addu $17,$17,$fp
 1726              	.set noreorder
 1727              	.set nomacro
 1728 0adc 1200000C 	jal _SNSPCRead16
 1729 0ae0 2D282002 	move $5,$17
 1730              	.set macro
 1731              	.set reorder
 1732              	
 1733 0ae4 2D282002 	move $5,$17
 1734 0ae8 FFFF5224 	addu $18,$2,-1
 1735              	$L1014:
 1736 0aec 080075AE 	sw $21,8($19)
 1737 0af0 FFFF4632 	andi $6,$18,0xffff
 1738 0af4 2D206002 	move $4,$19
 1739              	.set noreorder
 1740              	.set nomacro
 1741 0af8 6400000C 	jal _SNSPCWrite16
 1742 0afc 2DB04002 	move $22,$18
 1743              	.set macro
 1744              	.set reorder
 1745              	
 1746              	.set noreorder
 1747              	.set nomacro
 1748 0b00 E7FE0010 	b $L1059
 1749 0b04 2DB8C002 	move $23,$22
 1750              	.set macro
 1751              	.set reorder
 1752              	
 1753              	$L97:
 1754 0b08 6900A22A 	slt $2,$21,105
 1755              	.set noreorder
 1756              	.set nomacro
 1757 0b0c 35FE4014 	bne $2,$0,$L58
 1758 0b10 21109302 	addu $2,$20,$19
 1759              	.set macro
 1760              	.set reorder
GAS LISTING  			page 32


 1761              	
 1762 0b14 04006392 	lbu $3,4($19)
 1763 0b18 20005190 	lbu $17,32($2)
 1764 0b1c 2D206002 	move $4,$19
 1765 0b20 01009426 	addu $20,$20,1
 1766 0b24 080075AE 	sw $21,8($19)
 1767 0b28 21882302 	addu $17,$17,$3
 1768 0b2c FF003132 	andi $17,$17,0xff
 1769              	.set noreorder
 1770              	.set nomacro
 1771 0b30 FFFE0010 	b $L928
 1772 0b34 21883E02 	addu $17,$17,$fp
 1773              	.set macro
 1774              	.set reorder
 1775              	
 1776              	$L92:
 1777 0b38 2A00A22A 	slt $2,$21,42
 1778              	.set noreorder
 1779              	.set nomacro
 1780 0b3c 2AFE4054 	bnel $2,$0,$L1062
 1781 0b40 06006392 	lbu $3,6($19)
 1782              	.set macro
 1783              	.set reorder
 1784              	
 1785 0b44 02007292 	lbu $18,2($19)
 1786 0b48 D6FFB526 	addu $21,$21,-42
 1787 0b4c 40901200 	sll $18,$18,1
 1788              	$L914:
 1789 0b50 00B21200 	sll $22,$18,8
 1790 0b54 020072A2 	sb $18,2($19)
 1791 0b58 2DB8C002 	move $23,$22
 1792 0b5c 02921200 	srl $18,$18,8
 1793              	$L838:
 1794 0b60 01005232 	andi $18,$18,0x1
 1795              	.set noreorder
 1796              	.set nomacro
 1797 0b64 0EFE0010 	b $L828
 1798 0b68 0000B2AF 	sw $18,0($sp)
 1799              	.set macro
 1800              	.set reorder
 1801              	
 1802              	$L513:
 1803 0b6c 2A00A22A 	slt $2,$21,42
 1804              	.set noreorder
 1805              	.set nomacro
 1806 0b70 1DFE4054 	bnel $2,$0,$L1062
 1807 0b74 06006392 	lbu $3,6($19)
 1808              	.set macro
 1809              	.set reorder
 1810              	
 1811 0b78 04007292 	lbu $18,4($19)
 1812 0b7c D6FFB526 	addu $21,$21,-42
 1813 0b80 FFFF5226 	addu $18,$18,-1
 1814              	$L889:
 1815 0b84 00B21200 	sll $22,$18,8
 1816              	.set noreorder
 1817              	.set nomacro
GAS LISTING  			page 33


 1818 0b88 7CFE0010 	b $L836
 1819 0b8c 040072A2 	sb $18,4($19)
 1820              	.set macro
 1821              	.set reorder
 1822              	
 1823              	$L381:
 1824 0b90 5400A22A 	slt $2,$21,84
 1825              	.set noreorder
 1826              	.set nomacro
 1827 0b94 13FE4014 	bne $2,$0,$L58
 1828 0b98 21109302 	addu $2,$20,$19
 1829              	.set macro
 1830              	.set reorder
 1831              	
 1832 0b9c 080075AE 	sw $21,8($19)
 1833 0ba0 21004390 	lbu $3,33($2)
 1834 0ba4 2D206002 	move $4,$19
 1835 0ba8 20004590 	lbu $5,32($2)
 1836 0bac 02009426 	addu $20,$20,2
 1837 0bb0 001A0300 	sll $3,$3,8
 1838 0bb4 ACFFB526 	addu $21,$21,-84
 1839 0bb8 25886500 	or $17,$3,$5
 1840              	$L989:
 1841              	.set noreorder
 1842              	.set nomacro
 1843 0bbc 0000000C 	jal _SNSPCRead8
 1844 0bc0 2D282002 	move $5,$17
 1845              	.set macro
 1846              	.set reorder
 1847              	
 1848 0bc4 04007092 	lbu $16,4($19)
 1849 0bc8 2D904000 	move $18,$2
 1850              	$L913:
 1851 0bcc 23801202 	subu $16,$16,$18
 1852 0bd0 00B21000 	sll $22,$16,8
 1853 0bd4 02821000 	srl $16,$16,8
 1854 0bd8 0100103A 	xori $16,$16,0x1
 1855 0bdc 2DB8C002 	move $23,$22
 1856              	$L837:
 1857 0be0 01001032 	andi $16,$16,0x1
 1858              	.set noreorder
 1859              	.set nomacro
 1860 0be4 EEFD0010 	b $L828
 1861 0be8 0000B0AF 	sw $16,0($sp)
 1862              	.set macro
 1863              	.set reorder
 1864              	
 1865              	$L574:
 1866 0bec 7E00A22A 	slt $2,$21,126
 1867              	.set noreorder
 1868              	.set nomacro
 1869 0bf0 FCFD4014 	bne $2,$0,$L58
 1870 0bf4 21189302 	addu $3,$20,$19
 1871              	.set macro
 1872              	.set reorder
 1873              	
 1874 0bf8 04006692 	lbu $6,4($19)
GAS LISTING  			page 34


 1875 0bfc 21006290 	lbu $2,33($3)
 1876 0c00 2D206002 	move $4,$19
 1877 0c04 20006590 	lbu $5,32($3)
 1878 0c08 00120200 	sll $2,$2,8
 1879 0c0c 080075AE 	sw $21,8($19)
 1880 0c10 25884500 	or $17,$2,$5
 1881 0c14 82FFB526 	addu $21,$21,-126
 1882 0c18 21882602 	addu $17,$17,$6
 1883              	.set noreorder
 1884              	.set nomacro
 1885 0c1c 1200000C 	jal _SNSPCRead16
 1886 0c20 2D282002 	move $5,$17
 1887              	.set macro
 1888              	.set reorder
 1889              	
 1890              	.set noreorder
 1891              	.set nomacro
 1892 0c24 DEFD0010 	b $L828
 1893 0c28 FFFF5430 	andi $20,$2,0xffff
 1894              	.set macro
 1895              	.set reorder
 1896              	
 1897              	$L71:
 1898 0c2c 2A00A22A 	slt $2,$21,42
 1899              	.set noreorder
 1900              	.set nomacro
 1901 0c30 ECFD4014 	bne $2,$0,$L58
 1902 0c34 2DF00000 	move $fp,$0
 1903              	.set macro
 1904              	.set reorder
 1905              	
 1906 0c38 06006292 	lbu $2,6($19)
 1907 0c3c D6FFB526 	addu $21,$21,-42
 1908 0c40 DF004230 	andi $2,$2,0xdf
 1909              	$L840:
 1910              	.set noreorder
 1911              	.set nomacro
 1912 0c44 D6FD0010 	b $L828
 1913 0c48 060062A2 	sb $2,6($19)
 1914              	.set macro
 1915              	.set reorder
 1916              	
 1917              	$L798:
 1918 0c4c A800A22A 	slt $2,$21,168
 1919              	.set noreorder
 1920              	.set nomacro
 1921 0c50 E4FD4014 	bne $2,$0,$L58
 1922 0c54 2D206002 	move $4,$19
 1923              	.set macro
 1924              	.set reorder
 1925              	
 1926 0c58 DAFF0534 	li $5,65498
 1927              	.set noreorder
 1928              	.set nomacro
 1929 0c5c 03FE0010 	b $L830
 1930 0c60 080075AE 	sw $21,8($19)
 1931              	.set macro
GAS LISTING  			page 35


 1932              	.set reorder
 1933              	
 1934              	$L580:
 1935 0c64 5400A22A 	slt $2,$21,84
 1936              	.set noreorder
 1937              	.set nomacro
 1938 0c68 DEFD4014 	bne $2,$0,$L58
 1939 0c6c 21109302 	addu $2,$20,$19
 1940              	.set macro
 1941              	.set reorder
 1942              	
 1943 0c70 080075AE 	sw $21,8($19)
 1944 0c74 20005190 	lbu $17,32($2)
 1945 0c78 2D206002 	move $4,$19
 1946 0c7c 01009426 	addu $20,$20,1
 1947 0c80 21883E02 	addu $17,$17,$fp
 1948              	.set noreorder
 1949              	.set nomacro
 1950 0c84 0000000C 	jal _SNSPCRead8
 1951 0c88 2D282002 	move $5,$17
 1952              	.set macro
 1953              	.set reorder
 1954              	
 1955 0c8c 2D282002 	move $5,$17
 1956              	.set noreorder
 1957              	.set nomacro
 1958 0c90 0AFE0010 	b $L1016
 1959 0c94 02005234 	ori $18,$2,0x2
 1960              	.set macro
 1961              	.set reorder
 1962              	
 1963              	$L707:
 1964 0c98 6900A22A 	slt $2,$21,105
 1965              	.set noreorder
 1966              	.set nomacro
 1967 0c9c D1FD4014 	bne $2,$0,$L58
 1968 0ca0 21109302 	addu $2,$20,$19
 1969              	.set macro
 1970              	.set reorder
 1971              	
 1972 0ca4 080075AE 	sw $21,8($19)
 1973 0ca8 20005190 	lbu $17,32($2)
 1974 0cac 2D206002 	move $4,$19
 1975 0cb0 01009426 	addu $20,$20,1
 1976 0cb4 21883E02 	addu $17,$17,$fp
 1977              	.set noreorder
 1978              	.set nomacro
 1979 0cb8 0000000C 	jal _SNSPCRead8
 1980 0cbc 2D282002 	move $5,$17
 1981              	.set macro
 1982              	.set reorder
 1983              	
 1984 0cc0 2D904000 	move $18,$2
 1985 0cc4 21109302 	addu $2,$20,$19
 1986              	.set noreorder
 1987              	.set nomacro
 1988 0cc8 11FE0010 	b $L952
GAS LISTING  			page 36


 1989 0ccc 02005232 	andi $18,$18,0x2
 1990              	.set macro
 1991              	.set reorder
 1992              	
 1993              	$L408:
 1994 0cd0 3F00A22A 	slt $2,$21,63
 1995              	.set noreorder
 1996              	.set nomacro
 1997 0cd4 C3FD4014 	bne $2,$0,$L58
 1998 0cd8 21109302 	addu $2,$20,$19
 1999              	.set macro
 2000              	.set reorder
 2001              	
 2002 0cdc 080075AE 	sw $21,8($19)
 2003 0ce0 20005190 	lbu $17,32($2)
 2004 0ce4 2D206002 	move $4,$19
 2005 0ce8 01009426 	addu $20,$20,1
 2006              	$L995:
 2007 0cec C1FFB526 	addu $21,$21,-63
 2008              	$L996:
 2009 0cf0 21883E02 	addu $17,$17,$fp
 2010              	$L993:
 2011 0cf4 2D282002 	move $5,$17
 2012              	$L994:
 2013 0cf8 0000000C 	jal _SNSPCRead8
 2013      00000000 
 2014 0d00 02007092 	lbu $16,2($19)
 2015 0d04 2D904000 	move $18,$2
 2016              	$L869:
 2017              	.set noreorder
 2018              	.set nomacro
 2019 0d08 1AFE0010 	b $L887
 2020 0d0c 24801202 	and $16,$16,$18
 2021              	.set macro
 2022              	.set reorder
 2023              	
 2024              	$L414:
 2025 0d10 5400A22A 	slt $2,$21,84
 2026              	.set noreorder
 2027              	.set nomacro
 2028 0d14 B3FD4014 	bne $2,$0,$L58
 2029 0d18 21109302 	addu $2,$20,$19
 2030              	.set macro
 2031              	.set reorder
 2032              	
 2033 0d1c 080075AE 	sw $21,8($19)
 2034 0d20 21004390 	lbu $3,33($2)
 2035 0d24 2D206002 	move $4,$19
 2036 0d28 20004590 	lbu $5,32($2)
 2037 0d2c 02009426 	addu $20,$20,2
 2038 0d30 001A0300 	sll $3,$3,8
 2039 0d34 ACFFB526 	addu $21,$21,-84
 2040              	.set noreorder
 2041              	.set nomacro
 2042 0d38 EEFF0010 	b $L993
 2043 0d3c 25886500 	or $17,$3,$5
 2044              	.set macro
GAS LISTING  			page 37


 2045              	.set reorder
 2046              	
 2047              	$L406:
 2048 0d40 3F00A22A 	slt $2,$21,63
 2049              	.set noreorder
 2050              	.set nomacro
 2051 0d44 A7FD4014 	bne $2,$0,$L58
 2052 0d48 2D206002 	move $4,$19
 2053              	.set macro
 2054              	.set reorder
 2055              	
 2056 0d4c 04007192 	lbu $17,4($19)
 2057              	.set noreorder
 2058              	.set nomacro
 2059 0d50 E6FF0010 	b $L995
 2060 0d54 080075AE 	sw $21,8($19)
 2061              	.set macro
 2062              	.set reorder
 2063              	
 2064              	$L423:
 2065 0d58 7E00A22A 	slt $2,$21,126
 2066              	.set noreorder
 2067              	.set nomacro
 2068 0d5c A1FD4014 	bne $2,$0,$L58
 2069 0d60 21109302 	addu $2,$20,$19
 2070              	.set macro
 2071              	.set reorder
 2072              	
 2073 0d64 04006392 	lbu $3,4($19)
 2074 0d68 20005190 	lbu $17,32($2)
 2075 0d6c 2D206002 	move $4,$19
 2076 0d70 080075AE 	sw $21,8($19)
 2077 0d74 01009426 	addu $20,$20,1
 2078 0d78 21882302 	addu $17,$17,$3
 2079 0d7c FF003132 	andi $17,$17,0xff
 2080 0d80 21883E02 	addu $17,$17,$fp
 2081              	.set noreorder
 2082              	.set nomacro
 2083 0d84 1200000C 	jal _SNSPCRead16
 2084 0d88 2D282002 	move $5,$17
 2085              	.set macro
 2086              	.set reorder
 2087              	
 2088 0d8c 080075AE 	sw $21,8($19)
 2089 0d90 2D206002 	move $4,$19
 2090 0d94 2D284000 	move $5,$2
 2091              	.set noreorder
 2092              	.set nomacro
 2093 0d98 D7FF0010 	b $L994
 2094 0d9c 82FFB526 	addu $21,$21,-126
 2095              	.set macro
 2096              	.set reorder
 2097              	
 2098              	$L403:
 2099 0da0 2A00A22A 	slt $2,$21,42
 2100              	.set noreorder
 2101              	.set nomacro
GAS LISTING  			page 38


 2102 0da4 8FFD4014 	bne $2,$0,$L58
 2103 0da8 21109302 	addu $2,$20,$19
 2104              	.set macro
 2105              	.set reorder
 2106              	
 2107 0dac 02007092 	lbu $16,2($19)
 2108 0db0 20005290 	lbu $18,32($2)
 2109 0db4 01009426 	addu $20,$20,1
 2110              	.set noreorder
 2111              	.set nomacro
 2112 0db8 D3FF0010 	b $L869
 2113 0dbc D6FFB526 	addu $21,$21,-42
 2114              	.set macro
 2115              	.set reorder
 2116              	
 2117              	$L431:
 2118 0dc0 7E00A22A 	slt $2,$21,126
 2119              	.set noreorder
 2120              	.set nomacro
 2121 0dc4 87FD4014 	bne $2,$0,$L58
 2122 0dc8 21109302 	addu $2,$20,$19
 2123              	.set macro
 2124              	.set reorder
 2125              	
 2126 0dcc 080075AE 	sw $21,8($19)
 2127 0dd0 20005190 	lbu $17,32($2)
 2128 0dd4 2D206002 	move $4,$19
 2129 0dd8 01009426 	addu $20,$20,1
 2130 0ddc 21883E02 	addu $17,$17,$fp
 2131              	.set noreorder
 2132              	.set nomacro
 2133 0de0 0000000C 	jal _SNSPCRead8
 2134 0de4 2D282002 	move $5,$17
 2135              	.set macro
 2136              	.set reorder
 2137              	
 2138 0de8 080075AE 	sw $21,8($19)
 2139 0dec 2D904000 	move $18,$2
 2140 0df0 2D206002 	move $4,$19
 2141 0df4 21109302 	addu $2,$20,$19
 2142 0df8 01009426 	addu $20,$20,1
 2143 0dfc 20005190 	lbu $17,32($2)
 2144              	
 2145 0e00 21883E02 	addu $17,$17,$fp
 2146              	.set noreorder
 2147              	.set nomacro
 2148 0e04 0000000C 	jal _SNSPCRead8
 2149 0e08 2D282002 	move $5,$17
 2150              	.set macro
 2151              	.set reorder
 2152              	
 2153 0e0c 2D282002 	move $5,$17
 2154              	.set noreorder
 2155              	.set nomacro
 2156 0e10 1DFE0010 	b $L1013
 2157 0e14 24805200 	and $16,$2,$18
 2158              	.set macro
GAS LISTING  			page 39


 2159              	.set reorder
 2160              	
 2161              	$L116:
 2162 0e18 5400A22A 	slt $2,$21,84
 2163              	.set noreorder
 2164              	.set nomacro
 2165 0e1c 71FD4014 	bne $2,$0,$L58
 2166 0e20 21109302 	addu $2,$20,$19
 2167              	.set macro
 2168              	.set reorder
 2169              	
 2170 0e24 080075AE 	sw $21,8($19)
 2171 0e28 20005190 	lbu $17,32($2)
 2172 0e2c 2D206002 	move $4,$19
 2173 0e30 01009426 	addu $20,$20,1
 2174 0e34 21883E02 	addu $17,$17,$fp
 2175              	.set noreorder
 2176              	.set nomacro
 2177 0e38 0000000C 	jal _SNSPCRead8
 2178 0e3c 2D282002 	move $5,$17
 2179              	.set macro
 2180              	.set reorder
 2181              	
 2182 0e40 2D206002 	move $4,$19
 2183 0e44 40900200 	sll $18,$2,1
 2184 0e48 080075AE 	sw $21,8($19)
 2185 0e4c 0000A28F 	lw $2,0($sp)
 2186 0e50 2D282002 	move $5,$17
 2187 0e54 25904202 	or $18,$18,$2
 2188 0e58 FF004632 	andi $6,$18,0x00ff
 2189              	.set noreorder
 2190              	.set nomacro
 2191 0e5c 22FE0010 	b $L922
 2192 0e60 00B21200 	sll $22,$18,8
 2193              	.set macro
 2194              	.set reorder
 2195              	
 2196              	$L122:
 2197 0e64 6900A22A 	slt $2,$21,105
 2198              	.set noreorder
 2199              	.set nomacro
 2200 0e68 5EFD4014 	bne $2,$0,$L58
 2201 0e6c 21189302 	addu $3,$20,$19
 2202              	.set macro
 2203              	.set reorder
 2204              	
 2205 0e70 080075AE 	sw $21,8($19)
 2206 0e74 21006290 	lbu $2,33($3)
 2207 0e78 2D206002 	move $4,$19
 2208 0e7c 20006590 	lbu $5,32($3)
 2209 0e80 02009426 	addu $20,$20,2
 2210 0e84 00120200 	sll $2,$2,8
 2211 0e88 25884500 	or $17,$2,$5
 2212              	.set noreorder
 2213              	.set nomacro
 2214 0e8c 0000000C 	jal _SNSPCRead8
 2215 0e90 2D282002 	move $5,$17
GAS LISTING  			page 40


 2216              	.set macro
 2217              	.set reorder
 2218              	
 2219 0e94 0000A68F 	lw $6,0($sp)
 2220 0e98 40900200 	sll $18,$2,1
 2221 0e9c 080075AE 	sw $21,8($19)
 2222 0ea0 2D282002 	move $5,$17
 2223 0ea4 25904602 	or $18,$18,$6
 2224              	$L977:
 2225 0ea8 2D206002 	move $4,$19
 2226 0eac FF004632 	andi $6,$18,0x00ff
 2227              	.set noreorder
 2228              	.set nomacro
 2229 0eb0 27FE0010 	b $L932
 2230 0eb4 00B21200 	sll $22,$18,8
 2231              	.set macro
 2232              	.set reorder
 2233              	
 2234              	$L75:
 2235 0eb8 5400A22A 	slt $2,$21,84
 2236              	.set noreorder
 2237              	.set nomacro
 2238 0ebc 4AFD4054 	bnel $2,$0,$L1062
 2239 0ec0 06006392 	lbu $3,6($19)
 2240              	.set macro
 2241              	.set reorder
 2242              	
 2243              	.set noreorder
 2244              	.set nomacro
 2245 0ec4 38FE0010 	b $L839
 2246 0ec8 02006592 	lbu $5,2($19)
 2247              	.set macro
 2248              	.set reorder
 2249              	
 2250              	$L678:
 2251 0ecc 6900A22A 	slt $2,$21,105
 2252              	.set noreorder
 2253              	.set nomacro
 2254 0ed0 44FD4014 	bne $2,$0,$L58
 2255 0ed4 21109302 	addu $2,$20,$19
 2256              	.set macro
 2257              	.set reorder
 2258              	
 2259 0ed8 080075AE 	sw $21,8($19)
 2260 0edc 20005190 	lbu $17,32($2)
 2261 0ee0 2D206002 	move $4,$19
 2262 0ee4 01009426 	addu $20,$20,1
 2263 0ee8 21883E02 	addu $17,$17,$fp
 2264              	.set noreorder
 2265              	.set nomacro
 2266 0eec 0000000C 	jal _SNSPCRead8
 2267 0ef0 2D282002 	move $5,$17
 2268              	.set macro
 2269              	.set reorder
 2270              	
 2271 0ef4 02007092 	lbu $16,2($19)
 2272 0ef8 2D904000 	move $18,$2
GAS LISTING  			page 41


 2273 0efc 21109302 	addu $2,$20,$19
 2274 0f00 20004290 	lbu $2,32($2)
 2275              	.set noreorder
 2276              	.set nomacro
 2277 0f04 89FD5012 	beq $18,$16,$L781
 2278 0f08 01009426 	addu $20,$20,1
 2279              	.set macro
 2280              	.set reorder
 2281              	
 2282              	.set noreorder
 2283              	.set nomacro
 2284 0f0c 84FD0010 	b $L1058
 2285 0f10 00160200 	sll $2,$2,24
 2286              	.set macro
 2287              	.set reorder
 2288              	
 2289              	$L675:
 2290 0f14 5400A22A 	slt $2,$21,84
 2291              	.set noreorder
 2292              	.set nomacro
 2293 0f18 32FD4014 	bne $2,$0,$L58
 2294 0f1c 21189302 	addu $3,$20,$19
 2295              	.set macro
 2296              	.set reorder
 2297              	
 2298 0f20 ACFFB526 	addu $21,$21,-84
 2299 0f24 20006280 	lb $2,32($3)
 2300 0f28 01009426 	addu $20,$20,1
 2301              	.set noreorder
 2302              	.set nomacro
 2303 0f2c 1CFD0010 	b $L828
 2304 0f30 21A08202 	addu $20,$20,$2
 2305              	.set macro
 2306              	.set reorder
 2307              	
 2308              	$L647:
 2309 0f34 2A00A22A 	slt $2,$21,42
 2310              	.set noreorder
 2311              	.set nomacro
 2312 0f38 2AFD4014 	bne $2,$0,$L58
 2313 0f3c 21109302 	addu $2,$20,$19
 2314              	.set macro
 2315              	.set reorder
 2316              	
 2317 0f40 0080E332 	andi $3,$23,0x8000
 2318              	$L1020:
 2319 0f44 20004290 	lbu $2,32($2)
 2320 0f48 01009426 	addu $20,$20,1
 2321              	$L1019:
 2322              	.set noreorder
 2323              	.set nomacro
 2324 0f4c 14FD6050 	beql $3,$0,$L828
 2325 0f50 D6FFB526 	addu $21,$21,-42
 2326              	.set macro
 2327              	.set reorder
 2328              	
 2329              	.set noreorder
GAS LISTING  			page 42


 2330              	.set nomacro
 2331 0f54 59FE0010 	b $L1060
 2332 0f58 00160200 	sll $2,$2,24
 2333              	.set macro
 2334              	.set reorder
 2335              	
 2336              	$L800:
 2337 0f5c A800A22A 	slt $2,$21,168
 2338              	.set noreorder
 2339              	.set nomacro
 2340 0f60 20FD4014 	bne $2,$0,$L58
 2341 0f64 2D206002 	move $4,$19
 2342              	.set macro
 2343              	.set reorder
 2344              	
 2345 0f68 D8FF0534 	li $5,65496
 2346              	.set noreorder
 2347              	.set nomacro
 2348 0f6c 3FFD0010 	b $L830
 2349 0f70 080075AE 	sw $21,8($19)
 2350              	.set macro
 2351              	.set reorder
 2352              	
 2353              	$L604:
 2354 0f74 5400A22A 	slt $2,$21,84
 2355              	.set noreorder
 2356              	.set nomacro
 2357 0f78 1AFD4014 	bne $2,$0,$L58
 2358 0f7c 21109302 	addu $2,$20,$19
 2359              	.set macro
 2360              	.set reorder
 2361              	
 2362 0f80 080075AE 	sw $21,8($19)
 2363 0f84 20005190 	lbu $17,32($2)
 2364 0f88 2D206002 	move $4,$19
 2365 0f8c 01009426 	addu $20,$20,1
 2366 0f90 21883E02 	addu $17,$17,$fp
 2367              	.set noreorder
 2368              	.set nomacro
 2369 0f94 0000000C 	jal _SNSPCRead8
 2370 0f98 2D282002 	move $5,$17
 2371              	.set macro
 2372              	.set reorder
 2373              	
 2374 0f9c 080075AE 	sw $21,8($19)
 2375 0fa0 02005234 	ori $18,$2,0x2
 2376 0fa4 2D282002 	move $5,$17
 2377              	.set noreorder
 2378              	.set nomacro
 2379 0fa8 5CFE0010 	b $L1015
 2380 0fac 0200523A 	xori $18,$18,0x2
 2381              	.set macro
 2382              	.set reorder
 2383              	
 2384              	$L747:
 2385 0fb0 6900A22A 	slt $2,$21,105
 2386              	.set noreorder
GAS LISTING  			page 43


 2387              	.set nomacro
 2388 0fb4 0BFD4014 	bne $2,$0,$L58
 2389 0fb8 21109302 	addu $2,$20,$19
 2390              	.set macro
 2391              	.set reorder
 2392              	
 2393 0fbc 080075AE 	sw $21,8($19)
 2394 0fc0 20005190 	lbu $17,32($2)
 2395 0fc4 2D206002 	move $4,$19
 2396 0fc8 01009426 	addu $20,$20,1
 2397 0fcc 21883E02 	addu $17,$17,$fp
 2398              	.set noreorder
 2399              	.set nomacro
 2400 0fd0 0000000C 	jal _SNSPCRead8
 2401 0fd4 2D282002 	move $5,$17
 2402              	.set macro
 2403              	.set reorder
 2404              	
 2405 0fd8 2D904000 	move $18,$2
 2406 0fdc 21109302 	addu $2,$20,$19
 2407              	.set noreorder
 2408              	.set nomacro
 2409 0fe0 5EFE0010 	b $L951
 2410 0fe4 02005232 	andi $18,$18,0x2
 2411              	.set macro
 2412              	.set reorder
 2413              	
 2414              	$L411:
 2415 0fe8 5400A22A 	slt $2,$21,84
 2416              	.set noreorder
 2417              	.set nomacro
 2418 0fec FDFC4014 	bne $2,$0,$L58
 2419 0ff0 21109302 	addu $2,$20,$19
 2420              	.set macro
 2421              	.set reorder
 2422              	
 2423 0ff4 04006392 	lbu $3,4($19)
 2424 0ff8 20005190 	lbu $17,32($2)
 2425 0ffc 2D206002 	move $4,$19
 2426 1000 080075AE 	sw $21,8($19)
 2427 1004 01009426 	addu $20,$20,1
 2428 1008 21882302 	addu $17,$17,$3
 2429 100c ACFFB526 	addu $21,$21,-84
 2430              	.set noreorder
 2431              	.set nomacro
 2432 1010 37FF0010 	b $L996
 2433 1014 FF003132 	andi $17,$17,0xff
 2434              	.set macro
 2435              	.set reorder
 2436              	
 2437              	$L417:
 2438 1018 6900A22A 	slt $2,$21,105
 2439              	.set noreorder
 2440              	.set nomacro
 2441 101c F1FC4014 	bne $2,$0,$L58
 2442 1020 21189302 	addu $3,$20,$19
 2443              	.set macro
GAS LISTING  			page 44


 2444              	.set reorder
 2445              	
 2446 1024 04006692 	lbu $6,4($19)
 2447              	$L997:
 2448 1028 21006290 	lbu $2,33($3)
 2449 102c 2D206002 	move $4,$19
 2450 1030 20006590 	lbu $5,32($3)
 2451 1034 02009426 	addu $20,$20,2
 2452 1038 00120200 	sll $2,$2,8
 2453 103c 080075AE 	sw $21,8($19)
 2454 1040 25884500 	or $17,$2,$5
 2455 1044 97FFB526 	addu $21,$21,-105
 2456              	.set noreorder
 2457              	.set nomacro
 2458 1048 2AFF0010 	b $L993
 2459 104c 21882602 	addu $17,$17,$6
 2460              	.set macro
 2461              	.set reorder
 2462              	
 2463              	$L420:
 2464 1050 6900A22A 	slt $2,$21,105
 2465              	.set noreorder
 2466              	.set nomacro
 2467 1054 E3FC4014 	bne $2,$0,$L58
 2468 1058 21189302 	addu $3,$20,$19
 2469              	.set macro
 2470              	.set reorder
 2471              	
 2472              	.set noreorder
 2473              	.set nomacro
 2474 105c F2FF0010 	b $L997
 2475 1060 03006692 	lbu $6,3($19)
 2476              	.set macro
 2477              	.set reorder
 2478              	
 2479              	$L426:
 2480 1064 7E00A22A 	slt $2,$21,126
 2481              	.set noreorder
 2482              	.set nomacro
 2483 1068 DEFC4014 	bne $2,$0,$L58
 2484 106c 21109302 	addu $2,$20,$19
 2485              	.set macro
 2486              	.set reorder
 2487              	
 2488 1070 080075AE 	sw $21,8($19)
 2489 1074 20005190 	lbu $17,32($2)
 2490 1078 2D206002 	move $4,$19
 2491 107c 01009426 	addu $20,$20,1
 2492 1080 21883E02 	addu $17,$17,$fp
 2493              	.set noreorder
 2494              	.set nomacro
 2495 1084 1200000C 	jal _SNSPCRead16
 2496 1088 2D282002 	move $5,$17
 2497              	.set macro
 2498              	.set reorder
 2499              	
 2500 108c 080075AE 	sw $21,8($19)
GAS LISTING  			page 45


 2501 1090 2D884000 	move $17,$2
 2502 1094 2D206002 	move $4,$19
 2503 1098 03006292 	lbu $2,3($19)
 2504 109c 82FFB526 	addu $21,$21,-126
 2505              	.set noreorder
 2506              	.set nomacro
 2507 10a0 14FF0010 	b $L993
 2508 10a4 21882202 	addu $17,$17,$2
 2509              	.set macro
 2510              	.set reorder
 2511              	
 2512              	$L435:
 2513 10a8 6900A22A 	slt $2,$21,105
 2514              	.set noreorder
 2515              	.set nomacro
 2516 10ac CDFC4014 	bne $2,$0,$L58
 2517 10b0 21109302 	addu $2,$20,$19
 2518              	.set macro
 2519              	.set reorder
 2520              	
 2521 10b4 080075AE 	sw $21,8($19)
 2522 10b8 01009426 	addu $20,$20,1
 2523 10bc 20005290 	lbu $18,32($2)
 2524 10c0 21189302 	addu $3,$20,$19
 2525 10c4 2D206002 	move $4,$19
 2526 10c8 20007190 	lbu $17,32($3)
 2527 10cc 01009426 	addu $20,$20,1
 2528              	$L1007:
 2529 10d0 21883E02 	addu $17,$17,$fp
 2530              	.set noreorder
 2531              	.set nomacro
 2532 10d4 0000000C 	jal _SNSPCRead8
 2533 10d8 2D282002 	move $5,$17
 2534              	.set macro
 2535              	.set reorder
 2536              	
 2537 10dc 2D282002 	move $5,$17
 2538              	.set noreorder
 2539              	.set nomacro
 2540 10e0 62FE0010 	b $L1011
 2541 10e4 24805200 	and $16,$2,$18
 2542              	.set macro
 2543              	.set reorder
 2544              	
 2545              	$L429:
 2546 10e8 6900A22A 	slt $2,$21,105
 2547              	.set noreorder
 2548              	.set nomacro
 2549 10ec BDFC4014 	bne $2,$0,$L58
 2550 10f0 2D206002 	move $4,$19
 2551              	.set macro
 2552              	.set reorder
 2553              	
 2554 10f4 03007192 	lbu $17,3($19)
 2555 10f8 080075AE 	sw $21,8($19)
 2556 10fc 21883E02 	addu $17,$17,$fp
 2557              	.set noreorder
GAS LISTING  			page 46


 2558              	.set nomacro
 2559 1100 0000000C 	jal _SNSPCRead8
 2560 1104 2D282002 	move $5,$17
 2561              	.set macro
 2562              	.set reorder
 2563              	
 2564 1108 080075AE 	sw $21,8($19)
 2565 110c 04007192 	lbu $17,4($19)
 2566 1110 2D904000 	move $18,$2
 2567              	.set noreorder
 2568              	.set nomacro
 2569 1114 EEFF0010 	b $L1007
 2570 1118 2D206002 	move $4,$19
 2571              	.set macro
 2572              	.set reorder
 2573              	
 2574              	$L547:
 2575 111c 7E00A22A 	slt $2,$21,126
 2576              	.set noreorder
 2577              	.set nomacro
 2578 1120 B0FC4014 	bne $2,$0,$L58
 2579 1124 21109302 	addu $2,$20,$19
 2580              	.set macro
 2581              	.set reorder
 2582              	
 2583 1128 080075AE 	sw $21,8($19)
 2584 112c 20005190 	lbu $17,32($2)
 2585 1130 2D206002 	move $4,$19
 2586 1134 01009426 	addu $20,$20,1
 2587 1138 21883E02 	addu $17,$17,$fp
 2588              	.set noreorder
 2589              	.set nomacro
 2590 113c 1200000C 	jal _SNSPCRead16
 2591 1140 2D282002 	move $5,$17
 2592              	.set macro
 2593              	.set reorder
 2594              	
 2595 1144 2D282002 	move $5,$17
 2596              	.set noreorder
 2597              	.set nomacro
 2598 1148 68FE0010 	b $L1014
 2599 114c 01005224 	addu $18,$2,1
 2600              	.set macro
 2601              	.set reorder
 2602              	
 2603              	$L119:
 2604 1150 6900A22A 	slt $2,$21,105
 2605              	.set noreorder
 2606              	.set nomacro
 2607 1154 A3FC4014 	bne $2,$0,$L58
 2608 1158 21109302 	addu $2,$20,$19
 2609              	.set macro
 2610              	.set reorder
 2611              	
 2612 115c 04006392 	lbu $3,4($19)
 2613 1160 20005190 	lbu $17,32($2)
 2614 1164 2D206002 	move $4,$19
GAS LISTING  			page 47


 2615 1168 080075AE 	sw $21,8($19)
 2616 116c 01009426 	addu $20,$20,1
 2617 1170 21882302 	addu $17,$17,$3
 2618 1174 FF003132 	andi $17,$17,0xff
 2619 1178 21883E02 	addu $17,$17,$fp
 2620              	.set noreorder
 2621              	.set nomacro
 2622 117c 0000000C 	jal _SNSPCRead8
 2623 1180 2D282002 	move $5,$17
 2624              	.set macro
 2625              	.set reorder
 2626              	
 2627 1184 0000A38F 	lw $3,0($sp)
 2628 1188 40900200 	sll $18,$2,1
 2629 118c 2D282002 	move $5,$17
 2630 1190 25904302 	or $18,$18,$3
 2631              	.set noreorder
 2632              	.set nomacro
 2633 1194 44FF0010 	b $L977
 2634 1198 080075AE 	sw $21,8($19)
 2635              	.set macro
 2636              	.set reorder
 2637              	
 2638              	$L114:
 2639 119c 2A00A22A 	slt $2,$21,42
 2640              	.set noreorder
 2641              	.set nomacro
 2642 11a0 90FC4014 	bne $2,$0,$L58
 2643 11a4 0000A68F 	lw $6,0($sp)
 2644              	.set macro
 2645              	.set reorder
 2646              	
 2647 11a8 02007292 	lbu $18,2($19)
 2648 11ac D6FFB526 	addu $21,$21,-42
 2649 11b0 40901200 	sll $18,$18,1
 2650              	.set noreorder
 2651              	.set nomacro
 2652 11b4 66FE0010 	b $L914
 2653 11b8 25904602 	or $18,$18,$6
 2654              	.set macro
 2655              	.set reorder
 2656              	
 2657              	$L519:
 2658 11bc 2A00A22A 	slt $2,$21,42
 2659              	.set noreorder
 2660              	.set nomacro
 2661 11c0 89FC4054 	bnel $2,$0,$L1062
 2662 11c4 06006392 	lbu $3,6($19)
 2663              	.set macro
 2664              	.set reorder
 2665              	
 2666 11c8 04007292 	lbu $18,4($19)
 2667 11cc D6FFB526 	addu $21,$21,-42
 2668              	.set noreorder
 2669              	.set nomacro
 2670 11d0 6CFE0010 	b $L889
 2671 11d4 01005226 	addu $18,$18,1
GAS LISTING  			page 48


 2672              	.set macro
 2673              	.set reorder
 2674              	
 2675              	$L378:
 2676 11d8 3F00A22A 	slt $2,$21,63
 2677              	.set noreorder
 2678              	.set nomacro
 2679 11dc 81FC4014 	bne $2,$0,$L58
 2680 11e0 21109302 	addu $2,$20,$19
 2681              	.set macro
 2682              	.set reorder
 2683              	
 2684 11e4 080075AE 	sw $21,8($19)
 2685 11e8 20005190 	lbu $17,32($2)
 2686 11ec 2D206002 	move $4,$19
 2687 11f0 01009426 	addu $20,$20,1
 2688 11f4 C1FFB526 	addu $21,$21,-63
 2689              	.set noreorder
 2690              	.set nomacro
 2691 11f8 70FE0010 	b $L989
 2692 11fc 21883E02 	addu $17,$17,$fp
 2693              	.set macro
 2694              	.set reorder
 2695              	
 2696              	$L566:
 2697 1200 A800A22A 	slt $2,$21,168
 2698              	.set noreorder
 2699              	.set nomacro
 2700 1204 77FC4014 	bne $2,$0,$L58
 2701 1208 21189302 	addu $3,$20,$19
 2702              	.set macro
 2703              	.set reorder
 2704              	
 2705 120c 2D206002 	move $4,$19
 2706 1210 21006290 	lbu $2,33($3)
 2707 1214 02009426 	addu $20,$20,2
 2708 1218 20006690 	lbu $6,32($3)
 2709 121c FFFF8532 	andi $5,$20,0xffff
 2710 1220 00120200 	sll $2,$2,8
 2711 1224 58FFB526 	addu $21,$21,-168
 2712              	.set noreorder
 2713              	.set nomacro
 2714 1228 AE00000C 	jal _SNSPCPush16
 2715 122c 25884600 	or $17,$2,$6
 2716              	.set macro
 2717              	.set reorder
 2718              	
 2719              	.set noreorder
 2720              	.set nomacro
 2721 1230 5BFC0010 	b $L828
 2722 1234 2DA02002 	move $20,$17
 2723              	.set macro
 2724              	.set reorder
 2725              	
 2726              	$L73:
 2727 1238 2A00A22A 	slt $2,$21,42
 2728              	.set noreorder
GAS LISTING  			page 49


 2729              	.set nomacro
 2730 123c 69FC4014 	bne $2,$0,$L58
 2731 1240 00011E24 	li $fp,256
 2732              	.set macro
 2733              	.set reorder
 2734              	
 2735 1244 06006292 	lbu $2,6($19)
 2736 1248 D6FFB526 	addu $21,$21,-42
 2737 124c 20004234 	ori $2,$2,0x20
 2738              	$L841:
 2739              	.set noreorder
 2740              	.set nomacro
 2741 1250 7CFE0010 	b $L840
 2742 1254 FB004230 	andi $2,$2,0xfb
 2743              	.set macro
 2744              	.set reorder
 2745              	
 2746              	$L802:
 2747 1258 A800A22A 	slt $2,$21,168
 2748              	.set noreorder
 2749              	.set nomacro
 2750 125c 61FC4014 	bne $2,$0,$L58
 2751 1260 2D206002 	move $4,$19
 2752              	.set macro
 2753              	.set reorder
 2754              	
 2755 1264 D6FF0534 	li $5,65494
 2756              	.set noreorder
 2757              	.set nomacro
 2758 1268 80FC0010 	b $L830
 2759 126c 080075AE 	sw $21,8($19)
 2760              	.set macro
 2761              	.set reorder
 2762              	
 2763              	$L583:
 2764 1270 5400A22A 	slt $2,$21,84
 2765              	.set noreorder
 2766              	.set nomacro
 2767 1274 5BFC4014 	bne $2,$0,$L58
 2768 1278 21109302 	addu $2,$20,$19
 2769              	.set macro
 2770              	.set reorder
 2771              	
 2772 127c 080075AE 	sw $21,8($19)
 2773 1280 20005190 	lbu $17,32($2)
 2774 1284 2D206002 	move $4,$19
 2775 1288 01009426 	addu $20,$20,1
 2776 128c 21883E02 	addu $17,$17,$fp
 2777              	.set noreorder
 2778              	.set nomacro
 2779 1290 0000000C 	jal _SNSPCRead8
 2780 1294 2D282002 	move $5,$17
 2781              	.set macro
 2782              	.set reorder
 2783              	
 2784 1298 2D282002 	move $5,$17
 2785              	.set noreorder
GAS LISTING  			page 50


 2786              	.set nomacro
 2787 129c 87FC0010 	b $L1016
 2788 12a0 04005234 	ori $18,$2,0x4
 2789              	.set macro
 2790              	.set reorder
 2791              	
 2792              	$L712:
 2793 12a4 6900A22A 	slt $2,$21,105
 2794              	.set noreorder
 2795              	.set nomacro
 2796 12a8 4EFC4014 	bne $2,$0,$L58
 2797 12ac 21109302 	addu $2,$20,$19
 2798              	.set macro
 2799              	.set reorder
 2800              	
 2801 12b0 080075AE 	sw $21,8($19)
 2802 12b4 20005190 	lbu $17,32($2)
 2803 12b8 2D206002 	move $4,$19
 2804 12bc 01009426 	addu $20,$20,1
 2805 12c0 21883E02 	addu $17,$17,$fp
 2806              	.set noreorder
 2807              	.set nomacro
 2808 12c4 0000000C 	jal _SNSPCRead8
 2809 12c8 2D282002 	move $5,$17
 2810              	.set macro
 2811              	.set reorder
 2812              	
 2813 12cc 2D904000 	move $18,$2
 2814 12d0 21109302 	addu $2,$20,$19
 2815              	.set noreorder
 2816              	.set nomacro
 2817 12d4 8EFC0010 	b $L952
 2818 12d8 04005232 	andi $18,$18,0x4
 2819              	.set macro
 2820              	.set reorder
 2821              	
 2822              	$L480:
 2823 12dc 3F00A22A 	slt $2,$21,63
 2824              	.set noreorder
 2825              	.set nomacro
 2826 12e0 40FC4014 	bne $2,$0,$L58
 2827 12e4 21109302 	addu $2,$20,$19
 2828              	.set macro
 2829              	.set reorder
 2830              	
 2831 12e8 080075AE 	sw $21,8($19)
 2832 12ec 20005190 	lbu $17,32($2)
 2833 12f0 2D206002 	move $4,$19
 2834 12f4 01009426 	addu $20,$20,1
 2835              	$L892:
 2836 12f8 C1FFB526 	addu $21,$21,-63
 2837              	$L893:
 2838 12fc 21883E02 	addu $17,$17,$fp
 2839              	$L890:
 2840 1300 2D282002 	move $5,$17
 2841              	$L891:
 2842 1304 0000000C 	jal _SNSPCRead8
GAS LISTING  			page 51


 2842      00000000 
 2843 130c 02007092 	lbu $16,2($19)
 2844 1310 2D904000 	move $18,$2
 2845              	$L1000:
 2846              	.set noreorder
 2847              	.set nomacro
 2848 1314 97FC0010 	b $L887
 2849 1318 26801202 	xor $16,$16,$18
 2850              	.set macro
 2851              	.set reorder
 2852              	
 2853              	$L486:
 2854 131c 5400A22A 	slt $2,$21,84
 2855              	.set noreorder
 2856              	.set nomacro
 2857 1320 30FC4014 	bne $2,$0,$L58
 2858 1324 21109302 	addu $2,$20,$19
 2859              	.set macro
 2860              	.set reorder
 2861              	
 2862 1328 080075AE 	sw $21,8($19)
 2863 132c 21004390 	lbu $3,33($2)
 2864 1330 2D206002 	move $4,$19
 2865 1334 20004590 	lbu $5,32($2)
 2866 1338 02009426 	addu $20,$20,2
 2867 133c 001A0300 	sll $3,$3,8
 2868 1340 ACFFB526 	addu $21,$21,-84
 2869              	.set noreorder
 2870              	.set nomacro
 2871 1344 EEFF0010 	b $L890
 2872 1348 25886500 	or $17,$3,$5
 2873              	.set macro
 2874              	.set reorder
 2875              	
 2876              	$L478:
 2877 134c 3F00A22A 	slt $2,$21,63
 2878              	.set noreorder
 2879              	.set nomacro
 2880 1350 24FC4014 	bne $2,$0,$L58
 2881 1354 2D206002 	move $4,$19
 2882              	.set macro
 2883              	.set reorder
 2884              	
 2885 1358 04007192 	lbu $17,4($19)
 2886              	.set noreorder
 2887              	.set nomacro
 2888 135c E6FF0010 	b $L892
 2889 1360 080075AE 	sw $21,8($19)
 2890              	.set macro
 2891              	.set reorder
 2892              	
 2893              	$L495:
 2894 1364 7E00A22A 	slt $2,$21,126
 2895              	.set noreorder
 2896              	.set nomacro
 2897 1368 1EFC4014 	bne $2,$0,$L58
 2898 136c 21109302 	addu $2,$20,$19
GAS LISTING  			page 52


 2899              	.set macro
 2900              	.set reorder
 2901              	
 2902 1370 04006392 	lbu $3,4($19)
 2903 1374 20005190 	lbu $17,32($2)
 2904 1378 2D206002 	move $4,$19
 2905 137c 080075AE 	sw $21,8($19)
 2906 1380 01009426 	addu $20,$20,1
 2907 1384 21882302 	addu $17,$17,$3
 2908 1388 FF003132 	andi $17,$17,0xff
 2909 138c 21883E02 	addu $17,$17,$fp
 2910              	.set noreorder
 2911              	.set nomacro
 2912 1390 1200000C 	jal _SNSPCRead16
 2913 1394 2D282002 	move $5,$17
 2914              	.set macro
 2915              	.set reorder
 2916              	
 2917 1398 080075AE 	sw $21,8($19)
 2918 139c 2D206002 	move $4,$19
 2919 13a0 2D284000 	move $5,$2
 2920              	.set noreorder
 2921              	.set nomacro
 2922 13a4 D7FF0010 	b $L891
 2923 13a8 82FFB526 	addu $21,$21,-126
 2924              	.set macro
 2925              	.set reorder
 2926              	
 2927              	$L475:
 2928 13ac 2A00A22A 	slt $2,$21,42
 2929              	.set noreorder
 2930              	.set nomacro
 2931 13b0 0CFC4014 	bne $2,$0,$L58
 2932 13b4 21109302 	addu $2,$20,$19
 2933              	.set macro
 2934              	.set reorder
 2935              	
 2936 13b8 02007092 	lbu $16,2($19)
 2937 13bc 20005290 	lbu $18,32($2)
 2938 13c0 01009426 	addu $20,$20,1
 2939              	.set noreorder
 2940              	.set nomacro
 2941 13c4 D3FF0010 	b $L1000
 2942 13c8 D6FFB526 	addu $21,$21,-42
 2943              	.set macro
 2944              	.set reorder
 2945              	
 2946              	$L503:
 2947 13cc 7E00A22A 	slt $2,$21,126
 2948              	.set noreorder
 2949              	.set nomacro
 2950 13d0 04FC4014 	bne $2,$0,$L58
 2951 13d4 21109302 	addu $2,$20,$19
 2952              	.set macro
 2953              	.set reorder
 2954              	
 2955 13d8 080075AE 	sw $21,8($19)
GAS LISTING  			page 53


 2956 13dc 20005190 	lbu $17,32($2)
 2957 13e0 2D206002 	move $4,$19
 2958 13e4 01009426 	addu $20,$20,1
 2959 13e8 21883E02 	addu $17,$17,$fp
 2960              	.set noreorder
 2961              	.set nomacro
 2962 13ec 0000000C 	jal _SNSPCRead8
 2963 13f0 2D282002 	move $5,$17
 2964              	.set macro
 2965              	.set reorder
 2966              	
 2967 13f4 080075AE 	sw $21,8($19)
 2968 13f8 2D904000 	move $18,$2
 2969 13fc 2D206002 	move $4,$19
 2970 1400 21109302 	addu $2,$20,$19
 2971 1404 01009426 	addu $20,$20,1
 2972 1408 20005190 	lbu $17,32($2)
 2973              	
 2974 140c 21883E02 	addu $17,$17,$fp
 2975              	.set noreorder
 2976              	.set nomacro
 2977 1410 0000000C 	jal _SNSPCRead8
 2978 1414 2D282002 	move $5,$17
 2979              	.set macro
 2980              	.set reorder
 2981              	
 2982 1418 2D282002 	move $5,$17
 2983              	.set noreorder
 2984              	.set nomacro
 2985 141c 9AFC0010 	b $L1013
 2986 1420 26805200 	xor $16,$2,$18
 2987              	.set macro
 2988              	.set reorder
 2989              	
 2990              	$L105:
 2991 1424 5400A22A 	slt $2,$21,84
 2992              	.set noreorder
 2993              	.set nomacro
 2994 1428 EEFB4014 	bne $2,$0,$L58
 2995 142c 21109302 	addu $2,$20,$19
 2996              	.set macro
 2997              	.set reorder
 2998              	
 2999 1430 080075AE 	sw $21,8($19)
 3000 1434 20005190 	lbu $17,32($2)
 3001 1438 2D206002 	move $4,$19
 3002 143c 01009426 	addu $20,$20,1
 3003 1440 21883E02 	addu $17,$17,$fp
 3004              	.set noreorder
 3005              	.set nomacro
 3006 1444 0000000C 	jal _SNSPCRead8
 3007 1448 2D282002 	move $5,$17
 3008              	.set macro
 3009              	.set reorder
 3010              	
 3011 144c 2D206002 	move $4,$19
 3012 1450 42900200 	srl $18,$2,1
GAS LISTING  			page 54


 3013 1454 01004630 	andi $6,$2,0x1
 3014 1458 00B21200 	sll $22,$18,8
 3015 145c 0000A6AF 	sw $6,0($sp)
 3016 1460 2D282002 	move $5,$17
 3017 1464 2DB8C002 	move $23,$22
 3018 1468 FF004632 	andi $6,$18,0x00ff
 3019 146c 080075AE 	sw $21,8($19)
 3020              	$L926:
 3021              	.set noreorder
 3022              	.set nomacro
 3023 1470 3E00000C 	jal _SNSPCWrite8
 3024 1474 ACFFB526 	addu $21,$21,-84
 3025              	.set macro
 3026              	.set reorder
 3027              	
 3028              	.set noreorder
 3029              	.set nomacro
 3030 1478 CAFB0010 	b $L1057
 3031 147c 21189302 	addu $3,$20,$19
 3032              	.set macro
 3033              	.set reorder
 3034              	
 3035              	$L111:
 3036 1480 6900A22A 	slt $2,$21,105
 3037              	.set noreorder
 3038              	.set nomacro
 3039 1484 D7FB4014 	bne $2,$0,$L58
 3040 1488 21189302 	addu $3,$20,$19
 3041              	.set macro
 3042              	.set reorder
 3043              	
 3044 148c 080075AE 	sw $21,8($19)
 3045 1490 21006290 	lbu $2,33($3)
 3046 1494 2D206002 	move $4,$19
 3047 1498 20006590 	lbu $5,32($3)
 3048 149c 02009426 	addu $20,$20,2
 3049 14a0 00120200 	sll $2,$2,8
 3050 14a4 25884500 	or $17,$2,$5
 3051              	.set noreorder
 3052              	.set nomacro
 3053 14a8 0000000C 	jal _SNSPCRead8
 3054 14ac 2D282002 	move $5,$17
 3055              	.set macro
 3056              	.set reorder
 3057              	
 3058 14b0 2D282002 	move $5,$17
 3059 14b4 01004330 	andi $3,$2,0x1
 3060 14b8 2D904000 	move $18,$2
 3061 14bc 0000A3AF 	sw $3,0($sp)
 3062              	$L930:
 3063 14c0 42901200 	srl $18,$18,1
 3064 14c4 2D206002 	move $4,$19
 3065 14c8 00B21200 	sll $22,$18,8
 3066 14cc FF004632 	andi $6,$18,0x00ff
 3067 14d0 2DB8C002 	move $23,$22
 3068 14d4 080075AE 	sw $21,8($19)
 3069              	$L936:
GAS LISTING  			page 55


 3070              	.set noreorder
 3071              	.set nomacro
 3072 14d8 3E00000C 	jal _SNSPCWrite8
 3073 14dc 97FFB526 	addu $21,$21,-105
 3074              	.set macro
 3075              	.set reorder
 3076              	
 3077              	.set noreorder
 3078              	.set nomacro
 3079 14e0 B0FB0010 	b $L1057
 3080 14e4 21189302 	addu $3,$20,$19
 3081              	.set macro
 3082              	.set reorder
 3083              	
 3084              	$L77:
 3085 14e8 5400A22A 	slt $2,$21,84
 3086              	.set noreorder
 3087              	.set nomacro
 3088 14ec BEFB4054 	bnel $2,$0,$L1062
 3089 14f0 06006392 	lbu $3,6($19)
 3090              	.set macro
 3091              	.set reorder
 3092              	
 3093              	.set noreorder
 3094              	.set nomacro
 3095 14f4 ACFC0010 	b $L839
 3096 14f8 04006592 	lbu $5,4($19)
 3097              	.set macro
 3098              	.set reorder
 3099              	
 3100              	$L628:
 3101 14fc 7E00A22A 	slt $2,$21,126
 3102              	.set noreorder
 3103              	.set nomacro
 3104 1500 B8FB4014 	bne $2,$0,$L58
 3105 1504 21189302 	addu $3,$20,$19
 3106              	.set macro
 3107              	.set reorder
 3108              	
 3109 1508 080075AE 	sw $21,8($19)
 3110 150c 21006290 	lbu $2,33($3)
 3111 1510 2D206002 	move $4,$19
 3112 1514 20006590 	lbu $5,32($3)
 3113 1518 02009426 	addu $20,$20,2
 3114 151c 00120200 	sll $2,$2,8
 3115 1520 25884500 	or $17,$2,$5
 3116              	.set noreorder
 3117              	.set nomacro
 3118 1524 0000000C 	jal _SNSPCRead8
 3119 1528 2D282002 	move $5,$17
 3120              	.set macro
 3121              	.set reorder
 3122              	
 3123 152c 080075AE 	sw $21,8($19)
 3124 1530 2D904000 	move $18,$2
 3125 1534 2D282002 	move $5,$17
 3126 1538 02006292 	lbu $2,2($19)
GAS LISTING  			page 56


 3127 153c 2D206002 	move $4,$19
 3128 1540 82FFB526 	addu $21,$21,-126
 3129 1544 24804202 	and $16,$18,$2
 3130 1548 25904202 	or $18,$18,$2
 3131 154c 00B21000 	sll $22,$16,8
 3132 1550 26904202 	xor $18,$18,$2
 3133 1554 2DB8C002 	move $23,$22
 3134              	$L959:
 3135              	.set noreorder
 3136              	.set nomacro
 3137 1558 DCFB0010 	b $L833
 3138 155c FF004632 	andi $6,$18,0x00ff
 3139              	.set macro
 3140              	.set reorder
 3141              	
 3142              	$L631:
 3143 1560 7E00A22A 	slt $2,$21,126
 3144              	.set noreorder
 3145              	.set nomacro
 3146 1564 9FFB4014 	bne $2,$0,$L58
 3147 1568 21109302 	addu $2,$20,$19
 3148              	.set macro
 3149              	.set reorder
 3150              	
 3151 156c 2D206002 	move $4,$19
 3152 1570 20005190 	lbu $17,32($2)
 3153 1574 01009426 	addu $20,$20,1
 3154 1578 00FF0234 	li $2,65280
 3155 157c FFFF8532 	andi $5,$20,0xffff
 3156              	.set noreorder
 3157              	.set nomacro
 3158 1580 AE00000C 	jal _SNSPCPush16
 3159 1584 21882202 	addu $17,$17,$2
 3160              	.set macro
 3161              	.set reorder
 3162              	
 3163              	.set noreorder
 3164              	.set nomacro
 3165 1588 45FC0010 	b $L687
 3166 158c 2DA02002 	move $20,$17
 3167              	.set macro
 3168              	.set reorder
 3169              	
 3170              	$L667:
 3171 1590 2A00A22A 	slt $2,$21,42
 3172              	.set noreorder
 3173              	.set nomacro
 3174 1594 93FB4014 	bne $2,$0,$L58
 3175 1598 21109302 	addu $2,$20,$19
 3176              	.set macro
 3177              	.set reorder
 3178              	
 3179 159c 06006392 	lbu $3,6($19)
 3180 15a0 20004290 	lbu $2,32($2)
 3181 15a4 01009426 	addu $20,$20,1
 3182              	.set noreorder
 3183              	.set nomacro
GAS LISTING  			page 57


 3184 15a8 C1FC0010 	b $L1018
 3185 15ac 40006330 	andi $3,$3,0x40
 3186              	.set macro
 3187              	.set reorder
 3188              	
 3189              	$L804:
 3190 15b0 A800A22A 	slt $2,$21,168
 3191              	.set noreorder
 3192              	.set nomacro
 3193 15b4 8BFB4014 	bne $2,$0,$L58
 3194 15b8 2D206002 	move $4,$19
 3195              	.set macro
 3196              	.set reorder
 3197              	
 3198 15bc D4FF0534 	li $5,65492
 3199              	.set noreorder
 3200              	.set nomacro
 3201 15c0 AAFB0010 	b $L830
 3202 15c4 080075AE 	sw $21,8($19)
 3203              	.set macro
 3204              	.set reorder
 3205              	
 3206              	$L607:
 3207 15c8 5400A22A 	slt $2,$21,84
 3208              	.set noreorder
 3209              	.set nomacro
 3210 15cc 85FB4014 	bne $2,$0,$L58
 3211 15d0 21109302 	addu $2,$20,$19
 3212              	.set macro
 3213              	.set reorder
 3214              	
 3215 15d4 080075AE 	sw $21,8($19)
 3216 15d8 20005190 	lbu $17,32($2)
 3217 15dc 2D206002 	move $4,$19
 3218 15e0 01009426 	addu $20,$20,1
 3219 15e4 21883E02 	addu $17,$17,$fp
 3220              	.set noreorder
 3221              	.set nomacro
 3222 15e8 0000000C 	jal _SNSPCRead8
 3223 15ec 2D282002 	move $5,$17
 3224              	.set macro
 3225              	.set reorder
 3226              	
 3227 15f0 080075AE 	sw $21,8($19)
 3228 15f4 04005234 	ori $18,$2,0x4
 3229 15f8 2D282002 	move $5,$17
 3230              	.set noreorder
 3231              	.set nomacro
 3232 15fc C7FC0010 	b $L1015
 3233 1600 0400523A 	xori $18,$18,0x4
 3234              	.set macro
 3235              	.set reorder
 3236              	
 3237              	$L752:
 3238 1604 6900A22A 	slt $2,$21,105
 3239              	.set noreorder
 3240              	.set nomacro
GAS LISTING  			page 58


 3241 1608 76FB4014 	bne $2,$0,$L58
 3242 160c 21109302 	addu $2,$20,$19
 3243              	.set macro
 3244              	.set reorder
 3245              	
 3246 1610 080075AE 	sw $21,8($19)
 3247 1614 20005190 	lbu $17,32($2)
 3248 1618 2D206002 	move $4,$19
 3249 161c 01009426 	addu $20,$20,1
 3250 1620 21883E02 	addu $17,$17,$fp
 3251              	.set noreorder
 3252              	.set nomacro
 3253 1624 0000000C 	jal _SNSPCRead8
 3254 1628 2D282002 	move $5,$17
 3255              	.set macro
 3256              	.set reorder
 3257              	
 3258 162c 2D904000 	move $18,$2
 3259 1630 21109302 	addu $2,$20,$19
 3260              	.set noreorder
 3261              	.set nomacro
 3262 1634 C9FC0010 	b $L951
 3263 1638 04005232 	andi $18,$18,0x4
 3264              	.set macro
 3265              	.set reorder
 3266              	
 3267              	$L483:
 3268 163c 5400A22A 	slt $2,$21,84
 3269              	.set noreorder
 3270              	.set nomacro
 3271 1640 68FB4014 	bne $2,$0,$L58
 3272 1644 21109302 	addu $2,$20,$19
 3273              	.set macro
 3274              	.set reorder
 3275              	
 3276 1648 04006392 	lbu $3,4($19)
 3277 164c 20005190 	lbu $17,32($2)
 3278 1650 2D206002 	move $4,$19
 3279 1654 080075AE 	sw $21,8($19)
 3280 1658 01009426 	addu $20,$20,1
 3281 165c 21882302 	addu $17,$17,$3
 3282 1660 ACFFB526 	addu $21,$21,-84
 3283              	.set noreorder
 3284              	.set nomacro
 3285 1664 25FF0010 	b $L893
 3286 1668 FF003132 	andi $17,$17,0xff
 3287              	.set macro
 3288              	.set reorder
 3289              	
 3290              	$L489:
 3291 166c 6900A22A 	slt $2,$21,105
 3292              	.set noreorder
 3293              	.set nomacro
 3294 1670 5CFB4014 	bne $2,$0,$L58
 3295 1674 21189302 	addu $3,$20,$19
 3296              	.set macro
 3297              	.set reorder
GAS LISTING  			page 59


 3298              	
 3299 1678 04006692 	lbu $6,4($19)
 3300              	$L894:
 3301 167c 21006290 	lbu $2,33($3)
 3302 1680 2D206002 	move $4,$19
 3303 1684 20006590 	lbu $5,32($3)
 3304 1688 02009426 	addu $20,$20,2
 3305 168c 00120200 	sll $2,$2,8
 3306 1690 080075AE 	sw $21,8($19)
 3307 1694 25884500 	or $17,$2,$5
 3308 1698 97FFB526 	addu $21,$21,-105
 3309              	.set noreorder
 3310              	.set nomacro
 3311 169c 18FF0010 	b $L890
 3312 16a0 21882602 	addu $17,$17,$6
 3313              	.set macro
 3314              	.set reorder
 3315              	
 3316              	$L492:
 3317 16a4 6900A22A 	slt $2,$21,105
 3318              	.set noreorder
 3319              	.set nomacro
 3320 16a8 4EFB4014 	bne $2,$0,$L58
 3321 16ac 21189302 	addu $3,$20,$19
 3322              	.set macro
 3323              	.set reorder
 3324              	
 3325              	.set noreorder
 3326              	.set nomacro
 3327 16b0 F2FF0010 	b $L894
 3328 16b4 03006692 	lbu $6,3($19)
 3329              	.set macro
 3330              	.set reorder
 3331              	
 3332              	$L498:
 3333 16b8 7E00A22A 	slt $2,$21,126
 3334              	.set noreorder
 3335              	.set nomacro
 3336 16bc 49FB4014 	bne $2,$0,$L58
 3337 16c0 21109302 	addu $2,$20,$19
 3338              	.set macro
 3339              	.set reorder
 3340              	
 3341 16c4 080075AE 	sw $21,8($19)
 3342 16c8 20005190 	lbu $17,32($2)
 3343 16cc 2D206002 	move $4,$19
 3344 16d0 01009426 	addu $20,$20,1
 3345 16d4 21883E02 	addu $17,$17,$fp
 3346              	.set noreorder
 3347              	.set nomacro
 3348 16d8 1200000C 	jal _SNSPCRead16
 3349 16dc 2D282002 	move $5,$17
 3350              	.set macro
 3351              	.set reorder
 3352              	
 3353 16e0 080075AE 	sw $21,8($19)
 3354 16e4 2D884000 	move $17,$2
GAS LISTING  			page 60


 3355 16e8 2D206002 	move $4,$19
 3356 16ec 03006292 	lbu $2,3($19)
 3357 16f0 82FFB526 	addu $21,$21,-126
 3358              	.set noreorder
 3359              	.set nomacro
 3360 16f4 02FF0010 	b $L890
 3361 16f8 21882202 	addu $17,$17,$2
 3362              	.set macro
 3363              	.set reorder
 3364              	
 3365              	$L507:
 3366 16fc 6900A22A 	slt $2,$21,105
 3367              	.set noreorder
 3368              	.set nomacro
 3369 1700 38FB4014 	bne $2,$0,$L58
 3370 1704 21109302 	addu $2,$20,$19
 3371              	.set macro
 3372              	.set reorder
 3373              	
 3374 1708 080075AE 	sw $21,8($19)
 3375 170c 01009426 	addu $20,$20,1
 3376 1710 20005290 	lbu $18,32($2)
 3377 1714 21189302 	addu $3,$20,$19
 3378 1718 2D206002 	move $4,$19
 3379 171c 20007190 	lbu $17,32($3)
 3380 1720 01009426 	addu $20,$20,1
 3381              	$L1047:
 3382 1724 21883E02 	addu $17,$17,$fp
 3383              	.set noreorder
 3384              	.set nomacro
 3385 1728 0000000C 	jal _SNSPCRead8
 3386 172c 2D282002 	move $5,$17
 3387              	.set macro
 3388              	.set reorder
 3389              	
 3390 1730 2D282002 	move $5,$17
 3391              	.set noreorder
 3392              	.set nomacro
 3393 1734 CDFC0010 	b $L1011
 3394 1738 26805200 	xor $16,$2,$18
 3395              	.set macro
 3396              	.set reorder
 3397              	
 3398              	$L501:
 3399 173c 6900A22A 	slt $2,$21,105
 3400              	.set noreorder
 3401              	.set nomacro
 3402 1740 28FB4014 	bne $2,$0,$L58
 3403 1744 2D206002 	move $4,$19
 3404              	.set macro
 3405              	.set reorder
 3406              	
 3407 1748 03007192 	lbu $17,3($19)
 3408 174c 080075AE 	sw $21,8($19)
 3409 1750 21883E02 	addu $17,$17,$fp
 3410              	.set noreorder
 3411              	.set nomacro
GAS LISTING  			page 61


 3412 1754 0000000C 	jal _SNSPCRead8
 3413 1758 2D282002 	move $5,$17
 3414              	.set macro
 3415              	.set reorder
 3416              	
 3417 175c 080075AE 	sw $21,8($19)
 3418 1760 04007192 	lbu $17,4($19)
 3419 1764 2D904000 	move $18,$2
 3420              	.set noreorder
 3421              	.set nomacro
 3422 1768 EEFF0010 	b $L1047
 3423 176c 2D206002 	move $4,$19
 3424              	.set macro
 3425              	.set reorder
 3426              	
 3427              	$L561:
 3428 1770 5400A22A 	slt $2,$21,84
 3429              	.set noreorder
 3430              	.set nomacro
 3431 1774 1BFB4014 	bne $2,$0,$L58
 3432 1778 21109302 	addu $2,$20,$19
 3433              	.set macro
 3434              	.set reorder
 3435              	
 3436 177c 080075AE 	sw $21,8($19)
 3437 1780 20005190 	lbu $17,32($2)
 3438 1784 2D206002 	move $4,$19
 3439 1788 01009426 	addu $20,$20,1
 3440 178c ACFFB526 	addu $21,$21,-84
 3441 1790 21883E02 	addu $17,$17,$fp
 3442              	.set noreorder
 3443              	.set nomacro
 3444 1794 1200000C 	jal _SNSPCRead16
 3445 1798 2D282002 	move $5,$17
 3446              	.set macro
 3447              	.set reorder
 3448              	
 3449 179c 02006392 	lbu $3,2($19)
 3450 17a0 2D904000 	move $18,$2
 3451 17a4 03006292 	lbu $2,3($19)
 3452              	
 3453 17a8 00120200 	sll $2,$2,8
 3454 17ac 25806200 	or $16,$3,$2
 3455 17b0 23B01202 	subu $22,$16,$18
 3456 17b4 02841600 	srl $16,$22,16
 3457 17b8 2DB8C002 	move $23,$22
 3458              	.set noreorder
 3459              	.set nomacro
 3460 17bc 08FD0010 	b $L837
 3461 17c0 0100103A 	xori $16,$16,0x1
 3462              	.set macro
 3463              	.set reorder
 3464              	
 3465              	$L108:
 3466 17c4 6900A22A 	slt $2,$21,105
 3467              	.set noreorder
 3468              	.set nomacro
GAS LISTING  			page 62


 3469 17c8 06FB4014 	bne $2,$0,$L58
 3470 17cc 21109302 	addu $2,$20,$19
 3471              	.set macro
 3472              	.set reorder
 3473              	
 3474 17d0 04006392 	lbu $3,4($19)
 3475 17d4 20005190 	lbu $17,32($2)
 3476 17d8 2D206002 	move $4,$19
 3477 17dc 080075AE 	sw $21,8($19)
 3478 17e0 01009426 	addu $20,$20,1
 3479 17e4 21882302 	addu $17,$17,$3
 3480 17e8 FF003132 	andi $17,$17,0xff
 3481 17ec 21883E02 	addu $17,$17,$fp
 3482              	.set noreorder
 3483              	.set nomacro
 3484 17f0 0000000C 	jal _SNSPCRead8
 3485 17f4 2D282002 	move $5,$17
 3486              	.set macro
 3487              	.set reorder
 3488              	
 3489 17f8 2D282002 	move $5,$17
 3490 17fc 2D904000 	move $18,$2
 3491 1800 01004230 	andi $2,$2,0x1
 3492              	.set noreorder
 3493              	.set nomacro
 3494 1804 2EFF0010 	b $L930
 3495 1808 0000A2AF 	sw $2,0($sp)
 3496              	.set macro
 3497              	.set reorder
 3498              	
 3499              	$L103:
 3500 180c 2A00A22A 	slt $2,$21,42
 3501              	.set noreorder
 3502              	.set nomacro
 3503 1810 F5FA4054 	bnel $2,$0,$L1062
 3504 1814 06006392 	lbu $3,6($19)
 3505              	.set macro
 3506              	.set reorder
 3507              	
 3508 1818 02007292 	lbu $18,2($19)
 3509 181c D6FFB526 	addu $21,$21,-42
 3510 1820 01004332 	andi $3,$18,0x1
 3511 1824 0000A3AF 	sw $3,0($sp)
 3512              	$L842:
 3513 1828 42901200 	srl $18,$18,1
 3514              	$L888:
 3515 182c 00B21200 	sll $22,$18,8
 3516              	.set noreorder
 3517              	.set nomacro
 3518 1830 52FB0010 	b $L836
 3519 1834 020072A2 	sb $18,2($19)
 3520              	.set macro
 3521              	.set reorder
 3522              	
 3523              	$L237:
 3524 1838 2A00A22A 	slt $2,$21,42
 3525              	.set noreorder
GAS LISTING  			page 63


 3526              	.set nomacro
 3527 183c EAFA4054 	bnel $2,$0,$L1062
 3528 1840 06006392 	lbu $3,6($19)
 3529              	.set macro
 3530              	.set reorder
 3531              	
 3532 1844 02007192 	lbu $17,2($19)
 3533              	$L861:
 3534 1848 D6FFB526 	addu $21,$21,-42
 3535 184c 00B21100 	sll $22,$17,8
 3536              	.set noreorder
 3537              	.set nomacro
 3538 1850 4AFB0010 	b $L836
 3539 1854 040071A2 	sb $17,4($19)
 3540              	.set macro
 3541              	.set reorder
 3542              	
 3543              	$L390:
 3544 1858 5400A22A 	slt $2,$21,84
 3545              	.set noreorder
 3546              	.set nomacro
 3547 185c E1FA4014 	bne $2,$0,$L58
 3548 1860 21109302 	addu $2,$20,$19
 3549              	.set macro
 3550              	.set reorder
 3551              	
 3552 1864 080075AE 	sw $21,8($19)
 3553 1868 21004390 	lbu $3,33($2)
 3554 186c 2D206002 	move $4,$19
 3555 1870 20004590 	lbu $5,32($2)
 3556 1874 02009426 	addu $20,$20,2
 3557 1878 001A0300 	sll $3,$3,8
 3558 187c ACFFB526 	addu $21,$21,-84
 3559 1880 25886500 	or $17,$3,$5
 3560              	$L988:
 3561              	.set noreorder
 3562              	.set nomacro
 3563 1884 0000000C 	jal _SNSPCRead8
 3564 1888 2D282002 	move $5,$17
 3565              	.set macro
 3566              	.set reorder
 3567              	
 3568 188c 03007092 	lbu $16,3($19)
 3569              	.set noreorder
 3570              	.set nomacro
 3571 1890 CEFC0010 	b $L913
 3572 1894 2D904000 	move $18,$2
 3573              	.set macro
 3574              	.set reorder
 3575              	
 3576              	$L571:
 3577 1898 3F00A22A 	slt $2,$21,63
 3578              	.set noreorder
 3579              	.set nomacro
 3580 189c D1FA4014 	bne $2,$0,$L58
 3581 18a0 21109302 	addu $2,$20,$19
 3582              	.set macro
GAS LISTING  			page 64


 3583              	.set reorder
 3584              	
 3585 18a4 C1FFB526 	addu $21,$21,-63
 3586 18a8 21004390 	lbu $3,33($2)
 3587 18ac 20004490 	lbu $4,32($2)
 3588 18b0 001A0300 	sll $3,$3,8
 3589              	.set noreorder
 3590              	.set nomacro
 3591 18b4 BAFA0010 	b $L828
 3592 18b8 25A06400 	or $20,$3,$4
 3593              	.set macro
 3594              	.set reorder
 3595              	
 3596              	$L65:
 3597 18bc 2A00A22A 	slt $2,$21,42
 3598              	.set noreorder
 3599              	.set nomacro
 3600 18c0 C9FA4054 	bnel $2,$0,$L1062
 3601 18c4 06006392 	lbu $3,6($19)
 3602              	.set macro
 3603              	.set reorder
 3604              	
 3605              	.set noreorder
 3606              	.set nomacro
 3607 18c8 C4FA0010 	b $L674
 3608 18cc 0000A0AF 	sw $0,0($sp)
 3609              	.set macro
 3610              	.set reorder
 3611              	
 3612              	$L806:
 3613 18d0 A800A22A 	slt $2,$21,168
 3614              	.set noreorder
 3615              	.set nomacro
 3616 18d4 C3FA4014 	bne $2,$0,$L58
 3617 18d8 2D206002 	move $4,$19
 3618              	.set macro
 3619              	.set reorder
 3620              	
 3621 18dc D2FF0534 	li $5,65490
 3622              	.set noreorder
 3623              	.set nomacro
 3624 18e0 E2FA0010 	b $L830
 3625 18e4 080075AE 	sw $21,8($19)
 3626              	.set macro
 3627              	.set reorder
 3628              	
 3629              	$L586:
 3630 18e8 5400A22A 	slt $2,$21,84
 3631              	.set noreorder
 3632              	.set nomacro
 3633 18ec BDFA4014 	bne $2,$0,$L58
 3634 18f0 21109302 	addu $2,$20,$19
 3635              	.set macro
 3636              	.set reorder
 3637              	
 3638 18f4 080075AE 	sw $21,8($19)
 3639 18f8 20005190 	lbu $17,32($2)
GAS LISTING  			page 65


 3640 18fc 2D206002 	move $4,$19
 3641 1900 01009426 	addu $20,$20,1
 3642 1904 21883E02 	addu $17,$17,$fp
 3643              	.set noreorder
 3644              	.set nomacro
 3645 1908 0000000C 	jal _SNSPCRead8
 3646 190c 2D282002 	move $5,$17
 3647              	.set macro
 3648              	.set reorder
 3649              	
 3650 1910 2D282002 	move $5,$17
 3651              	.set noreorder
 3652              	.set nomacro
 3653 1914 E9FA0010 	b $L1016
 3654 1918 08005234 	ori $18,$2,0x8
 3655              	.set macro
 3656              	.set reorder
 3657              	
 3658              	$L717:
 3659 191c 6900A22A 	slt $2,$21,105
 3660              	.set noreorder
 3661              	.set nomacro
 3662 1920 B0FA4014 	bne $2,$0,$L58
 3663 1924 21109302 	addu $2,$20,$19
 3664              	.set macro
 3665              	.set reorder
 3666              	
 3667 1928 080075AE 	sw $21,8($19)
 3668 192c 20005190 	lbu $17,32($2)
 3669 1930 2D206002 	move $4,$19
 3670 1934 01009426 	addu $20,$20,1
 3671 1938 21883E02 	addu $17,$17,$fp
 3672              	.set noreorder
 3673              	.set nomacro
 3674 193c 0000000C 	jal _SNSPCRead8
 3675 1940 2D282002 	move $5,$17
 3676              	.set macro
 3677              	.set reorder
 3678              	
 3679 1944 2D904000 	move $18,$2
 3680 1948 21109302 	addu $2,$20,$19
 3681              	.set noreorder
 3682              	.set nomacro
 3683 194c F0FA0010 	b $L952
 3684 1950 08005232 	andi $18,$18,0x8
 3685              	.set macro
 3686              	.set reorder
 3687              	
 3688              	$L354:
 3689 1954 3F00A22A 	slt $2,$21,63
 3690              	.set noreorder
 3691              	.set nomacro
 3692 1958 A2FA4014 	bne $2,$0,$L58
 3693 195c 21109302 	addu $2,$20,$19
 3694              	.set macro
 3695              	.set reorder
 3696              	
GAS LISTING  			page 66


 3697 1960 080075AE 	sw $21,8($19)
 3698 1964 20005190 	lbu $17,32($2)
 3699 1968 2D206002 	move $4,$19
 3700 196c 01009426 	addu $20,$20,1
 3701              	$L1053:
 3702 1970 C1FFB526 	addu $21,$21,-63
 3703              	$L1042:
 3704 1974 21883E02 	addu $17,$17,$fp
 3705              	$L1040:
 3706 1978 2D282002 	move $5,$17
 3707              	$L991:
 3708 197c 0000000C 	jal _SNSPCRead8
 3708      00000000 
 3709 1984 02007092 	lbu $16,2($19)
 3710              	.set noreorder
 3711              	.set nomacro
 3712 1988 90FC0010 	b $L913
 3713 198c 2D904000 	move $18,$2
 3714              	.set macro
 3715              	.set reorder
 3716              	
 3717              	$L360:
 3718 1990 5400A22A 	slt $2,$21,84
 3719              	.set noreorder
 3720              	.set nomacro
 3721 1994 93FA4014 	bne $2,$0,$L58
 3722 1998 21109302 	addu $2,$20,$19
 3723              	.set macro
 3724              	.set reorder
 3725              	
 3726 199c 080075AE 	sw $21,8($19)
 3727 19a0 21004390 	lbu $3,33($2)
 3728 19a4 2D206002 	move $4,$19
 3729 19a8 20004590 	lbu $5,32($2)
 3730 19ac 02009426 	addu $20,$20,2
 3731 19b0 001A0300 	sll $3,$3,8
 3732 19b4 ACFFB526 	addu $21,$21,-84
 3733              	.set noreorder
 3734              	.set nomacro
 3735 19b8 EFFF0010 	b $L1040
 3736 19bc 25886500 	or $17,$3,$5
 3737              	.set macro
 3738              	.set reorder
 3739              	
 3740              	$L352:
 3741 19c0 3F00A22A 	slt $2,$21,63
 3742              	.set noreorder
 3743              	.set nomacro
 3744 19c4 87FA4014 	bne $2,$0,$L58
 3745 19c8 2D206002 	move $4,$19
 3746              	.set macro
 3747              	.set reorder
 3748              	
 3749 19cc 04007192 	lbu $17,4($19)
 3750              	.set noreorder
 3751              	.set nomacro
 3752 19d0 E7FF0010 	b $L1053
GAS LISTING  			page 67


 3753 19d4 080075AE 	sw $21,8($19)
 3754              	.set macro
 3755              	.set reorder
 3756              	
 3757              	$L369:
 3758 19d8 7E00A22A 	slt $2,$21,126
 3759              	.set noreorder
 3760              	.set nomacro
 3761 19dc 81FA4014 	bne $2,$0,$L58
 3762 19e0 21109302 	addu $2,$20,$19
 3763              	.set macro
 3764              	.set reorder
 3765              	
 3766 19e4 04006392 	lbu $3,4($19)
 3767 19e8 20005190 	lbu $17,32($2)
 3768 19ec 2D206002 	move $4,$19
 3769 19f0 080075AE 	sw $21,8($19)
 3770 19f4 01009426 	addu $20,$20,1
 3771 19f8 21882302 	addu $17,$17,$3
 3772 19fc FF003132 	andi $17,$17,0xff
 3773 1a00 21883E02 	addu $17,$17,$fp
 3774              	.set noreorder
 3775              	.set nomacro
 3776 1a04 1200000C 	jal _SNSPCRead16
 3777 1a08 2D282002 	move $5,$17
 3778              	.set macro
 3779              	.set reorder
 3780              	
 3781 1a0c 080075AE 	sw $21,8($19)
 3782 1a10 2D206002 	move $4,$19
 3783 1a14 2D284000 	move $5,$2
 3784              	.set noreorder
 3785              	.set nomacro
 3786 1a18 D8FF0010 	b $L991
 3787 1a1c 82FFB526 	addu $21,$21,-126
 3788              	.set macro
 3789              	.set reorder
 3790              	
 3791              	$L349:
 3792 1a20 2A00A22A 	slt $2,$21,42
 3793              	.set noreorder
 3794              	.set nomacro
 3795 1a24 6FFA4014 	bne $2,$0,$L58
 3796 1a28 21109302 	addu $2,$20,$19
 3797              	.set macro
 3798              	.set reorder
 3799              	
 3800 1a2c 02007092 	lbu $16,2($19)
 3801              	$L990:
 3802 1a30 20005290 	lbu $18,32($2)
 3803 1a34 01009426 	addu $20,$20,1
 3804              	.set noreorder
 3805              	.set nomacro
 3806 1a38 64FC0010 	b $L913
 3807 1a3c D6FFB526 	addu $21,$21,-42
 3808              	.set macro
 3809              	.set reorder
GAS LISTING  			page 68


 3810              	
 3811              	$L395:
 3812 1a40 7E00A22A 	slt $2,$21,126
 3813              	.set noreorder
 3814              	.set nomacro
 3815 1a44 67FA4014 	bne $2,$0,$L58
 3816 1a48 21109302 	addu $2,$20,$19
 3817              	.set macro
 3818              	.set reorder
 3819              	
 3820 1a4c 080075AE 	sw $21,8($19)
 3821 1a50 20005190 	lbu $17,32($2)
 3822 1a54 2D206002 	move $4,$19
 3823 1a58 01009426 	addu $20,$20,1
 3824 1a5c 21883E02 	addu $17,$17,$fp
 3825              	.set noreorder
 3826              	.set nomacro
 3827 1a60 0000000C 	jal _SNSPCRead8
 3828 1a64 2D282002 	move $5,$17
 3829              	.set macro
 3830              	.set reorder
 3831              	
 3832 1a68 080075AE 	sw $21,8($19)
 3833 1a6c 2D904000 	move $18,$2
 3834 1a70 2D206002 	move $4,$19
 3835 1a74 21109302 	addu $2,$20,$19
 3836 1a78 82FFB526 	addu $21,$21,-126
 3837 1a7c 20005190 	lbu $17,32($2)
 3838 1a80 01009426 	addu $20,$20,1
 3839              	$L992:
 3840 1a84 21883E02 	addu $17,$17,$fp
 3841              	.set noreorder
 3842              	.set nomacro
 3843 1a88 0000000C 	jal _SNSPCRead8
 3844 1a8c 2D282002 	move $5,$17
 3845              	.set macro
 3846              	.set reorder
 3847              	
 3848              	.set noreorder
 3849              	.set nomacro
 3850 1a90 4EFC0010 	b $L913
 3851 1a94 2D804000 	move $16,$2
 3852              	.set macro
 3853              	.set reorder
 3854              	
 3855              	$L127:
 3856 1a98 5400A22A 	slt $2,$21,84
 3857              	.set noreorder
 3858              	.set nomacro
 3859 1a9c 51FA4014 	bne $2,$0,$L58
 3860 1aa0 21109302 	addu $2,$20,$19
 3861              	.set macro
 3862              	.set reorder
 3863              	
 3864 1aa4 080075AE 	sw $21,8($19)
 3865 1aa8 20005190 	lbu $17,32($2)
 3866 1aac 2D206002 	move $4,$19
GAS LISTING  			page 69


 3867 1ab0 0000A68F 	lw $6,0($sp)
 3868 1ab4 01009426 	addu $20,$20,1
 3869 1ab8 21883E02 	addu $17,$17,$fp
 3870 1abc 2D282002 	move $5,$17
 3871              	.set noreorder
 3872              	.set nomacro
 3873 1ac0 0000000C 	jal _SNSPCRead8
 3874 1ac4 00820600 	sll $16,$6,8
 3875              	.set macro
 3876              	.set reorder
 3877              	
 3878 1ac8 2D206002 	move $4,$19
 3879 1acc 2D904000 	move $18,$2
 3880 1ad0 080075AE 	sw $21,8($19)
 3881 1ad4 25905002 	or $18,$18,$16
 3882 1ad8 01004230 	andi $2,$2,0x1
 3883 1adc 2D282002 	move $5,$17
 3884 1ae0 42901200 	srl $18,$18,1
 3885 1ae4 ACFFB526 	addu $21,$21,-84
 3886 1ae8 0000A2AF 	sw $2,0($sp)
 3887              	$L954:
 3888 1aec FF004632 	andi $6,$18,0x00ff
 3889              	.set noreorder
 3890              	.set nomacro
 3891 1af0 48FB0010 	b $L955
 3892 1af4 00B21200 	sll $22,$18,8
 3893              	.set macro
 3894              	.set reorder
 3895              	
 3896              	$L133:
 3897 1af8 6900A22A 	slt $2,$21,105
 3898              	.set noreorder
 3899              	.set nomacro
 3900 1afc 39FA4014 	bne $2,$0,$L58
 3901 1b00 21189302 	addu $3,$20,$19
 3902              	.set macro
 3903              	.set reorder
 3904              	
 3905 1b04 080075AE 	sw $21,8($19)
 3906 1b08 21006290 	lbu $2,33($3)
 3907 1b0c 2D206002 	move $4,$19
 3908 1b10 20006590 	lbu $5,32($3)
 3909 1b14 02009426 	addu $20,$20,2
 3910 1b18 00120200 	sll $2,$2,8
 3911 1b1c 0000A38F 	lw $3,0($sp)
 3912 1b20 25884500 	or $17,$2,$5
 3913 1b24 2D282002 	move $5,$17
 3914              	.set noreorder
 3915              	.set nomacro
 3916 1b28 0000000C 	jal _SNSPCRead8
 3917 1b2c 00820300 	sll $16,$3,8
 3918              	.set macro
 3919              	.set reorder
 3920              	
 3921 1b30 2D282002 	move $5,$17
 3922 1b34 01004630 	andi $6,$2,0x1
 3923 1b38 2D904000 	move $18,$2
GAS LISTING  			page 70


 3924 1b3c 0000A6AF 	sw $6,0($sp)
 3925              	$L978:
 3926 1b40 25905002 	or $18,$18,$16
 3927 1b44 080075AE 	sw $21,8($19)
 3928 1b48 2D206002 	move $4,$19
 3929 1b4c 42901200 	srl $18,$18,1
 3930              	.set noreorder
 3931              	.set nomacro
 3932 1b50 E6FF0010 	b $L954
 3933 1b54 97FFB526 	addu $21,$21,-105
 3934              	.set macro
 3935              	.set reorder
 3936              	
 3937              	$L79:
 3938 1b58 5400A22A 	slt $2,$21,84
 3939              	.set noreorder
 3940              	.set nomacro
 3941 1b5c 22FA4054 	bnel $2,$0,$L1062
 3942 1b60 06006392 	lbu $3,6($19)
 3943              	.set macro
 3944              	.set reorder
 3945              	
 3946              	.set noreorder
 3947              	.set nomacro
 3948 1b64 10FB0010 	b $L839
 3949 1b68 03006592 	lbu $5,3($19)
 3950              	.set macro
 3951              	.set reorder
 3952              	
 3953              	$L688:
 3954 1b6c 6900A22A 	slt $2,$21,105
 3955              	.set noreorder
 3956              	.set nomacro
 3957 1b70 1CFA4014 	bne $2,$0,$L58
 3958 1b74 21109302 	addu $2,$20,$19
 3959              	.set macro
 3960              	.set reorder
 3961              	
 3962 1b78 080075AE 	sw $21,8($19)
 3963 1b7c 20005190 	lbu $17,32($2)
 3964 1b80 2D206002 	move $4,$19
 3965 1b84 01009426 	addu $20,$20,1
 3966 1b88 21883E02 	addu $17,$17,$fp
 3967              	.set noreorder
 3968              	.set nomacro
 3969 1b8c 0000000C 	jal _SNSPCRead8
 3970 1b90 2D282002 	move $5,$17
 3971              	.set macro
 3972              	.set reorder
 3973              	
 3974 1b94 2D206002 	move $4,$19
 3975 1b98 FFFF5224 	addu $18,$2,-1
 3976 1b9c 080075AE 	sw $21,8($19)
 3977 1ba0 2D282002 	move $5,$17
 3978              	.set noreorder
 3979              	.set nomacro
 3980 1ba4 3E00000C 	jal _SNSPCWrite8
GAS LISTING  			page 71


 3981 1ba8 FF004632 	andi $6,$18,0x00ff
 3982              	.set macro
 3983              	.set reorder
 3984              	
 3985              	.set noreorder
 3986              	.set nomacro
 3987 1bac 58FA0010 	b $L952
 3988 1bb0 21109302 	addu $2,$20,$19
 3989              	.set macro
 3990              	.set reorder
 3991              	
 3992              	$L569:
 3993 1bb4 6900A22A 	slt $2,$21,105
 3994              	.set noreorder
 3995              	.set nomacro
 3996 1bb8 0AFA4014 	bne $2,$0,$L58
 3997 1bbc 2D206002 	move $4,$19
 3998              	.set macro
 3999              	.set reorder
 4000              	
 4001              	.set noreorder
 4002              	.set nomacro
 4003 1bc0 C200000C 	jal _SNSPCPop16
 4004 1bc4 97FFB526 	addu $21,$21,-105
 4005              	.set macro
 4006              	.set reorder
 4007              	
 4008              	.set noreorder
 4009              	.set nomacro
 4010 1bc8 F5F90010 	b $L828
 4011 1bcc 2DA04000 	move $20,$2
 4012              	.set macro
 4013              	.set reorder
 4014              	
 4015              	$L671:
 4016 1bd0 2A00A22A 	slt $2,$21,42
 4017              	.set noreorder
 4018              	.set nomacro
 4019 1bd4 03FA4014 	bne $2,$0,$L58
 4020 1bd8 21109302 	addu $2,$20,$19
 4021              	.set macro
 4022              	.set reorder
 4023              	
 4024 1bdc 06006392 	lbu $3,6($19)
 4025 1be0 20004290 	lbu $2,32($2)
 4026 1be4 01009426 	addu $20,$20,1
 4027              	.set noreorder
 4028              	.set nomacro
 4029 1be8 D8FC0010 	b $L1019
 4030 1bec 40006330 	andi $3,$3,0x40
 4031              	.set macro
 4032              	.set reorder
 4033              	
 4034              	$L808:
 4035 1bf0 A800A22A 	slt $2,$21,168
 4036              	.set noreorder
 4037              	.set nomacro
GAS LISTING  			page 72


 4038 1bf4 FBF94014 	bne $2,$0,$L58
 4039 1bf8 2D206002 	move $4,$19
 4040              	.set macro
 4041              	.set reorder
 4042              	
 4043 1bfc D0FF0534 	li $5,65488
 4044              	.set noreorder
 4045              	.set nomacro
 4046 1c00 1AFA0010 	b $L830
 4047 1c04 080075AE 	sw $21,8($19)
 4048              	.set macro
 4049              	.set reorder
 4050              	
 4051              	$L610:
 4052 1c08 5400A22A 	slt $2,$21,84
 4053              	.set noreorder
 4054              	.set nomacro
 4055 1c0c F5F94014 	bne $2,$0,$L58
 4056 1c10 21109302 	addu $2,$20,$19
 4057              	.set macro
 4058              	.set reorder
 4059              	
 4060 1c14 080075AE 	sw $21,8($19)
 4061 1c18 20005190 	lbu $17,32($2)
 4062 1c1c 2D206002 	move $4,$19
 4063 1c20 01009426 	addu $20,$20,1
 4064 1c24 21883E02 	addu $17,$17,$fp
 4065              	.set noreorder
 4066              	.set nomacro
 4067 1c28 0000000C 	jal _SNSPCRead8
 4068 1c2c 2D282002 	move $5,$17
 4069              	.set macro
 4070              	.set reorder
 4071              	
 4072 1c30 080075AE 	sw $21,8($19)
 4073 1c34 08005234 	ori $18,$2,0x8
 4074 1c38 2D282002 	move $5,$17
 4075              	.set noreorder
 4076              	.set nomacro
 4077 1c3c 37FB0010 	b $L1015
 4078 1c40 0800523A 	xori $18,$18,0x8
 4079              	.set macro
 4080              	.set reorder
 4081              	
 4082              	$L757:
 4083 1c44 6900A22A 	slt $2,$21,105
 4084              	.set noreorder
 4085              	.set nomacro
 4086 1c48 E6F94014 	bne $2,$0,$L58
 4087 1c4c 21109302 	addu $2,$20,$19
 4088              	.set macro
 4089              	.set reorder
 4090              	
 4091 1c50 080075AE 	sw $21,8($19)
 4092 1c54 20005190 	lbu $17,32($2)
 4093 1c58 2D206002 	move $4,$19
 4094 1c5c 01009426 	addu $20,$20,1
GAS LISTING  			page 73


 4095 1c60 21883E02 	addu $17,$17,$fp
 4096              	.set noreorder
 4097              	.set nomacro
 4098 1c64 0000000C 	jal _SNSPCRead8
 4099 1c68 2D282002 	move $5,$17
 4100              	.set macro
 4101              	.set reorder
 4102              	
 4103 1c6c 2D904000 	move $18,$2
 4104 1c70 21109302 	addu $2,$20,$19
 4105              	.set noreorder
 4106              	.set nomacro
 4107 1c74 39FB0010 	b $L951
 4108 1c78 08005232 	andi $18,$18,0x8
 4109              	.set macro
 4110              	.set reorder
 4111              	
 4112              	$L357:
 4113 1c7c 5400A22A 	slt $2,$21,84
 4114              	.set noreorder
 4115              	.set nomacro
 4116 1c80 D8F94014 	bne $2,$0,$L58
 4117 1c84 21109302 	addu $2,$20,$19
 4118              	.set macro
 4119              	.set reorder
 4120              	
 4121 1c88 04006392 	lbu $3,4($19)
 4122 1c8c 20005190 	lbu $17,32($2)
 4123 1c90 2D206002 	move $4,$19
 4124 1c94 080075AE 	sw $21,8($19)
 4125 1c98 01009426 	addu $20,$20,1
 4126 1c9c 21882302 	addu $17,$17,$3
 4127 1ca0 ACFFB526 	addu $21,$21,-84
 4128              	.set noreorder
 4129              	.set nomacro
 4130 1ca4 33FF0010 	b $L1042
 4131 1ca8 FF003132 	andi $17,$17,0xff
 4132              	.set macro
 4133              	.set reorder
 4134              	
 4135              	$L363:
 4136 1cac 6900A22A 	slt $2,$21,105
 4137              	.set noreorder
 4138              	.set nomacro
 4139 1cb0 CCF94014 	bne $2,$0,$L58
 4140 1cb4 21189302 	addu $3,$20,$19
 4141              	.set macro
 4142              	.set reorder
 4143              	
 4144 1cb8 04006692 	lbu $6,4($19)
 4145              	$L1041:
 4146 1cbc 21006290 	lbu $2,33($3)
 4147 1cc0 2D206002 	move $4,$19
 4148 1cc4 20006590 	lbu $5,32($3)
 4149 1cc8 02009426 	addu $20,$20,2
 4150 1ccc 00120200 	sll $2,$2,8
 4151 1cd0 080075AE 	sw $21,8($19)
GAS LISTING  			page 74


 4152 1cd4 25884500 	or $17,$2,$5
 4153 1cd8 97FFB526 	addu $21,$21,-105
 4154              	.set noreorder
 4155              	.set nomacro
 4156 1cdc 26FF0010 	b $L1040
 4157 1ce0 21882602 	addu $17,$17,$6
 4158              	.set macro
 4159              	.set reorder
 4160              	
 4161              	$L366:
 4162 1ce4 6900A22A 	slt $2,$21,105
 4163              	.set noreorder
 4164              	.set nomacro
 4165 1ce8 BEF94014 	bne $2,$0,$L58
 4166 1cec 21189302 	addu $3,$20,$19
 4167              	.set macro
 4168              	.set reorder
 4169              	
 4170              	.set noreorder
 4171              	.set nomacro
 4172 1cf0 F2FF0010 	b $L1041
 4173 1cf4 03006692 	lbu $6,3($19)
 4174              	.set macro
 4175              	.set reorder
 4176              	
 4177              	$L372:
 4178 1cf8 7E00A22A 	slt $2,$21,126
 4179              	.set noreorder
 4180              	.set nomacro
 4181 1cfc B9F94014 	bne $2,$0,$L58
 4182 1d00 21109302 	addu $2,$20,$19
 4183              	.set macro
 4184              	.set reorder
 4185              	
 4186 1d04 080075AE 	sw $21,8($19)
 4187 1d08 20005190 	lbu $17,32($2)
 4188 1d0c 2D206002 	move $4,$19
 4189 1d10 01009426 	addu $20,$20,1
 4190 1d14 21883E02 	addu $17,$17,$fp
 4191              	.set noreorder
 4192              	.set nomacro
 4193 1d18 1200000C 	jal _SNSPCRead16
 4194 1d1c 2D282002 	move $5,$17
 4195              	.set macro
 4196              	.set reorder
 4197              	
 4198 1d20 080075AE 	sw $21,8($19)
 4199 1d24 2D884000 	move $17,$2
 4200 1d28 2D206002 	move $4,$19
 4201 1d2c 03006292 	lbu $2,3($19)
 4202 1d30 82FFB526 	addu $21,$21,-126
 4203              	.set noreorder
 4204              	.set nomacro
 4205 1d34 10FF0010 	b $L1040
 4206 1d38 21882202 	addu $17,$17,$2
 4207              	.set macro
 4208              	.set reorder
GAS LISTING  			page 75


 4209              	
 4210              	$L399:
 4211 1d3c 6900A22A 	slt $2,$21,105
 4212              	.set noreorder
 4213              	.set nomacro
 4214 1d40 A8F94014 	bne $2,$0,$L58
 4215 1d44 21189302 	addu $3,$20,$19
 4216              	.set macro
 4217              	.set reorder
 4218              	
 4219 1d48 080075AE 	sw $21,8($19)
 4220 1d4c 01009426 	addu $20,$20,1
 4221 1d50 20007290 	lbu $18,32($3)
 4222 1d54 21109302 	addu $2,$20,$19
 4223 1d58 2D206002 	move $4,$19
 4224 1d5c 20005190 	lbu $17,32($2)
 4225 1d60 01009426 	addu $20,$20,1
 4226              	$L987:
 4227              	.set noreorder
 4228              	.set nomacro
 4229 1d64 47FF0010 	b $L992
 4230 1d68 97FFB526 	addu $21,$21,-105
 4231              	.set macro
 4232              	.set reorder
 4233              	
 4234              	$L393:
 4235 1d6c 6900A22A 	slt $2,$21,105
 4236              	.set noreorder
 4237              	.set nomacro
 4238 1d70 9CF94014 	bne $2,$0,$L58
 4239 1d74 2D206002 	move $4,$19
 4240              	.set macro
 4241              	.set reorder
 4242              	
 4243 1d78 03007192 	lbu $17,3($19)
 4244 1d7c 080075AE 	sw $21,8($19)
 4245 1d80 21883E02 	addu $17,$17,$fp
 4246              	.set noreorder
 4247              	.set nomacro
 4248 1d84 0000000C 	jal _SNSPCRead8
 4249 1d88 2D282002 	move $5,$17
 4250              	.set macro
 4251              	.set reorder
 4252              	
 4253 1d8c 080075AE 	sw $21,8($19)
 4254 1d90 04007192 	lbu $17,4($19)
 4255 1d94 2D904000 	move $18,$2
 4256              	.set noreorder
 4257              	.set nomacro
 4258 1d98 F2FF0010 	b $L987
 4259 1d9c 2D206002 	move $4,$19
 4260              	.set macro
 4261              	.set reorder
 4262              	
 4263              	$L553:
 4264 1da0 6900A22A 	slt $2,$21,105
 4265              	.set noreorder
GAS LISTING  			page 76


 4266              	.set nomacro
 4267 1da4 8FF94014 	bne $2,$0,$L58
 4268 1da8 21109302 	addu $2,$20,$19
 4269              	.set macro
 4270              	.set reorder
 4271              	
 4272 1dac 080075AE 	sw $21,8($19)
 4273 1db0 20005190 	lbu $17,32($2)
 4274 1db4 2D206002 	move $4,$19
 4275 1db8 01009426 	addu $20,$20,1
 4276 1dbc 21883E02 	addu $17,$17,$fp
 4277              	.set noreorder
 4278              	.set nomacro
 4279 1dc0 1200000C 	jal _SNSPCRead16
 4280 1dc4 2D282002 	move $5,$17
 4281              	.set macro
 4282              	.set reorder
 4283              	
 4284 1dc8 02006492 	lbu $4,2($19)
 4285 1dcc 2D904000 	move $18,$2
 4286 1dd0 06006392 	lbu $3,6($19)
 4287 1dd4 03006292 	lbu $2,3($19)
 4288 1dd8 B7006530 	andi $5,$3,0xb7
 4289 1ddc 00120200 	sll $2,$2,8
 4290 1de0 25808200 	or $16,$4,$2
 4291 1de4 2D180002 	move $3,$16
 4292 1de8 21801202 	addu $16,$16,$18
 4293 1dec 26107200 	xor $2,$3,$18
 4294 1df0 26187000 	xor $3,$3,$16
 4295 1df4 27100200 	nor $2,$0,$2
 4296 1df8 24104300 	and $2,$2,$3
 4297 1dfc 00804230 	andi $2,$2,0x8000
 4298              	.set noreorder
 4299              	.set nomacro
 4300 1e00 03004010 	beq $2,$0,$L560
 4301 1e04 060065A2 	sb $5,6($19)
 4302              	.set macro
 4303              	.set reorder
 4304              	
 4305 1e08 4000A234 	ori $2,$5,0x40
 4306              	$L896:
 4307 1e0c 060062A2 	sb $2,6($19)
 4308              	$L560:
 4309 1e10 020070A2 	sb $16,2($19)
 4310 1e14 02121000 	srl $2,$16,8
 4311 1e18 2DB00002 	move $22,$16
 4312 1e1c 2DB80002 	move $23,$16
 4313 1e20 02841000 	srl $16,$16,16
 4314 1e24 97FFB526 	addu $21,$21,-105
 4315 1e28 01001032 	andi $16,$16,0x1
 4316 1e2c 0000B0AF 	sw $16,0($sp)
 4317              	.set noreorder
 4318              	.set nomacro
 4319 1e30 5BF90010 	b $L828
 4320 1e34 030062A2 	sb $2,3($19)
 4321              	.set macro
 4322              	.set reorder
GAS LISTING  			page 77


 4323              	
 4324              	$L130:
 4325 1e38 6900A22A 	slt $2,$21,105
 4326              	.set noreorder
 4327              	.set nomacro
 4328 1e3c 69F94014 	bne $2,$0,$L58
 4329 1e40 21109302 	addu $2,$20,$19
 4330              	.set macro
 4331              	.set reorder
 4332              	
 4333 1e44 04006392 	lbu $3,4($19)
 4334 1e48 20005190 	lbu $17,32($2)
 4335 1e4c 2D206002 	move $4,$19
 4336 1e50 0000A68F 	lw $6,0($sp)
 4337 1e54 01009426 	addu $20,$20,1
 4338 1e58 21882302 	addu $17,$17,$3
 4339 1e5c 080075AE 	sw $21,8($19)
 4340 1e60 FF003132 	andi $17,$17,0xff
 4341 1e64 00820600 	sll $16,$6,8
 4342 1e68 21883E02 	addu $17,$17,$fp
 4343              	.set noreorder
 4344              	.set nomacro
 4345 1e6c 0000000C 	jal _SNSPCRead8
 4346 1e70 2D282002 	move $5,$17
 4347              	.set macro
 4348              	.set reorder
 4349              	
 4350 1e74 2D282002 	move $5,$17
 4351 1e78 2D904000 	move $18,$2
 4352 1e7c 01004230 	andi $2,$2,0x1
 4353              	.set noreorder
 4354              	.set nomacro
 4355 1e80 2FFF0010 	b $L978
 4356 1e84 0000A2AF 	sw $2,0($sp)
 4357              	.set macro
 4358              	.set reorder
 4359              	
 4360              	$L125:
 4361 1e88 2A00A22A 	slt $2,$21,42
 4362              	.set noreorder
 4363              	.set nomacro
 4364 1e8c 55F94014 	bne $2,$0,$L58
 4365 1e90 0000A28F 	lw $2,0($sp)
 4366              	.set macro
 4367              	.set reorder
 4368              	
 4369 1e94 02007292 	lbu $18,2($19)
 4370 1e98 D6FFB526 	addu $21,$21,-42
 4371 1e9c 01004332 	andi $3,$18,0x1
 4372 1ea0 00820200 	sll $16,$2,8
 4373 1ea4 0000A3AF 	sw $3,0($sp)
 4374              	.set noreorder
 4375              	.set nomacro
 4376 1ea8 5FFE0010 	b $L842
 4377 1eac 25905002 	or $18,$18,$16
 4378              	.set macro
 4379              	.set reorder
GAS LISTING  			page 78


 4380              	
 4381              	$L233:
 4382 1eb0 2A00A22A 	slt $2,$21,42
 4383              	.set noreorder
 4384              	.set nomacro
 4385 1eb4 4CF94054 	bnel $2,$0,$L1062
 4386 1eb8 06006392 	lbu $3,6($19)
 4387              	.set macro
 4388              	.set reorder
 4389              	
 4390 1ebc 04007192 	lbu $17,4($19)
 4391              	$L860:
 4392 1ec0 D6FFB526 	addu $21,$21,-42
 4393 1ec4 00B21100 	sll $22,$17,8
 4394              	.set noreorder
 4395              	.set nomacro
 4396 1ec8 ACF90010 	b $L836
 4397 1ecc 020071A2 	sb $17,2($19)
 4398              	.set macro
 4399              	.set reorder
 4400              	
 4401              	$L387:
 4402 1ed0 3F00A22A 	slt $2,$21,63
 4403              	.set noreorder
 4404              	.set nomacro
 4405 1ed4 43F94014 	bne $2,$0,$L58
 4406 1ed8 21109302 	addu $2,$20,$19
 4407              	.set macro
 4408              	.set reorder
 4409              	
 4410 1edc 080075AE 	sw $21,8($19)
 4411 1ee0 20005190 	lbu $17,32($2)
 4412 1ee4 2D206002 	move $4,$19
 4413 1ee8 01009426 	addu $20,$20,1
 4414 1eec C1FFB526 	addu $21,$21,-63
 4415              	.set noreorder
 4416              	.set nomacro
 4417 1ef0 64FE0010 	b $L988
 4418 1ef4 21883E02 	addu $17,$17,$fp
 4419              	.set macro
 4420              	.set reorder
 4421              	
 4422              	$L67:
 4423 1ef8 2A00A22A 	slt $2,$21,42
 4424              	.set noreorder
 4425              	.set nomacro
 4426 1efc 39F94014 	bne $2,$0,$L58
 4427 1f00 01000224 	li $2,1
 4428              	.set macro
 4429              	.set reorder
 4430              	
 4431              	.set noreorder
 4432              	.set nomacro
 4433 1f04 35F90010 	b $L674
 4434 1f08 0000A2AF 	sw $2,0($sp)
 4435              	.set macro
 4436              	.set reorder
GAS LISTING  			page 79


 4437              	
 4438              	$L810:
 4439 1f0c A800A22A 	slt $2,$21,168
 4440              	.set noreorder
 4441              	.set nomacro
 4442 1f10 34F94014 	bne $2,$0,$L58
 4443 1f14 2D206002 	move $4,$19
 4444              	.set macro
 4445              	.set reorder
 4446              	
 4447 1f18 CEFF0534 	li $5,65486
 4448              	.set noreorder
 4449              	.set nomacro
 4450 1f1c 53F90010 	b $L830
 4451 1f20 080075AE 	sw $21,8($19)
 4452              	.set macro
 4453              	.set reorder
 4454              	
 4455              	$L589:
 4456 1f24 5400A22A 	slt $2,$21,84
 4457              	.set noreorder
 4458              	.set nomacro
 4459 1f28 2EF94014 	bne $2,$0,$L58
 4460 1f2c 21109302 	addu $2,$20,$19
 4461              	.set macro
 4462              	.set reorder
 4463              	
 4464 1f30 080075AE 	sw $21,8($19)
 4465 1f34 20005190 	lbu $17,32($2)
 4466 1f38 2D206002 	move $4,$19
 4467 1f3c 01009426 	addu $20,$20,1
 4468 1f40 21883E02 	addu $17,$17,$fp
 4469              	.set noreorder
 4470              	.set nomacro
 4471 1f44 0000000C 	jal _SNSPCRead8
 4472 1f48 2D282002 	move $5,$17
 4473              	.set macro
 4474              	.set reorder
 4475              	
 4476 1f4c 2D282002 	move $5,$17
 4477              	.set noreorder
 4478              	.set nomacro
 4479 1f50 5AF90010 	b $L1016
 4480 1f54 10005234 	ori $18,$2,0x10
 4481              	.set macro
 4482              	.set reorder
 4483              	
 4484              	$L722:
 4485 1f58 6900A22A 	slt $2,$21,105
 4486              	.set noreorder
 4487              	.set nomacro
 4488 1f5c 21F94014 	bne $2,$0,$L58
 4489 1f60 21109302 	addu $2,$20,$19
 4490              	.set macro
 4491              	.set reorder
 4492              	
 4493 1f64 080075AE 	sw $21,8($19)
GAS LISTING  			page 80


 4494 1f68 20005190 	lbu $17,32($2)
 4495 1f6c 2D206002 	move $4,$19
 4496 1f70 01009426 	addu $20,$20,1
 4497 1f74 21883E02 	addu $17,$17,$fp
 4498              	.set noreorder
 4499              	.set nomacro
 4500 1f78 0000000C 	jal _SNSPCRead8
 4501 1f7c 2D282002 	move $5,$17
 4502              	.set macro
 4503              	.set reorder
 4504              	
 4505 1f80 2D904000 	move $18,$2
 4506 1f84 21109302 	addu $2,$20,$19
 4507              	.set noreorder
 4508              	.set nomacro
 4509 1f88 61F90010 	b $L952
 4510 1f8c 10005232 	andi $18,$18,0x10
 4511              	.set macro
 4512              	.set reorder
 4513              	
 4514              	$L260:
 4515 1f90 3F00A22A 	slt $2,$21,63
 4516              	.set noreorder
 4517              	.set nomacro
 4518 1f94 13F94014 	bne $2,$0,$L58
 4519 1f98 21109302 	addu $2,$20,$19
 4520              	.set macro
 4521              	.set reorder
 4522              	
 4523 1f9c 080075AE 	sw $21,8($19)
 4524 1fa0 20005190 	lbu $17,32($2)
 4525 1fa4 2D206002 	move $4,$19
 4526 1fa8 01009426 	addu $20,$20,1
 4527              	$L1028:
 4528 1fac 21883E02 	addu $17,$17,$fp
 4529              	.set noreorder
 4530              	.set nomacro
 4531 1fb0 0000000C 	jal _SNSPCRead8
 4532 1fb4 2D282002 	move $5,$17
 4533              	.set macro
 4534              	.set reorder
 4535              	
 4536 1fb8 02007092 	lbu $16,2($19)
 4537 1fbc 2D904000 	move $18,$2
 4538 1fc0 06006292 	lbu $2,6($19)
 4539              	$L1027:
 4540 1fc4 B7004530 	andi $5,$2,0xb7
 4541 1fc8 21201202 	addu $4,$16,$18
 4542 1fcc 060065A2 	sb $5,6($19)
 4543 1fd0 2D180002 	move $3,$16
 4544 1fd4 26101202 	xor $2,$16,$18
 4545 1fd8 0000A68F 	lw $6,0($sp)
 4546 1fdc 27100200 	nor $2,$0,$2
 4547 1fe0 21808600 	addu $16,$4,$6
 4548 1fe4 26187000 	xor $3,$3,$16
 4549 1fe8 24104300 	and $2,$2,$3
 4550 1fec 80004230 	andi $2,$2,0x80
GAS LISTING  			page 81


 4551              	.set noreorder
 4552              	.set nomacro
 4553 1ff0 04004050 	beql $2,$0,$L1063
 4554 1ff4 020070A2 	sb $16,2($19)
 4555              	.set macro
 4556              	.set reorder
 4557              	
 4558 1ff8 4000A234 	ori $2,$5,0x40
 4559 1ffc 060062A2 	sb $2,6($19)
 4560 2000 020070A2 	sb $16,2($19)
 4561              	$L1063:
 4562 2004 00B21000 	sll $22,$16,8
 4563 2008 02821000 	srl $16,$16,8
 4564 200c 2DB8C002 	move $23,$22
 4565 2010 01001032 	andi $16,$16,0x1
 4566 2014 0000B0AF 	sw $16,0($sp)
 4567              	$L831:
 4568              	.set noreorder
 4569              	.set nomacro
 4570 2018 E1F80010 	b $L828
 4571 201c C1FFB526 	addu $21,$21,-63
 4572              	.set macro
 4573              	.set reorder
 4574              	
 4575              	$L268:
 4576 2020 5400A22A 	slt $2,$21,84
 4577              	.set noreorder
 4578              	.set nomacro
 4579 2024 EFF84014 	bne $2,$0,$L58
 4580 2028 21189302 	addu $3,$20,$19
 4581              	.set macro
 4582              	.set reorder
 4583              	
 4584 202c 080075AE 	sw $21,8($19)
 4585 2030 21006290 	lbu $2,33($3)
 4586 2034 2D206002 	move $4,$19
 4587 2038 20006590 	lbu $5,32($3)
 4588 203c 02009426 	addu $20,$20,2
 4589 2040 00120200 	sll $2,$2,8
 4590 2044 25884500 	or $17,$2,$5
 4591              	$L1031:
 4592              	.set noreorder
 4593              	.set nomacro
 4594 2048 0000000C 	jal _SNSPCRead8
 4595 204c 2D282002 	move $5,$17
 4596              	.set macro
 4597              	.set reorder
 4598              	
 4599 2050 02007092 	lbu $16,2($19)
 4600 2054 2D904000 	move $18,$2
 4601 2058 06006292 	lbu $2,6($19)
 4602              	$L1030:
 4603 205c B7004530 	andi $5,$2,0xb7
 4604 2060 21201202 	addu $4,$16,$18
 4605 2064 060065A2 	sb $5,6($19)
 4606 2068 2D180002 	move $3,$16
 4607 206c 26101202 	xor $2,$16,$18
GAS LISTING  			page 82


 4608 2070 0000A68F 	lw $6,0($sp)
 4609 2074 27100200 	nor $2,$0,$2
 4610 2078 21808600 	addu $16,$4,$6
 4611 207c 26187000 	xor $3,$3,$16
 4612 2080 24104300 	and $2,$2,$3
 4613 2084 80004230 	andi $2,$2,0x80
 4614              	.set noreorder
 4615              	.set nomacro
 4616 2088 04004050 	beql $2,$0,$L1064
 4617 208c 020070A2 	sb $16,2($19)
 4618              	.set macro
 4619              	.set reorder
 4620              	
 4621 2090 4000A234 	ori $2,$5,0x40
 4622 2094 060062A2 	sb $2,6($19)
 4623 2098 020070A2 	sb $16,2($19)
 4624              	$L1064:
 4625 209c 00B21000 	sll $22,$16,8
 4626 20a0 02821000 	srl $16,$16,8
 4627 20a4 2DB8C002 	move $23,$22
 4628 20a8 01001032 	andi $16,$16,0x1
 4629              	.set noreorder
 4630              	.set nomacro
 4631 20ac 93F90010 	b $L696
 4632 20b0 0000B0AF 	sw $16,0($sp)
 4633              	.set macro
 4634              	.set reorder
 4635              	
 4636              	$L257:
 4637 20b4 3F00A22A 	slt $2,$21,63
 4638              	.set noreorder
 4639              	.set nomacro
 4640 20b8 CAF84014 	bne $2,$0,$L58
 4641 20bc 2D206002 	move $4,$19
 4642              	.set macro
 4643              	.set reorder
 4644              	
 4645 20c0 04007192 	lbu $17,4($19)
 4646              	.set noreorder
 4647              	.set nomacro
 4648 20c4 B9FF0010 	b $L1028
 4649 20c8 080075AE 	sw $21,8($19)
 4650              	.set macro
 4651              	.set reorder
 4652              	
 4653              	$L280:
 4654 20cc 7E00A22A 	slt $2,$21,126
 4655              	.set noreorder
 4656              	.set nomacro
 4657 20d0 C4F84014 	bne $2,$0,$L58
 4658 20d4 21109302 	addu $2,$20,$19
 4659              	.set macro
 4660              	.set reorder
 4661              	
 4662 20d8 04006392 	lbu $3,4($19)
 4663 20dc 20005190 	lbu $17,32($2)
 4664 20e0 2D206002 	move $4,$19
GAS LISTING  			page 83


 4665 20e4 080075AE 	sw $21,8($19)
 4666 20e8 01009426 	addu $20,$20,1
 4667 20ec 21882302 	addu $17,$17,$3
 4668 20f0 FF003132 	andi $17,$17,0xff
 4669 20f4 21883E02 	addu $17,$17,$fp
 4670              	.set noreorder
 4671              	.set nomacro
 4672 20f8 1200000C 	jal _SNSPCRead16
 4673 20fc 2D282002 	move $5,$17
 4674              	.set macro
 4675              	.set reorder
 4676              	
 4677 2100 080075AE 	sw $21,8($19)
 4678 2104 2D884000 	move $17,$2
 4679 2108 2D206002 	move $4,$19
 4680              	$L1037:
 4681              	.set noreorder
 4682              	.set nomacro
 4683 210c 0000000C 	jal _SNSPCRead8
 4684 2110 2D282002 	move $5,$17
 4685              	.set macro
 4686              	.set reorder
 4687              	
 4688 2114 02007092 	lbu $16,2($19)
 4689 2118 2D904000 	move $18,$2
 4690 211c 06006292 	lbu $2,6($19)
 4691              	$L1036:
 4692 2120 B7004530 	andi $5,$2,0xb7
 4693 2124 21201202 	addu $4,$16,$18
 4694 2128 060065A2 	sb $5,6($19)
 4695 212c 2D180002 	move $3,$16
 4696 2130 26101202 	xor $2,$16,$18
 4697 2134 0000A68F 	lw $6,0($sp)
 4698 2138 27100200 	nor $2,$0,$2
 4699 213c 21808600 	addu $16,$4,$6
 4700 2140 26187000 	xor $3,$3,$16
 4701 2144 24104300 	and $2,$2,$3
 4702 2148 80004230 	andi $2,$2,0x80
 4703              	.set noreorder
 4704              	.set nomacro
 4705 214c 04004050 	beql $2,$0,$L1065
 4706 2150 020070A2 	sb $16,2($19)
 4707              	.set macro
 4708              	.set reorder
 4709              	
 4710 2154 4000A234 	ori $2,$5,0x40
 4711 2158 060062A2 	sb $2,6($19)
 4712 215c 020070A2 	sb $16,2($19)
 4713              	$L1065:
 4714 2160 00B21000 	sll $22,$16,8
 4715 2164 02821000 	srl $16,$16,8
 4716 2168 2DB8C002 	move $23,$22
 4717 216c 01001032 	andi $16,$16,0x1
 4718              	.set noreorder
 4719              	.set nomacro
 4720 2170 4BF90010 	b $L687
 4721 2174 0000B0AF 	sw $16,0($sp)
GAS LISTING  			page 84


 4722              	.set macro
 4723              	.set reorder
 4724              	
 4725              	$L253:
 4726 2178 2A00A22A 	slt $2,$21,42
 4727              	.set noreorder
 4728              	.set nomacro
 4729 217c 99F84014 	bne $2,$0,$L58
 4730 2180 21109302 	addu $2,$20,$19
 4731              	.set macro
 4732              	.set reorder
 4733              	
 4734 2184 02007092 	lbu $16,2($19)
 4735 2188 20005290 	lbu $18,32($2)
 4736 218c 01009426 	addu $20,$20,1
 4737 2190 06006592 	lbu $5,6($19)
 4738 2194 2D180002 	move $3,$16
 4739              	$L1025:
 4740 2198 0000A68F 	lw $6,0($sp)
 4741 219c 21207200 	addu $4,$3,$18
 4742 21a0 26107200 	xor $2,$3,$18
 4743 21a4 B700A530 	andi $5,$5,0xb7
 4744 21a8 21808600 	addu $16,$4,$6
 4745 21ac 27100200 	nor $2,$0,$2
 4746 21b0 26187000 	xor $3,$3,$16
 4747 21b4 24104300 	and $2,$2,$3
 4748 21b8 80004230 	andi $2,$2,0x80
 4749              	.set noreorder
 4750              	.set nomacro
 4751 21bc 03004010 	beq $2,$0,$L304
 4752 21c0 060065A2 	sb $5,6($19)
 4753              	.set macro
 4754              	.set reorder
 4755              	
 4756 21c4 4000A234 	ori $2,$5,0x40
 4757 21c8 060062A2 	sb $2,6($19)
 4758              	$L304:
 4759 21cc 020070A2 	sb $16,2($19)
 4760 21d0 00B21000 	sll $22,$16,8
 4761 21d4 02821000 	srl $16,$16,8
 4762 21d8 2DB8C002 	move $23,$22
 4763 21dc 01001032 	andi $16,$16,0x1
 4764              	.set noreorder
 4765              	.set nomacro
 4766 21e0 7EF80010 	b $L674
 4767 21e4 0000B0AF 	sw $16,0($sp)
 4768              	.set macro
 4769              	.set reorder
 4770              	
 4771              	$L291:
 4772 21e8 7E00A22A 	slt $2,$21,126
 4773              	.set noreorder
 4774              	.set nomacro
 4775 21ec 7DF84014 	bne $2,$0,$L58
 4776 21f0 21109302 	addu $2,$20,$19
 4777              	.set macro
 4778              	.set reorder
GAS LISTING  			page 85


 4779              	
 4780 21f4 080075AE 	sw $21,8($19)
 4781 21f8 20005190 	lbu $17,32($2)
 4782 21fc 2D206002 	move $4,$19
 4783 2200 01009426 	addu $20,$20,1
 4784 2204 21883E02 	addu $17,$17,$fp
 4785              	.set noreorder
 4786              	.set nomacro
 4787 2208 0000000C 	jal _SNSPCRead8
 4788 220c 2D282002 	move $5,$17
 4789              	.set macro
 4790              	.set reorder
 4791              	
 4792 2210 080075AE 	sw $21,8($19)
 4793 2214 2D904000 	move $18,$2
 4794 2218 2D206002 	move $4,$19
 4795 221c 21109302 	addu $2,$20,$19
 4796 2220 20005190 	lbu $17,32($2)
 4797              	$L1038:
 4798 2224 21883E02 	addu $17,$17,$fp
 4799 2228 01009426 	addu $20,$20,1
 4800              	.set noreorder
 4801              	.set nomacro
 4802 222c 0000000C 	jal _SNSPCRead8
 4803 2230 2D282002 	move $5,$17
 4804              	.set macro
 4805              	.set reorder
 4806              	
 4807 2234 0000A68F 	lw $6,0($sp)
 4808 2238 21205200 	addu $4,$2,$18
 4809 223c 2D184000 	move $3,$2
 4810 2240 21808600 	addu $16,$4,$6
 4811 2244 26105200 	xor $2,$2,$18
 4812 2248 06006592 	lbu $5,6($19)
 4813 224c 27100200 	nor $2,$0,$2
 4814 2250 26187000 	xor $3,$3,$16
 4815 2254 24104300 	and $2,$2,$3
 4816 2258 B700A530 	andi $5,$5,0xb7
 4817 225c 80004230 	andi $2,$2,0x80
 4818              	.set noreorder
 4819              	.set nomacro
 4820 2260 03004010 	beq $2,$0,$L343
 4821 2264 060065A2 	sb $5,6($19)
 4822              	.set macro
 4823              	.set reorder
 4824              	
 4825 2268 4000A234 	ori $2,$5,0x40
 4826 226c 060062A2 	sb $2,6($19)
 4827              	$L343:
 4828 2270 080075AE 	sw $21,8($19)
 4829 2274 FF000632 	andi $6,$16,0x00ff
 4830 2278 2D282002 	move $5,$17
 4831 227c 00B21000 	sll $22,$16,8
 4832 2280 2D206002 	move $4,$19
 4833              	.set noreorder
 4834              	.set nomacro
 4835 2284 3E00000C 	jal _SNSPCWrite8
GAS LISTING  			page 86


 4836 2288 02821000 	srl $16,$16,8
 4837              	.set macro
 4838              	.set reorder
 4839              	
 4840 228c 01001032 	andi $16,$16,0x1
 4841              	.set noreorder
 4842              	.set nomacro
 4843 2290 02F90010 	b $L921
 4844 2294 0000B0AF 	sw $16,0($sp)
 4845              	.set macro
 4846              	.set reorder
 4847              	
 4848              	$L637:
 4849 2298 6900A22A 	slt $2,$21,105
 4850              	.set noreorder
 4851              	.set nomacro
 4852 229c 51F84014 	bne $2,$0,$L58
 4853 22a0 21109302 	addu $2,$20,$19
 4854              	.set macro
 4855              	.set reorder
 4856              	
 4857 22a4 080075AE 	sw $21,8($19)
 4858 22a8 21004390 	lbu $3,33($2)
 4859 22ac 2D206002 	move $4,$19
 4860 22b0 20004590 	lbu $5,32($2)
 4861 22b4 02009426 	addu $20,$20,2
 4862 22b8 001A0300 	sll $3,$3,8
 4863 22bc 97FFB526 	addu $21,$21,-105
 4864 22c0 25886500 	or $17,$3,$5
 4865 22c4 2D802002 	move $16,$17
 4866 22c8 FF1F3132 	andi $17,$17,0x1fff
 4867 22cc 2D282002 	move $5,$17
 4868              	.set noreorder
 4869              	.set nomacro
 4870 22d0 0000000C 	jal _SNSPCRead8
 4871 22d4 42831000 	srl $16,$16,13
 4872              	.set macro
 4873              	.set reorder
 4874              	
 4875 22d8 06900202 	srl $18,$2,$16
 4876 22dc 0000A28F 	lw $2,0($sp)
 4877 22e0 01005232 	andi $18,$18,0x1
 4878              	.set noreorder
 4879              	.set nomacro
 4880 22e4 2DF80010 	b $L832
 4881 22e8 26105200 	xor $2,$2,$18
 4882              	.set macro
 4883              	.set reorder
 4884              	
 4885              	$L532:
 4886 22ec 5400A22A 	slt $2,$21,84
 4887              	.set noreorder
 4888              	.set nomacro
 4889 22f0 3CF84014 	bne $2,$0,$L58
 4890 22f4 21109302 	addu $2,$20,$19
 4891              	.set macro
 4892              	.set reorder
GAS LISTING  			page 87


 4893              	
 4894 22f8 080075AE 	sw $21,8($19)
 4895 22fc 20005190 	lbu $17,32($2)
 4896 2300 2D206002 	move $4,$19
 4897 2304 01009426 	addu $20,$20,1
 4898 2308 21883E02 	addu $17,$17,$fp
 4899              	.set noreorder
 4900              	.set nomacro
 4901 230c 0000000C 	jal _SNSPCRead8
 4902 2310 2D282002 	move $5,$17
 4903              	.set macro
 4904              	.set reorder
 4905              	
 4906 2314 2D282002 	move $5,$17
 4907 2318 FFFF5224 	addu $18,$2,-1
 4908              	$L1003:
 4909 231c 080075AE 	sw $21,8($19)
 4910 2320 FF004632 	andi $6,$18,0x00ff
 4911 2324 2D206002 	move $4,$19
 4912              	.set noreorder
 4913              	.set nomacro
 4914 2328 3E00000C 	jal _SNSPCWrite8
 4915 232c 00B21200 	sll $22,$18,8
 4916              	.set macro
 4917              	.set reorder
 4918              	
 4919              	.set noreorder
 4920              	.set nomacro
 4921 2330 F2F80010 	b $L696
 4922 2334 2DB8C002 	move $23,$22
 4923              	.set macro
 4924              	.set reorder
 4925              	
 4926              	$L538:
 4927 2338 6900A22A 	slt $2,$21,105
 4928              	.set noreorder
 4929              	.set nomacro
 4930 233c 29F84014 	bne $2,$0,$L58
 4931 2340 21189302 	addu $3,$20,$19
 4932              	.set macro
 4933              	.set reorder
 4934              	
 4935 2344 080075AE 	sw $21,8($19)
 4936 2348 21006290 	lbu $2,33($3)
 4937 234c 2D206002 	move $4,$19
 4938 2350 20006590 	lbu $5,32($3)
 4939 2354 02009426 	addu $20,$20,2
 4940 2358 00120200 	sll $2,$2,8
 4941 235c 25884500 	or $17,$2,$5
 4942              	$L1012:
 4943              	.set noreorder
 4944              	.set nomacro
 4945 2360 0000000C 	jal _SNSPCRead8
 4946 2364 2D282002 	move $5,$17
 4947              	.set macro
 4948              	.set reorder
 4949              	
GAS LISTING  			page 88


 4950 2368 2D282002 	move $5,$17
 4951 236c FFFF5224 	addu $18,$2,-1
 4952              	$L1004:
 4953 2370 080075AE 	sw $21,8($19)
 4954 2374 FF004632 	andi $6,$18,0x00ff
 4955              	.set noreorder
 4956              	.set nomacro
 4957 2378 BFF90010 	b $L1005
 4958 237c 00B21200 	sll $22,$18,8
 4959              	.set macro
 4960              	.set reorder
 4961              	
 4962              	$L178:
 4963 2380 2A00A22A 	slt $2,$21,42
 4964              	.set noreorder
 4965              	.set nomacro
 4966 2384 17F84014 	bne $2,$0,$L58
 4967 2388 21109302 	addu $2,$20,$19
 4968              	.set macro
 4969              	.set reorder
 4970              	
 4971 238c D6FFB526 	addu $21,$21,-42
 4972 2390 20005290 	lbu $18,32($2)
 4973 2394 01009426 	addu $20,$20,1
 4974              	$L859:
 4975 2398 030072A2 	sb $18,3($19)
 4976              	.set noreorder
 4977              	.set nomacro
 4978 239c 77F80010 	b $L836
 4979 23a0 00B21200 	sll $22,$18,8
 4980              	.set macro
 4981              	.set reorder
 4982              	
 4983              	$L90:
 4984 23a4 5400A22A 	slt $2,$21,84
 4985              	.set noreorder
 4986              	.set nomacro
 4987 23a8 0EF84014 	bne $2,$0,$L58
 4988 23ac 2D206002 	move $4,$19
 4989              	.set macro
 4990              	.set reorder
 4991              	
 4992              	.set noreorder
 4993              	.set nomacro
 4994 23b0 BA00000C 	jal _SNSPCPop8
 4995 23b4 ACFFB526 	addu $21,$21,-84
 4996              	.set macro
 4997              	.set reorder
 4998              	
 4999 23b8 2D884000 	move $17,$2
 5000 23bc 02004230 	andi $2,$2,0x2
 5001 23c0 02004238 	xori $2,$2,0x2
 5002 23c4 FF002432 	andi $4,$17,0x00ff
 5003 23c8 20002332 	andi $3,$17,0x20
 5004 23cc FF005630 	andi $22,$2,0x00ff
 5005 23d0 C0F00300 	sll $fp,$3,3
 5006 23d4 00BA0400 	sll $23,$4,8
GAS LISTING  			page 89


 5007 23d8 01002232 	andi $2,$17,0x1
 5008 23dc 0000A2AF 	sw $2,0($sp)
 5009              	.set noreorder
 5010              	.set nomacro
 5011 23e0 EFF70010 	b $L828
 5012 23e4 060071A2 	sb $17,6($19)
 5013              	.set macro
 5014              	.set reorder
 5015              	
 5016              	$L249:
 5017 23e8 6900A22A 	slt $2,$21,105
 5018              	.set noreorder
 5019              	.set nomacro
 5020 23ec FDF74014 	bne $2,$0,$L58
 5021 23f0 21189302 	addu $3,$20,$19
 5022              	.set macro
 5023              	.set reorder
 5024              	
 5025 23f4 080075AE 	sw $21,8($19)
 5026 23f8 01009426 	addu $20,$20,1
 5027 23fc 20007290 	lbu $18,32($3)
 5028 2400 21109302 	addu $2,$20,$19
 5029 2404 2D206002 	move $4,$19
 5030              	$L960:
 5031 2408 20005190 	lbu $17,32($2)
 5032 240c FF004632 	andi $6,$18,0x00ff
 5033 2410 01009426 	addu $20,$20,1
 5034 2414 97FFB526 	addu $21,$21,-105
 5035 2418 21883E02 	addu $17,$17,$fp
 5036              	.set noreorder
 5037              	.set nomacro
 5038 241c 2BF80010 	b $L833
 5039 2420 2D282002 	move $5,$17
 5040              	.set macro
 5041              	.set reorder
 5042              	
 5043              	$L659:
 5044 2424 2A00A22A 	slt $2,$21,42
 5045              	.set noreorder
 5046              	.set nomacro
 5047 2428 EEF74014 	bne $2,$0,$L58
 5048 242c 21109302 	addu $2,$20,$19
 5049              	.set macro
 5050              	.set reorder
 5051              	
 5052 2430 0000A38F 	lw $3,0($sp)
 5053 2434 20004290 	lbu $2,32($2)
 5054              	.set noreorder
 5055              	.set nomacro
 5056 2438 1DF90010 	b $L1018
 5057 243c 01009426 	addu $20,$20,1
 5058              	.set macro
 5059              	.set reorder
 5060              	
 5061              	$L812:
 5062 2440 A800A22A 	slt $2,$21,168
 5063              	.set noreorder
GAS LISTING  			page 90


 5064              	.set nomacro
 5065 2444 E7F74014 	bne $2,$0,$L58
 5066 2448 2D206002 	move $4,$19
 5067              	.set macro
 5068              	.set reorder
 5069              	
 5070 244c CCFF0534 	li $5,65484
 5071              	.set noreorder
 5072              	.set nomacro
 5073 2450 06F80010 	b $L830
 5074 2454 080075AE 	sw $21,8($19)
 5075              	.set macro
 5076              	.set reorder
 5077              	
 5078              	$L613:
 5079 2458 5400A22A 	slt $2,$21,84
 5080              	.set noreorder
 5081              	.set nomacro
 5082 245c E1F74014 	bne $2,$0,$L58
 5083 2460 21109302 	addu $2,$20,$19
 5084              	.set macro
 5085              	.set reorder
 5086              	
 5087 2464 080075AE 	sw $21,8($19)
 5088 2468 20005190 	lbu $17,32($2)
 5089 246c 2D206002 	move $4,$19
 5090 2470 01009426 	addu $20,$20,1
 5091 2474 21883E02 	addu $17,$17,$fp
 5092              	.set noreorder
 5093              	.set nomacro
 5094 2478 0000000C 	jal _SNSPCRead8
 5095 247c 2D282002 	move $5,$17
 5096              	.set macro
 5097              	.set reorder
 5098              	
 5099 2480 080075AE 	sw $21,8($19)
 5100 2484 10005234 	ori $18,$2,0x10
 5101 2488 2D282002 	move $5,$17
 5102              	.set noreorder
 5103              	.set nomacro
 5104 248c 23F90010 	b $L1015
 5105 2490 1000523A 	xori $18,$18,0x10
 5106              	.set macro
 5107              	.set reorder
 5108              	
 5109              	$L762:
 5110 2494 6900A22A 	slt $2,$21,105
 5111              	.set noreorder
 5112              	.set nomacro
 5113 2498 D2F74014 	bne $2,$0,$L58
 5114 249c 21109302 	addu $2,$20,$19
 5115              	.set macro
 5116              	.set reorder
 5117              	
 5118 24a0 080075AE 	sw $21,8($19)
 5119 24a4 20005190 	lbu $17,32($2)
 5120 24a8 2D206002 	move $4,$19
GAS LISTING  			page 91


 5121 24ac 01009426 	addu $20,$20,1
 5122 24b0 21883E02 	addu $17,$17,$fp
 5123              	.set noreorder
 5124              	.set nomacro
 5125 24b4 0000000C 	jal _SNSPCRead8
 5126 24b8 2D282002 	move $5,$17
 5127              	.set macro
 5128              	.set reorder
 5129              	
 5130 24bc 2D904000 	move $18,$2
 5131 24c0 21109302 	addu $2,$20,$19
 5132              	.set noreorder
 5133              	.set nomacro
 5134 24c4 25F90010 	b $L951
 5135 24c8 10005232 	andi $18,$18,0x10
 5136              	.set macro
 5137              	.set reorder
 5138              	
 5139              	$L264:
 5140 24cc 5400A22A 	slt $2,$21,84
 5141              	.set noreorder
 5142              	.set nomacro
 5143 24d0 C4F74014 	bne $2,$0,$L58
 5144 24d4 21109302 	addu $2,$20,$19
 5145              	.set macro
 5146              	.set reorder
 5147              	
 5148 24d8 04006392 	lbu $3,4($19)
 5149 24dc 20005190 	lbu $17,32($2)
 5150 24e0 2D206002 	move $4,$19
 5151 24e4 01009426 	addu $20,$20,1
 5152 24e8 080075AE 	sw $21,8($19)
 5153 24ec 21882302 	addu $17,$17,$3
 5154 24f0 FF003132 	andi $17,$17,0xff
 5155              	.set noreorder
 5156              	.set nomacro
 5157 24f4 D4FE0010 	b $L1031
 5158 24f8 21883E02 	addu $17,$17,$fp
 5159              	.set macro
 5160              	.set reorder
 5161              	
 5162              	$L272:
 5163 24fc 6900A22A 	slt $2,$21,105
 5164              	.set noreorder
 5165              	.set nomacro
 5166 2500 B8F74014 	bne $2,$0,$L58
 5167 2504 21189302 	addu $3,$20,$19
 5168              	.set macro
 5169              	.set reorder
 5170              	
 5171 2508 04006692 	lbu $6,4($19)
 5172              	$L1034:
 5173 250c 21006290 	lbu $2,33($3)
 5174 2510 2D206002 	move $4,$19
 5175 2514 20006590 	lbu $5,32($3)
 5176 2518 02009426 	addu $20,$20,2
 5177 251c 00120200 	sll $2,$2,8
GAS LISTING  			page 92


 5178 2520 080075AE 	sw $21,8($19)
 5179 2524 25884500 	or $17,$2,$5
 5180 2528 21882602 	addu $17,$17,$6
 5181              	.set noreorder
 5182              	.set nomacro
 5183 252c 0000000C 	jal _SNSPCRead8
 5184 2530 2D282002 	move $5,$17
 5185              	.set macro
 5186              	.set reorder
 5187              	
 5188 2534 02007092 	lbu $16,2($19)
 5189 2538 2D904000 	move $18,$2
 5190 253c 06006292 	lbu $2,6($19)
 5191              	$L1033:
 5192 2540 B7004530 	andi $5,$2,0xb7
 5193 2544 21201202 	addu $4,$16,$18
 5194 2548 060065A2 	sb $5,6($19)
 5195 254c 2D180002 	move $3,$16
 5196 2550 26101202 	xor $2,$16,$18
 5197 2554 0000A68F 	lw $6,0($sp)
 5198 2558 27100200 	nor $2,$0,$2
 5199 255c 21808600 	addu $16,$4,$6
 5200 2560 26187000 	xor $3,$3,$16
 5201 2564 24104300 	and $2,$2,$3
 5202 2568 80004230 	andi $2,$2,0x80
 5203              	.set noreorder
 5204              	.set nomacro
 5205 256c 04004050 	beql $2,$0,$L1066
 5206 2570 020070A2 	sb $16,2($19)
 5207              	.set macro
 5208              	.set reorder
 5209              	
 5210 2574 4000A234 	ori $2,$5,0x40
 5211 2578 060062A2 	sb $2,6($19)
 5212 257c 020070A2 	sb $16,2($19)
 5213              	$L1066:
 5214 2580 00B21000 	sll $22,$16,8
 5215 2584 02821000 	srl $16,$16,8
 5216 2588 2DB8C002 	move $23,$22
 5217 258c 01001032 	andi $16,$16,0x1
 5218              	.set noreorder
 5219              	.set nomacro
 5220 2590 E6F70010 	b $L781
 5221 2594 0000B0AF 	sw $16,0($sp)
 5222              	.set macro
 5223              	.set reorder
 5224              	
 5225              	$L276:
 5226 2598 6900A22A 	slt $2,$21,105
 5227              	.set noreorder
 5228              	.set nomacro
 5229 259c 91F74014 	bne $2,$0,$L58
 5230 25a0 21189302 	addu $3,$20,$19
 5231              	.set macro
 5232              	.set reorder
 5233              	
 5234              	.set noreorder
GAS LISTING  			page 93


 5235              	.set nomacro
 5236 25a4 D9FF0010 	b $L1034
 5237 25a8 03006692 	lbu $6,3($19)
 5238              	.set macro
 5239              	.set reorder
 5240              	
 5241              	$L284:
 5242 25ac 7E00A22A 	slt $2,$21,126
 5243              	.set noreorder
 5244              	.set nomacro
 5245 25b0 8CF74014 	bne $2,$0,$L58
 5246 25b4 21109302 	addu $2,$20,$19
 5247              	.set macro
 5248              	.set reorder
 5249              	
 5250 25b8 080075AE 	sw $21,8($19)
 5251 25bc 20005190 	lbu $17,32($2)
 5252 25c0 2D206002 	move $4,$19
 5253 25c4 01009426 	addu $20,$20,1
 5254 25c8 21883E02 	addu $17,$17,$fp
 5255              	.set noreorder
 5256              	.set nomacro
 5257 25cc 1200000C 	jal _SNSPCRead16
 5258 25d0 2D282002 	move $5,$17
 5259              	.set macro
 5260              	.set reorder
 5261              	
 5262 25d4 080075AE 	sw $21,8($19)
 5263 25d8 2D884000 	move $17,$2
 5264 25dc 2D206002 	move $4,$19
 5265 25e0 03006292 	lbu $2,3($19)
 5266              	.set noreorder
 5267              	.set nomacro
 5268 25e4 C9FE0010 	b $L1037
 5269 25e8 21882202 	addu $17,$17,$2
 5270              	.set macro
 5271              	.set reorder
 5272              	
 5273              	$L296:
 5274 25ec 6900A22A 	slt $2,$21,105
 5275              	.set noreorder
 5276              	.set nomacro
 5277 25f0 7CF74014 	bne $2,$0,$L58
 5278 25f4 21189302 	addu $3,$20,$19
 5279              	.set macro
 5280              	.set reorder
 5281              	
 5282 25f8 2D206002 	move $4,$19
 5283 25fc 01009426 	addu $20,$20,1
 5284 2600 20007290 	lbu $18,32($3)
 5285 2604 21109302 	addu $2,$20,$19
 5286 2608 080075AE 	sw $21,8($19)
 5287 260c 20005190 	lbu $17,32($2)
 5288              	$L1052:
 5289 2610 01009426 	addu $20,$20,1
 5290              	$L1050:
 5291 2614 21883E02 	addu $17,$17,$fp
GAS LISTING  			page 94


 5292              	.set noreorder
 5293              	.set nomacro
 5294 2618 0000000C 	jal _SNSPCRead8
 5295 261c 2D282002 	move $5,$17
 5296              	.set macro
 5297              	.set reorder
 5298              	
 5299 2620 0000A68F 	lw $6,0($sp)
 5300 2624 21205200 	addu $4,$2,$18
 5301 2628 2D184000 	move $3,$2
 5302 262c 21808600 	addu $16,$4,$6
 5303 2630 26105200 	xor $2,$2,$18
 5304 2634 06006592 	lbu $5,6($19)
 5305 2638 27100200 	nor $2,$0,$2
 5306 263c 26187000 	xor $3,$3,$16
 5307 2640 24104300 	and $2,$2,$3
 5308 2644 B700A530 	andi $5,$5,0xb7
 5309 2648 80004230 	andi $2,$2,0x80
 5310              	.set noreorder
 5311              	.set nomacro
 5312 264c 03004010 	beq $2,$0,$L348
 5313 2650 060065A2 	sb $5,6($19)
 5314              	.set macro
 5315              	.set reorder
 5316              	
 5317 2654 4000A234 	ori $2,$5,0x40
 5318 2658 060062A2 	sb $2,6($19)
 5319              	$L348:
 5320 265c 080075AE 	sw $21,8($19)
 5321 2660 FF000632 	andi $6,$16,0x00ff
 5322 2664 2D282002 	move $5,$17
 5323 2668 00B21000 	sll $22,$16,8
 5324 266c 2D206002 	move $4,$19
 5325              	.set noreorder
 5326              	.set nomacro
 5327 2670 3E00000C 	jal _SNSPCWrite8
 5328 2674 02821000 	srl $16,$16,8
 5329              	.set macro
 5330              	.set reorder
 5331              	
 5332 2678 01001032 	andi $16,$16,0x1
 5333              	.set noreorder
 5334              	.set nomacro
 5335 267c 38F80010 	b $L949
 5336 2680 0000B0AF 	sw $16,0($sp)
 5337              	.set macro
 5338              	.set reorder
 5339              	
 5340              	$L288:
 5341 2684 6900A22A 	slt $2,$21,105
 5342              	.set noreorder
 5343              	.set nomacro
 5344 2688 56F74014 	bne $2,$0,$L58
 5345 268c 2D206002 	move $4,$19
 5346              	.set macro
 5347              	.set reorder
 5348              	
GAS LISTING  			page 95


 5349 2690 03007192 	lbu $17,3($19)
 5350 2694 080075AE 	sw $21,8($19)
 5351 2698 21883E02 	addu $17,$17,$fp
 5352              	.set noreorder
 5353              	.set nomacro
 5354 269c 0000000C 	jal _SNSPCRead8
 5355 26a0 2D282002 	move $5,$17
 5356              	.set macro
 5357              	.set reorder
 5358              	
 5359 26a4 04007192 	lbu $17,4($19)
 5360 26a8 2D904000 	move $18,$2
 5361 26ac 2D206002 	move $4,$19
 5362              	$L1051:
 5363              	.set noreorder
 5364              	.set nomacro
 5365 26b0 D8FF0010 	b $L1050
 5366 26b4 080075AE 	sw $21,8($19)
 5367              	.set macro
 5368              	.set reorder
 5369              	
 5370              	$L557:
 5371 26b8 6900A22A 	slt $2,$21,105
 5372              	.set noreorder
 5373              	.set nomacro
 5374 26bc 49F74014 	bne $2,$0,$L58
 5375 26c0 21109302 	addu $2,$20,$19
 5376              	.set macro
 5377              	.set reorder
 5378              	
 5379 26c4 080075AE 	sw $21,8($19)
 5380 26c8 20005190 	lbu $17,32($2)
 5381 26cc 2D206002 	move $4,$19
 5382 26d0 01009426 	addu $20,$20,1
 5383 26d4 21883E02 	addu $17,$17,$fp
 5384              	.set noreorder
 5385              	.set nomacro
 5386 26d8 1200000C 	jal _SNSPCRead16
 5387 26dc 2D282002 	move $5,$17
 5388              	.set macro
 5389              	.set reorder
 5390              	
 5391 26e0 02006392 	lbu $3,2($19)
 5392 26e4 2D904000 	move $18,$2
 5393 26e8 06006492 	lbu $4,6($19)
 5394 26ec 03006292 	lbu $2,3($19)
 5395 26f0 FFFF523A 	xori $18,$18,0xffff
 5396 26f4 01005226 	addu $18,$18,1
 5397 26f8 B7008430 	andi $4,$4,0xb7
 5398 26fc 00120200 	sll $2,$2,8
 5399 2700 25806200 	or $16,$3,$2
 5400 2704 2D180002 	move $3,$16
 5401 2708 21801202 	addu $16,$16,$18
 5402 270c 26107200 	xor $2,$3,$18
 5403 2710 26187000 	xor $3,$3,$16
 5404 2714 27100200 	nor $2,$0,$2
 5405 2718 24104300 	and $2,$2,$3
GAS LISTING  			page 96


 5406 271c 00804230 	andi $2,$2,0x8000
 5407              	.set noreorder
 5408              	.set nomacro
 5409 2720 BBFD4010 	beq $2,$0,$L560
 5410 2724 060064A2 	sb $4,6($19)
 5411              	.set macro
 5412              	.set reorder
 5413              	
 5414              	.set noreorder
 5415              	.set nomacro
 5416 2728 B8FD0010 	b $L896
 5417 272c 40008234 	ori $2,$4,0x40
 5418              	.set macro
 5419              	.set reorder
 5420              	
 5421              	$L535:
 5422 2730 6900A22A 	slt $2,$21,105
 5423              	.set noreorder
 5424              	.set nomacro
 5425 2734 2BF74014 	bne $2,$0,$L58
 5426 2738 21109302 	addu $2,$20,$19
 5427              	.set macro
 5428              	.set reorder
 5429              	
 5430 273c 04006392 	lbu $3,4($19)
 5431 2740 20005190 	lbu $17,32($2)
 5432 2744 2D206002 	move $4,$19
 5433 2748 01009426 	addu $20,$20,1
 5434 274c 080075AE 	sw $21,8($19)
 5435 2750 21882302 	addu $17,$17,$3
 5436 2754 FF003132 	andi $17,$17,0xff
 5437              	.set noreorder
 5438              	.set nomacro
 5439 2758 01FF0010 	b $L1012
 5440 275c 21883E02 	addu $17,$17,$fp
 5441              	.set macro
 5442              	.set reorder
 5443              	
 5444              	$L511:
 5445 2760 2A00A22A 	slt $2,$21,42
 5446              	.set noreorder
 5447              	.set nomacro
 5448 2764 20F74054 	bnel $2,$0,$L1062
 5449 2768 06006392 	lbu $3,6($19)
 5450              	.set macro
 5451              	.set reorder
 5452              	
 5453 276c 02007292 	lbu $18,2($19)
 5454 2770 D6FFB526 	addu $21,$21,-42
 5455              	.set noreorder
 5456              	.set nomacro
 5457 2774 2DFC0010 	b $L888
 5458 2778 FFFF5226 	addu $18,$18,-1
 5459              	.set macro
 5460              	.set reorder
 5461              	
 5462              	$L241:
GAS LISTING  			page 97


 5463 277c 2A00A22A 	slt $2,$21,42
 5464              	.set noreorder
 5465              	.set nomacro
 5466 2780 19F74054 	bnel $2,$0,$L1062
 5467 2784 06006392 	lbu $3,6($19)
 5468              	.set macro
 5469              	.set reorder
 5470              	
 5471              	.set noreorder
 5472              	.set nomacro
 5473 2788 2FFC0010 	b $L861
 5474 278c 05007192 	lbu $17,5($19)
 5475              	.set macro
 5476              	.set reorder
 5477              	
 5478              	$L697:
 5479 2790 FC00A22A 	slt $2,$21,252
 5480              	.set noreorder
 5481              	.set nomacro
 5482 2794 14F74054 	bnel $2,$0,$L1062
 5483 2798 06006392 	lbu $3,6($19)
 5484              	.set macro
 5485              	.set reorder
 5486              	
 5487 279c 06006292 	lbu $2,6($19)
 5488 27a0 03006392 	lbu $3,3($19)
 5489 27a4 02006492 	lbu $4,2($19)
 5490 27a8 BF004230 	andi $2,$2,0xbf
 5491 27ac 04007292 	lbu $18,4($19)
 5492 27b0 001A0300 	sll $3,$3,8
 5493 27b4 25888300 	or $17,$4,$3
 5494              	.set noreorder
 5495              	.set nomacro
 5496 27b8 11004012 	beq $18,$0,$L699
 5497 27bc 060062A2 	sb $2,6($19)
 5498              	.set macro
 5499              	.set reorder
 5500              	
 5501 27c0 1B003202 	divu $0,$17,$18
 5502              	.set noreorder
 5503 27c4 01004052 	beql $18,$0,1f
 5504 27c8 CD010000 	break 7
 5505              	1:
 5506              	.set reorder
 5507 27cc 12800000 	mflo $16
 5508              	
 5509              	
 5510 27d0 10900000 	mfhi $18
 5511              	$L700:
 5512 27d4 0001022E 	sltu $2,$16,256
 5513              	.set noreorder
 5514              	.set nomacro
 5515 27d8 04004014 	bne $2,$0,$L1067
 5516 27dc 00B21000 	sll $22,$16,8
 5517              	.set macro
 5518              	.set reorder
 5519              	
GAS LISTING  			page 98


 5520 27e0 06006292 	lbu $2,6($19)
 5521              	
 5522 27e4 40004234 	ori $2,$2,0x40
 5523 27e8 060062A2 	sb $2,6($19)
 5524              	$L1067:
 5525 27ec 04FFB526 	addu $21,$21,-252
 5526 27f0 2DB8C002 	move $23,$22
 5527 27f4 030072A2 	sb $18,3($19)
 5528              	.set noreorder
 5529              	.set nomacro
 5530 27f8 E9F60010 	b $L828
 5531 27fc 020070A2 	sb $16,2($19)
 5532              	.set macro
 5533              	.set reorder
 5534              	
 5535              	$L699:
 5536              	.set noreorder
 5537              	.set nomacro
 5538 2800 F4FF0010 	b $L700
 5539 2804 FFFF1034 	li $16,65535
 5540              	.set macro
 5541              	.set reorder
 5542              	
 5543              	$L136:
 5544 2808 6900A22A 	slt $2,$21,105
 5545              	.set noreorder
 5546              	.set nomacro
 5547 280c F6F64054 	bnel $2,$0,$L1062
 5548 2810 06006392 	lbu $3,6($19)
 5549              	.set macro
 5550              	.set reorder
 5551              	
 5552 2814 02007192 	lbu $17,2($19)
 5553 2818 97FFB526 	addu $21,$21,-105
 5554 281c 2D902002 	move $18,$17
 5555 2820 00891100 	sll $17,$17,4
 5556 2824 02911200 	srl $18,$18,4
 5557              	.set noreorder
 5558              	.set nomacro
 5559 2828 00FC0010 	b $L888
 5560 282c 25905102 	or $18,$18,$17
 5561              	.set macro
 5562              	.set reorder
 5563              	
 5564              	$L59:
 5565 2830 3F00A22A 	slt $2,$21,63
 5566              	.set noreorder
 5567              	.set nomacro
 5568 2834 ECF64054 	bnel $2,$0,$L1062
 5569 2838 06006392 	lbu $3,6($19)
 5570              	.set macro
 5571              	.set reorder
 5572              	
 5573 283c 06006292 	lbu $2,6($19)
 5574 2840 C1FFB526 	addu $21,$21,-63
 5575              	.set noreorder
 5576              	.set nomacro
GAS LISTING  			page 99


 5577 2844 FFF80010 	b $L840
 5578 2848 04004234 	ori $2,$2,0x4
 5579              	.set macro
 5580              	.set reorder
 5581              	
 5582              	$L814:
 5583 284c A800A22A 	slt $2,$21,168
 5584              	.set noreorder
 5585              	.set nomacro
 5586 2850 E4F64014 	bne $2,$0,$L58
 5587 2854 2D206002 	move $4,$19
 5588              	.set macro
 5589              	.set reorder
 5590              	
 5591 2858 CAFF0534 	li $5,65482
 5592              	.set noreorder
 5593              	.set nomacro
 5594 285c 03F70010 	b $L830
 5595 2860 080075AE 	sw $21,8($19)
 5596              	.set macro
 5597              	.set reorder
 5598              	
 5599              	$L592:
 5600 2864 5400A22A 	slt $2,$21,84
 5601              	.set noreorder
 5602              	.set nomacro
 5603 2868 DEF64014 	bne $2,$0,$L58
 5604 286c 21109302 	addu $2,$20,$19
 5605              	.set macro
 5606              	.set reorder
 5607              	
 5608 2870 080075AE 	sw $21,8($19)
 5609 2874 20005190 	lbu $17,32($2)
 5610 2878 2D206002 	move $4,$19
 5611 287c 01009426 	addu $20,$20,1
 5612 2880 21883E02 	addu $17,$17,$fp
 5613              	.set noreorder
 5614              	.set nomacro
 5615 2884 0000000C 	jal _SNSPCRead8
 5616 2888 2D282002 	move $5,$17
 5617              	.set macro
 5618              	.set reorder
 5619              	
 5620 288c 2D282002 	move $5,$17
 5621              	.set noreorder
 5622              	.set nomacro
 5623 2890 0AF70010 	b $L1016
 5624 2894 20005234 	ori $18,$2,0x20
 5625              	.set macro
 5626              	.set reorder
 5627              	
 5628              	$L727:
 5629 2898 6900A22A 	slt $2,$21,105
 5630              	.set noreorder
 5631              	.set nomacro
 5632 289c D1F64014 	bne $2,$0,$L58
 5633 28a0 21109302 	addu $2,$20,$19
GAS LISTING  			page 100


 5634              	.set macro
 5635              	.set reorder
 5636              	
 5637 28a4 080075AE 	sw $21,8($19)
 5638 28a8 20005190 	lbu $17,32($2)
 5639 28ac 2D206002 	move $4,$19
 5640 28b0 01009426 	addu $20,$20,1
 5641 28b4 21883E02 	addu $17,$17,$fp
 5642              	.set noreorder
 5643              	.set nomacro
 5644 28b8 0000000C 	jal _SNSPCRead8
 5645 28bc 2D282002 	move $5,$17
 5646              	.set macro
 5647              	.set reorder
 5648              	
 5649 28c0 2D904000 	move $18,$2
 5650 28c4 21109302 	addu $2,$20,$19
 5651              	.set noreorder
 5652              	.set nomacro
 5653 28c8 11F70010 	b $L952
 5654 28cc 20005232 	andi $18,$18,0x20
 5655              	.set macro
 5656              	.set reorder
 5657              	
 5658              	$L308:
 5659 28d0 3F00A22A 	slt $2,$21,63
 5660              	.set noreorder
 5661              	.set nomacro
 5662 28d4 C3F64014 	bne $2,$0,$L58
 5663 28d8 21109302 	addu $2,$20,$19
 5664              	.set macro
 5665              	.set reorder
 5666              	
 5667 28dc 080075AE 	sw $21,8($19)
 5668 28e0 20005190 	lbu $17,32($2)
 5669 28e4 2D206002 	move $4,$19
 5670 28e8 01009426 	addu $20,$20,1
 5671              	$L1026:
 5672 28ec 21883E02 	addu $17,$17,$fp
 5673              	.set noreorder
 5674              	.set nomacro
 5675 28f0 0000000C 	jal _SNSPCRead8
 5676 28f4 2D282002 	move $5,$17
 5677              	.set macro
 5678              	.set reorder
 5679              	
 5680 28f8 02007092 	lbu $16,2($19)
 5681 28fc 2D904000 	move $18,$2
 5682 2900 06006292 	lbu $2,6($19)
 5683              	.set noreorder
 5684              	.set nomacro
 5685 2904 AFFD0010 	b $L1027
 5686 2908 FF00523A 	xori $18,$18,0xff
 5687              	.set macro
 5688              	.set reorder
 5689              	
 5690              	$L316:
GAS LISTING  			page 101


 5691 290c 5400A22A 	slt $2,$21,84
 5692              	.set noreorder
 5693              	.set nomacro
 5694 2910 B4F64014 	bne $2,$0,$L58
 5695 2914 21189302 	addu $3,$20,$19
 5696              	.set macro
 5697              	.set reorder
 5698              	
 5699 2918 080075AE 	sw $21,8($19)
 5700 291c 21006290 	lbu $2,33($3)
 5701 2920 2D206002 	move $4,$19
 5702 2924 20006590 	lbu $5,32($3)
 5703 2928 02009426 	addu $20,$20,2
 5704 292c 00120200 	sll $2,$2,8
 5705 2930 25884500 	or $17,$2,$5
 5706              	$L1029:
 5707              	.set noreorder
 5708              	.set nomacro
 5709 2934 0000000C 	jal _SNSPCRead8
 5710 2938 2D282002 	move $5,$17
 5711              	.set macro
 5712              	.set reorder
 5713              	
 5714 293c 02007092 	lbu $16,2($19)
 5715 2940 2D904000 	move $18,$2
 5716 2944 06006292 	lbu $2,6($19)
 5717              	.set noreorder
 5718              	.set nomacro
 5719 2948 C4FD0010 	b $L1030
 5720 294c FF00523A 	xori $18,$18,0xff
 5721              	.set macro
 5722              	.set reorder
 5723              	
 5724              	$L305:
 5725 2950 3F00A22A 	slt $2,$21,63
 5726              	.set noreorder
 5727              	.set nomacro
 5728 2954 A3F64014 	bne $2,$0,$L58
 5729 2958 2D206002 	move $4,$19
 5730              	.set macro
 5731              	.set reorder
 5732              	
 5733 295c 04007192 	lbu $17,4($19)
 5734              	.set noreorder
 5735              	.set nomacro
 5736 2960 E2FF0010 	b $L1026
 5737 2964 080075AE 	sw $21,8($19)
 5738              	.set macro
 5739              	.set reorder
 5740              	
 5741              	$L328:
 5742 2968 7E00A22A 	slt $2,$21,126
 5743              	.set noreorder
 5744              	.set nomacro
 5745 296c 9DF64014 	bne $2,$0,$L58
 5746 2970 21109302 	addu $2,$20,$19
 5747              	.set macro
GAS LISTING  			page 102


 5748              	.set reorder
 5749              	
 5750 2974 04006392 	lbu $3,4($19)
 5751 2978 20005190 	lbu $17,32($2)
 5752 297c 2D206002 	move $4,$19
 5753 2980 080075AE 	sw $21,8($19)
 5754 2984 01009426 	addu $20,$20,1
 5755 2988 21882302 	addu $17,$17,$3
 5756 298c FF003132 	andi $17,$17,0xff
 5757 2990 21883E02 	addu $17,$17,$fp
 5758              	.set noreorder
 5759              	.set nomacro
 5760 2994 1200000C 	jal _SNSPCRead16
 5761 2998 2D282002 	move $5,$17
 5762              	.set macro
 5763              	.set reorder
 5764              	
 5765 299c 080075AE 	sw $21,8($19)
 5766 29a0 2D884000 	move $17,$2
 5767 29a4 2D206002 	move $4,$19
 5768              	$L1035:
 5769              	.set noreorder
 5770              	.set nomacro
 5771 29a8 0000000C 	jal _SNSPCRead8
 5772 29ac 2D282002 	move $5,$17
 5773              	.set macro
 5774              	.set reorder
 5775              	
 5776 29b0 02007092 	lbu $16,2($19)
 5777 29b4 2D904000 	move $18,$2
 5778 29b8 06006292 	lbu $2,6($19)
 5779              	.set noreorder
 5780              	.set nomacro
 5781 29bc D8FD0010 	b $L1036
 5782 29c0 FF00523A 	xori $18,$18,0xff
 5783              	.set macro
 5784              	.set reorder
 5785              	
 5786              	$L301:
 5787 29c4 2A00A22A 	slt $2,$21,42
 5788              	.set noreorder
 5789              	.set nomacro
 5790 29c8 86F64014 	bne $2,$0,$L58
 5791 29cc 21109302 	addu $2,$20,$19
 5792              	.set macro
 5793              	.set reorder
 5794              	
 5795 29d0 02007092 	lbu $16,2($19)
 5796 29d4 20005290 	lbu $18,32($2)
 5797 29d8 01009426 	addu $20,$20,1
 5798 29dc 06006592 	lbu $5,6($19)
 5799 29e0 2D180002 	move $3,$16
 5800              	.set noreorder
 5801              	.set nomacro
 5802 29e4 ECFD0010 	b $L1025
 5803 29e8 FF00523A 	xori $18,$18,0xff
 5804              	.set macro
GAS LISTING  			page 103


 5805              	.set reorder
 5806              	
 5807              	$L339:
 5808 29ec 7E00A22A 	slt $2,$21,126
 5809              	.set noreorder
 5810              	.set nomacro
 5811 29f0 7CF64014 	bne $2,$0,$L58
 5812 29f4 21109302 	addu $2,$20,$19
 5813              	.set macro
 5814              	.set reorder
 5815              	
 5816 29f8 080075AE 	sw $21,8($19)
 5817 29fc 20005190 	lbu $17,32($2)
 5818 2a00 2D206002 	move $4,$19
 5819 2a04 01009426 	addu $20,$20,1
 5820 2a08 21883E02 	addu $17,$17,$fp
 5821              	.set noreorder
 5822              	.set nomacro
 5823 2a0c 0000000C 	jal _SNSPCRead8
 5824 2a10 2D282002 	move $5,$17
 5825              	.set macro
 5826              	.set reorder
 5827              	
 5828 2a14 080075AE 	sw $21,8($19)
 5829 2a18 2D904000 	move $18,$2
 5830 2a1c 2D206002 	move $4,$19
 5831 2a20 21109302 	addu $2,$20,$19
 5832 2a24 FF00523A 	xori $18,$18,0xff
 5833              	.set noreorder
 5834              	.set nomacro
 5835 2a28 FEFD0010 	b $L1038
 5836 2a2c 20005190 	lbu $17,32($2)
 5837              	.set macro
 5838              	.set reorder
 5839              	
 5840              	$L634:
 5841 2a30 5400A22A 	slt $2,$21,84
 5842              	.set noreorder
 5843              	.set nomacro
 5844 2a34 6BF64014 	bne $2,$0,$L58
 5845 2a38 21109302 	addu $2,$20,$19
 5846              	.set macro
 5847              	.set reorder
 5848              	
 5849 2a3c 080075AE 	sw $21,8($19)
 5850 2a40 21004390 	lbu $3,33($2)
 5851 2a44 2D206002 	move $4,$19
 5852 2a48 20004590 	lbu $5,32($2)
 5853 2a4c 02009426 	addu $20,$20,2
 5854 2a50 001A0300 	sll $3,$3,8
 5855 2a54 ACFFB526 	addu $21,$21,-84
 5856 2a58 25886500 	or $17,$3,$5
 5857 2a5c 2D802002 	move $16,$17
 5858 2a60 FF1F3132 	andi $17,$17,0x1fff
 5859 2a64 2D282002 	move $5,$17
 5860              	.set noreorder
 5861              	.set nomacro
GAS LISTING  			page 104


 5862 2a68 0000000C 	jal _SNSPCRead8
 5863 2a6c 42831000 	srl $16,$16,13
 5864              	.set macro
 5865              	.set reorder
 5866              	
 5867              	.set noreorder
 5868              	.set nomacro
 5869 2a70 3BF80010 	b $L838
 5870 2a74 06900202 	srl $18,$2,$16
 5871              	.set macro
 5872              	.set reorder
 5873              	
 5874              	$L523:
 5875 2a78 5400A22A 	slt $2,$21,84
 5876              	.set noreorder
 5877              	.set nomacro
 5878 2a7c 59F64014 	bne $2,$0,$L58
 5879 2a80 21109302 	addu $2,$20,$19
 5880              	.set macro
 5881              	.set reorder
 5882              	
 5883 2a84 080075AE 	sw $21,8($19)
 5884 2a88 20005190 	lbu $17,32($2)
 5885 2a8c 2D206002 	move $4,$19
 5886 2a90 01009426 	addu $20,$20,1
 5887 2a94 21883E02 	addu $17,$17,$fp
 5888              	.set noreorder
 5889              	.set nomacro
 5890 2a98 0000000C 	jal _SNSPCRead8
 5891 2a9c 2D282002 	move $5,$17
 5892              	.set macro
 5893              	.set reorder
 5894              	
 5895 2aa0 2D282002 	move $5,$17
 5896              	.set noreorder
 5897              	.set nomacro
 5898 2aa4 1DFE0010 	b $L1003
 5899 2aa8 01005224 	addu $18,$2,1
 5900              	.set macro
 5901              	.set reorder
 5902              	
 5903              	$L529:
 5904 2aac 6900A22A 	slt $2,$21,105
 5905              	.set noreorder
 5906              	.set nomacro
 5907 2ab0 4CF64014 	bne $2,$0,$L58
 5908 2ab4 21189302 	addu $3,$20,$19
 5909              	.set macro
 5910              	.set reorder
 5911              	
 5912 2ab8 080075AE 	sw $21,8($19)
 5913 2abc 21006290 	lbu $2,33($3)
 5914 2ac0 2D206002 	move $4,$19
 5915 2ac4 20006590 	lbu $5,32($3)
 5916 2ac8 02009426 	addu $20,$20,2
 5917 2acc 00120200 	sll $2,$2,8
 5918 2ad0 25884500 	or $17,$2,$5
GAS LISTING  			page 105


 5919              	$L1006:
 5920              	.set noreorder
 5921              	.set nomacro
 5922 2ad4 0000000C 	jal _SNSPCRead8
 5923 2ad8 2D282002 	move $5,$17
 5924              	.set macro
 5925              	.set reorder
 5926              	
 5927 2adc 2D282002 	move $5,$17
 5928              	.set noreorder
 5929              	.set nomacro
 5930 2ae0 23FE0010 	b $L1004
 5931 2ae4 01005224 	addu $18,$2,1
 5932              	.set macro
 5933              	.set reorder
 5934              	
 5935              	$L384:
 5936 2ae8 2A00A22A 	slt $2,$21,42
 5937              	.set noreorder
 5938              	.set nomacro
 5939 2aec 3DF64014 	bne $2,$0,$L58
 5940 2af0 21109302 	addu $2,$20,$19
 5941              	.set macro
 5942              	.set reorder
 5943              	
 5944              	.set noreorder
 5945              	.set nomacro
 5946 2af4 CEFB0010 	b $L990
 5947 2af8 03007092 	lbu $16,3($19)
 5948              	.set macro
 5949              	.set reorder
 5950              	
 5951              	$L84:
 5952 2afc 5400A22A 	slt $2,$21,84
 5953              	.set noreorder
 5954              	.set nomacro
 5955 2b00 38F64014 	bne $2,$0,$L58
 5956 2b04 2D206002 	move $4,$19
 5957              	.set macro
 5958              	.set reorder
 5959              	
 5960              	.set noreorder
 5961              	.set nomacro
 5962 2b08 BA00000C 	jal _SNSPCPop8
 5963 2b0c ACFFB526 	addu $21,$21,-84
 5964              	.set macro
 5965              	.set reorder
 5966              	
 5967              	.set noreorder
 5968              	.set nomacro
 5969 2b10 23F60010 	b $L828
 5970 2b14 020062A2 	sb $2,2($19)
 5971              	.set macro
 5972              	.set reorder
 5973              	
 5974              	$L192:
 5975 2b18 5400A22A 	slt $2,$21,84
GAS LISTING  			page 106


 5976              	.set noreorder
 5977              	.set nomacro
 5978 2b1c 31F64014 	bne $2,$0,$L58
 5979 2b20 2D206002 	move $4,$19
 5980              	.set macro
 5981              	.set reorder
 5982              	
 5983 2b24 04006292 	lbu $2,4($19)
 5984 2b28 02007292 	lbu $18,2($19)
 5985 2b2c 01004324 	addu $3,$2,1
 5986 2b30 080075AE 	sw $21,8($19)
 5987 2b34 040063A2 	sb $3,4($19)
 5988 2b38 2188C203 	addu $17,$fp,$2
 5989 2b3c FF004632 	andi $6,$18,0x00ff
 5990              	$L956:
 5991              	.set noreorder
 5992              	.set nomacro
 5993 2b40 61F60010 	b $L975
 5994 2b44 2D282002 	move $5,$17
 5995              	.set macro
 5996              	.set reorder
 5997              	
 5998              	$L663:
 5999 2b48 2A00A22A 	slt $2,$21,42
 6000              	.set noreorder
 6001              	.set nomacro
 6002 2b4c 25F64014 	bne $2,$0,$L58
 6003 2b50 0000A68F 	lw $6,0($sp)
 6004              	.set macro
 6005              	.set reorder
 6006              	
 6007 2b54 21109302 	addu $2,$20,$19
 6008 2b58 20004290 	lbu $2,32($2)
 6009              	.set noreorder
 6010              	.set nomacro
 6011 2b5c 1FF6C010 	beq $6,$0,$L674
 6012 2b60 01009426 	addu $20,$20,1
 6013              	.set macro
 6014              	.set reorder
 6015              	
 6016              	.set noreorder
 6017              	.set nomacro
 6018 2b64 55F70010 	b $L1060
 6019 2b68 00160200 	sll $2,$2,24
 6020              	.set macro
 6021              	.set reorder
 6022              	
 6023              	$L816:
 6024 2b6c A800A22A 	slt $2,$21,168
 6025              	.set noreorder
 6026              	.set nomacro
 6027 2b70 1CF64014 	bne $2,$0,$L58
 6028 2b74 2D206002 	move $4,$19
 6029              	.set macro
 6030              	.set reorder
 6031              	
 6032 2b78 C8FF0534 	li $5,65480
GAS LISTING  			page 107


 6033              	.set noreorder
 6034              	.set nomacro
 6035 2b7c 3BF60010 	b $L830
 6036 2b80 080075AE 	sw $21,8($19)
 6037              	.set macro
 6038              	.set reorder
 6039              	
 6040              	$L616:
 6041 2b84 5400A22A 	slt $2,$21,84
 6042              	.set noreorder
 6043              	.set nomacro
 6044 2b88 16F64014 	bne $2,$0,$L58
 6045 2b8c 21109302 	addu $2,$20,$19
 6046              	.set macro
 6047              	.set reorder
 6048              	
 6049 2b90 080075AE 	sw $21,8($19)
 6050 2b94 20005190 	lbu $17,32($2)
 6051 2b98 2D206002 	move $4,$19
 6052 2b9c 01009426 	addu $20,$20,1
 6053 2ba0 21883E02 	addu $17,$17,$fp
 6054              	.set noreorder
 6055              	.set nomacro
 6056 2ba4 0000000C 	jal _SNSPCRead8
 6057 2ba8 2D282002 	move $5,$17
 6058              	.set macro
 6059              	.set reorder
 6060              	
 6061 2bac 080075AE 	sw $21,8($19)
 6062 2bb0 20005234 	ori $18,$2,0x20
 6063 2bb4 2D282002 	move $5,$17
 6064              	.set noreorder
 6065              	.set nomacro
 6066 2bb8 58F70010 	b $L1015
 6067 2bbc 2000523A 	xori $18,$18,0x20
 6068              	.set macro
 6069              	.set reorder
 6070              	
 6071              	$L767:
 6072 2bc0 6900A22A 	slt $2,$21,105
 6073              	.set noreorder
 6074              	.set nomacro
 6075 2bc4 07F64014 	bne $2,$0,$L58
 6076 2bc8 21109302 	addu $2,$20,$19
 6077              	.set macro
 6078              	.set reorder
 6079              	
 6080 2bcc 080075AE 	sw $21,8($19)
 6081 2bd0 20005190 	lbu $17,32($2)
 6082 2bd4 2D206002 	move $4,$19
 6083 2bd8 01009426 	addu $20,$20,1
 6084 2bdc 21883E02 	addu $17,$17,$fp
 6085              	.set noreorder
 6086              	.set nomacro
 6087 2be0 0000000C 	jal _SNSPCRead8
 6088 2be4 2D282002 	move $5,$17
 6089              	.set macro
GAS LISTING  			page 108


 6090              	.set reorder
 6091              	
 6092 2be8 2D904000 	move $18,$2
 6093 2bec 21109302 	addu $2,$20,$19
 6094              	.set noreorder
 6095              	.set nomacro
 6096 2bf0 5AF70010 	b $L951
 6097 2bf4 20005232 	andi $18,$18,0x20
 6098              	.set macro
 6099              	.set reorder
 6100              	
 6101              	$L312:
 6102 2bf8 5400A22A 	slt $2,$21,84
 6103              	.set noreorder
 6104              	.set nomacro
 6105 2bfc F9F54014 	bne $2,$0,$L58
 6106 2c00 21109302 	addu $2,$20,$19
 6107              	.set macro
 6108              	.set reorder
 6109              	
 6110 2c04 04006392 	lbu $3,4($19)
 6111 2c08 20005190 	lbu $17,32($2)
 6112 2c0c 2D206002 	move $4,$19
 6113 2c10 01009426 	addu $20,$20,1
 6114 2c14 080075AE 	sw $21,8($19)
 6115 2c18 21882302 	addu $17,$17,$3
 6116 2c1c FF003132 	andi $17,$17,0xff
 6117              	.set noreorder
 6118              	.set nomacro
 6119 2c20 44FF0010 	b $L1029
 6120 2c24 21883E02 	addu $17,$17,$fp
 6121              	.set macro
 6122              	.set reorder
 6123              	
 6124              	$L320:
 6125 2c28 6900A22A 	slt $2,$21,105
 6126              	.set noreorder
 6127              	.set nomacro
 6128 2c2c EDF54014 	bne $2,$0,$L58
 6129 2c30 21189302 	addu $3,$20,$19
 6130              	.set macro
 6131              	.set reorder
 6132              	
 6133 2c34 04006692 	lbu $6,4($19)
 6134              	$L1032:
 6135 2c38 21006290 	lbu $2,33($3)
 6136 2c3c 2D206002 	move $4,$19
 6137 2c40 20006590 	lbu $5,32($3)
 6138 2c44 02009426 	addu $20,$20,2
 6139 2c48 00120200 	sll $2,$2,8
 6140 2c4c 080075AE 	sw $21,8($19)
 6141 2c50 25884500 	or $17,$2,$5
 6142 2c54 21882602 	addu $17,$17,$6
 6143              	.set noreorder
 6144              	.set nomacro
 6145 2c58 0000000C 	jal _SNSPCRead8
 6146 2c5c 2D282002 	move $5,$17
GAS LISTING  			page 109


 6147              	.set macro
 6148              	.set reorder
 6149              	
 6150 2c60 02007092 	lbu $16,2($19)
 6151 2c64 2D904000 	move $18,$2
 6152 2c68 06006292 	lbu $2,6($19)
 6153              	.set noreorder
 6154              	.set nomacro
 6155 2c6c 34FE0010 	b $L1033
 6156 2c70 FF00523A 	xori $18,$18,0xff
 6157              	.set macro
 6158              	.set reorder
 6159              	
 6160              	$L324:
 6161 2c74 6900A22A 	slt $2,$21,105
 6162              	.set noreorder
 6163              	.set nomacro
 6164 2c78 DAF54014 	bne $2,$0,$L58
 6165 2c7c 21189302 	addu $3,$20,$19
 6166              	.set macro
 6167              	.set reorder
 6168              	
 6169              	.set noreorder
 6170              	.set nomacro
 6171 2c80 EDFF0010 	b $L1032
 6172 2c84 03006692 	lbu $6,3($19)
 6173              	.set macro
 6174              	.set reorder
 6175              	
 6176              	$L332:
 6177 2c88 7E00A22A 	slt $2,$21,126
 6178              	.set noreorder
 6179              	.set nomacro
 6180 2c8c D5F54014 	bne $2,$0,$L58
 6181 2c90 21109302 	addu $2,$20,$19
 6182              	.set macro
 6183              	.set reorder
 6184              	
 6185 2c94 080075AE 	sw $21,8($19)
 6186 2c98 20005190 	lbu $17,32($2)
 6187 2c9c 2D206002 	move $4,$19
 6188 2ca0 01009426 	addu $20,$20,1
 6189 2ca4 21883E02 	addu $17,$17,$fp
 6190              	.set noreorder
 6191              	.set nomacro
 6192 2ca8 1200000C 	jal _SNSPCRead16
 6193 2cac 2D282002 	move $5,$17
 6194              	.set macro
 6195              	.set reorder
 6196              	
 6197 2cb0 080075AE 	sw $21,8($19)
 6198 2cb4 2D884000 	move $17,$2
 6199 2cb8 2D206002 	move $4,$19
 6200 2cbc 03006292 	lbu $2,3($19)
 6201              	.set noreorder
 6202              	.set nomacro
 6203 2cc0 39FF0010 	b $L1035
GAS LISTING  			page 110


 6204 2cc4 21882202 	addu $17,$17,$2
 6205              	.set macro
 6206              	.set reorder
 6207              	
 6208              	$L344:
 6209 2cc8 6900A22A 	slt $2,$21,105
 6210              	.set noreorder
 6211              	.set nomacro
 6212 2ccc C5F54014 	bne $2,$0,$L58
 6213 2cd0 21189302 	addu $3,$20,$19
 6214              	.set macro
 6215              	.set reorder
 6216              	
 6217 2cd4 080075AE 	sw $21,8($19)
 6218 2cd8 01009426 	addu $20,$20,1
 6219 2cdc 20007290 	lbu $18,32($3)
 6220 2ce0 21109302 	addu $2,$20,$19
 6221 2ce4 2D206002 	move $4,$19
 6222 2ce8 20005190 	lbu $17,32($2)
 6223              	.set noreorder
 6224              	.set nomacro
 6225 2cec 48FE0010 	b $L1052
 6226 2cf0 FF00523A 	xori $18,$18,0xff
 6227              	.set macro
 6228              	.set reorder
 6229              	
 6230              	$L336:
 6231 2cf4 6900A22A 	slt $2,$21,105
 6232              	.set noreorder
 6233              	.set nomacro
 6234 2cf8 BAF54014 	bne $2,$0,$L58
 6235 2cfc 2D206002 	move $4,$19
 6236              	.set macro
 6237              	.set reorder
 6238              	
 6239 2d00 03007192 	lbu $17,3($19)
 6240 2d04 080075AE 	sw $21,8($19)
 6241 2d08 21883E02 	addu $17,$17,$fp
 6242              	.set noreorder
 6243              	.set nomacro
 6244 2d0c 0000000C 	jal _SNSPCRead8
 6245 2d10 2D282002 	move $5,$17
 6246              	.set macro
 6247              	.set reorder
 6248              	
 6249 2d14 04007192 	lbu $17,4($19)
 6250 2d18 2D206002 	move $4,$19
 6251              	.set noreorder
 6252              	.set nomacro
 6253 2d1c 64FE0010 	b $L1051
 6254 2d20 FF005238 	xori $18,$2,0xff
 6255              	.set macro
 6256              	.set reorder
 6257              	
 6258              	$L541:
 6259 2d24 6900A22A 	slt $2,$21,105
 6260              	.set noreorder
GAS LISTING  			page 111


 6261              	.set nomacro
 6262 2d28 AEF54014 	bne $2,$0,$L58
 6263 2d2c 21109302 	addu $2,$20,$19
 6264              	.set macro
 6265              	.set reorder
 6266              	
 6267 2d30 080075AE 	sw $21,8($19)
 6268 2d34 20005190 	lbu $17,32($2)
 6269 2d38 2D206002 	move $4,$19
 6270 2d3c 01009426 	addu $20,$20,1
 6271 2d40 97FFB526 	addu $21,$21,-105
 6272 2d44 21883E02 	addu $17,$17,$fp
 6273              	.set noreorder
 6274              	.set nomacro
 6275 2d48 1200000C 	jal _SNSPCRead16
 6276 2d4c 2D282002 	move $5,$17
 6277              	.set macro
 6278              	.set reorder
 6279              	
 6280 2d50 2D904000 	move $18,$2
 6281              	$L835:
 6282 2d54 02121200 	srl $2,$18,8
 6283 2d58 2DB04002 	move $22,$18
 6284 2d5c 2DB84002 	move $23,$18
 6285 2d60 030062A2 	sb $2,3($19)
 6286              	.set noreorder
 6287              	.set nomacro
 6288 2d64 8EF50010 	b $L828
 6289 2d68 020072A2 	sb $18,2($19)
 6290              	.set macro
 6291              	.set reorder
 6292              	
 6293              	$L526:
 6294 2d6c 6900A22A 	slt $2,$21,105
 6295              	.set noreorder
 6296              	.set nomacro
 6297 2d70 9CF54014 	bne $2,$0,$L58
 6298 2d74 21109302 	addu $2,$20,$19
 6299              	.set macro
 6300              	.set reorder
 6301              	
 6302 2d78 04006392 	lbu $3,4($19)
 6303 2d7c 20005190 	lbu $17,32($2)
 6304 2d80 2D206002 	move $4,$19
 6305 2d84 01009426 	addu $20,$20,1
 6306 2d88 080075AE 	sw $21,8($19)
 6307 2d8c 21882302 	addu $17,$17,$3
 6308 2d90 FF003132 	andi $17,$17,0xff
 6309              	.set noreorder
 6310              	.set nomacro
 6311 2d94 4FFF0010 	b $L1006
 6312 2d98 21883E02 	addu $17,$17,$fp
 6313              	.set macro
 6314              	.set reorder
 6315              	
 6316              	$L517:
 6317 2d9c 2A00A22A 	slt $2,$21,42
GAS LISTING  			page 112


 6318              	.set noreorder
 6319              	.set nomacro
 6320 2da0 91F54054 	bnel $2,$0,$L1062
 6321 2da4 06006392 	lbu $3,6($19)
 6322              	.set macro
 6323              	.set reorder
 6324              	
 6325 2da8 02007292 	lbu $18,2($19)
 6326 2dac D6FFB526 	addu $21,$21,-42
 6327              	.set noreorder
 6328              	.set nomacro
 6329 2db0 9EFA0010 	b $L888
 6330 2db4 01005226 	addu $18,$18,1
 6331              	.set macro
 6332              	.set reorder
 6333              	
 6334              	$L243:
 6335 2db8 2A00A22A 	slt $2,$21,42
 6336              	.set noreorder
 6337              	.set nomacro
 6338 2dbc 8AF54054 	bnel $2,$0,$L1062
 6339 2dc0 06006392 	lbu $3,6($19)
 6340              	.set macro
 6341              	.set reorder
 6342              	
 6343 2dc4 04007192 	lbu $17,4($19)
 6344 2dc8 D6FFB526 	addu $21,$21,-42
 6345              	.set noreorder
 6346              	.set nomacro
 6347 2dcc 74F50010 	b $L828
 6348 2dd0 050071A2 	sb $17,5($19)
 6349              	.set macro
 6350              	.set reorder
 6351              	
 6352              	$L143:
 6353 2dd4 5400A22A 	slt $2,$21,84
 6354              	.set noreorder
 6355              	.set nomacro
 6356 2dd8 82F54014 	bne $2,$0,$L58
 6357 2ddc 2D206002 	move $4,$19
 6358              	.set macro
 6359              	.set reorder
 6360              	
 6361 2de0 04006392 	lbu $3,4($19)
 6362 2de4 080075AE 	sw $21,8($19)
 6363 2de8 ACFFB526 	addu $21,$21,-84
 6364 2dec 01006224 	addu $2,$3,1
 6365 2df0 2188C303 	addu $17,$fp,$3
 6366 2df4 040062A2 	sb $2,4($19)
 6367              	$L1021:
 6368 2df8 2D282002 	move $5,$17
 6369              	$L1001:
 6370 2dfc 0000000C 	jal _SNSPCRead8
 6370      00000000 
 6371              	.set noreorder
 6372              	.set nomacro
 6373 2e04 89FA0010 	b $L888
GAS LISTING  			page 113


 6374 2e08 2D904000 	move $18,$2
 6375              	.set macro
 6376              	.set reorder
 6377              	
 6378              	$L61:
 6379 2e0c 3F00A22A 	slt $2,$21,63
 6380              	.set noreorder
 6381              	.set nomacro
 6382 2e10 75F54054 	bnel $2,$0,$L1062
 6383 2e14 06006392 	lbu $3,6($19)
 6384              	.set macro
 6385              	.set reorder
 6386              	
 6387 2e18 06006292 	lbu $2,6($19)
 6388              	.set noreorder
 6389              	.set nomacro
 6390 2e1c 0CF90010 	b $L841
 6391 2e20 C1FFB526 	addu $21,$21,-63
 6392              	.set macro
 6393              	.set reorder
 6394              	
 6395              	$L818:
 6396 2e24 A800A22A 	slt $2,$21,168
 6397              	.set noreorder
 6398              	.set nomacro
 6399 2e28 6EF54014 	bne $2,$0,$L58
 6400 2e2c 2D206002 	move $4,$19
 6401              	.set macro
 6402              	.set reorder
 6403              	
 6404 2e30 C6FF0534 	li $5,65478
 6405              	.set noreorder
 6406              	.set nomacro
 6407 2e34 8DF50010 	b $L830
 6408 2e38 080075AE 	sw $21,8($19)
 6409              	.set macro
 6410              	.set reorder
 6411              	
 6412              	$L595:
 6413 2e3c 5400A22A 	slt $2,$21,84
 6414              	.set noreorder
 6415              	.set nomacro
 6416 2e40 68F54014 	bne $2,$0,$L58
 6417 2e44 21109302 	addu $2,$20,$19
 6418              	.set macro
 6419              	.set reorder
 6420              	
 6421 2e48 080075AE 	sw $21,8($19)
 6422 2e4c 20005190 	lbu $17,32($2)
 6423 2e50 2D206002 	move $4,$19
 6424 2e54 01009426 	addu $20,$20,1
 6425 2e58 21883E02 	addu $17,$17,$fp
 6426              	.set noreorder
 6427              	.set nomacro
 6428 2e5c 0000000C 	jal _SNSPCRead8
 6429 2e60 2D282002 	move $5,$17
 6430              	.set macro
GAS LISTING  			page 114


 6431              	.set reorder
 6432              	
 6433 2e64 2D282002 	move $5,$17
 6434              	.set noreorder
 6435              	.set nomacro
 6436 2e68 94F50010 	b $L1016
 6437 2e6c 40005234 	ori $18,$2,0x40
 6438              	.set macro
 6439              	.set reorder
 6440              	
 6441              	$L732:
 6442 2e70 6900A22A 	slt $2,$21,105
 6443              	.set noreorder
 6444              	.set nomacro
 6445 2e74 5BF54014 	bne $2,$0,$L58
 6446 2e78 21109302 	addu $2,$20,$19
 6447              	.set macro
 6448              	.set reorder
 6449              	
 6450 2e7c 080075AE 	sw $21,8($19)
 6451 2e80 20005190 	lbu $17,32($2)
 6452 2e84 2D206002 	move $4,$19
 6453 2e88 01009426 	addu $20,$20,1
 6454 2e8c 21883E02 	addu $17,$17,$fp
 6455              	.set noreorder
 6456              	.set nomacro
 6457 2e90 0000000C 	jal _SNSPCRead8
 6458 2e94 2D282002 	move $5,$17
 6459              	.set macro
 6460              	.set reorder
 6461              	
 6462 2e98 2D904000 	move $18,$2
 6463 2e9c 21109302 	addu $2,$20,$19
 6464              	.set noreorder
 6465              	.set nomacro
 6466 2ea0 9BF50010 	b $L952
 6467 2ea4 40005232 	andi $18,$18,0x40
 6468              	.set macro
 6469              	.set reorder
 6470              	
 6471              	$L194:
 6472 2ea8 5400A22A 	slt $2,$21,84
 6473              	.set noreorder
 6474              	.set nomacro
 6475 2eac 4DF54014 	bne $2,$0,$L58
 6476 2eb0 21109302 	addu $2,$20,$19
 6477              	.set macro
 6478              	.set reorder
 6479              	
 6480 2eb4 02007292 	lbu $18,2($19)
 6481              	$L980:
 6482 2eb8 20005190 	lbu $17,32($2)
 6483 2ebc 2D206002 	move $4,$19
 6484 2ec0 080075AE 	sw $21,8($19)
 6485 2ec4 FF004632 	andi $6,$18,0x00ff
 6486 2ec8 21883E02 	addu $17,$17,$fp
 6487 2ecc 01009426 	addu $20,$20,1
GAS LISTING  			page 115


 6488              	.set noreorder
 6489              	.set nomacro
 6490 2ed0 67F90010 	b $L926
 6491 2ed4 2D282002 	move $5,$17
 6492              	.set macro
 6493              	.set reorder
 6494              	
 6495              	$L200:
 6496 2ed8 6900A22A 	slt $2,$21,105
 6497              	.set noreorder
 6498              	.set nomacro
 6499 2edc 41F54014 	bne $2,$0,$L58
 6500 2ee0 21189302 	addu $3,$20,$19
 6501              	.set macro
 6502              	.set reorder
 6503              	
 6504 2ee4 02007292 	lbu $18,2($19)
 6505              	$L1017:
 6506 2ee8 21006290 	lbu $2,33($3)
 6507 2eec 2D206002 	move $4,$19
 6508 2ef0 20006590 	lbu $5,32($3)
 6509 2ef4 FF004632 	andi $6,$18,0x00ff
 6510 2ef8 00120200 	sll $2,$2,8
 6511 2efc 02009426 	addu $20,$20,2
 6512 2f00 25884500 	or $17,$2,$5
 6513 2f04 080075AE 	sw $21,8($19)
 6514              	.set noreorder
 6515              	.set nomacro
 6516 2f08 73F90010 	b $L936
 6517 2f0c 2D282002 	move $5,$17
 6518              	.set macro
 6519              	.set reorder
 6520              	
 6521              	$L190:
 6522 2f10 5400A22A 	slt $2,$21,84
 6523              	.set noreorder
 6524              	.set nomacro
 6525 2f14 33F54014 	bne $2,$0,$L58
 6526 2f18 2D206002 	move $4,$19
 6527              	.set macro
 6528              	.set reorder
 6529              	
 6530 2f1c 04007192 	lbu $17,4($19)
 6531 2f20 02007292 	lbu $18,2($19)
 6532 2f24 21883E02 	addu $17,$17,$fp
 6533 2f28 080075AE 	sw $21,8($19)
 6534              	.set noreorder
 6535              	.set nomacro
 6536 2f2c 04FF0010 	b $L956
 6537 2f30 FF004632 	andi $6,$18,0x00ff
 6538              	.set macro
 6539              	.set reorder
 6540              	
 6541              	$L209:
 6542 2f34 9300A22A 	slt $2,$21,147
 6543              	.set noreorder
 6544              	.set nomacro
GAS LISTING  			page 116


 6545 2f38 2AF54014 	bne $2,$0,$L58
 6546 2f3c 21109302 	addu $2,$20,$19
 6547              	.set macro
 6548              	.set reorder
 6549              	
 6550 2f40 04006392 	lbu $3,4($19)
 6551 2f44 20005190 	lbu $17,32($2)
 6552 2f48 2D206002 	move $4,$19
 6553 2f4c 080075AE 	sw $21,8($19)
 6554 2f50 01009426 	addu $20,$20,1
 6555 2f54 21882302 	addu $17,$17,$3
 6556 2f58 FF003132 	andi $17,$17,0xff
 6557 2f5c 21883E02 	addu $17,$17,$fp
 6558              	.set noreorder
 6559              	.set nomacro
 6560 2f60 1200000C 	jal _SNSPCRead16
 6561 2f64 2D282002 	move $5,$17
 6562              	.set macro
 6563              	.set reorder
 6564              	
 6565 2f68 080075AE 	sw $21,8($19)
 6566 2f6c 02007292 	lbu $18,2($19)
 6567 2f70 2D206002 	move $4,$19
 6568 2f74 2D284000 	move $5,$2
 6569              	.set noreorder
 6570              	.set nomacro
 6571 2f78 77F90010 	b $L959
 6572 2f7c 6DFFB526 	addu $21,$21,-147
 6573              	.set macro
 6574              	.set reorder
 6575              	
 6576              	$L375:
 6577 2f80 2A00A22A 	slt $2,$21,42
 6578              	.set noreorder
 6579              	.set nomacro
 6580 2f84 17F54014 	bne $2,$0,$L58
 6581 2f88 21109302 	addu $2,$20,$19
 6582              	.set macro
 6583              	.set reorder
 6584              	
 6585              	.set noreorder
 6586              	.set nomacro
 6587 2f8c A8FA0010 	b $L990
 6588 2f90 04007092 	lbu $16,4($19)
 6589              	.set macro
 6590              	.set reorder
 6591              	
 6592              	$L221:
 6593 2f94 6900A22A 	slt $2,$21,105
 6594              	.set noreorder
 6595              	.set nomacro
 6596 2f98 12F54014 	bne $2,$0,$L58
 6597 2f9c 21189302 	addu $3,$20,$19
 6598              	.set macro
 6599              	.set reorder
 6600              	
 6601              	.set noreorder
GAS LISTING  			page 117


 6602              	.set nomacro
 6603 2fa0 D1FF0010 	b $L1017
 6604 2fa4 04007292 	lbu $18,4($19)
 6605              	.set macro
 6606              	.set reorder
 6607              	
 6608              	$L786:
 6609 2fa8 6900A22A 	slt $2,$21,105
 6610              	.set noreorder
 6611              	.set nomacro
 6612 2fac 0DF54014 	bne $2,$0,$L58
 6613 2fb0 21189302 	addu $3,$20,$19
 6614              	.set macro
 6615              	.set reorder
 6616              	
 6617 2fb4 080075AE 	sw $21,8($19)
 6618 2fb8 21006290 	lbu $2,33($3)
 6619 2fbc 2D206002 	move $4,$19
 6620 2fc0 20006590 	lbu $5,32($3)
 6621 2fc4 01001024 	li $16,1
 6622 2fc8 00120200 	sll $2,$2,8
 6623 2fcc 02009426 	addu $20,$20,2
 6624 2fd0 25884500 	or $17,$2,$5
 6625 2fd4 2D902002 	move $18,$17
 6626 2fd8 FF1F3132 	andi $17,$17,0x1fff
 6627 2fdc 2D282002 	move $5,$17
 6628              	.set noreorder
 6629              	.set nomacro
 6630 2fe0 0000000C 	jal _SNSPCRead8
 6631 2fe4 42931200 	srl $18,$18,13
 6632              	.set macro
 6633              	.set reorder
 6634              	
 6635 2fe8 04805002 	sll $16,$16,$18
 6636 2fec 0000A38F 	lw $3,0($sp)
 6637 2ff0 2D904000 	move $18,$2
 6638 2ff4 01006230 	andi $2,$3,0x1
 6639              	.set noreorder
 6640              	.set nomacro
 6641 2ff8 07004010 	beq $2,$0,$L789
 6642 2ffc 25905002 	or $18,$18,$16
 6643              	.set macro
 6644              	.set reorder
 6645              	
 6646              	$L790:
 6647 3000 080075AE 	sw $21,8($19)
 6648 3004 FF004632 	andi $6,$18,0x00ff
 6649 3008 2D282002 	move $5,$17
 6650 300c 2D206002 	move $4,$19
 6651              	$L958:
 6652              	.set noreorder
 6653              	.set nomacro
 6654 3010 2EF50010 	b $L833
 6655 3014 97FFB526 	addu $21,$21,-105
 6656              	.set macro
 6657              	.set reorder
 6658              	
GAS LISTING  			page 118


 6659              	$L789:
 6660              	.set noreorder
 6661              	.set nomacro
 6662 3018 F9FF0010 	b $L790
 6663 301c 26905002 	xor $18,$18,$16
 6664              	.set macro
 6665              	.set reorder
 6666              	
 6667              	$L224:
 6668 3020 5400A22A 	slt $2,$21,84
 6669              	.set noreorder
 6670              	.set nomacro
 6671 3024 EFF44014 	bne $2,$0,$L58
 6672 3028 21109302 	addu $2,$20,$19
 6673              	.set macro
 6674              	.set reorder
 6675              	
 6676              	.set noreorder
 6677              	.set nomacro
 6678 302c A2FF0010 	b $L980
 6679 3030 03007292 	lbu $18,3($19)
 6680              	.set macro
 6681              	.set reorder
 6682              	
 6683              	$L230:
 6684 3034 6900A22A 	slt $2,$21,105
 6685              	.set noreorder
 6686              	.set nomacro
 6687 3038 EAF44014 	bne $2,$0,$L58
 6688 303c 21189302 	addu $3,$20,$19
 6689              	.set macro
 6690              	.set reorder
 6691              	
 6692              	.set noreorder
 6693              	.set nomacro
 6694 3040 A9FF0010 	b $L1017
 6695 3044 03007292 	lbu $18,3($19)
 6696              	.set macro
 6697              	.set reorder
 6698              	
 6699              	$L166:
 6700 3048 2A00A22A 	slt $2,$21,42
 6701              	.set noreorder
 6702              	.set nomacro
 6703 304c E5F44014 	bne $2,$0,$L58
 6704 3050 21109302 	addu $2,$20,$19
 6705              	.set macro
 6706              	.set reorder
 6707              	
 6708 3054 D6FFB526 	addu $21,$21,-42
 6709 3058 20005290 	lbu $18,32($2)
 6710              	.set noreorder
 6711              	.set nomacro
 6712 305c C9F60010 	b $L889
 6713 3060 01009426 	addu $20,$20,1
 6714              	.set macro
 6715              	.set reorder
GAS LISTING  			page 119


 6716              	
 6717              	$L86:
 6718 3064 5400A22A 	slt $2,$21,84
 6719              	.set noreorder
 6720              	.set nomacro
 6721 3068 DEF44014 	bne $2,$0,$L58
 6722 306c 2D206002 	move $4,$19
 6723              	.set macro
 6724              	.set reorder
 6725              	
 6726              	.set noreorder
 6727              	.set nomacro
 6728 3070 BA00000C 	jal _SNSPCPop8
 6729 3074 ACFFB526 	addu $21,$21,-84
 6730              	.set macro
 6731              	.set reorder
 6732              	
 6733              	.set noreorder
 6734              	.set nomacro
 6735 3078 C9F40010 	b $L828
 6736 307c 040062A2 	sb $2,4($19)
 6737              	.set macro
 6738              	.set reorder
 6739              	
 6740              	$L564:
 6741 3080 BD00A22A 	slt $2,$21,189
 6742              	.set noreorder
 6743              	.set nomacro
 6744 3084 D8F44054 	bnel $2,$0,$L1062
 6745 3088 06006392 	lbu $3,6($19)
 6746              	.set macro
 6747              	.set reorder
 6748              	
 6749 308c 03007192 	lbu $17,3($19)
 6750 3090 43FFB526 	addu $21,$21,-189
 6751 3094 02007292 	lbu $18,2($19)
 6752              	.set noreorder
 6753              	.set nomacro
 6754 3098 2EFF0010 	b $L835
 6755 309c 18905102 	mult $18,$18,$17
 6756              	.set macro
 6757              	.set reorder
 6758              	
 6759              	$L655:
 6760 30a0 2A00A22A 	slt $2,$21,42
 6761              	.set noreorder
 6762              	.set nomacro
 6763 30a4 CFF44014 	bne $2,$0,$L58
 6764 30a8 21109302 	addu $2,$20,$19
 6765              	.set macro
 6766              	.set reorder
 6767              	
 6768              	.set noreorder
 6769              	.set nomacro
 6770 30ac A5F70010 	b $L1020
 6771 30b0 FFFFC332 	andi $3,$22,0xffff
 6772              	.set macro
GAS LISTING  			page 120


 6773              	.set reorder
 6774              	
 6775              	$L820:
 6776 30b4 A800A22A 	slt $2,$21,168
 6777              	.set noreorder
 6778              	.set nomacro
 6779 30b8 CAF44014 	bne $2,$0,$L58
 6780 30bc 2D206002 	move $4,$19
 6781              	.set macro
 6782              	.set reorder
 6783              	
 6784 30c0 C4FF0534 	li $5,65476
 6785              	.set noreorder
 6786              	.set nomacro
 6787 30c4 E9F40010 	b $L830
 6788 30c8 080075AE 	sw $21,8($19)
 6789              	.set macro
 6790              	.set reorder
 6791              	
 6792              	$L619:
 6793 30cc 5400A22A 	slt $2,$21,84
 6794              	.set noreorder
 6795              	.set nomacro
 6796 30d0 C4F44014 	bne $2,$0,$L58
 6797 30d4 21109302 	addu $2,$20,$19
 6798              	.set macro
 6799              	.set reorder
 6800              	
 6801 30d8 080075AE 	sw $21,8($19)
 6802 30dc 20005190 	lbu $17,32($2)
 6803 30e0 2D206002 	move $4,$19
 6804 30e4 01009426 	addu $20,$20,1
 6805 30e8 21883E02 	addu $17,$17,$fp
 6806              	.set noreorder
 6807              	.set nomacro
 6808 30ec 0000000C 	jal _SNSPCRead8
 6809 30f0 2D282002 	move $5,$17
 6810              	.set macro
 6811              	.set reorder
 6812              	
 6813 30f4 080075AE 	sw $21,8($19)
 6814 30f8 40005234 	ori $18,$2,0x40
 6815 30fc 2D282002 	move $5,$17
 6816              	.set noreorder
 6817              	.set nomacro
 6818 3100 06F60010 	b $L1015
 6819 3104 4000523A 	xori $18,$18,0x40
 6820              	.set macro
 6821              	.set reorder
 6822              	
 6823              	$L772:
 6824 3108 6900A22A 	slt $2,$21,105
 6825              	.set noreorder
 6826              	.set nomacro
 6827 310c B5F44014 	bne $2,$0,$L58
 6828 3110 21109302 	addu $2,$20,$19
 6829              	.set macro
GAS LISTING  			page 121


 6830              	.set reorder
 6831              	
 6832 3114 080075AE 	sw $21,8($19)
 6833 3118 20005190 	lbu $17,32($2)
 6834 311c 2D206002 	move $4,$19
 6835 3120 01009426 	addu $20,$20,1
 6836 3124 21883E02 	addu $17,$17,$fp
 6837              	.set noreorder
 6838              	.set nomacro
 6839 3128 0000000C 	jal _SNSPCRead8
 6840 312c 2D282002 	move $5,$17
 6841              	.set macro
 6842              	.set reorder
 6843              	
 6844 3130 2D904000 	move $18,$2
 6845 3134 21109302 	addu $2,$20,$19
 6846              	.set noreorder
 6847              	.set nomacro
 6848 3138 08F60010 	b $L951
 6849 313c 40005232 	andi $18,$18,0x40
 6850              	.set macro
 6851              	.set reorder
 6852              	
 6853              	$L197:
 6854 3140 6900A22A 	slt $2,$21,105
 6855              	.set noreorder
 6856              	.set nomacro
 6857 3144 A7F44014 	bne $2,$0,$L58
 6858 3148 21109302 	addu $2,$20,$19
 6859              	.set macro
 6860              	.set reorder
 6861              	
 6862 314c 04006392 	lbu $3,4($19)
 6863 3150 20005190 	lbu $17,32($2)
 6864 3154 2D206002 	move $4,$19
 6865 3158 02007292 	lbu $18,2($19)
 6866              	$L976:
 6867 315c 21882302 	addu $17,$17,$3
 6868 3160 01009426 	addu $20,$20,1
 6869 3164 FF003132 	andi $17,$17,0xff
 6870 3168 FF004632 	andi $6,$18,0x00ff
 6871 316c 21883E02 	addu $17,$17,$fp
 6872 3170 080075AE 	sw $21,8($19)
 6873              	.set noreorder
 6874              	.set nomacro
 6875 3174 A6FF0010 	b $L958
 6876 3178 2D282002 	move $5,$17
 6877              	.set macro
 6878              	.set reorder
 6879              	
 6880              	$L203:
 6881 317c 7E00A22A 	slt $2,$21,126
 6882              	.set noreorder
 6883              	.set nomacro
 6884 3180 98F44014 	bne $2,$0,$L58
 6885 3184 21189302 	addu $3,$20,$19
 6886              	.set macro
GAS LISTING  			page 122


 6887              	.set reorder
 6888              	
 6889 3188 04006692 	lbu $6,4($19)
 6890              	$L916:
 6891 318c 21006290 	lbu $2,33($3)
 6892 3190 2D206002 	move $4,$19
 6893 3194 20006590 	lbu $5,32($3)
 6894 3198 02009426 	addu $20,$20,2
 6895 319c 00120200 	sll $2,$2,8
 6896 31a0 02007292 	lbu $18,2($19)
 6897 31a4 25884500 	or $17,$2,$5
 6898 31a8 080075AE 	sw $21,8($19)
 6899 31ac 21882602 	addu $17,$17,$6
 6900 31b0 FF004632 	andi $6,$18,0x00ff
 6901              	.set noreorder
 6902              	.set nomacro
 6903 31b4 3E00000C 	jal _SNSPCWrite8
 6904 31b8 2D282002 	move $5,$17
 6905              	.set macro
 6906              	.set reorder
 6907              	
 6908              	.set noreorder
 6909              	.set nomacro
 6910 31bc 78F40010 	b $L828
 6911 31c0 82FFB526 	addu $21,$21,-126
 6912              	.set macro
 6913              	.set reorder
 6914              	
 6915              	$L206:
 6916 31c4 7E00A22A 	slt $2,$21,126
 6917              	.set noreorder
 6918              	.set nomacro
 6919 31c8 86F44014 	bne $2,$0,$L58
 6920 31cc 21189302 	addu $3,$20,$19
 6921              	.set macro
 6922              	.set reorder
 6923              	
 6924              	.set noreorder
 6925              	.set nomacro
 6926 31d0 EEFF0010 	b $L916
 6927 31d4 03006692 	lbu $6,3($19)
 6928              	.set macro
 6929              	.set reorder
 6930              	
 6931              	$L212:
 6932 31d8 9300A22A 	slt $2,$21,147
 6933              	.set noreorder
 6934              	.set nomacro
 6935 31dc 81F44014 	bne $2,$0,$L58
 6936 31e0 21109302 	addu $2,$20,$19
 6937              	.set macro
 6938              	.set reorder
 6939              	
 6940 31e4 080075AE 	sw $21,8($19)
 6941 31e8 20005190 	lbu $17,32($2)
 6942 31ec 2D206002 	move $4,$19
 6943 31f0 01009426 	addu $20,$20,1
GAS LISTING  			page 123


 6944 31f4 21883E02 	addu $17,$17,$fp
 6945              	.set noreorder
 6946              	.set nomacro
 6947 31f8 1200000C 	jal _SNSPCRead16
 6948 31fc 2D282002 	move $5,$17
 6949              	.set macro
 6950              	.set reorder
 6951              	
 6952 3200 080075AE 	sw $21,8($19)
 6953 3204 2D884000 	move $17,$2
 6954 3208 02007292 	lbu $18,2($19)
 6955 320c 03006292 	lbu $2,3($19)
 6956 3210 2D206002 	move $4,$19
 6957 3214 FF004632 	andi $6,$18,0x00ff
 6958 3218 6DFFB526 	addu $21,$21,-147
 6959 321c 21882202 	addu $17,$17,$2
 6960              	.set noreorder
 6961              	.set nomacro
 6962 3220 AAF40010 	b $L833
 6963 3224 2D282002 	move $5,$17
 6964              	.set macro
 6965              	.set reorder
 6966              	
 6967              	$L215:
 6968 3228 5400A22A 	slt $2,$21,84
 6969              	.set noreorder
 6970              	.set nomacro
 6971 322c 6DF44014 	bne $2,$0,$L58
 6972 3230 21109302 	addu $2,$20,$19
 6973              	.set macro
 6974              	.set reorder
 6975              	
 6976              	.set noreorder
 6977              	.set nomacro
 6978 3234 20FF0010 	b $L980
 6979 3238 04007292 	lbu $18,4($19)
 6980              	.set macro
 6981              	.set reorder
 6982              	
 6983              	$L218:
 6984 323c 6900A22A 	slt $2,$21,105
 6985              	.set noreorder
 6986              	.set nomacro
 6987 3240 68F44014 	bne $2,$0,$L58
 6988 3244 21109302 	addu $2,$20,$19
 6989              	.set macro
 6990              	.set reorder
 6991              	
 6992 3248 03006392 	lbu $3,3($19)
 6993 324c 20005190 	lbu $17,32($2)
 6994 3250 2D206002 	move $4,$19
 6995              	.set noreorder
 6996              	.set nomacro
 6997 3254 C1FF0010 	b $L976
 6998 3258 04007292 	lbu $18,4($19)
 6999              	.set macro
 7000              	.set reorder
GAS LISTING  			page 124


 7001              	
 7002              	$L544:
 7003 325c 6900A22A 	slt $2,$21,105
 7004              	.set noreorder
 7005              	.set nomacro
 7006 3260 60F44014 	bne $2,$0,$L58
 7007 3264 21189302 	addu $3,$20,$19
 7008              	.set macro
 7009              	.set reorder
 7010              	
 7011 3268 03006292 	lbu $2,3($19)
 7012 326c 20007190 	lbu $17,32($3)
 7013 3270 2D206002 	move $4,$19
 7014 3274 02006692 	lbu $6,2($19)
 7015 3278 00120200 	sll $2,$2,8
 7016 327c 21883E02 	addu $17,$17,$fp
 7017 3280 080075AE 	sw $21,8($19)
 7018 3284 2530C200 	or $6,$6,$2
 7019 3288 2D282002 	move $5,$17
 7020              	.set noreorder
 7021              	.set nomacro
 7022 328c 6400000C 	jal _SNSPCWrite16
 7023 3290 01009426 	addu $20,$20,1
 7024              	.set macro
 7025              	.set reorder
 7026              	
 7027              	.set noreorder
 7028              	.set nomacro
 7029 3294 A6F40010 	b $L1061
 7030 3298 97FFB526 	addu $21,$21,-105
 7031              	.set macro
 7032              	.set reorder
 7033              	
 7034              	$L227:
 7035 329c 6900A22A 	slt $2,$21,105
 7036              	.set noreorder
 7037              	.set nomacro
 7038 32a0 50F44014 	bne $2,$0,$L58
 7039 32a4 21109302 	addu $2,$20,$19
 7040              	.set macro
 7041              	.set reorder
 7042              	
 7043 32a8 04006392 	lbu $3,4($19)
 7044 32ac 20005190 	lbu $17,32($2)
 7045 32b0 2D206002 	move $4,$19
 7046              	.set noreorder
 7047              	.set nomacro
 7048 32b4 A9FF0010 	b $L976
 7049 32b8 03007292 	lbu $18,3($19)
 7050              	.set macro
 7051              	.set reorder
 7052              	
 7053              	$L515:
 7054 32bc 2A00A22A 	slt $2,$21,42
 7055              	.set noreorder
 7056              	.set nomacro
 7057 32c0 49F44054 	bnel $2,$0,$L1062
GAS LISTING  			page 125


 7058 32c4 06006392 	lbu $3,6($19)
 7059              	.set macro
 7060              	.set reorder
 7061              	
 7062 32c8 03007292 	lbu $18,3($19)
 7063 32cc D6FFB526 	addu $21,$21,-42
 7064              	.set noreorder
 7065              	.set nomacro
 7066 32d0 31FC0010 	b $L859
 7067 32d4 FFFF5226 	addu $18,$18,-1
 7068              	.set macro
 7069              	.set reorder
 7070              	
 7071              	$L235:
 7072 32d8 2A00A22A 	slt $2,$21,42
 7073              	.set noreorder
 7074              	.set nomacro
 7075 32dc 42F44054 	bnel $2,$0,$L1062
 7076 32e0 06006392 	lbu $3,6($19)
 7077              	.set macro
 7078              	.set reorder
 7079              	
 7080              	.set noreorder
 7081              	.set nomacro
 7082 32e4 F6FA0010 	b $L860
 7083 32e8 03007192 	lbu $17,3($19)
 7084              	.set macro
 7085              	.set reorder
 7086              	
 7087              	$L683:
 7088 32ec 7E00A22A 	slt $2,$21,126
 7089              	.set noreorder
 7090              	.set nomacro
 7091 32f0 3CF44014 	bne $2,$0,$L58
 7092 32f4 21109302 	addu $2,$20,$19
 7093              	.set macro
 7094              	.set reorder
 7095              	
 7096 32f8 04006392 	lbu $3,4($19)
 7097 32fc 20005190 	lbu $17,32($2)
 7098 3300 2D206002 	move $4,$19
 7099 3304 080075AE 	sw $21,8($19)
 7100 3308 01009426 	addu $20,$20,1
 7101 330c 21882302 	addu $17,$17,$3
 7102 3310 FF003132 	andi $17,$17,0xff
 7103 3314 21883E02 	addu $17,$17,$fp
 7104              	.set noreorder
 7105              	.set nomacro
 7106 3318 0000000C 	jal _SNSPCRead8
 7107 331c 2D282002 	move $5,$17
 7108              	.set macro
 7109              	.set reorder
 7110              	
 7111 3320 02007092 	lbu $16,2($19)
 7112 3324 2D904000 	move $18,$2
 7113 3328 21109302 	addu $2,$20,$19
 7114 332c 20004290 	lbu $2,32($2)
GAS LISTING  			page 126


 7115              	.set noreorder
 7116              	.set nomacro
 7117 3330 DBF45012 	beq $18,$16,$L687
 7118 3334 01009426 	addu $20,$20,1
 7119              	.set macro
 7120              	.set reorder
 7121              	
 7122 3338 00160200 	sll $2,$2,24
 7123 333c D6FFB526 	addu $21,$21,-42
 7124 3340 03160200 	sra $2,$2,24
 7125              	.set noreorder
 7126              	.set nomacro
 7127 3344 D6F40010 	b $L687
 7128 3348 21A08202 	addu $20,$20,$2
 7129              	.set macro
 7130              	.set reorder
 7131              	
 7132              	$L826:
 7133              	.set noreorder
 7134              	.set nomacro
 7135 334c 14F40010 	b $L828
 7136 3350 EBFFB526 	addu $21,$21,-21
 7137              	.set macro
 7138              	.set reorder
 7139              	
 7140              	$L63:
 7141 3354 2A00A22A 	slt $2,$21,42
 7142              	.set noreorder
 7143              	.set nomacro
 7144 3358 23F44054 	bnel $2,$0,$L1062
 7145 335c 06006392 	lbu $3,6($19)
 7146              	.set macro
 7147              	.set reorder
 7148              	
 7149 3360 06006292 	lbu $2,6($19)
 7150 3364 D6FFB526 	addu $21,$21,-42
 7151              	.set noreorder
 7152              	.set nomacro
 7153 3368 36F60010 	b $L840
 7154 336c B7004230 	andi $2,$2,0xb7
 7155              	.set macro
 7156              	.set reorder
 7157              	
 7158              	$L822:
 7159 3370 A800A22A 	slt $2,$21,168
 7160              	.set noreorder
 7161              	.set nomacro
 7162 3374 1BF44014 	bne $2,$0,$L58
 7163 3378 2D206002 	move $4,$19
 7164              	.set macro
 7165              	.set reorder
 7166              	
 7167 337c C2FF0534 	li $5,65474
 7168              	.set noreorder
 7169              	.set nomacro
 7170 3380 3AF40010 	b $L830
 7171 3384 080075AE 	sw $21,8($19)
GAS LISTING  			page 127


 7172              	.set macro
 7173              	.set reorder
 7174              	
 7175              	$L598:
 7176 3388 5400A22A 	slt $2,$21,84
 7177              	.set noreorder
 7178              	.set nomacro
 7179 338c 15F44014 	bne $2,$0,$L58
 7180 3390 21109302 	addu $2,$20,$19
 7181              	.set macro
 7182              	.set reorder
 7183              	
 7184 3394 080075AE 	sw $21,8($19)
 7185 3398 20005190 	lbu $17,32($2)
 7186 339c 2D206002 	move $4,$19
 7187 33a0 01009426 	addu $20,$20,1
 7188 33a4 21883E02 	addu $17,$17,$fp
 7189              	.set noreorder
 7190              	.set nomacro
 7191 33a8 0000000C 	jal _SNSPCRead8
 7192 33ac 2D282002 	move $5,$17
 7193              	.set macro
 7194              	.set reorder
 7195              	
 7196 33b0 2D282002 	move $5,$17
 7197              	.set noreorder
 7198              	.set nomacro
 7199 33b4 41F40010 	b $L1016
 7200 33b8 80005234 	ori $18,$2,0x80
 7201              	.set macro
 7202              	.set reorder
 7203              	
 7204              	$L737:
 7205 33bc 6900A22A 	slt $2,$21,105
 7206              	.set noreorder
 7207              	.set nomacro
 7208 33c0 08F44014 	bne $2,$0,$L58
 7209 33c4 21109302 	addu $2,$20,$19
 7210              	.set macro
 7211              	.set reorder
 7212              	
 7213 33c8 080075AE 	sw $21,8($19)
 7214 33cc 20005190 	lbu $17,32($2)
 7215 33d0 2D206002 	move $4,$19
 7216 33d4 01009426 	addu $20,$20,1
 7217 33d8 21883E02 	addu $17,$17,$fp
 7218              	.set noreorder
 7219              	.set nomacro
 7220 33dc 0000000C 	jal _SNSPCRead8
 7221 33e0 2D282002 	move $5,$17
 7222              	.set macro
 7223              	.set reorder
 7224              	
 7225 33e4 2D904000 	move $18,$2
 7226 33e8 21109302 	addu $2,$20,$19
 7227              	.set noreorder
 7228              	.set nomacro
GAS LISTING  			page 128


 7229 33ec 48F40010 	b $L952
 7230 33f0 80005232 	andi $18,$18,0x80
 7231              	.set macro
 7232              	.set reorder
 7233              	
 7234              	$L145:
 7235 33f4 3F00A22A 	slt $2,$21,63
 7236              	.set noreorder
 7237              	.set nomacro
 7238 33f8 FAF34014 	bne $2,$0,$L58
 7239 33fc 21109302 	addu $2,$20,$19
 7240              	.set macro
 7241              	.set reorder
 7242              	
 7243 3400 080075AE 	sw $21,8($19)
 7244 3404 20005190 	lbu $17,32($2)
 7245 3408 2D206002 	move $4,$19
 7246 340c 01009426 	addu $20,$20,1
 7247              	$L1049:
 7248 3410 C1FFB526 	addu $21,$21,-63
 7249              	$L1023:
 7250              	.set noreorder
 7251              	.set nomacro
 7252 3414 78FE0010 	b $L1021
 7253 3418 21883E02 	addu $17,$17,$fp
 7254              	.set macro
 7255              	.set reorder
 7256              	
 7257              	$L151:
 7258 341c 5400A22A 	slt $2,$21,84
 7259              	.set noreorder
 7260              	.set nomacro
 7261 3420 F0F34014 	bne $2,$0,$L58
 7262 3424 21109302 	addu $2,$20,$19
 7263              	.set macro
 7264              	.set reorder
 7265              	
 7266 3428 080075AE 	sw $21,8($19)
 7267 342c 21004390 	lbu $3,33($2)
 7268 3430 2D206002 	move $4,$19
 7269 3434 20004590 	lbu $5,32($2)
 7270 3438 02009426 	addu $20,$20,2
 7271 343c 001A0300 	sll $3,$3,8
 7272 3440 ACFFB526 	addu $21,$21,-84
 7273              	.set noreorder
 7274              	.set nomacro
 7275 3444 6CFE0010 	b $L1021
 7276 3448 25886500 	or $17,$3,$5
 7277              	.set macro
 7278              	.set reorder
 7279              	
 7280              	$L141:
 7281 344c 3F00A22A 	slt $2,$21,63
 7282              	.set noreorder
 7283              	.set nomacro
 7284 3450 E4F34014 	bne $2,$0,$L58
 7285 3454 2D206002 	move $4,$19
GAS LISTING  			page 129


 7286              	.set macro
 7287              	.set reorder
 7288              	
 7289 3458 04007192 	lbu $17,4($19)
 7290              	.set noreorder
 7291              	.set nomacro
 7292 345c ECFF0010 	b $L1049
 7293 3460 080075AE 	sw $21,8($19)
 7294              	.set macro
 7295              	.set reorder
 7296              	
 7297              	$L160:
 7298 3464 7E00A22A 	slt $2,$21,126
 7299              	.set noreorder
 7300              	.set nomacro
 7301 3468 DEF34014 	bne $2,$0,$L58
 7302 346c 21109302 	addu $2,$20,$19
 7303              	.set macro
 7304              	.set reorder
 7305              	
 7306 3470 04006392 	lbu $3,4($19)
 7307 3474 20005190 	lbu $17,32($2)
 7308 3478 2D206002 	move $4,$19
 7309 347c 080075AE 	sw $21,8($19)
 7310 3480 01009426 	addu $20,$20,1
 7311 3484 21882302 	addu $17,$17,$3
 7312 3488 FF003132 	andi $17,$17,0xff
 7313 348c 21883E02 	addu $17,$17,$fp
 7314              	.set noreorder
 7315              	.set nomacro
 7316 3490 1200000C 	jal _SNSPCRead16
 7317 3494 2D282002 	move $5,$17
 7318              	.set macro
 7319              	.set reorder
 7320              	
 7321 3498 080075AE 	sw $21,8($19)
 7322 349c 2D206002 	move $4,$19
 7323 34a0 2D284000 	move $5,$2
 7324              	.set noreorder
 7325              	.set nomacro
 7326 34a4 55FE0010 	b $L1001
 7327 34a8 82FFB526 	addu $21,$21,-126
 7328              	.set macro
 7329              	.set reorder
 7330              	
 7331              	$L138:
 7332 34ac 2A00A22A 	slt $2,$21,42
 7333              	.set noreorder
 7334              	.set nomacro
 7335 34b0 CCF34014 	bne $2,$0,$L58
 7336 34b4 21109302 	addu $2,$20,$19
 7337              	.set macro
 7338              	.set reorder
 7339              	
 7340 34b8 D6FFB526 	addu $21,$21,-42
 7341 34bc 20005290 	lbu $18,32($2)
 7342              	.set noreorder
GAS LISTING  			page 130


 7343              	.set nomacro
 7344 34c0 DAF80010 	b $L888
 7345 34c4 01009426 	addu $20,$20,1
 7346              	.set macro
 7347              	.set reorder
 7348              	
 7349              	$L175:
 7350 34c8 5400A22A 	slt $2,$21,84
 7351              	.set noreorder
 7352              	.set nomacro
 7353 34cc C5F34014 	bne $2,$0,$L58
 7354 34d0 21109302 	addu $2,$20,$19
 7355              	.set macro
 7356              	.set reorder
 7357              	
 7358 34d4 080075AE 	sw $21,8($19)
 7359 34d8 21004390 	lbu $3,33($2)
 7360 34dc 2D206002 	move $4,$19
 7361 34e0 20004590 	lbu $5,32($2)
 7362 34e4 02009426 	addu $20,$20,2
 7363 34e8 001A0300 	sll $3,$3,8
 7364 34ec ACFFB526 	addu $21,$21,-84
 7365 34f0 25886500 	or $17,$3,$5
 7366              	$L1002:
 7367              	.set noreorder
 7368              	.set nomacro
 7369 34f4 0000000C 	jal _SNSPCRead8
 7370 34f8 2D282002 	move $5,$17
 7371              	.set macro
 7372              	.set reorder
 7373              	
 7374              	.set noreorder
 7375              	.set nomacro
 7376 34fc A1F50010 	b $L889
 7377 3500 2D904000 	move $18,$2
 7378              	.set macro
 7379              	.set reorder
 7380              	
 7381              	$L640:
 7382 3504 6900A22A 	slt $2,$21,105
 7383              	.set noreorder
 7384              	.set nomacro
 7385 3508 B6F34014 	bne $2,$0,$L58
 7386 350c 21189302 	addu $3,$20,$19
 7387              	.set macro
 7388              	.set reorder
 7389              	
 7390 3510 080075AE 	sw $21,8($19)
 7391 3514 21006290 	lbu $2,33($3)
 7392 3518 2D206002 	move $4,$19
 7393 351c 20006590 	lbu $5,32($3)
 7394 3520 01001024 	li $16,1
 7395 3524 00120200 	sll $2,$2,8
 7396 3528 02009426 	addu $20,$20,2
 7397 352c 25884500 	or $17,$2,$5
 7398 3530 2D902002 	move $18,$17
 7399 3534 FF1F3132 	andi $17,$17,0x1fff
GAS LISTING  			page 131


 7400 3538 42931200 	srl $18,$18,13
 7401              	.set noreorder
 7402              	.set nomacro
 7403 353c 0000000C 	jal _SNSPCRead8
 7404 3540 2D282002 	move $5,$17
 7405              	.set macro
 7406              	.set reorder
 7407              	
 7408 3544 04805002 	sll $16,$16,$18
 7409 3548 26905000 	xor $18,$2,$16
 7410 354c 080075AE 	sw $21,8($19)
 7411 3550 FF004632 	andi $6,$18,0x00ff
 7412 3554 2D282002 	move $5,$17
 7413              	.set noreorder
 7414              	.set nomacro
 7415 3558 DFF70010 	b $L936
 7416 355c 2D206002 	move $4,$19
 7417              	.set macro
 7418              	.set reorder
 7419              	
 7420              	$L181:
 7421 3560 3F00A22A 	slt $2,$21,63
 7422              	.set noreorder
 7423              	.set nomacro
 7424 3564 9FF34014 	bne $2,$0,$L58
 7425 3568 21109302 	addu $2,$20,$19
 7426              	.set macro
 7427              	.set reorder
 7428              	
 7429 356c 080075AE 	sw $21,8($19)
 7430 3570 20005190 	lbu $17,32($2)
 7431 3574 2D206002 	move $4,$19
 7432 3578 01009426 	addu $20,$20,1
 7433 357c C1FFB526 	addu $21,$21,-63
 7434              	$L979:
 7435 3580 21883E02 	addu $17,$17,$fp
 7436              	$L895:
 7437              	.set noreorder
 7438              	.set nomacro
 7439 3584 0000000C 	jal _SNSPCRead8
 7440 3588 2D282002 	move $5,$17
 7441              	.set macro
 7442              	.set reorder
 7443              	
 7444              	.set noreorder
 7445              	.set nomacro
 7446 358c 82FB0010 	b $L859
 7447 3590 2D904000 	move $18,$2
 7448              	.set macro
 7449              	.set reorder
 7450              	
 7451              	$L187:
 7452 3594 5400A22A 	slt $2,$21,84
 7453              	.set noreorder
 7454              	.set nomacro
 7455 3598 92F34014 	bne $2,$0,$L58
 7456 359c 21109302 	addu $2,$20,$19
GAS LISTING  			page 132


 7457              	.set macro
 7458              	.set reorder
 7459              	
 7460 35a0 080075AE 	sw $21,8($19)
 7461 35a4 21004390 	lbu $3,33($2)
 7462 35a8 2D206002 	move $4,$19
 7463 35ac 20004590 	lbu $5,32($2)
 7464 35b0 02009426 	addu $20,$20,2
 7465 35b4 001A0300 	sll $3,$3,8
 7466 35b8 ACFFB526 	addu $21,$21,-84
 7467              	.set noreorder
 7468              	.set nomacro
 7469 35bc F1FF0010 	b $L895
 7470 35c0 25886500 	or $17,$3,$5
 7471              	.set macro
 7472              	.set reorder
 7473              	
 7474              	$L69:
 7475 35c4 3F00A22A 	slt $2,$21,63
 7476              	.set noreorder
 7477              	.set nomacro
 7478 35c8 86F34014 	bne $2,$0,$L58
 7479 35cc 0000A38F 	lw $3,0($sp)
 7480              	.set macro
 7481              	.set reorder
 7482              	
 7483              	
 7484 35d0 01006338 	xori $3,$3,0x1
 7485              	.set noreorder
 7486              	.set nomacro
 7487 35d4 90FA0010 	b $L831
 7488 35d8 0000A3AF 	sw $3,0($sp)
 7489              	.set macro
 7490              	.set reorder
 7491              	
 7492              	$L88:
 7493 35dc 5400A22A 	slt $2,$21,84
 7494              	.set noreorder
 7495              	.set nomacro
 7496 35e0 80F34014 	bne $2,$0,$L58
 7497 35e4 2D206002 	move $4,$19
 7498              	.set macro
 7499              	.set reorder
 7500              	
 7501              	.set noreorder
 7502              	.set nomacro
 7503 35e8 BA00000C 	jal _SNSPCPop8
 7504 35ec ACFFB526 	addu $21,$21,-84
 7505              	.set macro
 7506              	.set reorder
 7507              	
 7508              	.set noreorder
 7509              	.set nomacro
 7510 35f0 6BF30010 	b $L828
 7511 35f4 030062A2 	sb $2,3($19)
 7512              	.set macro
 7513              	.set reorder
GAS LISTING  			page 133


 7514              	
 7515              	$L782:
 7516 35f8 3F00A22A 	slt $2,$21,63
 7517              	.set noreorder
 7518              	.set nomacro
 7519 35fc 7AF34054 	bnel $2,$0,$L1062
 7520 3600 06006392 	lbu $3,6($19)
 7521              	.set macro
 7522              	.set reorder
 7523              	
 7524              	.set noreorder
 7525              	.set nomacro
 7526 3604 66F30010 	b $L828
 7527 3608 C1FFB526 	addu $21,$21,-63
 7528              	.set macro
 7529              	.set reorder
 7530              	
 7531              	$L651:
 7532 360c 2A00A22A 	slt $2,$21,42
 7533              	.set noreorder
 7534              	.set nomacro
 7535 3610 74F34014 	bne $2,$0,$L58
 7536 3614 21109302 	addu $2,$20,$19
 7537              	.set macro
 7538              	.set reorder
 7539              	
 7540              	.set noreorder
 7541              	.set nomacro
 7542 3618 A3F40010 	b $L1048
 7543 361c FFFFC332 	andi $3,$22,0xffff
 7544              	.set macro
 7545              	.set reorder
 7546              	
 7547              	$L824:
 7548 3620 A800A22A 	slt $2,$21,168
 7549              	.set noreorder
 7550              	.set nomacro
 7551 3624 6FF34014 	bne $2,$0,$L58
 7552 3628 2D206002 	move $4,$19
 7553              	.set macro
 7554              	.set reorder
 7555              	
 7556 362c 080075AE 	sw $21,8($19)
 7557              	.set noreorder
 7558              	.set nomacro
 7559 3630 8EF30010 	b $L830
 7560 3634 C0FF0534 	li $5,65472
 7561              	.set macro
 7562              	.set reorder
 7563              	
 7564              	$L622:
 7565 3638 5400A22A 	slt $2,$21,84
 7566              	.set noreorder
 7567              	.set nomacro
 7568 363c 69F34014 	bne $2,$0,$L58
 7569 3640 21109302 	addu $2,$20,$19
 7570              	.set macro
GAS LISTING  			page 134


 7571              	.set reorder
 7572              	
 7573 3644 080075AE 	sw $21,8($19)
 7574 3648 20005190 	lbu $17,32($2)
 7575 364c 2D206002 	move $4,$19
 7576 3650 01009426 	addu $20,$20,1
 7577 3654 21883E02 	addu $17,$17,$fp
 7578              	.set noreorder
 7579              	.set nomacro
 7580 3658 0000000C 	jal _SNSPCRead8
 7581 365c 2D282002 	move $5,$17
 7582              	.set macro
 7583              	.set reorder
 7584              	
 7585 3660 080075AE 	sw $21,8($19)
 7586 3664 80005234 	ori $18,$2,0x80
 7587 3668 2D282002 	move $5,$17
 7588              	.set noreorder
 7589              	.set nomacro
 7590 366c ABF40010 	b $L1015
 7591 3670 8000523A 	xori $18,$18,0x80
 7592              	.set macro
 7593              	.set reorder
 7594              	
 7595              	$L777:
 7596 3674 6900A22A 	slt $2,$21,105
 7597              	.set noreorder
 7598              	.set nomacro
 7599 3678 5AF34014 	bne $2,$0,$L58
 7600 367c 21109302 	addu $2,$20,$19
 7601              	.set macro
 7602              	.set reorder
 7603              	
 7604 3680 080075AE 	sw $21,8($19)
 7605 3684 20005190 	lbu $17,32($2)
 7606 3688 2D206002 	move $4,$19
 7607 368c 01009426 	addu $20,$20,1
 7608 3690 21883E02 	addu $17,$17,$fp
 7609              	.set noreorder
 7610              	.set nomacro
 7611 3694 0000000C 	jal _SNSPCRead8
 7612 3698 2D282002 	move $5,$17
 7613              	.set macro
 7614              	.set reorder
 7615              	
 7616 369c 2D904000 	move $18,$2
 7617 36a0 21109302 	addu $2,$20,$19
 7618              	.set noreorder
 7619              	.set nomacro
 7620 36a4 ADF40010 	b $L951
 7621 36a8 80005232 	andi $18,$18,0x80
 7622              	.set macro
 7623              	.set reorder
 7624              	
 7625              	$L148:
 7626 36ac 5400A22A 	slt $2,$21,84
 7627              	.set noreorder
GAS LISTING  			page 135


 7628              	.set nomacro
 7629 36b0 4CF34014 	bne $2,$0,$L58
 7630 36b4 21109302 	addu $2,$20,$19
 7631              	.set macro
 7632              	.set reorder
 7633              	
 7634 36b8 04006392 	lbu $3,4($19)
 7635 36bc 20005190 	lbu $17,32($2)
 7636 36c0 2D206002 	move $4,$19
 7637 36c4 080075AE 	sw $21,8($19)
 7638 36c8 01009426 	addu $20,$20,1
 7639 36cc 21882302 	addu $17,$17,$3
 7640 36d0 ACFFB526 	addu $21,$21,-84
 7641              	.set noreorder
 7642              	.set nomacro
 7643 36d4 4FFF0010 	b $L1023
 7644 36d8 FF003132 	andi $17,$17,0xff
 7645              	.set macro
 7646              	.set reorder
 7647              	
 7648              	$L154:
 7649 36dc 6900A22A 	slt $2,$21,105
 7650              	.set noreorder
 7651              	.set nomacro
 7652 36e0 40F34014 	bne $2,$0,$L58
 7653 36e4 21189302 	addu $3,$20,$19
 7654              	.set macro
 7655              	.set reorder
 7656              	
 7657 36e8 04006692 	lbu $6,4($19)
 7658              	$L1022:
 7659 36ec 21006290 	lbu $2,33($3)
 7660 36f0 2D206002 	move $4,$19
 7661 36f4 20006590 	lbu $5,32($3)
 7662 36f8 02009426 	addu $20,$20,2
 7663 36fc 00120200 	sll $2,$2,8
 7664 3700 080075AE 	sw $21,8($19)
 7665 3704 25884500 	or $17,$2,$5
 7666 3708 97FFB526 	addu $21,$21,-105
 7667              	.set noreorder
 7668              	.set nomacro
 7669 370c BAFD0010 	b $L1021
 7670 3710 21882602 	addu $17,$17,$6
 7671              	.set macro
 7672              	.set reorder
 7673              	
 7674              	$L157:
 7675 3714 6900A22A 	slt $2,$21,105
 7676              	.set noreorder
 7677              	.set nomacro
 7678 3718 32F34014 	bne $2,$0,$L58
 7679 371c 21189302 	addu $3,$20,$19
 7680              	.set macro
 7681              	.set reorder
 7682              	
 7683              	.set noreorder
 7684              	.set nomacro
GAS LISTING  			page 136


 7685 3720 F2FF0010 	b $L1022
 7686 3724 03006692 	lbu $6,3($19)
 7687              	.set macro
 7688              	.set reorder
 7689              	
 7690              	$L163:
 7691 3728 7E00A22A 	slt $2,$21,126
 7692              	.set noreorder
 7693              	.set nomacro
 7694 372c 2DF34014 	bne $2,$0,$L58
 7695 3730 21109302 	addu $2,$20,$19
 7696              	.set macro
 7697              	.set reorder
 7698              	
 7699 3734 080075AE 	sw $21,8($19)
 7700 3738 20005190 	lbu $17,32($2)
 7701 373c 2D206002 	move $4,$19
 7702 3740 01009426 	addu $20,$20,1
 7703 3744 21883E02 	addu $17,$17,$fp
 7704              	.set noreorder
 7705              	.set nomacro
 7706 3748 1200000C 	jal _SNSPCRead16
 7707 374c 2D282002 	move $5,$17
 7708              	.set macro
 7709              	.set reorder
 7710              	
 7711 3750 080075AE 	sw $21,8($19)
 7712 3754 2D884000 	move $17,$2
 7713 3758 2D206002 	move $4,$19
 7714 375c 03006292 	lbu $2,3($19)
 7715 3760 82FFB526 	addu $21,$21,-126
 7716              	.set noreorder
 7717              	.set nomacro
 7718 3764 A4FD0010 	b $L1021
 7719 3768 21882202 	addu $17,$17,$2
 7720              	.set macro
 7721              	.set reorder
 7722              	
 7723              	$L169:
 7724 376c 3F00A22A 	slt $2,$21,63
 7725              	.set noreorder
 7726              	.set nomacro
 7727 3770 1CF34014 	bne $2,$0,$L58
 7728 3774 21109302 	addu $2,$20,$19
 7729              	.set macro
 7730              	.set reorder
 7731              	
 7732 3778 080075AE 	sw $21,8($19)
 7733 377c 20005190 	lbu $17,32($2)
 7734 3780 2D206002 	move $4,$19
 7735 3784 01009426 	addu $20,$20,1
 7736 3788 C1FFB526 	addu $21,$21,-63
 7737              	$L1024:
 7738              	.set noreorder
 7739              	.set nomacro
 7740 378c 59FF0010 	b $L1002
 7741 3790 21883E02 	addu $17,$17,$fp
GAS LISTING  			page 137


 7742              	.set macro
 7743              	.set reorder
 7744              	
 7745              	$L172:
 7746 3794 5400A22A 	slt $2,$21,84
 7747              	.set noreorder
 7748              	.set nomacro
 7749 3798 12F34014 	bne $2,$0,$L58
 7750 379c 21109302 	addu $2,$20,$19
 7751              	.set macro
 7752              	.set reorder
 7753              	
 7754 37a0 03006392 	lbu $3,3($19)
 7755 37a4 20005190 	lbu $17,32($2)
 7756 37a8 2D206002 	move $4,$19
 7757 37ac 080075AE 	sw $21,8($19)
 7758 37b0 01009426 	addu $20,$20,1
 7759 37b4 21882302 	addu $17,$17,$3
 7760 37b8 ACFFB526 	addu $21,$21,-84
 7761              	.set noreorder
 7762              	.set nomacro
 7763 37bc F3FF0010 	b $L1024
 7764 37c0 FF003132 	andi $17,$17,0xff
 7765              	.set macro
 7766              	.set reorder
 7767              	
 7768              	$L245:
 7769 37c4 6900A22A 	slt $2,$21,105
 7770              	.set noreorder
 7771              	.set nomacro
 7772 37c8 06F34014 	bne $2,$0,$L58
 7773 37cc 21109302 	addu $2,$20,$19
 7774              	.set macro
 7775              	.set reorder
 7776              	
 7777 37d0 080075AE 	sw $21,8($19)
 7778 37d4 20005190 	lbu $17,32($2)
 7779 37d8 2D206002 	move $4,$19
 7780 37dc 01009426 	addu $20,$20,1
 7781 37e0 21883E02 	addu $17,$17,$fp
 7782              	.set noreorder
 7783              	.set nomacro
 7784 37e4 0000000C 	jal _SNSPCRead8
 7785 37e8 2D282002 	move $5,$17
 7786              	.set macro
 7787              	.set reorder
 7788              	
 7789 37ec 080075AE 	sw $21,8($19)
 7790 37f0 2D904000 	move $18,$2
 7791 37f4 2D206002 	move $4,$19
 7792              	.set noreorder
 7793              	.set nomacro
 7794 37f8 03FB0010 	b $L960
 7795 37fc 21109302 	addu $2,$20,$19
 7796              	.set macro
 7797              	.set reorder
 7798              	
GAS LISTING  			page 138


 7799              	$L184:
 7800 3800 5400A22A 	slt $2,$21,84
 7801              	.set noreorder
 7802              	.set nomacro
 7803 3804 F7F24014 	bne $2,$0,$L58
 7804 3808 21109302 	addu $2,$20,$19
 7805              	.set macro
 7806              	.set reorder
 7807              	
 7808 380c 04006392 	lbu $3,4($19)
 7809 3810 20005190 	lbu $17,32($2)
 7810 3814 2D206002 	move $4,$19
 7811 3818 080075AE 	sw $21,8($19)
 7812 381c 01009426 	addu $20,$20,1
 7813 3820 21882302 	addu $17,$17,$3
 7814 3824 ACFFB526 	addu $21,$21,-84
 7815              	.set noreorder
 7816              	.set nomacro
 7817 3828 55FF0010 	b $L979
 7818 382c FF003132 	andi $17,$17,0xff
 7819              	.set macro
 7820              	.set reorder
 7821              	
 7822              	$L521:
 7823 3830 2A00A22A 	slt $2,$21,42
 7824              	.set noreorder
 7825              	.set nomacro
 7826 3834 ECF24054 	bnel $2,$0,$L1062
 7827 3838 06006392 	lbu $3,6($19)
 7828              	.set macro
 7829              	.set reorder
 7830              	
 7831 383c 03007292 	lbu $18,3($19)
 7832 3840 D6FFB526 	addu $21,$21,-42
 7833              	.set noreorder
 7834              	.set nomacro
 7835 3844 D4FA0010 	b $L859
 7836 3848 01005226 	addu $18,$18,1
 7837              	.set macro
 7838              	.set reorder
 7839              	
 7840              	$L239:
 7841 384c 2A00A22A 	slt $2,$21,42
 7842              	.set noreorder
 7843              	.set nomacro
 7844 3850 E5F24054 	bnel $2,$0,$L1062
 7845 3854 06006392 	lbu $3,6($19)
 7846              	.set macro
 7847              	.set reorder
 7848              	
 7849 3858 02007192 	lbu $17,2($19)
 7850 385c D6FFB526 	addu $21,$21,-42
 7851 3860 00B21100 	sll $22,$17,8
 7852              	.set noreorder
 7853              	.set nomacro
 7854 3864 45F30010 	b $L836
 7855 3868 030071A2 	sb $17,3($19)
GAS LISTING  			page 139


 7856              	.set macro
 7857              	.set reorder
 7858              	
 7859              	$L693:
 7860 386c 5400A22A 	slt $2,$21,84
 7861              	.set noreorder
 7862              	.set nomacro
 7863 3870 DCF24014 	bne $2,$0,$L58
 7864 3874 21109302 	addu $2,$20,$19
 7865              	.set macro
 7866              	.set reorder
 7867              	
 7868 3878 03007292 	lbu $18,3($19)
 7869 387c 20004290 	lbu $2,32($2)
 7870 3880 01009426 	addu $20,$20,1
 7871 3884 FFFF5226 	addu $18,$18,-1
 7872              	.set noreorder
 7873              	.set nomacro
 7874 3888 9CF34012 	beq $18,$0,$L696
 7875 388c 030072A2 	sb $18,3($19)
 7876              	.set macro
 7877              	.set reorder
 7878              	
 7879 3890 00160200 	sll $2,$2,24
 7880 3894 D6FFB526 	addu $21,$21,-42
 7881 3898 03160200 	sra $2,$2,24
 7882              	.set noreorder
 7883              	.set nomacro
 7884 389c 97F30010 	b $L696
 7885 38a0 21A08202 	addu $20,$20,$2
 7886              	.set macro
 7887              	.set reorder
 7888              	
 7889              	$L784:
 7890 38a4 3F00A22A 	slt $2,$21,63
 7891              	.set noreorder
 7892              	.set nomacro
 7893 38a8 CFF24054 	bnel $2,$0,$L1062
 7894 38ac 06006392 	lbu $3,6($19)
 7895              	.set macro
 7896              	.set reorder
 7897              	
 7898              	.set noreorder
 7899              	.set nomacro
 7900 38b0 D9F90010 	b $L831
 7901 38b4 FFFF9426 	addu $20,$20,-1
 7902              	.set macro
 7903              	.set reorder
 7904              	
 7905              	.end SNSPCExecute_C
 7906              	$Lfe9:
 7907              	.size SNSPCExecute_C,$Lfe9-SNSPCExecute_C
 7908              	.ident "GCC: (GNU) 3.2.2"
