GAS LISTING  			page 1


   1              	.file 1 "../../Source/ps2/input.cpp"
   2              	.section .mdebug.eabi64
   3              	.previous
   4              	.section .bss,"aw",@nobits
   5              	.align 6
   6              	.type _Input_PadBuf,@object
   7              	.size _Input_PadBuf,1280
   8              	_Input_PadBuf:
   9 0000 00000000 	.space 1280
   9      00000000 
   9      00000000 
   9      00000000 
   9      00000000 
  10              	.section .bss
  11              	_Input_PadData:
  12              	.align 3
  13 0500 00000000 	.space 20
  13      00000000 
  13      00000000 
  13      00000000 
  13      00000000 
  14              	.previous
  15              	.section .bss
  16              	_Input_bPadConnected:
  17 0514 00000000 	.align 3
  18 0518 00000000 	.space 20
  18      00000000 
  18      00000000 
  18      00000000 
  18      00000000 
  19              	.previous
  20 052c 00000000 	.data
  20      00000000 
  20      00000000 
  20      00000000 
  20      00000000 
  21              	.type _Input_bInitialized,@object
  22              	.size _Input_bInitialized,1
  23              	_Input_bInitialized:
  24 0000 00       	.byte 0
  25              	.type _Input_bXPad,@object
  26              	.size _Input_bXPad,1
  27              	_Input_bXPad:
  28 0001 00       	.byte 0
  29 0002 0000     	.align 2
  30              	.type _Input_nPads,@object
  31              	.size _Input_nPads,4
  32              	_Input_nPads:
  33 0004 00000000 	.word 0
  34              	.align 3
  35              	.type _Input_PadPort,@object
  36              	.size _Input_PadPort,10
  37              	_Input_PadPort:
  38 0008 00       	.byte 0
  39 0009 00       	.byte 0
  40 000a 01       	.byte 1
  41 000b 00       	.byte 0
GAS LISTING  			page 2


  42 000c 01       	.byte 1
  43 000d 01       	.byte 1
  44 000e 01       	.byte 1
  45 000f 02       	.byte 2
  46 0010 01       	.byte 1
  47 0011 03       	.byte 3
  48 0012 00000000 	.text
  48      0000
  49              	.align 2
  50              	.p2align 3,,7
  51              	.ent _Z18_Input_GetPadStateii
  52              	_Z18_Input_GetPadStateii:
  53              	.frame $sp,16,$31
  54              	.mask 0x80000000,-16
  55              	.fmask 0x00000000,0
  56 0000 F0FFBD27 	subu $sp,$sp,16
  57 0004 0000023C 	lui $2,%hi(_Input_bXPad)
  58 0008 0000BFFF 	sd $31,0($sp)
  59 000c 01004390 	lbu $3,%lo(_Input_bXPad)($2)
  60              	
  61 0010 07006010 	beq $3,$0,$L2
  61      00000000 
  62 0018 0000000C 	jal xpadGetState
  62      00000000 
  63 0020 0000BFDF 	ld $31,0($sp)
  64              	$L4:
  65              	
  66              	.set noreorder
  67              	.set nomacro
  68 0024 0800E003 	j $31
  69 0028 1000BD27 	addu $sp,$sp,16
  70              	.set macro
  71              	.set reorder
  72              	
  73 002c 00000000 	.p2align 3
  74              	$L2:
  75 0030 0000000C 	jal padGetState
  75      00000000 
  76              	.set noreorder
  77              	.set nomacro
  78 0038 FAFF0010 	b $L4
  79 003c 0000BFDF 	ld $31,0($sp)
  80              	.set macro
  81              	.set reorder
  82              	
  83              	.end _Z18_Input_GetPadStateii
  84              	$Lfe1:
  85              	.size _Z18_Input_GetPadStateii,$Lfe1-_Z18_Input_GetPadStateii
  86              	.align 2
  87              	.p2align 3,,7
  88              	.ent _Z19_Input_WaitPadReadyii
  89              	_Z19_Input_WaitPadReadyii:
  90              	.frame $sp,96,$31
  91              	.mask 0x801f0000,-16
  92              	.fmask 0x00000000,0
  93 0040 A0FFBD27 	subu $sp,$sp,96
  94 0044 5000BFFF 	sd $31,80($sp)
GAS LISTING  			page 3


  95 0048 0000B0FF 	sd $16,0($sp)
  96 004c 4000B4FF 	sd $20,64($sp)
  97 0050 06001424 	li $20,6
  98 0054 3000B3FF 	sd $19,48($sp)
  99 0058 02001324 	li $19,2
 100 005c 2000B2FF 	sd $18,32($sp)
 101 0060 2D908000 	move $18,$4
 102 0064 1000B1FF 	sd $17,16($sp)
 103 0068 2D88A000 	move $17,$5
 104 006c 2D204002 	move $4,$18
 105              	$L13:
 106              	.set noreorder
 107              	.set nomacro
 108 0070 0000000C 	jal _Z18_Input_GetPadStateii
 109 0074 2D282002 	move $5,$17
 110              	.set macro
 111              	.set reorder
 112              	
 113 0078 01000424 	li $4,1
 114              	.set noreorder
 115              	.set nomacro
 116 007c 0000000C 	jal WaitForNextVRstart
 117 0080 2D804000 	move $16,$2
 118              	.set macro
 119              	.set reorder
 120              	
 121              	.set noreorder
 122              	.set nomacro
 123 0084 06001412 	beq $16,$20,$L11
 124 0088 5000BFDF 	ld $31,80($sp)
 125              	.set macro
 126              	.set reorder
 127              	
 128              	.set noreorder
 129              	.set nomacro
 130 008c 05001352 	beql $16,$19,$L12
 131 0090 4000B4DF 	ld $20,64($sp)
 132              	.set macro
 133              	.set reorder
 134              	
 135              	.set noreorder
 136              	.set nomacro
 137 0094 F6FF0016 	bne $16,$0,$L13
 138 0098 2D204002 	move $4,$18
 139              	.set macro
 140              	.set reorder
 141              	
 142 009c 5000BFDF 	ld $31,80($sp)
 143              	$L11:
 144 00a0 4000B4DF 	ld $20,64($sp)
 145              	$L12:
 146 00a4 3000B3DF 	ld $19,48($sp)
 147 00a8 2000B2DF 	ld $18,32($sp)
 148 00ac 1000B1DF 	ld $17,16($sp)
 149 00b0 0000B0DF 	ld $16,0($sp)
 150              	
 151              	.set noreorder
GAS LISTING  			page 4


 152              	.set nomacro
 153 00b4 0800E003 	j $31
 154 00b8 6000BD27 	addu $sp,$sp,96
 155              	.set macro
 156              	.set reorder
 157              	
 158              	.end _Z19_Input_WaitPadReadyii
 159              	$Lfe2:
 160              	.size _Z19_Input_WaitPadReadyii,$Lfe2-_Z19_Input_WaitPadReadyii
 161              	.rdata
 162              	.align 3
 163              	$LC0:
 164 0000 4661696C 	.ascii "Failed to open pad port=%d slot=%d\n\000"
 164      65642074 
 164      6F206F70 
 164      656E2070 
 164      61642070 
 165              	.text
 166              	.align 2
 167 00bc 00000000 	.p2align 3,,7
 168              	.ent _Z14_Input_InitPadiiPc
 169              	_Z14_Input_InitPadiiPc:
 170              	.frame $sp,48,$31
 171              	.mask 0x80030000,-16
 172              	.fmask 0x00000000,0
 173 00c0 D0FFBD27 	subu $sp,$sp,48
 174 00c4 0000023C 	lui $2,%hi(_Input_bXPad)
 175 00c8 1000B1FF 	sd $17,16($sp)
 176 00cc 2D888000 	move $17,$4
 177 00d0 0000B0FF 	sd $16,0($sp)
 178 00d4 2000BFFF 	sd $31,32($sp)
 179 00d8 01004390 	lbu $3,%lo(_Input_bXPad)($2)
 180              	
 181              	.set noreorder
 182              	.set nomacro
 183 00dc 22006010 	beq $3,$0,$L15
 184 00e0 2D80A000 	move $16,$5
 185              	.set macro
 186              	.set reorder
 187              	
 188 00e4 0000000C 	jal xpadPortOpen
 188      00000000 
 189 00ec 2D300002 	move $6,$16
 190 00f0 2D202002 	move $4,$17
 191              	.set noreorder
 192              	.set nomacro
 193 00f4 0C004014 	bne $2,$0,$L16
 194 00f8 2D280002 	move $5,$16
 195              	.set macro
 196              	.set reorder
 197              	
 198 00fc 0000043C 	lui $4,%hi($LC0)
 199 0100 2D282002 	move $5,$17
 200 0104 00008424 	addiu $4,$4,%lo($LC0)
 201              	$L19:
 202 0108 0000000C 	jal printf
 202      00000000 
GAS LISTING  			page 5


 203 0110 FFFF0224 	li $2,-1
 204              	$L14:
 205 0114 2000BFDF 	ld $31,32($sp)
 206 0118 1000B1DF 	ld $17,16($sp)
 207 011c 0000B0DF 	ld $16,0($sp)
 208              	
 209              	.set noreorder
 210              	.set nomacro
 211 0120 0800E003 	j $31
 212 0124 3000BD27 	addu $sp,$sp,48
 213              	.set macro
 214              	.set reorder
 215              	
 216              	.p2align 3
 217              	$L16:
 218 0128 1000000C 	jal _Z19_Input_WaitPadReadyii
 218      00000000 
 219 0130 2D280002 	move $5,$16
 220              	.set noreorder
 221              	.set nomacro
 222 0134 0000000C 	jal xpadExitPressMode
 223 0138 2D202002 	move $4,$17
 224              	.set macro
 225              	.set reorder
 226              	
 227 013c 2D300000 	move $6,$0
 228 0140 2D202002 	move $4,$17
 229 0144 2D280002 	move $5,$16
 230              	.set noreorder
 231              	.set nomacro
 232 0148 0000000C 	jal xpadSetMainMode
 233 014c 03000724 	li $7,3
 234              	.set macro
 235              	.set reorder
 236              	
 237 0150 2D202002 	move $4,$17
 238              	$L20:
 239              	.set noreorder
 240              	.set nomacro
 241 0154 1000000C 	jal _Z19_Input_WaitPadReadyii
 242 0158 2D280002 	move $5,$16
 243              	.set macro
 244              	.set reorder
 245              	
 246              	.set noreorder
 247              	.set nomacro
 248 015c EDFF0010 	b $L14
 249 0160 2D100000 	move $2,$0
 250              	.set macro
 251              	.set reorder
 252              	
 253 0164 00000000 	.p2align 3
 254              	$L15:
 255 0168 0000000C 	jal padPortOpen
 255      00000000 
 256 0170 2D300002 	move $6,$16
 257 0174 0000043C 	lui $4,%hi($LC0)
GAS LISTING  			page 6


 258 0178 2D282002 	move $5,$17
 259              	.set noreorder
 260              	.set nomacro
 261 017c E2FF4010 	beq $2,$0,$L19
 262 0180 00008424 	addiu $4,$4,%lo($LC0)
 263              	.set macro
 264              	.set reorder
 265              	
 266 0184 2D202002 	move $4,$17
 267              	.set noreorder
 268              	.set nomacro
 269 0188 1000000C 	jal _Z19_Input_WaitPadReadyii
 270 018c 2D280002 	move $5,$16
 271              	.set macro
 272              	.set reorder
 273              	
 274 0190 2D300000 	move $6,$0
 275 0194 2D202002 	move $4,$17
 276 0198 2D280002 	move $5,$16
 277              	.set noreorder
 278              	.set nomacro
 279 019c 0000000C 	jal padSetMainMode
 280 01a0 03000724 	li $7,3
 281              	.set macro
 282              	.set reorder
 283              	
 284              	.set noreorder
 285              	.set nomacro
 286 01a4 EBFF0010 	b $L20
 287 01a8 2D202002 	move $4,$17
 288              	.set macro
 289              	.set reorder
 290              	
 291              	.end _Z14_Input_InitPadiiPc
 292              	$Lfe3:
 293              	.size _Z14_Input_InitPadiiPc,$Lfe3-_Z14_Input_InitPadiiPc
 294              	.align 2
 295 01ac 00000000 	.p2align 3,,7
 296              	.globl _Z19InputIsPadConnectedj
 297              	.ent _Z19InputIsPadConnectedj
 298              	_Z19InputIsPadConnectedj:
 299              	.frame $sp,0,$31
 300              	.mask 0x00000000,0
 301              	.fmask 0x00000000,0
 302 01b0 0000023C 	lui $2,%hi(_Input_nPads)
 303 01b4 80280400 	sll $5,$4,2
 304 01b8 0400438C 	lw $3,%lo(_Input_nPads)($2)
 305 01bc 2D300000 	move $6,$0
 306 01c0 0000023C 	lui $2,%hi(_Input_bPadConnected)
 307 01c4 18054224 	addiu $2,$2,%lo(_Input_bPadConnected)
 308 01c8 2B208300 	sltu $4,$4,$3
 309              	.set noreorder
 310              	.set nomacro
 311 01cc 02008010 	beq $4,$0,$L23
 312 01d0 2128A200 	addu $5,$5,$2
 313              	.set macro
 314              	.set reorder
GAS LISTING  			page 7


 315              	
 316 01d4 0000A690 	lbu $6,0($5)
 317              	$L23:
 318              	.set noreorder
 319              	.set nomacro
 320 01d8 0800E003 	j $31
 321 01dc 2D10C000 	move $2,$6
 322              	.set macro
 323              	.set reorder
 324              	
 325              	.end _Z19InputIsPadConnectedj
 326              	$Lfe4:
 327              	.size _Z19InputIsPadConnectedj,$Lfe4-_Z19InputIsPadConnectedj
 328              	.align 2
 329              	.p2align 3,,7
 330              	.globl _Z15InputGetPadDataj
 331              	.ent _Z15InputGetPadDataj
 332              	_Z15InputGetPadDataj:
 333              	.frame $sp,32,$31
 334              	.mask 0x80010000,-16
 335              	.fmask 0x00000000,0
 336 01e0 E0FFBD27 	subu $sp,$sp,32
 337 01e4 0000B0FF 	sd $16,0($sp)
 338 01e8 2D808000 	move $16,$4
 339 01ec 1000BFFF 	sd $31,16($sp)
 340              	.set noreorder
 341              	.set nomacro
 342 01f0 0000000C 	jal _Z19InputIsPadConnectedj
 343 01f4 80801000 	sll $16,$16,2
 344              	.set macro
 345              	.set reorder
 346              	
 347              	.set noreorder
 348              	.set nomacro
 349 01f8 05004010 	beq $2,$0,$L26
 350 01fc 2D100000 	move $2,$0
 351              	.set macro
 352              	.set reorder
 353              	
 354 0200 0000023C 	lui $2,%hi(_Input_PadData)
 355 0204 00054224 	addiu $2,$2,%lo(_Input_PadData)
 356 0208 21100202 	addu $2,$16,$2
 357 020c 0000428C 	lw $2,0($2)
 358              	$L26:
 359 0210 1000BFDF 	ld $31,16($sp)
 360 0214 0000B0DF 	ld $16,0($sp)
 361              	
 362              	.set noreorder
 363              	.set nomacro
 364 0218 0800E003 	j $31
 365 021c 2000BD27 	addu $sp,$sp,32
 366              	.set macro
 367              	.set reorder
 368              	
 369              	.end _Z15InputGetPadDataj
 370              	$Lfe5:
 371              	.size _Z15InputGetPadDataj,$Lfe5-_Z15InputGetPadDataj
GAS LISTING  			page 8


 372              	.align 2
 373              	.p2align 3,,7
 374              	.globl _Z9InputInith
 375              	.ent _Z9InputInith
 376              	_Z9InputInith:
 377              	.frame $sp,80,$31
 378              	.mask 0x800f0000,-16
 379              	.fmask 0x00000000,0
 380 0220 FF008430 	andi $4,$4,0x00ff
 381 0224 02000224 	li $2,2
 382 0228 05000324 	li $3,5
 383 022c B0FFBD27 	subu $sp,$sp,80
 384 0230 0A184400 	movz $3,$2,$4
 385 0234 0000053C 	lui $5,%hi(_Input_nPads)
 386 0238 0000023C 	lui $2,%hi(_Input_bXPad)
 387 023c 2000B2FF 	sd $18,32($sp)
 388 0240 4000BFFF 	sd $31,64($sp)
 389 0244 2D900000 	move $18,$0
 390 0248 3000B3FF 	sd $19,48($sp)
 391 024c 1000B1FF 	sd $17,16($sp)
 392 0250 0000B0FF 	sd $16,0($sp)
 393 0254 010044A0 	sb $4,%lo(_Input_bXPad)($2)
 394              	.set noreorder
 395              	.set nomacro
 396 0258 11006010 	beq $3,$0,$L36
 397 025c 0400A3AC 	sw $3,%lo(_Input_nPads)($5)
 398              	.set macro
 399              	.set reorder
 400              	
 401 0260 0000023C 	lui $2,%hi(_Input_PadBuf)
 402 0264 0000033C 	lui $3,%hi(_Input_PadPort)
 403 0268 2D98A000 	move $19,$5
 404 026c 00005124 	addiu $17,$2,%lo(_Input_PadBuf)
 405 0270 08007024 	addiu $16,$3,%lo(_Input_PadPort)
 406 0274 00000492 	lbu $4,0($16)
 407              	$L37:
 408 0278 2D302002 	move $6,$17
 409 027c 01000592 	lbu $5,1($16)
 410 0280 01005226 	addu $18,$18,1
 411 0284 00013126 	addu $17,$17,256
 412              	.set noreorder
 413              	.set nomacro
 414 0288 3000000C 	jal _Z14_Input_InitPadiiPc
 415 028c 02001026 	addu $16,$16,2
 416              	.set macro
 417              	.set reorder
 418              	
 419 0290 0400638E 	lw $3,%lo(_Input_nPads)($19)
 420              	
 421 0294 2A184302 	slt $3,$18,$3
 422              	.set noreorder
 423              	.set nomacro
 424 0298 F7FF6054 	bnel $3,$0,$L37
 425 029c 00000492 	lbu $4,0($16)
 426              	.set macro
 427              	.set reorder
 428              	
GAS LISTING  			page 9


 429              	$L36:
 430 02a0 4000BFDF 	ld $31,64($sp)
 431 02a4 01000324 	li $3,1
 432 02a8 3000B3DF 	ld $19,48($sp)
 433 02ac 0000023C 	lui $2,%hi(_Input_bInitialized)
 434 02b0 2000B2DF 	ld $18,32($sp)
 435 02b4 1000B1DF 	ld $17,16($sp)
 436 02b8 0000B0DF 	ld $16,0($sp)
 437 02bc 000043A0 	sb $3,%lo(_Input_bInitialized)($2)
 438              	.set noreorder
 439              	.set nomacro
 440 02c0 0800E003 	j $31
 441 02c4 5000BD27 	addu $sp,$sp,80
 442              	.set macro
 443              	.set reorder
 444              	
 445              	.end _Z9InputInith
 446              	$Lfe6:
 447              	.size _Z9InputInith,$Lfe6-_Z9InputInith
 448              	.align 2
 449              	.p2align 3,,7
 450              	.globl _Z13InputShutdownv
 451              	.ent _Z13InputShutdownv
 452              	_Z13InputShutdownv:
 453              	.frame $sp,112,$31
 454              	.mask 0x803f0000,-16
 455              	.fmask 0x00000000,0
 456 02c8 90FFBD27 	subu $sp,$sp,112
 457 02cc 0000023C 	lui $2,%hi(_Input_bInitialized)
 458 02d0 6000BFFF 	sd $31,96($sp)
 459 02d4 5000B5FF 	sd $21,80($sp)
 460 02d8 4000B4FF 	sd $20,64($sp)
 461 02dc 3000B3FF 	sd $19,48($sp)
 462 02e0 2000B2FF 	sd $18,32($sp)
 463 02e4 1000B1FF 	sd $17,16($sp)
 464 02e8 0000B0FF 	sd $16,0($sp)
 465 02ec 00004390 	lbu $3,%lo(_Input_bInitialized)($2)
 466              	
 467              	.set noreorder
 468              	.set nomacro
 469 02f0 15006010 	beq $3,$0,$L39
 470 02f4 0000153C 	lui $21,%hi(_Input_nPads)
 471              	.set macro
 472              	.set reorder
 473              	
 474 02f8 0400A28E 	lw $2,%lo(_Input_nPads)($21)
 475              	
 476              	.set noreorder
 477              	.set nomacro
 478 02fc 12004018 	blez $2,$L39
 479 0300 2D900000 	move $18,$0
 480              	.set macro
 481              	.set reorder
 482              	
 483 0304 0000023C 	lui $2,%hi(_Input_PadPort)
 484 0308 0000143C 	lui $20,%hi(_Input_bXPad)
 485 030c 08005124 	addiu $17,$2,%lo(_Input_PadPort)
GAS LISTING  			page 10


 486 0310 2D98A002 	move $19,$21
 487 0314 2D802002 	move $16,$17
 488              	.p2align 3
 489              	$L46:
 490 0318 01008292 	lbu $2,%lo(_Input_bXPad)($20)
 491              	
 492              	.set noreorder
 493              	.set nomacro
 494 031c 16004050 	beql $2,$0,$L44
 495 0320 00000492 	lbu $4,0($16)
 496              	.set macro
 497              	.set reorder
 498              	
 499              	
 500 0324 00002492 	lbu $4,0($17)
 501              	.set noreorder
 502              	.set nomacro
 503 0328 0000000C 	jal xpadPortClose
 504 032c 01002592 	lbu $5,1($17)
 505              	.set macro
 506              	.set reorder
 507              	
 508 0330 0400628E 	lw $2,%lo(_Input_nPads)($19)
 509              	$L49:
 510 0334 01005226 	addu $18,$18,1
 511 0338 02001026 	addu $16,$16,2
 512 033c 2A104202 	slt $2,$18,$2
 513              	.set noreorder
 514              	.set nomacro
 515 0340 F5FF4014 	bne $2,$0,$L46
 516 0344 02003126 	addu $17,$17,2
 517              	.set macro
 518              	.set reorder
 519              	
 520              	$L39:
 521 0348 0400A0AE 	sw $0,%lo(_Input_nPads)($21)
 522 034c 0000023C 	lui $2,%hi(_Input_bInitialized)
 523 0350 6000BFDF 	ld $31,96($sp)
 524 0354 5000B5DF 	ld $21,80($sp)
 525 0358 4000B4DF 	ld $20,64($sp)
 526 035c 3000B3DF 	ld $19,48($sp)
 527 0360 2000B2DF 	ld $18,32($sp)
 528 0364 1000B1DF 	ld $17,16($sp)
 529 0368 0000B0DF 	ld $16,0($sp)
 530 036c 000040A0 	sb $0,%lo(_Input_bInitialized)($2)
 531              	.set noreorder
 532              	.set nomacro
 533 0370 0800E003 	j $31
 534 0374 7000BD27 	addu $sp,$sp,112
 535              	.set macro
 536              	.set reorder
 537              	
 538              	.p2align 3
 539              	$L44:
 540              	.set noreorder
 541              	.set nomacro
 542 0378 0000000C 	jal padPortClose
GAS LISTING  			page 11


 543 037c 01000592 	lbu $5,1($16)
 544              	.set macro
 545              	.set reorder
 546              	
 547              	.set noreorder
 548              	.set nomacro
 549 0380 ECFF0010 	b $L49
 550 0384 0400628E 	lw $2,%lo(_Input_nPads)($19)
 551              	.set macro
 552              	.set reorder
 553              	
 554              	.end _Z13InputShutdownv
 555              	$Lfe7:
 556              	.size _Z13InputShutdownv,$Lfe7-_Z13InputShutdownv
 557              	.rdata
 558 0024 00000000 	.align 3
 559              	$LC1:
 560 0028 496E7075 	.ascii "Input: Pad %d inserted!\n\000"
 560      743A2050 
 560      61642025 
 560      6420696E 
 560      73657274 
 561 0041 00000000 	.align 3
 561      000000
 562              	$LC2:
 563 0048 496E7075 	.ascii "Input: Pad %d removed!\n\000"
 563      743A2050 
 563      61642025 
 563      64207265 
 563      6D6F7665 
 564              	.text
 565              	.align 2
 566              	.p2align 3,,7
 567              	.globl _Z9InputPollv
 568              	.ent _Z9InputPollv
 569              	_Z9InputPollv:
 570              	.frame $sp,192,$31
 571              	.mask 0xc0ff0000,-16
 572              	.fmask 0x00000000,0
 573 0388 40FFBD27 	subu $sp,$sp,192
 574 038c 0000023C 	lui $2,%hi(_Input_bInitialized)
 575 0390 B000BFFF 	sd $31,176($sp)
 576 0394 A000BEFF 	sd $fp,160($sp)
 577 0398 9000B7FF 	sd $23,144($sp)
 578 039c 8000B6FF 	sd $22,128($sp)
 579 03a0 7000B5FF 	sd $21,112($sp)
 580 03a4 6000B4FF 	sd $20,96($sp)
 581 03a8 5000B3FF 	sd $19,80($sp)
 582 03ac 4000B2FF 	sd $18,64($sp)
 583 03b0 3000B1FF 	sd $17,48($sp)
 584 03b4 2000B0FF 	sd $16,32($sp)
 585 03b8 00004390 	lbu $3,%lo(_Input_bInitialized)($2)
 586              	
 587              	.set noreorder
 588              	.set nomacro
 589 03bc 4D006050 	beql $3,$0,$L83
 590 03c0 B000BFDF 	ld $31,176($sp)
GAS LISTING  			page 12


 591              	.set macro
 592              	.set reorder
 593              	
 594 03c4 0000043C 	lui $4,%hi(_Input_nPads)
 595 03c8 0400828C 	lw $2,%lo(_Input_nPads)($4)
 596              	
 597              	.set noreorder
 598              	.set nomacro
 599 03cc 23004018 	blez $2,$L73
 600 03d0 2D800000 	move $16,$0
 601              	.set macro
 602              	.set reorder
 603              	
 604 03d4 0000023C 	lui $2,%hi(_Input_PadPort)
 605 03d8 0000033C 	lui $3,%hi(_Input_bPadConnected)
 606 03dc 08005324 	addiu $19,$2,%lo(_Input_PadPort)
 607 03e0 18057624 	addiu $22,$3,%lo(_Input_bPadConnected)
 608 03e4 0000023C 	lui $2,%hi(_Input_PadData)
 609 03e8 2DA08000 	move $20,$4
 610 03ec 00055524 	addiu $21,$2,%lo(_Input_PadData)
 611 03f0 2D906002 	move $18,$19
 612 03f4 00000000 	.p2align 3
 613              	$L59:
 614 03f8 80881000 	sll $17,$16,2
 615 03fc 21183602 	addu $3,$17,$22
 616 0400 0000628C 	lw $2,0($3)
 617              	
 618              	.set noreorder
 619              	.set nomacro
 620 0404 0D004010 	beq $2,$0,$L56
 621 0408 2D200000 	move $4,$0
 622              	.set macro
 623              	.set reorder
 624              	
 625 040c 0000023C 	lui $2,%hi(_Input_bXPad)
 626 0410 01004390 	lbu $3,%lo(_Input_bXPad)($2)
 627              	
 628              	.set noreorder
 629              	.set nomacro
 630 0414 5E006010 	beq $3,$0,$L57
 631 0418 2D30A003 	move $6,$sp
 632              	.set macro
 633              	.set reorder
 634              	
 635 041c 00006492 	lbu $4,0($19)
 636              	.set noreorder
 637              	.set nomacro
 638 0420 0000000C 	jal xpadRead
 639 0424 01006592 	lbu $5,1($19)
 640              	.set macro
 641              	.set reorder
 642              	
 643 0428 0200A293 	lbu $2,2($sp)
 644              	$L82:
 645 042c 0300A393 	lbu $3,3($sp)
 646 0430 00120200 	sll $2,$2,8
 647 0434 25104300 	or $2,$2,$3
GAS LISTING  			page 13


 648 0438 FFFF4438 	xori $4,$2,0xffff
 649              	$L56:
 650 043c 0400828E 	lw $2,%lo(_Input_nPads)($20)
 651 0440 01001026 	addu $16,$16,1
 652 0444 21183502 	addu $3,$17,$21
 653 0448 02005226 	addu $18,$18,2
 654 044c 2A100202 	slt $2,$16,$2
 655 0450 02007326 	addu $19,$19,2
 656              	.set noreorder
 657              	.set nomacro
 658 0454 E8FF4014 	bne $2,$0,$L59
 659 0458 000064AC 	sw $4,0($3)
 660              	.set macro
 661              	.set reorder
 662              	
 663              	$L73:
 664 045c 0000023C 	lui $2,%hi(_Input_nPads)
 665 0460 0400438C 	lw $3,%lo(_Input_nPads)($2)
 666              	
 667              	.set noreorder
 668              	.set nomacro
 669 0464 22006018 	blez $3,$L50
 670 0468 2D800000 	move $16,$0
 671              	.set macro
 672              	.set reorder
 673              	
 674 046c 0000023C 	lui $2,%hi(_Input_PadPort)
 675 0470 0000033C 	lui $3,%hi(_Input_bPadConnected)
 676 0474 08005424 	addiu $20,$2,%lo(_Input_PadPort)
 677 0478 18057324 	addiu $19,$3,%lo(_Input_bPadConnected)
 678 047c 2DB08002 	move $22,$20
 679 0480 2DA86002 	move $21,$19
 680 0484 0000123C 	lui $18,%hi(_Input_bXPad)
 681 0488 0000173C 	lui $23,%hi($LC1)
 682 048c 00001E3C 	lui $fp,%hi($LC2)
 683 0490 01004292 	lbu $2,%lo(_Input_bXPad)($18)
 684              	$L84:
 685              	.set noreorder
 686              	.set nomacro
 687 0494 38004010 	beq $2,$0,$L64
 688 0498 40101000 	sll $2,$16,1
 689              	.set macro
 690              	.set reorder
 691              	
 692 049c 21105400 	addu $2,$2,$20
 693 04a0 01004590 	lbu $5,1($2)
 694              	.set noreorder
 695              	.set nomacro
 696 04a4 0000000C 	jal xpadGetState
 697 04a8 00004490 	lbu $4,0($2)
 698              	.set macro
 699              	.set reorder
 700              	
 701 04ac 2D184000 	move $3,$2
 702              	$L81:
 703 04b0 06000224 	li $2,6
 704              	.set noreorder
GAS LISTING  			page 14


 705              	.set nomacro
 706 04b4 20006210 	beq $3,$2,$L67
 707 04b8 02000224 	li $2,2
 708              	.set macro
 709              	.set reorder
 710              	
 711              	.set noreorder
 712              	.set nomacro
 713 04bc 1E006210 	beq $3,$2,$L67
 714 04c0 80101000 	sll $2,$16,2
 715              	.set macro
 716              	.set reorder
 717              	
 718 04c4 21885500 	addu $17,$2,$21
 719 04c8 01000224 	li $2,1
 720 04cc 0000238E 	lw $3,0($17)
 721              	
 722              	.set noreorder
 723              	.set nomacro
 724 04d0 13006210 	beq $3,$2,$L78
 725 04d4 01001026 	addu $16,$16,1
 726              	.set macro
 727              	.set reorder
 728              	
 729 04d8 000020AE 	sw $0,0($17)
 730              	$L62:
 731 04dc 0000033C 	lui $3,%hi(_Input_nPads)
 732 04e0 0400628C 	lw $2,%lo(_Input_nPads)($3)
 733              	
 734 04e4 2A100202 	slt $2,$16,$2
 735              	.set noreorder
 736              	.set nomacro
 737 04e8 EAFF4014 	bne $2,$0,$L84
 738 04ec 01004292 	lbu $2,%lo(_Input_bXPad)($18)
 739              	.set macro
 740              	.set reorder
 741              	
 742              	$L50:
 743 04f0 B000BFDF 	ld $31,176($sp)
 744              	$L83:
 745 04f4 A000BEDF 	ld $fp,160($sp)
 746 04f8 9000B7DF 	ld $23,144($sp)
 747 04fc 8000B6DF 	ld $22,128($sp)
 748 0500 7000B5DF 	ld $21,112($sp)
 749 0504 6000B4DF 	ld $20,96($sp)
 750 0508 5000B3DF 	ld $19,80($sp)
 751 050c 4000B2DF 	ld $18,64($sp)
 752 0510 3000B1DF 	ld $17,48($sp)
 753 0514 2000B0DF 	ld $16,32($sp)
 754              	
 755              	.set noreorder
 756              	.set nomacro
 757 0518 0800E003 	j $31
 758 051c C000BD27 	addu $sp,$sp,192
 759              	.set macro
 760              	.set reorder
 761              	
GAS LISTING  			page 15


 762              	$L78:
 763 0520 4800C427 	addiu $4,$fp,%lo($LC2)
 764              	.set noreorder
 765              	.set nomacro
 766 0524 0000000C 	jal printf
 767 0528 2D280002 	move $5,$16
 768              	.set macro
 769              	.set reorder
 770              	
 771              	.set noreorder
 772              	.set nomacro
 773 052c EBFF0010 	b $L62
 774 0530 000020AE 	sw $0,0($17)
 775              	.set macro
 776              	.set reorder
 777              	
 778 0534 00000000 	.p2align 3
 779              	$L67:
 780 0538 80101000 	sll $2,$16,2
 781 053c 21885300 	addu $17,$2,$19
 782 0540 0000238E 	lw $3,0($17)
 783              	
 784              	.set noreorder
 785              	.set nomacro
 786 0544 04006010 	beq $3,$0,$L79
 787 0548 01001026 	addu $16,$16,1
 788              	.set macro
 789              	.set reorder
 790              	
 791 054c 01000224 	li $2,1
 792              	$L80:
 793              	.set noreorder
 794              	.set nomacro
 795 0550 E2FF0010 	b $L62
 796 0554 000022AE 	sw $2,0($17)
 797              	.set macro
 798              	.set reorder
 799              	
 800              	.p2align 3
 801              	$L79:
 802 0558 2800E426 	addiu $4,$23,%lo($LC1)
 803              	.set noreorder
 804              	.set nomacro
 805 055c 0000000C 	jal printf
 806 0560 2D280002 	move $5,$16
 807              	.set macro
 808              	.set reorder
 809              	
 810              	.set noreorder
 811              	.set nomacro
 812 0564 0000000C 	jal WaitForNextVRstart
 813 0568 01000424 	li $4,1
 814              	.set macro
 815              	.set reorder
 816              	
 817              	.set noreorder
 818              	.set nomacro
GAS LISTING  			page 16


 819 056c F8FF0010 	b $L80
 820 0570 01000224 	li $2,1
 821              	.set macro
 822              	.set reorder
 823              	
 824 0574 00000000 	.p2align 3
 825              	$L64:
 826 0578 21105600 	addu $2,$2,$22
 827 057c 01004590 	lbu $5,1($2)
 828              	.set noreorder
 829              	.set nomacro
 830 0580 0000000C 	jal padGetState
 831 0584 00004490 	lbu $4,0($2)
 832              	.set macro
 833              	.set reorder
 834              	
 835              	.set noreorder
 836              	.set nomacro
 837 0588 C9FF0010 	b $L81
 838 058c 2D184000 	move $3,$2
 839              	.set macro
 840              	.set reorder
 841              	
 842              	.p2align 3
 843              	$L57:
 844 0590 00004492 	lbu $4,0($18)
 845              	.set noreorder
 846              	.set nomacro
 847 0594 0000000C 	jal padRead
 848 0598 01004592 	lbu $5,1($18)
 849              	.set macro
 850              	.set reorder
 851              	
 852              	.set noreorder
 853              	.set nomacro
 854 059c A3FF0010 	b $L82
 855 05a0 0200A293 	lbu $2,2($sp)
 856              	.set macro
 857              	.set reorder
 858              	
 859              	.end _Z9InputPollv
 860              	$Lfe8:
 861              	.size _Z9InputPollv,$Lfe8-_Z9InputPollv
 862 05a4 00000000 	.ident "GCC: (GNU) 3.2.2"
