GAS LISTING  			page 1


   1              	.file 1 "../../Source/ps2/mainloop.cpp"
   2              	.section .mdebug.eabi64
   3              	.previous
   4              	.section .bss
   5              	_MainLoop_pBrowserScreen:
   6              	.align 2
   7 0000 00000000 	.space 4
   8              	.previous
   9              	.section .bss
  10              	_MainLoop_pNetworkScreen:
  11              	.align 2
  12 0004 00000000 	.space 4
  13              	.previous
  14              	.section .bss
  15              	_MainLoop_pMenuScreen:
  16              	.align 2
  17 0008 00000000 	.space 4
  18              	.previous
  19              	.section .bss
  20              	_MainLoop_pLogScreen:
  21              	.align 2
  22 000c 00000000 	.space 4
  23              	.previous
  24              	.data
  25              	.align 2
  26              	.type _MainLoop_pScreen,@object
  27              	.size _MainLoop_pScreen,4
  28              	_MainLoop_pScreen:
  29 0000 00000000 	.word 0
  30              	.section .bss
  31              	_pSnes:
  32              	.align 2
  33 0010 00000000 	.space 4
  34              	.previous
  35              	.section .bss
  36              	_pSnesRom:
  37              	.align 2
  38 0014 00000000 	.space 4
  39              	.previous
  40              	.section .bss
  41              	_pNes:
  42              	.align 2
  43 0018 00000000 	.space 4
  44              	.previous
  45              	.section .bss
  46              	_pNesRom:
  47              	.align 2
  48 001c 00000000 	.space 4
  49              	.previous
  50              	.section .bss
  51              	_pNesFDSBios:
  52              	.align 2
  53 0020 00000000 	.space 4
  54              	.previous
  55              	.section .bss
  56              	_pNesFDSDisk:
  57              	.align 2
GAS LISTING  			page 2


  58 0024 00000000 	.space 4
  59              	.previous
  60              	.align 2
  61              	.type _MainLoop_iDisk,@object
  62              	.size _MainLoop_iDisk,4
  63              	_MainLoop_iDisk:
  64 0004 00000000 	.word 0
  65              	.type _MainLoop_bDiskInserted,@object
  66              	.size _MainLoop_bDiskInserted,1
  67              	_MainLoop_bDiskInserted:
  68 0008 00       	.byte 0
  69              	.section .bss
  70              	_RomName:
  71              	.align 3
  72 0028 00000000 	.space 256
  72      00000000 
  72      00000000 
  72      00000000 
  72      00000000 
  73              	.previous
  74 0009 00000000 	.align 3
  74      000000
  75              	.type _SramPath,@object
  76              	.size _SramPath,256
  77              	_SramPath:
  78 0010 686F7374 	.ascii "host0:/cygdrive/d/emu/\000"
  78      303A2F63 
  78      79676472 
  78      6976652F 
  78      642F656D 
  79 0027 00000000 	.space 233
  79      00000000 
  79      00000000 
  79      00000000 
  79      00000000 
  80              	.section .bss
  81              	_pSystem:
  82              	.align 2
  83 0128 00000000 	.space 4
  84              	.previous
  85              	.section .bss
  86              	_fbTexture:
  87 012c 00000000 	.align 3
  88 0130 00000000 	.space 8
  88      00000000 
  89              	.previous
  90              	.align 2
  91              	.type _iframetex,@object
  92              	.size _iframetex,4
  93              	_iframetex:
  94 0110 00000000 	.word 0
  95              	.section .bss
  96              	_OutTex:
  97              	.align 3
  98 0138 00000000 	.space 44
  98      00000000 
  98      00000000 
GAS LISTING  			page 3


  98      00000000 
  98      00000000 
  99              	.previous
 100              	.section .bss
 101              	_WavFile:
 102 0164 00000000 	.align 3
 103 0168 00000000 	.space 56
 103      00000000 
 103      00000000 
 103      00000000 
 103      00000000 
 104              	.previous
 105              	.section .bss,"aw",@nobits
 106 01a0 00000000 	.align 6
 106      00000000 
 106      00000000 
 106      00000000 
 106      00000000 
 107              	.type _RomData,@object
 108              	.size _RomData,4195328
 109              	_RomData:
 110 01c0 00000000 	.space 4195328
 110      00000000 
 110      00000000 
 110      00000000 
 110      00000000 
 111              	.section .bss
 112              	_SnesState:
 113              	.align 3
 114 4005c0 00000000 	.space 526572
 114      00000000 
 114      00000000 
 114      00000000 
 114      00000000 
 115              	.previous
 116              	.section .bss
 117              	_NesState:
 118 480eac 00000000 	.align 3
 119 480eb0 00000000 	.space 23532
 119      00000000 
 119      00000000 
 119      00000000 
 119      00000000 
 120              	.previous
 121              	.section .bss
 122              	s_pMovieClip:
 123              	.align 2
 124 486a9c 00000000 	.space 4
 125              	.previous
 126              	.section .bss
 127              	_MainLoop_SRAMChecksum:
 128              	.align 2
 129 486aa0 00000000 	.space 4
 130              	.previous
 131              	.data
 132              	.align 2
 133              	.type _MainLoop_SaveCounter,@object
GAS LISTING  			page 4


 134              	.size _MainLoop_SaveCounter,4
 135              	_MainLoop_SaveCounter:
 136 0114 00000000 	.word 0
 137              	.align 2
 138              	.type _MainLoop_AutoSaveTime,@object
 139              	.size _MainLoop_AutoSaveTime,4
 140              	_MainLoop_AutoSaveTime:
 141 0118 E0010000 	.word 480
 142              	.type _MainLoop_SRAMUpdated,@object
 143              	.size _MainLoop_SRAMUpdated,1
 144              	_MainLoop_SRAMUpdated:
 145 011c 00       	.byte 0
 146              	.type _bStateSaved,@object
 147              	.size _bStateSaved,1
 148              	_bStateSaved:
 149 011d 00       	.byte 0
 150 011e 0000     	.align 2
 151              	.type _MainLoop_fOutputIntensity,@object
 152              	.size _MainLoop_fOutputIntensity,4
 153              	_MainLoop_fOutputIntensity:
 154 0120 CDCC4C3F 	.word 1061997773
 155              	.section .bss
 156 486aa4 00000000 	.align 7
 156      00000000 
 156      00000000 
 156      00000000 
 156      00000000 
 157              	.type _MainLoop_GfxPipe,@object
 158              	.size _MainLoop_GfxPipe,262144
 159              	_MainLoop_GfxPipe:
 160 486b00 00000000 	.space 262144
 160      00000000 
 160      00000000 
 160      00000000 
 160      00000000 
 161              	.section .bss
 162              	_SJPCMMix:
 163              	.align 2
 164 4c6b00 00000000 	.space 4
 165              	.previous
 166              	.data
 167              	.align 2
 168              	.type _pRomFile,@object
 169              	.size _pRomFile,4
 170              	_pRomFile:
 171 0124 00000000 	.word 0
 172              	.type _bMenu,@object
 173              	.size _bMenu,1
 174              	_bMenu:
 175 0128 00       	.byte 0
 176              	.section .bss
 177              	_MainLoop_ModalStr:
 178 4c6b04 00000000 	.align 3
 179 4c6b08 00000000 	.space 256
 179      00000000 
 179      00000000 
 179      00000000 
GAS LISTING  			page 5


 179      00000000 
 180              	.previous
 181 0129 000000   	.align 2
 182              	.type _MainLoop_ModalCount,@object
 183              	.size _MainLoop_ModalCount,4
 184              	_MainLoop_ModalCount:
 185 012c 00000000 	.word 0
 186              	.section .bss
 187              	_MainLoop_StatusStr:
 188              	.align 3
 189 4c6c08 00000000 	.space 256
 189      00000000 
 189      00000000 
 189      00000000 
 189      00000000 
 190              	.previous
 191              	.align 2
 192              	.type _MainLoop_StatusCount,@object
 193              	.size _MainLoop_StatusCount,4
 194              	_MainLoop_StatusCount:
 195 0130 00000000 	.word 0
 196              	.type _MainLoop_BlackScreen,@object
 197              	.size _MainLoop_BlackScreen,1
 198              	_MainLoop_BlackScreen:
 199 0134 00       	.byte 0
 200 0135 000000   	.align 2
 201              	.type _MainLoop_uDebugDisplay,@object
 202              	.size _MainLoop_uDebugDisplay,4
 203              	_MainLoop_uDebugDisplay:
 204 0138 00000000 	.word 0
 205              	.text
 206              	.align 2
 207              	.p2align 3,,7
 208              	.globl _Z19MainLoopModalPrintfiPcz
 209              	.ent _Z19MainLoopModalPrintfiPcz
 210              	_Z19MainLoopModalPrintfiPcz:
 211              	.frame $sp,112,$31
 212              	.mask 0x80010000,-96
 213              	.fmask 0x00000000,0
 214 0000 90FFBD27 	subu $sp,$sp,112
 215 0004 0000B0FF 	sd $16,0($sp)
 216 0008 2D808000 	move $16,$4
 217 000c 4C00043C 	lui $4,%hi(_MainLoop_ModalStr)
 218 0010 4000A6FF 	sd $6,64($sp)
 219 0014 086B8424 	addiu $4,$4,%lo(_MainLoop_ModalStr)
 220 0018 4000A627 	addu $6,$sp,64
 221 001c 1000BFFF 	sd $31,16($sp)
 222 0020 4800A7FF 	sd $7,72($sp)
 223 0024 5000A8FF 	sd $8,80($sp)
 224 0028 5800A9FF 	sd $9,88($sp)
 225 002c 6000AAFF 	sd $10,96($sp)
 226 0030 6800ABFF 	sd $11,104($sp)
 227 0034 3000ACE7 	s.s $f12,48($sp)
 228 0038 3400AEE7 	s.s $f14,52($sp)
 229 003c 3800B0E7 	s.s $f16,56($sp)
 230              	.set noreorder
 231              	.set nomacro
GAS LISTING  			page 6


 232 0040 0000000C 	jal vsprintf
 233 0044 3C00B2E7 	s.s $f18,60($sp)
 234              	.set macro
 235              	.set reorder
 236              	
 237 0048 0000033C 	lui $3,%hi(_MainLoop_ModalCount)
 238              	.set noreorder
 239              	.set nomacro
 240 004c 0600001A 	blez $16,$L7
 241 0050 2C0170AC 	sw $16,%lo(_MainLoop_ModalCount)($3)
 242              	.set macro
 243              	.set reorder
 244              	
 245 0054 00000000 	.p2align 3
 246              	$L5:
 247              	.set noreorder
 248              	.set nomacro
 249 0058 0000000C 	jal _Z14MainLoopRenderv
 250 005c FFFF1026 	addu $16,$16,-1
 251              	.set macro
 252              	.set reorder
 253              	
 254 0060 FDFF001E 	bgtz $16,$L5
 254      00000000 
 255              	$L7:
 256 0068 1000BFDF 	ld $31,16($sp)
 257 006c 0000B0DF 	ld $16,0($sp)
 258              	
 259              	.set noreorder
 260              	.set nomacro
 261 0070 0800E003 	j $31
 262 0074 7000BD27 	addu $sp,$sp,112
 263              	.set macro
 264              	.set reorder
 265              	
 266              	.end _Z19MainLoopModalPrintfiPcz
 267              	$Lfe1:
 268              	.size _Z19MainLoopModalPrintfiPcz,$Lfe1-_Z19MainLoopModalPrintfiPcz
 269              	.align 2
 270              	.p2align 3,,7
 271              	.globl _Z20MainLoopStatusPrintfiPcz
 272              	.ent _Z20MainLoopStatusPrintfiPcz
 273              	_Z20MainLoopStatusPrintfiPcz:
 274              	.frame $sp,112,$31
 275              	.mask 0x80010000,-96
 276              	.fmask 0x00000000,0
 277 0078 90FFBD27 	subu $sp,$sp,112
 278 007c 0000B0FF 	sd $16,0($sp)
 279 0080 2D808000 	move $16,$4
 280 0084 4C00043C 	lui $4,%hi(_MainLoop_StatusStr)
 281 0088 4000A6FF 	sd $6,64($sp)
 282 008c 086C8424 	addiu $4,$4,%lo(_MainLoop_StatusStr)
 283 0090 4000A627 	addu $6,$sp,64
 284 0094 1000BFFF 	sd $31,16($sp)
 285 0098 4800A7FF 	sd $7,72($sp)
 286 009c 5000A8FF 	sd $8,80($sp)
 287 00a0 5800A9FF 	sd $9,88($sp)
GAS LISTING  			page 7


 288 00a4 6000AAFF 	sd $10,96($sp)
 289 00a8 6800ABFF 	sd $11,104($sp)
 290 00ac 3000ACE7 	s.s $f12,48($sp)
 291 00b0 3400AEE7 	s.s $f14,52($sp)
 292 00b4 3800B0E7 	s.s $f16,56($sp)
 293              	.set noreorder
 294              	.set nomacro
 295 00b8 0000000C 	jal vsprintf
 296 00bc 3C00B2E7 	s.s $f18,60($sp)
 297              	.set macro
 298              	.set reorder
 299              	
 300 00c0 0000033C 	lui $3,%hi(_MainLoop_StatusCount)
 301 00c4 1000BFDF 	ld $31,16($sp)
 302 00c8 300170AC 	sw $16,%lo(_MainLoop_StatusCount)($3)
 303 00cc 0000B0DF 	ld $16,0($sp)
 304              	
 305              	.set noreorder
 306              	.set nomacro
 307 00d0 0800E003 	j $31
 308 00d4 7000BD27 	addu $sp,$sp,112
 309              	.set macro
 310              	.set reorder
 311              	
 312              	.end _Z20MainLoopStatusPrintfiPcz
 313              	$Lfe2:
 314              	.size _Z20MainLoopStatusPrintfiPcz,$Lfe2-_Z20MainLoopStatusPrintfiPcz
 315              	.align 2
 316              	.p2align 3,,7
 317              	.globl _Z9ScrPrintfPcz
 318              	.ent _Z9ScrPrintfPcz
 319              	_Z9ScrPrintfPcz:
 320              	.frame $sp,368,$31
 321              	.mask 0x80000000,-112
 322              	.fmask 0x00000000,0
 323 00d8 90FEBD27 	subu $sp,$sp,368
 324 00dc 2D108000 	move $2,$4
 325 00e0 3801A5FF 	sd $5,312($sp)
 326 00e4 2D20A003 	move $4,$sp
 327 00e8 4001A6FF 	sd $6,320($sp)
 328 00ec 2D284000 	move $5,$2
 329 00f0 3801A627 	addu $6,$sp,312
 330 00f4 0001BFFF 	sd $31,256($sp)
 331 00f8 4801A7FF 	sd $7,328($sp)
 332 00fc 5001A8FF 	sd $8,336($sp)
 333 0100 5801A9FF 	sd $9,344($sp)
 334 0104 6001AAFF 	sd $10,352($sp)
 335 0108 6801ABFF 	sd $11,360($sp)
 336 010c 2801ACE7 	s.s $f12,296($sp)
 337 0110 2C01AEE7 	s.s $f14,300($sp)
 338 0114 3001B0E7 	s.s $f16,304($sp)
 339              	.set noreorder
 340              	.set nomacro
 341 0118 0000000C 	jal vsprintf
 342 011c 3401B2E7 	s.s $f18,308($sp)
 343              	.set macro
 344              	.set reorder
GAS LISTING  			page 8


 345              	
 346 0120 0000023C 	lui $2,%hi(_MainLoop_pLogScreen)
 347 0124 2D28A003 	move $5,$sp
 348 0128 0C00438C 	lw $3,%lo(_MainLoop_pLogScreen)($2)
 349              	
 350              	.set noreorder
 351              	.set nomacro
 352 012c 06006014 	bne $3,$0,$L11
 353 0130 2D206000 	move $4,$3
 354              	.set macro
 355              	.set reorder
 356              	
 357              	$L10:
 358 0134 0000000C 	jal _Z14MainLoopRenderv
 358      00000000 
 359 013c 0001BFDF 	ld $31,256($sp)
 360              	
 361              	.set noreorder
 362              	.set nomacro
 363 0140 0800E003 	j $31
 364 0144 7001BD27 	addu $sp,$sp,368
 365              	.set macro
 366              	.set reorder
 367              	
 368              	.p2align 3
 369              	$L11:
 370 0148 0000000C 	jal _ZN10CLogScreen10AddMessageEPc
 370      00000000 
 371 0150 F8FF0010 	b $L10
 371      00000000 
 372              	.end _Z9ScrPrintfPcz
 373              	$Lfe3:
 374              	.size _Z9ScrPrintfPcz,$Lfe3-_Z9ScrPrintfPcz
 375              	.align 2
 376              	.p2align 3,,7
 377              	.ent _Z13_PathCalcHashPc
 378              	_Z13_PathCalcHashPc:
 379              	.frame $sp,0,$31
 380              	.mask 0x00000000,0
 381              	.fmask 0x00000000,0
 382 0158 00008590 	lbu $5,0($4)
 383              	
 384 015c 00360500 	sll $6,$5,24
 385              	.set noreorder
 386              	.set nomacro
 387 0160 0900C010 	beq $6,$0,$L18
 388 0164 2D380000 	move $7,$0
 389              	.set macro
 390              	.set reorder
 391              	
 392              	.p2align 3
 393              	$L16:
 394 0168 01008424 	addu $4,$4,1
 395 016c 40110700 	sll $2,$7,5
 396 0170 00008590 	lbu $5,0($4)
 397 0174 031E0600 	sra $3,$6,24
 398 0178 21384700 	addu $7,$2,$7
GAS LISTING  			page 9


 399 017c 00360500 	sll $6,$5,24
 400              	.set noreorder
 401              	.set nomacro
 402 0180 F9FFC014 	bne $6,$0,$L16
 403 0184 2138E300 	addu $7,$7,$3
 404              	.set macro
 405              	.set reorder
 406              	
 407              	$L18:
 408              	.set noreorder
 409              	.set nomacro
 410 0188 0800E003 	j $31
 411 018c 2D10E000 	move $2,$7
 412              	.set macro
 413              	.set reorder
 414              	
 415              	.end _Z13_PathCalcHashPc
 416              	$Lfe4:
 417              	.size _Z13_PathCalcHashPc,$Lfe4-_Z13_PathCalcHashPc
 418              	.rdata
 419              	.align 3
 420              	$LC0:
 421 0000 25303364 	.ascii "%03d\000"
 421      00
 422              	.text
 423              	.align 2
 424              	.p2align 3,,7
 425              	.globl _Z17PathTruncFileNamePcS_i
 426              	.ent _Z17PathTruncFileNamePcS_i
 427              	_Z17PathTruncFileNamePcS_i:
 428              	.frame $sp,64,$31
 429              	.mask 0x80070000,-16
 430              	.fmask 0x00000000,0
 431 0190 C0FFBD27 	subu $sp,$sp,64
 432 0194 2000B2FF 	sd $18,32($sp)
 433 0198 2D908000 	move $18,$4
 434 019c 2D20A000 	move $4,$5
 435 01a0 1000B1FF 	sd $17,16($sp)
 436 01a4 0000B0FF 	sd $16,0($sp)
 437 01a8 2D88C000 	move $17,$6
 438 01ac 3000BFFF 	sd $31,48($sp)
 439              	.set noreorder
 440              	.set nomacro
 441 01b0 5600000C 	jal _Z13_PathCalcHashPc
 442 01b4 2D80A000 	move $16,$5
 443              	.set macro
 444              	.set reorder
 445              	
 446 01b8 2D304000 	move $6,$2
 447 01bc 00000282 	lb $2,0($16)
 448              	
 449              	.set noreorder
 450              	.set nomacro
 451 01c0 0C004010 	beq $2,$0,$L21
 452 01c4 00000392 	lbu $3,0($16)
 453              	.set macro
 454              	.set reorder
GAS LISTING  			page 10


 455              	
 456              	.set noreorder
 457              	.set nomacro
 458 01c8 1200205A 	blezl $17,$L27
 459 01cc 000040A2 	sb $0,0($18)
 460              	.set macro
 461              	.set reorder
 462              	
 463 01d0 000043A2 	sb $3,0($18)
 464              	$L29:
 465 01d4 01001026 	addu $16,$16,1
 466 01d8 FFFF3126 	addu $17,$17,-1
 467 01dc 01005226 	addu $18,$18,1
 468 01e0 00000282 	lb $2,0($16)
 469              	
 470              	.set noreorder
 471              	.set nomacro
 472 01e4 03004010 	beq $2,$0,$L21
 473 01e8 00000392 	lbu $3,0($16)
 474              	.set macro
 475              	.set reorder
 476              	
 477              	.set noreorder
 478              	.set nomacro
 479 01ec F9FF205E 	bgtzl $17,$L29
 480 01f0 000043A2 	sb $3,0($18)
 481              	.set macro
 482              	.set reorder
 483              	
 484              	$L21:
 485              	.set noreorder
 486              	.set nomacro
 487 01f4 0700201A 	blez $17,$L27
 488 01f8 000040A2 	sb $0,0($18)
 489              	.set macro
 490              	.set reorder
 491              	
 492 01fc 3000BFDF 	ld $31,48($sp)
 493              	$L28:
 494 0200 2000B2DF 	ld $18,32($sp)
 495 0204 1000B1DF 	ld $17,16($sp)
 496 0208 0000B0DF 	ld $16,0($sp)
 497              	
 498              	.set noreorder
 499              	.set nomacro
 500 020c 0800E003 	j $31
 501 0210 4000BD27 	addu $sp,$sp,64
 502              	.set macro
 503              	.set reorder
 504              	
 505              	$L27:
 506 0214 E8030224 	li $2,1000
 507 0218 0000053C 	lui $5,%hi($LC0)
 508 021c 1B00C200 	divu $0,$6,$2
 509 0220 FDFF4426 	addu $4,$18,-3
 510 0224 0000A524 	addiu $5,$5,%lo($LC0)
 511              	.set noreorder
GAS LISTING  			page 11


 512 0228 01004050 	beql $2,$0,1f
 513 022c CD010000 	break 7
 514              	1:
 515              	.set reorder
 516 0230 10300000 	mfhi $6
 517              	
 518 0234 0000000C 	jal sprintf
 518      00000000 
 519              	.set noreorder
 520              	.set nomacro
 521 023c F0FF0010 	b $L28
 522 0240 3000BFDF 	ld $31,48($sp)
 523              	.set macro
 524              	.set reorder
 525              	
 526              	.end _Z17PathTruncFileNamePcS_i
 527              	$Lfe5:
 528              	.size _Z17PathTruncFileNamePcS_i,$Lfe5-_Z17PathTruncFileNamePcS_i
 529              	.align 2
 530 0244 00000000 	.p2align 3,,7
 531              	.globl _Z24PathGetMaxFileNameLengthPKc
 532              	.ent _Z24PathGetMaxFileNameLengthPKc
 533              	_Z24PathGetMaxFileNameLengthPKc:
 534              	.frame $sp,0,$31
 535              	.mask 0x00000000,0
 536              	.fmask 0x00000000,0
 537 0248 00008380 	lb $3,0($4)
 538 024c 6D000224 	li $2,109
 539              	.set noreorder
 540              	.set nomacro
 541 0250 05006210 	beq $3,$2,$L32
 542 0254 20000524 	li $5,32
 543              	.set macro
 544              	.set reorder
 545              	
 546 0258 00010524 	li $5,256
 547              	$L33:
 548              	.set noreorder
 549              	.set nomacro
 550 025c 0800E003 	j $31
 551 0260 2D10A000 	move $2,$5
 552              	.set macro
 553              	.set reorder
 554              	
 555 0264 00000000 	.p2align 3
 556              	$L32:
 557 0268 01008380 	lb $3,1($4)
 558 026c 63000224 	li $2,99
 559              	.set noreorder
 560              	.set nomacro
 561 0270 FAFF6254 	bnel $3,$2,$L33
 562 0274 00010524 	li $5,256
 563              	.set macro
 564              	.set reorder
 565              	
 566 0278 F8FF0010 	b $L33
 566      00000000 
GAS LISTING  			page 12


 567              	.end _Z24PathGetMaxFileNameLengthPKc
 568              	$Lfe6:
 569              	.size _Z24PathGetMaxFileNameLengthPKc,$Lfe6-_Z24PathGetMaxFileNameLengthPKc
 570              	.align 2
 571              	.p2align 3,,7
 572              	.ent _Z16_MainLoopGetNamePcS_
 573              	_Z16_MainLoopGetNamePcS_:
 574              	.frame $sp,48,$31
 575              	.mask 0x80030000,-16
 576              	.fmask 0x00000000,0
 577 0280 D0FFBD27 	subu $sp,$sp,48
 578 0284 0000B0FF 	sd $16,0($sp)
 579 0288 2D80A000 	move $16,$5
 580 028c 1000B1FF 	sd $17,16($sp)
 581 0290 2F000524 	li $5,47
 582 0294 2D888000 	move $17,$4
 583 0298 2000BFFF 	sd $31,32($sp)
 584              	.set noreorder
 585              	.set nomacro
 586 029c 0000000C 	jal strrchr
 587 02a0 2D200002 	move $4,$16
 588              	.set macro
 589              	.set reorder
 590              	
 591 02a4 2D202002 	move $4,$17
 592 02a8 01004324 	addu $3,$2,1
 593 02ac 0B806200 	movn $16,$3,$2
 594              	.set noreorder
 595              	.set nomacro
 596 02b0 0000000C 	jal strcpy
 597 02b4 2D280002 	move $5,$16
 598              	.set macro
 599              	.set reorder
 600              	
 601 02b8 0000B0DF 	ld $16,0($sp)
 602 02bc 2000BFDF 	ld $31,32($sp)
 603 02c0 1000B1DF 	ld $17,16($sp)
 604              	
 605              	.set noreorder
 606              	.set nomacro
 607 02c4 0800E003 	j $31
 608 02c8 3000BD27 	addu $sp,$sp,48
 609              	.set macro
 610              	.set reorder
 611              	
 612              	.end _Z16_MainLoopGetNamePcS_
 613              	$Lfe7:
 614              	.size _Z16_MainLoopGetNamePcS_,$Lfe7-_Z16_MainLoopGetNamePcS_
 615              	.align 2
 616 02cc 00000000 	.p2align 3,,7
 617              	.ent _Z13_CalcChecksumPjj
 618              	_Z13_CalcChecksumPjj:
 619              	.frame $sp,0,$31
 620              	.mask 0x00000000,0
 621              	.fmask 0x00000000,0
 622              	.set noreorder
 623              	.set nomacro
GAS LISTING  			page 13


 624 02d0 0900A010 	beq $5,$0,$L43
 625 02d4 2D180000 	move $3,$0
 626              	.set macro
 627              	.set reorder
 628              	
 629              	.p2align 3
 630              	$L41:
 631 02d8 0000828C 	lw $2,0($4)
 632 02dc FFFFA524 	addu $5,$5,-1
 633 02e0 04008424 	addu $4,$4,4
 634              	.set noreorder
 635 02e4 00000000 	nop
 636              	.set reorder
 637              	.set noreorder
 638 02e8 00000000 	nop
 639              	.set reorder
 640              	.set noreorder
 641 02ec 00000000 	nop
 642              	.set reorder
 643              	.set noreorder
 644              	.set nomacro
 645 02f0 F9FFA014 	bne $5,$0,$L41
 646 02f4 21186200 	addu $3,$3,$2
 647              	.set macro
 648              	.set reorder
 649              	
 650              	$L43:
 651              	.set noreorder
 652              	.set nomacro
 653 02f8 0800E003 	j $31
 654 02fc 2D106000 	move $2,$3
 655              	.set macro
 656              	.set reorder
 657              	
 658              	.end _Z13_CalcChecksumPjj
 659              	$Lfe8:
 660              	.size _Z13_CalcChecksumPjj,$Lfe8-_Z13_CalcChecksumPjj
 661              	.align 2
 662              	.p2align 3,,7
 663              	.ent _Z16_MainLoopHasSRAMv
 664              	_Z16_MainLoopHasSRAMv:
 665              	.frame $sp,16,$31
 666              	.mask 0x80000000,-16
 667              	.fmask 0x00000000,0
 668 0300 F0FFBD27 	subu $sp,$sp,16
 669 0304 0000023C 	lui $2,%hi(_pSystem)
 670 0308 0000BFFF 	sd $31,0($sp)
 671 030c 2D280000 	move $5,$0
 672 0310 2801438C 	lw $3,%lo(_pSystem)($2)
 673              	
 674              	.set noreorder
 675              	.set nomacro
 676 0314 06006014 	bne $3,$0,$L47
 677 0318 2D206000 	move $4,$3
 678              	.set macro
 679              	.set reorder
 680              	
GAS LISTING  			page 14


 681              	$L46:
 682 031c 0000BFDF 	ld $31,0($sp)
 683 0320 2D10A000 	move $2,$5
 684              	.set noreorder
 685              	.set nomacro
 686 0324 0800E003 	j $31
 687 0328 1000BD27 	addu $sp,$sp,16
 688              	.set macro
 689              	.set reorder
 690              	
 691 032c 00000000 	.p2align 3
 692              	$L47:
 693 0330 0000638C 	lw $3,0($3)
 694              	
 695 0334 2400628C 	lw $2,36($3)
 696              	
 697 0338 09F84000 	jal $31,$2
 697      00000000 
 698              	.set noreorder
 699              	.set nomacro
 700 0340 F6FF0010 	b $L46
 701 0344 2A280200 	slt $5,$0,$2
 702              	.set macro
 703              	.set reorder
 704              	
 705              	.end _Z16_MainLoopHasSRAMv
 706              	$Lfe9:
 707              	.size _Z16_MainLoopHasSRAMv,$Lfe9-_Z16_MainLoopHasSRAMv
 708              	.rdata
 709 0005 000000   	.align 3
 710              	$LC1:
 711 0008 25732F25 	.ascii "%s/%s.%s\000"
 711      732E2573 
 711      00
 712              	.text
 713              	.align 2
 714              	.p2align 3,,7
 715              	.ent _Z17_MainLoopSaveSRAMh
 716              	_Z17_MainLoopSaveSRAMh:
 717              	.frame $sp,640,$31
 718              	.mask 0x803f0000,-16
 719              	.fmask 0x00000000,0
 720 0348 80FDBD27 	subu $sp,$sp,640
 721 034c 0000023C 	lui $2,%hi(_pSystem)
 722 0350 6002B5FF 	sd $21,608($sp)
 723 0354 FF009530 	andi $21,$4,0x00ff
 724 0358 3002B2FF 	sd $18,560($sp)
 725 035c 2D900000 	move $18,$0
 726 0360 7002BFFF 	sd $31,624($sp)
 727 0364 5002B4FF 	sd $20,592($sp)
 728 0368 4002B3FF 	sd $19,576($sp)
 729 036c 2002B1FF 	sd $17,544($sp)
 730 0370 1002B0FF 	sd $16,528($sp)
 731 0374 2801438C 	lw $3,%lo(_pSystem)($2)
 732              	
 733              	.set noreorder
 734              	.set nomacro
GAS LISTING  			page 15


 735 0378 3B006014 	bne $3,$0,$L53
 736 037c 2D206000 	move $4,$3
 737              	.set macro
 738              	.set reorder
 739              	
 740 0380 0000133C 	lui $19,%hi(_pSystem)
 741              	$L55:
 742              	.set noreorder
 743              	.set nomacro
 744 0384 3600401A 	blez $18,$L51
 745 0388 0001B427 	addu $20,$sp,256
 746              	.set macro
 747              	.set reorder
 748              	
 749 038c 2801648E 	lw $4,%lo(_pSystem)($19)
 750 0390 0000103C 	lui $16,%hi(_SramPath)
 751 0394 0000838C 	lw $3,0($4)
 752              	
 753 0398 2800628C 	lw $2,40($3)
 754              	
 755              	.set noreorder
 756              	.set nomacro
 757 039c 09F84000 	jal $31,$2
 758 03a0 10001026 	addiu $16,$16,%lo(_SramPath)
 759              	.set macro
 760              	.set reorder
 761              	
 762 03a4 2D200002 	move $4,$16
 763              	.set noreorder
 764              	.set nomacro
 765 03a8 0000000C 	jal _Z24PathGetMaxFileNameLengthPKc
 766 03ac 2D884000 	move $17,$2
 767              	.set macro
 768              	.set reorder
 769              	
 770 03b0 FCFF4224 	addu $2,$2,-4
 771 03b4 0000053C 	lui $5,%hi(_RomName)
 772 03b8 2D304000 	move $6,$2
 773 03bc 2D208002 	move $4,$20
 774              	.set noreorder
 775              	.set nomacro
 776 03c0 0000000C 	jal _Z17PathTruncFileNamePcS_i
 777 03c4 2800A524 	addiu $5,$5,%lo(_RomName)
 778              	.set macro
 779              	.set reorder
 780              	
 781 03c8 2801648E 	lw $4,%lo(_pSystem)($19)
 782              	
 783 03cc 0000838C 	lw $3,0($4)
 784              	
 785 03d0 2C00628C 	lw $2,44($3)
 786              	
 787              	.set noreorder
 788              	.set nomacro
 789 03d4 09F84000 	jal $31,$2
 790 03d8 02000524 	li $5,2
 791              	.set macro
GAS LISTING  			page 16


 792              	.set reorder
 793              	
 794 03dc 2D20A003 	move $4,$sp
 795 03e0 0000053C 	lui $5,%hi($LC1)
 796 03e4 2D388002 	move $7,$20
 797 03e8 2D404000 	move $8,$2
 798 03ec 2D300002 	move $6,$16
 799              	.set noreorder
 800              	.set nomacro
 801 03f0 0000000C 	jal sprintf
 802 03f4 0800A524 	addiu $5,$5,%lo($LC1)
 803              	.set macro
 804              	.set reorder
 805              	
 806 03f8 01000424 	li $4,1
 807              	.set noreorder
 808              	.set nomacro
 809 03fc 0000000C 	jal MCSave_WriteSync
 810 0400 2D280000 	move $5,$0
 811              	.set macro
 812              	.set reorder
 813              	
 814 0404 2D304002 	move $6,$18
 815 0408 2D20A003 	move $4,$sp
 816              	.set noreorder
 817              	.set nomacro
 818 040c 0000000C 	jal MCSave_Write
 819 0410 2D282002 	move $5,$17
 820              	.set macro
 821              	.set reorder
 822              	
 823 0414 01000224 	li $2,1
 824 0418 0002A527 	addu $5,$sp,512
 825              	.set noreorder
 826              	.set nomacro
 827 041c 0A00A016 	bne $21,$0,$L54
 828 0420 01000424 	li $4,1
 829              	.set macro
 830              	.set reorder
 831              	
 832              	$L48:
 833 0424 7002BFDF 	ld $31,624($sp)
 834 0428 6002B5DF 	ld $21,608($sp)
 835 042c 5002B4DF 	ld $20,592($sp)
 836 0430 4002B3DF 	ld $19,576($sp)
 837 0434 3002B2DF 	ld $18,560($sp)
 838 0438 2002B1DF 	ld $17,544($sp)
 839 043c 1002B0DF 	ld $16,528($sp)
 840              	
 841              	.set noreorder
 842              	.set nomacro
 843 0440 0800E003 	j $31
 844 0444 8002BD27 	addu $sp,$sp,640
 845              	.set macro
 846              	.set reorder
 847              	
 848              	.p2align 3
GAS LISTING  			page 17


 849              	$L54:
 850 0448 0000000C 	jal MCSave_WriteSync
 850      00000000 
 851 0450 0002A38F 	lw $3,512($sp)
 852              	.set noreorder
 853              	.set nomacro
 854 0454 F3FF0010 	b $L48
 855 0458 2B100300 	sltu $2,$0,$3
 856              	.set macro
 857              	.set reorder
 858              	
 859 045c 00000000 	.p2align 3
 860              	$L51:
 861              	.set noreorder
 862              	.set nomacro
 863 0460 F0FF0010 	b $L48
 864 0464 2D100000 	move $2,$0
 865              	.set macro
 866              	.set reorder
 867              	
 868              	.p2align 3
 869              	$L53:
 870 0468 0000638C 	lw $3,0($3)
 871              	
 872 046c 2400628C 	lw $2,36($3)
 873              	
 874              	.set noreorder
 875              	.set nomacro
 876 0470 09F84000 	jal $31,$2
 877 0474 0000133C 	lui $19,%hi(_pSystem)
 878              	.set macro
 879              	.set reorder
 880              	
 881              	.set noreorder
 882              	.set nomacro
 883 0478 C2FF0010 	b $L55
 884 047c 2D904000 	move $18,$2
 885              	.set macro
 886              	.set reorder
 887              	
 888              	.end _Z17_MainLoopSaveSRAMh
 889              	$Lfe10:
 890              	.size _Z17_MainLoopSaveSRAMh,$Lfe10-_Z17_MainLoopSaveSRAMh
 891              	.rdata
 892 0011 00000000 	.align 3
 892      000000
 893              	$LC2:
 894 0018 5352414D 	.ascii "SRAM loaded: %s\n\000"
 894      206C6F61 
 894      6465643A 
 894      2025730A 
 894      00
 895              	.text
 896              	.align 2
 897              	.p2align 3,,7
 898              	.ent _Z17_MainLoopLoadSRAMv
 899              	_Z17_MainLoopLoadSRAMv:
GAS LISTING  			page 18


 900              	.frame $sp,608,$31
 901              	.mask 0x801f0000,-16
 902              	.fmask 0x00000000,0
 903 0480 A0FDBD27 	subu $sp,$sp,608
 904 0484 0000023C 	lui $2,%hi(_pSystem)
 905 0488 2002B2FF 	sd $18,544($sp)
 906 048c 2D900000 	move $18,$0
 907 0490 5002BFFF 	sd $31,592($sp)
 908 0494 4002B4FF 	sd $20,576($sp)
 909 0498 3002B3FF 	sd $19,560($sp)
 910 049c 1002B1FF 	sd $17,528($sp)
 911 04a0 0002B0FF 	sd $16,512($sp)
 912 04a4 2801438C 	lw $3,%lo(_pSystem)($2)
 913              	
 914              	.set noreorder
 915              	.set nomacro
 916 04a8 3F006014 	bne $3,$0,$L62
 917 04ac 2D206000 	move $4,$3
 918              	.set macro
 919              	.set reorder
 920              	
 921 04b0 0000133C 	lui $19,%hi(_pSystem)
 922              	$L64:
 923              	.set noreorder
 924              	.set nomacro
 925 04b4 2500401A 	blez $18,$L59
 926 04b8 0001B427 	addu $20,$sp,256
 927              	.set macro
 928              	.set reorder
 929              	
 930 04bc 2801648E 	lw $4,%lo(_pSystem)($19)
 931 04c0 0000103C 	lui $16,%hi(_SramPath)
 932 04c4 0000838C 	lw $3,0($4)
 933              	
 934 04c8 2800628C 	lw $2,40($3)
 935              	
 936              	.set noreorder
 937              	.set nomacro
 938 04cc 09F84000 	jal $31,$2
 939 04d0 10001026 	addiu $16,$16,%lo(_SramPath)
 940              	.set macro
 941              	.set reorder
 942              	
 943 04d4 2D200002 	move $4,$16
 944              	.set noreorder
 945              	.set nomacro
 946 04d8 0000000C 	jal _Z24PathGetMaxFileNameLengthPKc
 947 04dc 2D884000 	move $17,$2
 948              	.set macro
 949              	.set reorder
 950              	
 951 04e0 FCFF4224 	addu $2,$2,-4
 952 04e4 0000053C 	lui $5,%hi(_RomName)
 953 04e8 2D304000 	move $6,$2
 954 04ec 2D208002 	move $4,$20
 955              	.set noreorder
 956              	.set nomacro
GAS LISTING  			page 19


 957 04f0 0000000C 	jal _Z17PathTruncFileNamePcS_i
 958 04f4 2800A524 	addiu $5,$5,%lo(_RomName)
 959              	.set macro
 960              	.set reorder
 961              	
 962 04f8 2801648E 	lw $4,%lo(_pSystem)($19)
 963              	
 964 04fc 0000838C 	lw $3,0($4)
 965              	
 966 0500 2C00628C 	lw $2,44($3)
 967              	
 968              	.set noreorder
 969              	.set nomacro
 970 0504 09F84000 	jal $31,$2
 971 0508 02000524 	li $5,2
 972              	.set macro
 973              	.set reorder
 974              	
 975 050c 2D20A003 	move $4,$sp
 976 0510 0000053C 	lui $5,%hi($LC1)
 977 0514 2D388002 	move $7,$20
 978 0518 2D404000 	move $8,$2
 979 051c 2D300002 	move $6,$16
 980              	.set noreorder
 981              	.set nomacro
 982 0520 0000000C 	jal sprintf
 983 0524 0800A524 	addiu $5,$5,%lo($LC1)
 984              	.set macro
 985              	.set reorder
 986              	
 987 0528 2D304002 	move $6,$18
 988 052c 2D20A003 	move $4,$sp
 989              	.set noreorder
 990              	.set nomacro
 991 0530 0000000C 	jal _Z15MemCardReadFilePcPhj
 992 0534 2D282002 	move $5,$17
 993              	.set macro
 994              	.set reorder
 995              	
 996 0538 83281200 	sra $5,$18,2
 997              	.set noreorder
 998              	.set nomacro
 999 053c 10004014 	bne $2,$0,$L63
 1000 0540 2D202002 	move $4,$17
 1001              	.set macro
 1002              	.set reorder
 1003              	
 1004 0544 0000023C 	lui $2,%hi(_MainLoop_SRAMUpdated)
 1005              	$L65:
 1006 0548 1C0140A0 	sb $0,%lo(_MainLoop_SRAMUpdated)($2)
 1007              	$L59:
 1008 054c 5002BFDF 	ld $31,592($sp)
 1009 0550 0000023C 	lui $2,%hi(_MainLoop_SaveCounter)
 1010 0554 4002B4DF 	ld $20,576($sp)
 1011 0558 0000033C 	lui $3,%hi(_bStateSaved)
 1012 055c 3002B3DF 	ld $19,560($sp)
 1013 0560 2002B2DF 	ld $18,544($sp)
GAS LISTING  			page 20


 1014 0564 1002B1DF 	ld $17,528($sp)
 1015 0568 0002B0DF 	ld $16,512($sp)
 1016 056c 140140AC 	sw $0,%lo(_MainLoop_SaveCounter)($2)
 1017 0570 1D0160A0 	sb $0,%lo(_bStateSaved)($3)
 1018              	.set noreorder
 1019              	.set nomacro
 1020 0574 0800E003 	j $31
 1021 0578 6002BD27 	addu $sp,$sp,608
 1022              	.set macro
 1023              	.set reorder
 1024              	
 1025 057c 00000000 	.p2align 3
 1026              	$L63:
 1027 0580 B400000C 	jal _Z13_CalcChecksumPjj
 1027      00000000 
 1028 0588 0000043C 	lui $4,%hi($LC2)
 1029 058c 4800033C 	lui $3,%hi(_MainLoop_SRAMChecksum)
 1030 0590 2D28A003 	move $5,$sp
 1031 0594 18008424 	addiu $4,$4,%lo($LC2)
 1032              	.set noreorder
 1033              	.set nomacro
 1034 0598 0000000C 	jal printf
 1035 059c A06A62AC 	sw $2,%lo(_MainLoop_SRAMChecksum)($3)
 1036              	.set macro
 1037              	.set reorder
 1038              	
 1039              	.set noreorder
 1040              	.set nomacro
 1041 05a0 E9FF0010 	b $L65
 1042 05a4 0000023C 	lui $2,%hi(_MainLoop_SRAMUpdated)
 1043              	.set macro
 1044              	.set reorder
 1045              	
 1046              	.p2align 3
 1047              	$L62:
 1048 05a8 0000638C 	lw $3,0($3)
 1049              	
 1050 05ac 2400628C 	lw $2,36($3)
 1051              	
 1052              	.set noreorder
 1053              	.set nomacro
 1054 05b0 09F84000 	jal $31,$2
 1055 05b4 0000133C 	lui $19,%hi(_pSystem)
 1056              	.set macro
 1057              	.set reorder
 1058              	
 1059              	.set noreorder
 1060              	.set nomacro
 1061 05b8 BEFF0010 	b $L64
 1062 05bc 2D904000 	move $18,$2
 1063              	.set macro
 1064              	.set reorder
 1065              	
 1066              	.end _Z17_MainLoopLoadSRAMv
 1067              	$Lfe11:
 1068              	.size _Z17_MainLoopLoadSRAMv,$Lfe11-_Z17_MainLoopLoadSRAMv
 1069              	.rdata
GAS LISTING  			page 21


 1070 0029 00000000 	.align 3
 1070      000000
 1071              	$LC3:
 1072 0030 5352414D 	.ascii "SRAM changed!\n\000"
 1072      20636861 
 1072      6E676564 
 1072      210A00
 1073              	.text
 1074              	.align 2
 1075              	.p2align 3,,7
 1076              	.ent _Z18_MainLoopCheckSRAMv
 1077              	_Z18_MainLoopCheckSRAMv:
 1078              	.frame $sp,48,$31
 1079              	.mask 0x80030000,-16
 1080              	.fmask 0x00000000,0
 1081 05c0 D0FFBD27 	subu $sp,$sp,48
 1082 05c4 0000023C 	lui $2,%hi(_pSystem)
 1083 05c8 2000BFFF 	sd $31,32($sp)
 1084 05cc 1000B1FF 	sd $17,16($sp)
 1085 05d0 0000B0FF 	sd $16,0($sp)
 1086 05d4 2801448C 	lw $4,%lo(_pSystem)($2)
 1087              	
 1088              	.set noreorder
 1089              	.set nomacro
 1090 05d8 2B008054 	bnel $4,$0,$L75
 1091 05dc 0000838C 	lw $3,0($4)
 1092              	.set macro
 1093              	.set reorder
 1094              	
 1095 05e0 2D800000 	move $16,$0
 1096              	$L68:
 1097              	.set noreorder
 1098              	.set nomacro
 1099 05e4 1C00001A 	blez $16,$L69
 1100 05e8 0000023C 	lui $2,%hi(_pSystem)
 1101              	.set macro
 1102              	.set reorder
 1103              	
 1104 05ec 2801448C 	lw $4,%lo(_pSystem)($2)
 1105              	
 1106 05f0 0000838C 	lw $3,0($4)
 1107              	
 1108 05f4 2800628C 	lw $2,40($3)
 1109              	
 1110              	.set noreorder
 1111              	.set nomacro
 1112 05f8 09F84000 	jal $31,$2
 1113 05fc 4800113C 	lui $17,%hi(_MainLoop_SRAMChecksum)
 1114              	.set macro
 1115              	.set reorder
 1116              	
 1117 0600 83281000 	sra $5,$16,2
 1118              	.set noreorder
 1119              	.set nomacro
 1120 0604 B400000C 	jal _Z13_CalcChecksumPjj
 1121 0608 2D204000 	move $4,$2
 1122              	.set macro
GAS LISTING  			page 22


 1123              	.set reorder
 1124              	
 1125 060c 2D804000 	move $16,$2
 1126 0610 A06A228E 	lw $2,%lo(_MainLoop_SRAMChecksum)($17)
 1127              	
 1128              	.set noreorder
 1129              	.set nomacro
 1130 0614 1A005010 	beq $2,$16,$L74
 1131 0618 0000043C 	lui $4,%hi($LC3)
 1132              	.set macro
 1133              	.set reorder
 1134              	
 1135              	.set noreorder
 1136              	.set nomacro
 1137 061c 0000000C 	jal printf
 1138 0620 30008424 	addiu $4,$4,%lo($LC3)
 1139              	.set macro
 1140              	.set reorder
 1141              	
 1142 0624 01000324 	li $3,1
 1143 0628 0000023C 	lui $2,%hi(_MainLoop_AutoSaveTime)
 1144 062c 0000053C 	lui $5,%hi(_MainLoop_SaveCounter)
 1145 0630 1801448C 	lw $4,%lo(_MainLoop_AutoSaveTime)($2)
 1146 0634 0000023C 	lui $2,%hi(_MainLoop_SRAMUpdated)
 1147 0638 A06A30AE 	sw $16,%lo(_MainLoop_SRAMChecksum)($17)
 1148 063c 1C0143A0 	sb $3,%lo(_MainLoop_SRAMUpdated)($2)
 1149 0640 1401A4AC 	sw $4,%lo(_MainLoop_SaveCounter)($5)
 1150              	$L71:
 1151 0644 1401A28C 	lw $2,%lo(_MainLoop_SaveCounter)($5)
 1152              	
 1153              	.set noreorder
 1154              	.set nomacro
 1155 0648 03004010 	beq $2,$0,$L69
 1156 064c FFFF4224 	addu $2,$2,-1
 1157              	.set macro
 1158              	.set reorder
 1159              	
 1160              	.set noreorder
 1161              	.set nomacro
 1162 0650 07004010 	beq $2,$0,$L76
 1163 0654 1401A2AC 	sw $2,%lo(_MainLoop_SaveCounter)($5)
 1164              	.set macro
 1165              	.set reorder
 1166              	
 1167              	$L69:
 1168 0658 2000BFDF 	ld $31,32($sp)
 1169              	$L77:
 1170 065c 01000224 	li $2,1
 1171 0660 1000B1DF 	ld $17,16($sp)
 1172 0664 0000B0DF 	ld $16,0($sp)
 1173              	
 1174              	.set noreorder
 1175              	.set nomacro
 1176 0668 0800E003 	j $31
 1177 066c 3000BD27 	addu $sp,$sp,48
 1178              	.set macro
 1179              	.set reorder
GAS LISTING  			page 23


 1180              	
 1181              	.p2align 3
 1182              	$L76:
 1183              	.set noreorder
 1184              	.set nomacro
 1185 0670 D200000C 	jal _Z17_MainLoopSaveSRAMh
 1186 0674 2D200000 	move $4,$0
 1187              	.set macro
 1188              	.set reorder
 1189              	
 1190              	.set noreorder
 1191              	.set nomacro
 1192 0678 F8FF0010 	b $L77
 1193 067c 2000BFDF 	ld $31,32($sp)
 1194              	.set macro
 1195              	.set reorder
 1196              	
 1197              	.p2align 3
 1198              	$L74:
 1199              	.set noreorder
 1200              	.set nomacro
 1201 0680 F0FF0010 	b $L71
 1202 0684 0000053C 	lui $5,%hi(_MainLoop_SaveCounter)
 1203              	.set macro
 1204              	.set reorder
 1205              	
 1206              	.p2align 3
 1207              	$L75:
 1208 0688 2400628C 	lw $2,36($3)
 1209              	
 1210 068c 09F84000 	jal $31,$2
 1210      00000000 
 1211              	.set noreorder
 1212              	.set nomacro
 1213 0694 D3FF0010 	b $L68
 1214 0698 2D804000 	move $16,$2
 1215              	.set macro
 1216              	.set reorder
 1217              	
 1218              	.end _Z18_MainLoopCheckSRAMv
 1219              	$Lfe12:
 1220              	.size _Z18_MainLoopCheckSRAMv,$Lfe12-_Z18_MainLoopCheckSRAMv
 1221              	.rdata
 1222 003f 00       	.align 3
 1223              	$LC4:
 1224 0040 25732573 	.ascii "%s%s.sns\000"
 1224      2E736E73 
 1224      00
 1225 0049 00000000 	.align 3
 1225      000000
 1226              	$LC7:
 1227 0050 25732573 	.ascii "%s%s.nst\000"
 1227      2E6E7374 
 1227      00
 1228 0059 00000000 	.align 3
 1228      000000
 1229              	$LC5:
GAS LISTING  			page 24


 1230 0060 686F7374 	.ascii "host0:/cygdrive/d/emu/\000"
 1230      303A2F63 
 1230      79676472 
 1230      6976652F 
 1230      642F656D 
 1231 0077 00       	.align 3
 1232              	$LC6:
 1233 0078 53746174 	.ascii "State loaded from %s\n\000"
 1233      65206C6F 
 1233      61646564 
 1233      2066726F 
 1233      6D202573 
 1234              	.text
 1235              	.align 2
 1236 069c 00000000 	.p2align 3,,7
 1237              	.globl _Z18_MainLoopLoadStatev
 1238              	.ent _Z18_MainLoopLoadStatev
 1239              	_Z18_MainLoopLoadStatev:
 1240              	.frame $sp,320,$31
 1241              	.mask 0x80070000,-16
 1242              	.fmask 0x00000000,0
 1243 06a0 C0FEBD27 	subu $sp,$sp,320
 1244 06a4 0000023C 	lui $2,%hi(_pSystem)
 1245 06a8 3001BFFF 	sd $31,304($sp)
 1246 06ac 2001B2FF 	sd $18,288($sp)
 1247 06b0 1001B1FF 	sd $17,272($sp)
 1248 06b4 0001B0FF 	sd $16,256($sp)
 1249 06b8 2801438C 	lw $3,%lo(_pSystem)($2)
 1250              	
 1251              	.set noreorder
 1252              	.set nomacro
 1253 06bc 08006010 	beq $3,$0,$L78
 1254 06c0 0000103C 	lui $16,%hi(_pSnes)
 1255              	.set macro
 1256              	.set reorder
 1257              	
 1258 06c4 1000028E 	lw $2,%lo(_pSnes)($16)
 1259              	
 1260              	.set noreorder
 1261              	.set nomacro
 1262 06c8 2A006210 	beq $3,$2,$L89
 1263 06cc 0000053C 	lui $5,%hi($LC4)
 1264              	.set macro
 1265              	.set reorder
 1266              	
 1267 06d0 0000103C 	lui $16,%hi(_pNes)
 1268 06d4 1800028E 	lw $2,%lo(_pNes)($16)
 1269              	
 1270              	.set noreorder
 1271              	.set nomacro
 1272 06d8 07006210 	beq $3,$2,$L90
 1273 06dc 0000053C 	lui $5,%hi($LC7)
 1274              	.set macro
 1275              	.set reorder
 1276              	
 1277              	$L78:
 1278 06e0 3001BFDF 	ld $31,304($sp)
GAS LISTING  			page 25


 1279              	$L93:
 1280 06e4 2001B2DF 	ld $18,288($sp)
 1281 06e8 1001B1DF 	ld $17,272($sp)
 1282 06ec 0001B0DF 	ld $16,256($sp)
 1283              	
 1284              	.set noreorder
 1285              	.set nomacro
 1286 06f0 0800E003 	j $31
 1287 06f4 4001BD27 	addu $sp,$sp,320
 1288              	.set macro
 1289              	.set reorder
 1290              	
 1291              	$L90:
 1292 06f8 0000063C 	lui $6,%hi($LC5)
 1293 06fc 0000073C 	lui $7,%hi(_RomName)
 1294 0700 5000A524 	addiu $5,$5,%lo($LC7)
 1295 0704 6000C624 	addiu $6,$6,%lo($LC5)
 1296 0708 2D20A003 	move $4,$sp
 1297              	.set noreorder
 1298              	.set nomacro
 1299 070c 0000000C 	jal sprintf
 1300 0710 2800E724 	addiu $7,$7,%lo(_RomName)
 1301              	.set macro
 1302              	.set reorder
 1303              	
 1304 0714 4800023C 	lui $2,%hi(_NesState)
 1305 0718 B00E5124 	addiu $17,$2,%lo(_NesState)
 1306 071c EC5B0624 	li $6,23532
 1307 0720 2D20A003 	move $4,$sp
 1308              	.set noreorder
 1309              	.set nomacro
 1310 0724 0000000C 	jal _Z11FileReadMemPcPvj
 1311 0728 2D282002 	move $5,$17
 1312              	.set macro
 1313              	.set reorder
 1314              	
 1315              	.set noreorder
 1316              	.set nomacro
 1317 072c 09004014 	bne $2,$0,$L91
 1318 0730 0000123C 	lui $18,%hi(_bStateSaved)
 1319              	.set macro
 1320              	.set reorder
 1321              	
 1322 0734 1D014292 	lbu $2,%lo(_bStateSaved)($18)
 1323              	$L94:
 1324              	.set noreorder
 1325              	.set nomacro
 1326 0738 EAFF4050 	beql $2,$0,$L93
 1327 073c 3001BFDF 	ld $31,304($sp)
 1328              	.set macro
 1329              	.set reorder
 1330              	
 1331 0740 1800048E 	lw $4,%lo(_pNes)($16)
 1332              	.set noreorder
 1333              	.set nomacro
 1334 0744 0000000C 	jal _ZN9NesSystem12RestoreStateEP9NesStateT
 1335 0748 2D282002 	move $5,$17
GAS LISTING  			page 26


 1336              	.set macro
 1337              	.set reorder
 1338              	
 1339              	.set noreorder
 1340              	.set nomacro
 1341 074c E5FF0010 	b $L93
 1342 0750 3001BFDF 	ld $31,304($sp)
 1343              	.set macro
 1344              	.set reorder
 1345              	
 1346              	$L91:
 1347 0754 0000043C 	lui $4,%hi($LC6)
 1348 0758 78008424 	addiu $4,$4,%lo($LC6)
 1349 075c 2D28A003 	move $5,$sp
 1350 0760 01000224 	li $2,1
 1351              	.set noreorder
 1352              	.set nomacro
 1353 0764 0000000C 	jal printf
 1354 0768 1D0142A2 	sb $2,%lo(_bStateSaved)($18)
 1355              	.set macro
 1356              	.set reorder
 1357              	
 1358              	.set noreorder
 1359              	.set nomacro
 1360 076c F2FF0010 	b $L94
 1361 0770 1D014292 	lbu $2,%lo(_bStateSaved)($18)
 1362              	.set macro
 1363              	.set reorder
 1364              	
 1365              	$L89:
 1366 0774 0000063C 	lui $6,%hi($LC5)
 1367 0778 0000073C 	lui $7,%hi(_RomName)
 1368 077c 4000A524 	addiu $5,$5,%lo($LC4)
 1369 0780 6000C624 	addiu $6,$6,%lo($LC5)
 1370 0784 2D20A003 	move $4,$sp
 1371              	.set noreorder
 1372              	.set nomacro
 1373 0788 0000000C 	jal sprintf
 1374 078c 2800E724 	addiu $7,$7,%lo(_RomName)
 1375              	.set macro
 1376              	.set reorder
 1377              	
 1378 0790 4000023C 	lui $2,%hi(_SnesState)
 1379 0794 0800063C 	li $6,524288
 1380 0798 C0055124 	addiu $17,$2,%lo(_SnesState)
 1381 079c 2D20A003 	move $4,$sp
 1382 07a0 EC08C634 	ori $6,$6,0x8ec
 1383              	.set noreorder
 1384              	.set nomacro
 1385 07a4 0000000C 	jal _Z11FileReadMemPcPvj
 1386 07a8 2D282002 	move $5,$17
 1387              	.set macro
 1388              	.set reorder
 1389              	
 1390              	.set noreorder
 1391              	.set nomacro
 1392 07ac 09004014 	bne $2,$0,$L92
GAS LISTING  			page 27


 1393 07b0 0000123C 	lui $18,%hi(_bStateSaved)
 1394              	.set macro
 1395              	.set reorder
 1396              	
 1397 07b4 1D014292 	lbu $2,%lo(_bStateSaved)($18)
 1398              	$L95:
 1399              	.set noreorder
 1400              	.set nomacro
 1401 07b8 CAFF4050 	beql $2,$0,$L93
 1402 07bc 3001BFDF 	ld $31,304($sp)
 1403              	.set macro
 1404              	.set reorder
 1405              	
 1406 07c0 1000048E 	lw $4,%lo(_pSnes)($16)
 1407              	.set noreorder
 1408              	.set nomacro
 1409 07c4 0000000C 	jal _ZN10SnesSystem12RestoreStateEP10SnesStateT
 1410 07c8 2D282002 	move $5,$17
 1411              	.set macro
 1412              	.set reorder
 1413              	
 1414              	.set noreorder
 1415              	.set nomacro
 1416 07cc C5FF0010 	b $L93
 1417 07d0 3001BFDF 	ld $31,304($sp)
 1418              	.set macro
 1419              	.set reorder
 1420              	
 1421              	$L92:
 1422 07d4 0000043C 	lui $4,%hi($LC6)
 1423 07d8 78008424 	addiu $4,$4,%lo($LC6)
 1424 07dc 2D28A003 	move $5,$sp
 1425 07e0 01000224 	li $2,1
 1426              	.set noreorder
 1427              	.set nomacro
 1428 07e4 0000000C 	jal printf
 1429 07e8 1D0142A2 	sb $2,%lo(_bStateSaved)($18)
 1430              	.set macro
 1431              	.set reorder
 1432              	
 1433              	.set noreorder
 1434              	.set nomacro
 1435 07ec F2FF0010 	b $L95
 1436 07f0 1D014292 	lbu $2,%lo(_bStateSaved)($18)
 1437              	.set macro
 1438              	.set reorder
 1439              	
 1440              	.end _Z18_MainLoopLoadStatev
 1441              	$Lfe13:
 1442              	.size _Z18_MainLoopLoadStatev,$Lfe13-_Z18_MainLoopLoadStatev
 1443              	.rdata
 1444 008e 0000     	.align 3
 1445              	$LC8:
 1446 0090 53746174 	.ascii "State saved to %s\n\000"
 1446      65207361 
 1446      76656420 
 1446      746F2025 
GAS LISTING  			page 28


 1446      730A00
 1447              	.text
 1448              	.align 2
 1449 07f4 00000000 	.p2align 3,,7
 1450              	.globl _Z18_MainLoopSaveStatev
 1451              	.ent _Z18_MainLoopSaveStatev
 1452              	_Z18_MainLoopSaveStatev:
 1453              	.frame $sp,320,$31
 1454              	.mask 0x80070000,-16
 1455              	.fmask 0x00000000,0
 1456 07f8 C0FEBD27 	subu $sp,$sp,320
 1457 07fc 0000023C 	lui $2,%hi(_pSystem)
 1458 0800 1001B1FF 	sd $17,272($sp)
 1459 0804 3001BFFF 	sd $31,304($sp)
 1460 0808 2001B2FF 	sd $18,288($sp)
 1461 080c 0001B0FF 	sd $16,256($sp)
 1462 0810 2801438C 	lw $3,%lo(_pSystem)($2)
 1463              	
 1464              	.set noreorder
 1465              	.set nomacro
 1466 0814 13006010 	beq $3,$0,$L96
 1467 0818 0000113C 	lui $17,%hi(_pSnes)
 1468              	.set macro
 1469              	.set reorder
 1470              	
 1471 081c 1000228E 	lw $2,%lo(_pSnes)($17)
 1472 0820 0000073C 	lui $7,%hi(_RomName)
 1473 0824 0000063C 	lui $6,%hi($LC5)
 1474 0828 0000053C 	lui $5,%hi($LC4)
 1475 082c 2800E724 	addiu $7,$7,%lo(_RomName)
 1476 0830 6000C624 	addiu $6,$6,%lo($LC5)
 1477 0834 4000A524 	addiu $5,$5,%lo($LC4)
 1478 0838 2D20A003 	move $4,$sp
 1479              	.set noreorder
 1480              	.set nomacro
 1481 083c 23006210 	beq $3,$2,$L105
 1482 0840 0000123C 	lui $18,%hi(_pNes)
 1483              	.set macro
 1484              	.set reorder
 1485              	
 1486 0844 1800428E 	lw $2,%lo(_pNes)($18)
 1487 0848 0000073C 	lui $7,%hi(_RomName)
 1488 084c 0000063C 	lui $6,%hi($LC5)
 1489 0850 0000053C 	lui $5,%hi($LC7)
 1490 0854 2800E724 	addiu $7,$7,%lo(_RomName)
 1491 0858 6000C624 	addiu $6,$6,%lo($LC5)
 1492              	.set noreorder
 1493              	.set nomacro
 1494 085c 07006210 	beq $3,$2,$L106
 1495 0860 5000A524 	addiu $5,$5,%lo($LC7)
 1496              	.set macro
 1497              	.set reorder
 1498              	
 1499              	$L96:
 1500 0864 3001BFDF 	ld $31,304($sp)
 1501              	$L107:
 1502 0868 2001B2DF 	ld $18,288($sp)
GAS LISTING  			page 29


 1503 086c 1001B1DF 	ld $17,272($sp)
 1504 0870 0001B0DF 	ld $16,256($sp)
 1505              	
 1506              	.set noreorder
 1507              	.set nomacro
 1508 0874 0800E003 	j $31
 1509 0878 4001BD27 	addu $sp,$sp,320
 1510              	.set macro
 1511              	.set reorder
 1512              	
 1513              	$L106:
 1514              	.set noreorder
 1515              	.set nomacro
 1516 087c 0000000C 	jal sprintf
 1517 0880 4800103C 	lui $16,%hi(_NesState)
 1518              	.set macro
 1519              	.set reorder
 1520              	
 1521 0884 B00E1026 	addiu $16,$16,%lo(_NesState)
 1522 0888 1800448E 	lw $4,%lo(_pNes)($18)
 1523              	.set noreorder
 1524              	.set nomacro
 1525 088c 0000000C 	jal _ZN9NesSystem9SaveStateEP9NesStateT
 1526 0890 2D280002 	move $5,$16
 1527              	.set macro
 1528              	.set reorder
 1529              	
 1530 0894 2D20A003 	move $4,$sp
 1531 0898 EC5B0624 	li $6,23532
 1532 089c 2D280002 	move $5,$16
 1533              	$L104:
 1534 08a0 01000324 	li $3,1
 1535 08a4 0000023C 	lui $2,%hi(_bStateSaved)
 1536              	.set noreorder
 1537              	.set nomacro
 1538 08a8 0000000C 	jal _Z12FileWriteMemPcPvj
 1539 08ac 1D0143A0 	sb $3,%lo(_bStateSaved)($2)
 1540              	.set macro
 1541              	.set reorder
 1542              	
 1543              	.set noreorder
 1544              	.set nomacro
 1545 08b0 ECFF4010 	beq $2,$0,$L96
 1546 08b4 2D28A003 	move $5,$sp
 1547              	.set macro
 1548              	.set reorder
 1549              	
 1550 08b8 0000043C 	lui $4,%hi($LC8)
 1551              	.set noreorder
 1552              	.set nomacro
 1553 08bc 0000000C 	jal printf
 1554 08c0 90008424 	addiu $4,$4,%lo($LC8)
 1555              	.set macro
 1556              	.set reorder
 1557              	
 1558              	.set noreorder
 1559              	.set nomacro
GAS LISTING  			page 30


 1560 08c4 E8FF0010 	b $L107
 1561 08c8 3001BFDF 	ld $31,304($sp)
 1562              	.set macro
 1563              	.set reorder
 1564              	
 1565              	$L105:
 1566              	
 1567              	.set noreorder
 1568              	.set nomacro
 1569 08cc 0000000C 	jal sprintf
 1570 08d0 4000103C 	lui $16,%hi(_SnesState)
 1571              	.set macro
 1572              	.set reorder
 1573              	
 1574 08d4 C0051026 	addiu $16,$16,%lo(_SnesState)
 1575 08d8 1000248E 	lw $4,%lo(_pSnes)($17)
 1576              	.set noreorder
 1577              	.set nomacro
 1578 08dc 0000000C 	jal _ZN10SnesSystem9SaveStateEP10SnesStateT
 1579 08e0 2D280002 	move $5,$16
 1580              	.set macro
 1581              	.set reorder
 1582              	
 1583 08e4 2D20A003 	move $4,$sp
 1584 08e8 0800063C 	li $6,524288
 1585 08ec 2D280002 	move $5,$16
 1586              	.set noreorder
 1587              	.set nomacro
 1588 08f0 EBFF0010 	b $L104
 1589 08f4 EC08C634 	ori $6,$6,0x8ec
 1590              	.set macro
 1591              	.set reorder
 1592              	
 1593              	.end _Z18_MainLoopSaveStatev
 1594              	$Lfe14:
 1595              	.size _Z18_MainLoopSaveStatev,$Lfe14-_Z18_MainLoopSaveStatev
 1596              	.rdata
 1597 00a3 00000000 	.align 3
 1597      00
 1598              	$LC9:
 1599 00a8 4D6F7669 	.ascii "Movie: Record End\n\000"
 1599      653A2052 
 1599      65636F72 
 1599      6420456E 
 1599      640A00
 1600 00bb 00000000 	.align 3
 1600      00
 1601              	$LC10:
 1602 00c0 4D6F7669 	.ascii "Movie: Play End\n\000"
 1602      653A2050 
 1602      6C617920 
 1602      456E640A 
 1602      00
 1603              	.text
 1604              	.align 2
 1605              	.p2align 3,,7
 1606              	.ent _Z18_MainLoopUnloadRomv
GAS LISTING  			page 31


 1607              	_Z18_MainLoopUnloadRomv:
 1608              	.frame $sp,32,$31
 1609              	.mask 0x80010000,-16
 1610              	.fmask 0x00000000,0
 1611 08f8 E0FFBD27 	subu $sp,$sp,32
 1612 08fc 0000043C 	lui $4,%hi($LC9)
 1613 0900 0000B0FF 	sd $16,0($sp)
 1614 0904 1000BFFF 	sd $31,16($sp)
 1615 0908 4800103C 	lui $16,%hi(s_pMovieClip)
 1616 090c 9C6A038E 	lw $3,%lo(s_pMovieClip)($16)
 1617              	
 1618 0910 14006290 	lbu $2,20($3)
 1619              	
 1620              	.set noreorder
 1621              	.set nomacro
 1622 0914 38004014 	bne $2,$0,$L113
 1623 0918 A8008424 	addiu $4,$4,%lo($LC9)
 1624              	.set macro
 1625              	.set reorder
 1626              	
 1627              	$L109:
 1628 091c 15006290 	lbu $2,21($3)
 1629 0920 0000043C 	lui $4,%hi($LC10)
 1630              	.set noreorder
 1631              	.set nomacro
 1632 0924 2E004014 	bne $2,$0,$L114
 1633 0928 C0008424 	addiu $4,$4,%lo($LC10)
 1634              	.set macro
 1635              	.set reorder
 1636              	
 1637 092c 0000023C 	lui $2,%hi(_pSnes)
 1638              	$L115:
 1639 0930 2D280000 	move $5,$0
 1640 0934 1000448C 	lw $4,%lo(_pSnes)($2)
 1641              	
 1642 0938 0000838C 	lw $3,0($4)
 1643              	
 1644 093c 0800628C 	lw $2,8($3)
 1645              	
 1646              	.set noreorder
 1647              	.set nomacro
 1648 0940 09F84000 	jal $31,$2
 1649 0944 0000103C 	lui $16,%hi(_fbTexture)
 1650              	.set macro
 1651              	.set reorder
 1652              	
 1653 0948 0000033C 	lui $3,%hi(_pSnesRom)
 1654 094c 1400648C 	lw $4,%lo(_pSnesRom)($3)
 1655              	
 1656 0950 0000858C 	lw $5,0($4)
 1657              	
 1658 0954 0C00A28C 	lw $2,12($5)
 1659              	
 1660 0958 09F84000 	jal $31,$2
 1660      00000000 
 1661 0960 0000023C 	lui $2,%hi(_pNes)
 1662 0964 1800448C 	lw $4,%lo(_pNes)($2)
GAS LISTING  			page 32


 1663              	
 1664 0968 0000838C 	lw $3,0($4)
 1665              	
 1666 096c 0800628C 	lw $2,8($3)
 1667              	
 1668              	.set noreorder
 1669              	.set nomacro
 1670 0970 09F84000 	jal $31,$2
 1671 0974 2D280000 	move $5,$0
 1672              	.set macro
 1673              	.set reorder
 1674              	
 1675 0978 0000033C 	lui $3,%hi(_pNesRom)
 1676 097c 1C00648C 	lw $4,%lo(_pNesRom)($3)
 1677              	
 1678 0980 0000858C 	lw $5,0($4)
 1679              	
 1680 0984 0C00A28C 	lw $2,12($5)
 1681              	
 1682 0988 09F84000 	jal $31,$2
 1682      00000000 
 1683 0990 0000033C 	lui $3,%hi(_pNesFDSDisk)
 1684 0994 2400648C 	lw $4,%lo(_pNesFDSDisk)($3)
 1685              	
 1686 0998 0000858C 	lw $5,0($4)
 1687              	
 1688 099c 0C00A28C 	lw $2,12($5)
 1689              	
 1690 09a0 09F84000 	jal $31,$2
 1690      00000000 
 1691 09a8 0000033C 	lui $3,%hi(_pSystem)
 1692 09ac 3001048E 	lw $4,%lo(_fbTexture)($16)
 1693 09b0 0000023C 	lui $2,%hi(_bStateSaved)
 1694 09b4 30011026 	addiu $16,$16,%lo(_fbTexture)
 1695 09b8 1D0140A0 	sb $0,%lo(_bStateSaved)($2)
 1696              	.set noreorder
 1697              	.set nomacro
 1698 09bc 0000000C 	jal _ZN8CSurface5ClearEv
 1699 09c0 280160AC 	sw $0,%lo(_pSystem)($3)
 1700              	.set macro
 1701              	.set reorder
 1702              	
 1703              	.set noreorder
 1704              	.set nomacro
 1705 09c4 0000000C 	jal _ZN8CSurface5ClearEv
 1706 09c8 0400048E 	lw $4,4($16)
 1707              	.set macro
 1708              	.set reorder
 1709              	
 1710 09cc 0000B0DF 	ld $16,0($sp)
 1711 09d0 1000BFDF 	ld $31,16($sp)
 1712              	
 1713              	.set noreorder
 1714              	.set nomacro
 1715 09d4 0800E003 	j $31
 1716 09d8 2000BD27 	addu $sp,$sp,32
 1717              	.set macro
GAS LISTING  			page 33


 1718              	.set reorder
 1719              	
 1720 09dc 00000000 	.p2align 3
 1721              	$L114:
 1722 09e0 0000000C 	jal printf
 1722      00000000 
 1723              	.set noreorder
 1724              	.set nomacro
 1725 09e8 0000000C 	jal _ZN13CEmuMovieClip7PlayEndEv
 1726 09ec 9C6A048E 	lw $4,%lo(s_pMovieClip)($16)
 1727              	.set macro
 1728              	.set reorder
 1729              	
 1730              	.set noreorder
 1731              	.set nomacro
 1732 09f0 CFFF0010 	b $L115
 1733 09f4 0000023C 	lui $2,%hi(_pSnes)
 1734              	.set macro
 1735              	.set reorder
 1736              	
 1737              	.p2align 3
 1738              	$L113:
 1739 09f8 0000000C 	jal printf
 1739      00000000 
 1740              	.set noreorder
 1741              	.set nomacro
 1742 0a00 0000000C 	jal _ZN13CEmuMovieClip9RecordEndEv
 1743 0a04 9C6A048E 	lw $4,%lo(s_pMovieClip)($16)
 1744              	.set macro
 1745              	.set reorder
 1746              	
 1747              	.set noreorder
 1748              	.set nomacro
 1749 0a08 C4FF0010 	b $L109
 1750 0a0c 9C6A038E 	lw $3,%lo(s_pMovieClip)($16)
 1751              	.set macro
 1752              	.set reorder
 1753              	
 1754              	.end _Z18_MainLoopUnloadRomv
 1755              	$Lfe15:
 1756              	.size _Z18_MainLoopUnloadRomv,$Lfe15-_Z18_MainLoopUnloadRomv
 1757              	.align 2
 1758              	.p2align 3,,7
 1759              	.ent _Z23_MainLoopReadBinaryDataPhiPKc
 1760              	_Z23_MainLoopReadBinaryDataPhiPKc:
 1761              	.frame $sp,64,$31
 1762              	.mask 0x80070000,-16
 1763              	.fmask 0x00000000,0
 1764 0a10 C0FFBD27 	subu $sp,$sp,64
 1765 0a14 2000B2FF 	sd $18,32($sp)
 1766 0a18 2D90A000 	move $18,$5
 1767 0a1c 0000B0FF 	sd $16,0($sp)
 1768 0a20 01000524 	li $5,1
 1769 0a24 2D808000 	move $16,$4
 1770 0a28 1000B1FF 	sd $17,16($sp)
 1771 0a2c 3000BFFF 	sd $31,48($sp)
 1772              	.set noreorder
GAS LISTING  			page 34


 1773              	.set nomacro
 1774 0a30 0000000C 	jal fioOpen
 1775 0a34 2D20C000 	move $4,$6
 1776              	.set macro
 1777              	.set reorder
 1778              	
 1779 0a38 2D884000 	move $17,$2
 1780              	.set noreorder
 1781              	.set nomacro
 1782 0a3c 09002006 	bltz $17,$L116
 1783 0a40 FFFF0224 	li $2,-1
 1784              	.set macro
 1785              	.set reorder
 1786              	
 1787 0a44 2D280002 	move $5,$16
 1788 0a48 2D304002 	move $6,$18
 1789              	.set noreorder
 1790              	.set nomacro
 1791 0a4c 0000000C 	jal fioRead
 1792 0a50 2D202002 	move $4,$17
 1793              	.set macro
 1794              	.set reorder
 1795              	
 1796 0a54 2D202002 	move $4,$17
 1797              	.set noreorder
 1798              	.set nomacro
 1799 0a58 0000000C 	jal fioClose
 1800 0a5c 2D804000 	move $16,$2
 1801              	.set macro
 1802              	.set reorder
 1803              	
 1804 0a60 2D100002 	move $2,$16
 1805              	$L116:
 1806 0a64 3000BFDF 	ld $31,48($sp)
 1807 0a68 2000B2DF 	ld $18,32($sp)
 1808 0a6c 1000B1DF 	ld $17,16($sp)
 1809 0a70 0000B0DF 	ld $16,0($sp)
 1810              	
 1811              	.set noreorder
 1812              	.set nomacro
 1813 0a74 0800E003 	j $31
 1814 0a78 4000BD27 	addu $sp,$sp,64
 1815              	.set macro
 1816              	.set reorder
 1817              	
 1818              	.end _Z23_MainLoopReadBinaryDataPhiPKc
 1819              	$Lfe16:
 1820              	.size _Z23_MainLoopReadBinaryDataPhiPKc,$Lfe16-_Z23_MainLoopReadBinaryDataPhiPKc
 1821              	.rdata
 1822 00d1 00000000 	.align 3
 1822      000000
 1823              	$LC11:
 1824 00d8 726200   	.ascii "rb\000"
 1825              	.text
 1826              	.align 2
 1827 0a7c 00000000 	.p2align 3,,7
 1828              	.ent _Z19_MainLoopReadGZDataPhiPKc
GAS LISTING  			page 35


 1829              	_Z19_MainLoopReadGZDataPhiPKc:
 1830              	.frame $sp,64,$31
 1831              	.mask 0x80070000,-16
 1832              	.fmask 0x00000000,0
 1833 0a80 C0FFBD27 	subu $sp,$sp,64
 1834 0a84 2000B2FF 	sd $18,32($sp)
 1835 0a88 2D90A000 	move $18,$5
 1836 0a8c 0000053C 	lui $5,%hi($LC11)
 1837 0a90 0000B0FF 	sd $16,0($sp)
 1838 0a94 D800A524 	addiu $5,$5,%lo($LC11)
 1839 0a98 2D808000 	move $16,$4
 1840 0a9c 1000B1FF 	sd $17,16($sp)
 1841 0aa0 3000BFFF 	sd $31,48($sp)
 1842              	.set noreorder
 1843              	.set nomacro
 1844 0aa4 0000000C 	jal gzopen
 1845 0aa8 2D20C000 	move $4,$6
 1846              	.set macro
 1847              	.set reorder
 1848              	
 1849 0aac 2D884000 	move $17,$2
 1850              	.set noreorder
 1851              	.set nomacro
 1852 0ab0 09002012 	beq $17,$0,$L118
 1853 0ab4 FFFF0224 	li $2,-1
 1854              	.set macro
 1855              	.set reorder
 1856              	
 1857 0ab8 2D280002 	move $5,$16
 1858 0abc 2D304002 	move $6,$18
 1859              	.set noreorder
 1860              	.set nomacro
 1861 0ac0 0000000C 	jal gzread
 1862 0ac4 2D202002 	move $4,$17
 1863              	.set macro
 1864              	.set reorder
 1865              	
 1866 0ac8 2D202002 	move $4,$17
 1867              	.set noreorder
 1868              	.set nomacro
 1869 0acc 0000000C 	jal gzclose
 1870 0ad0 2D804000 	move $16,$2
 1871              	.set macro
 1872              	.set reorder
 1873              	
 1874 0ad4 2D100002 	move $2,$16
 1875              	$L118:
 1876 0ad8 3000BFDF 	ld $31,48($sp)
 1877 0adc 2000B2DF 	ld $18,32($sp)
 1878 0ae0 1000B1DF 	ld $17,16($sp)
 1879 0ae4 0000B0DF 	ld $16,0($sp)
 1880              	
 1881              	.set noreorder
 1882              	.set nomacro
 1883 0ae8 0800E003 	j $31
 1884 0aec 4000BD27 	addu $sp,$sp,64
 1885              	.set macro
GAS LISTING  			page 36


 1886              	.set reorder
 1887              	
 1888              	.end _Z19_MainLoopReadGZDataPhiPKc
 1889              	$Lfe17:
 1890              	.size _Z19_MainLoopReadGZDataPhiPKc,$Lfe17-_Z19_MainLoopReadGZDataPhiPKc
 1891              	.rdata
 1892 00db 00000000 	.align 3
 1892      00
 1893              	$LC12:
 1894 00e0 5A49503A 	.ascii "ZIP: file opened\n\000"
 1894      2066696C 
 1894      65206F70 
 1894      656E6564 
 1894      0A00
 1895 00f2 00000000 	.align 3
 1895      0000
 1896              	$LC13:
 1897 00f8 5A49503A 	.ascii "ZIP: file %s (%d)\n\000"
 1897      2066696C 
 1897      65202573 
 1897      20282564 
 1897      290A00
 1898 010b 00000000 	.align 3
 1898      00
 1899              	$LC14:
 1900 0110 5A49503A 	.ascii "ZIP: read %s (%d)\n\000"
 1900      20726561 
 1900      64202573 
 1900      20282564 
 1900      290A00
 1901 0123 00000000 	.align 3
 1901      00
 1902              	$LC15:
 1903 0128 5A49503A 	.ascii "ZIP: file closed (%d)\n\000"
 1903      2066696C 
 1903      6520636C 
 1903      6F736564 
 1903      20282564 
 1904              	.text
 1905              	.align 2
 1906              	.p2align 3,,7
 1907              	.ent _Z20_MainLoopReadZipDataPhiPKcPc
 1908              	_Z20_MainLoopReadZipDataPhiPKcPc:
 1909              	.frame $sp,560,$31
 1910              	.mask 0x80ff0000,-16
 1911              	.fmask 0x00000000,0
 1912 0af0 D0FDBD27 	subu $sp,$sp,560
 1913 0af4 0002B6FF 	sd $22,512($sp)
 1914 0af8 2DB08000 	move $22,$4
 1915 0afc 2D20C000 	move $4,$6
 1916 0b00 F001B5FF 	sd $21,496($sp)
 1917 0b04 D001B3FF 	sd $19,464($sp)
 1918 0b08 2DA8E000 	move $21,$7
 1919 0b0c C001B2FF 	sd $18,448($sp)
 1920 0b10 2D980000 	move $19,$0
 1921 0b14 A001B0FF 	sd $16,416($sp)
 1922 0b18 2D90A000 	move $18,$5
GAS LISTING  			page 37


 1923 0b1c 2002BFFF 	sd $31,544($sp)
 1924 0b20 1002B7FF 	sd $23,528($sp)
 1925 0b24 E001B4FF 	sd $20,480($sp)
 1926              	.set noreorder
 1927              	.set nomacro
 1928 0b28 0000000C 	jal unzOpen
 1929 0b2c B001B1FF 	sd $17,432($sp)
 1930              	.set macro
 1931              	.set reorder
 1932              	
 1933 0b30 2D804000 	move $16,$2
 1934              	.set noreorder
 1935              	.set nomacro
 1936 0b34 28000012 	beq $16,$0,$L120
 1937 0b38 FFFF0224 	li $2,-1
 1938              	.set macro
 1939              	.set reorder
 1940              	
 1941 0b3c 0000043C 	lui $4,%hi($LC12)
 1942 0b40 9000B127 	addu $17,$sp,144
 1943 0b44 E0008424 	addiu $4,$4,%lo($LC12)
 1944              	.set noreorder
 1945              	.set nomacro
 1946 0b48 0000000C 	jal printf
 1947 0b4c 0000143C 	lui $20,%hi($LC13)
 1948              	.set macro
 1949              	.set reorder
 1950              	
 1951 0b50 0000173C 	lui $23,%hi($LC14)
 1952 0b54 3C181200 	dsll $3,$18,32
 1953 0b58 3E900300 	dsrl $18,$3,32
 1954 0b5c 2D200002 	move $4,$16
 1955              	$L135:
 1956 0b60 2D28A003 	move $5,$sp
 1957 0b64 2D302002 	move $6,$17
 1958 0b68 00010724 	dli $7,0x100
 1959 0b6c 2D400000 	move $8,$0
 1960 0b70 2D480000 	move $9,$0
 1961 0b74 2D500000 	move $10,$0
 1962              	.set noreorder
 1963              	.set nomacro
 1964 0b78 0000000C 	jal unzGetCurrentFileInfo
 1965 0b7c 2D580000 	move $11,$0
 1966              	.set macro
 1967              	.set reorder
 1968              	
 1969              	.set noreorder
 1970              	.set nomacro
 1971 0b80 0E004014 	bne $2,$0,$L123
 1972 0b84 3800A68F 	lw $6,56($sp)
 1973              	.set macro
 1974              	.set reorder
 1975              	
 1976 0b88 F8008426 	addiu $4,$20,%lo($LC13)
 1977              	.set noreorder
 1978              	.set nomacro
 1979 0b8c 0000000C 	jal printf
GAS LISTING  			page 38


 1980 0b90 2D282002 	move $5,$17
 1981              	.set macro
 1982              	.set reorder
 1983              	
 1984 0b94 3800A3DF 	ld $3,56($sp)
 1985              	
 1986 0b98 2B184302 	sltu $3,$18,$3
 1987              	.set noreorder
 1988              	.set nomacro
 1989 0b9c 1A006010 	beq $3,$0,$L133
 1990 0ba0 2D202002 	move $4,$17
 1991              	.set macro
 1992              	.set reorder
 1993              	
 1994              	$L124:
 1995              	.set noreorder
 1996              	.set nomacro
 1997 0ba4 06006016 	bne $19,$0,$L134
 1998 0ba8 0000043C 	lui $4,%hi($LC15)
 1999              	.set macro
 2000              	.set reorder
 2001              	
 2002              	.set noreorder
 2003              	.set nomacro
 2004 0bac 0000000C 	jal unzGoToNextFile
 2005 0bb0 2D200002 	move $4,$16
 2006              	.set macro
 2007              	.set reorder
 2008              	
 2009              	.set noreorder
 2010              	.set nomacro
 2011 0bb4 EAFF4050 	beql $2,$0,$L135
 2012 0bb8 2D200002 	move $4,$16
 2013              	.set macro
 2014              	.set reorder
 2015              	
 2016              	$L123:
 2017 0bbc 0000043C 	lui $4,%hi($LC15)
 2018              	$L134:
 2019 0bc0 2D286002 	move $5,$19
 2020              	.set noreorder
 2021              	.set nomacro
 2022 0bc4 0000000C 	jal printf
 2023 0bc8 28018424 	addiu $4,$4,%lo($LC15)
 2024              	.set macro
 2025              	.set reorder
 2026              	
 2027              	.set noreorder
 2028              	.set nomacro
 2029 0bcc 0000000C 	jal unzClose
 2030 0bd0 2D200002 	move $4,$16
 2031              	.set macro
 2032              	.set reorder
 2033              	
 2034 0bd4 2D106002 	move $2,$19
 2035              	$L120:
 2036 0bd8 2002BFDF 	ld $31,544($sp)
GAS LISTING  			page 39


 2037 0bdc 1002B7DF 	ld $23,528($sp)
 2038 0be0 0002B6DF 	ld $22,512($sp)
 2039 0be4 F001B5DF 	ld $21,496($sp)
 2040 0be8 E001B4DF 	ld $20,480($sp)
 2041 0bec D001B3DF 	ld $19,464($sp)
 2042 0bf0 C001B2DF 	ld $18,448($sp)
 2043 0bf4 B001B1DF 	ld $17,432($sp)
 2044 0bf8 A001B0DF 	ld $16,416($sp)
 2045              	
 2046              	.set noreorder
 2047              	.set nomacro
 2048 0bfc 0800E003 	j $31
 2049 0c00 3002BD27 	addu $sp,$sp,560
 2050              	.set macro
 2051              	.set reorder
 2052              	
 2053 0c04 00000000 	.p2align 3
 2054              	$L133:
 2055 0c08 9001A527 	addu $5,$sp,400
 2056              	.set noreorder
 2057              	.set nomacro
 2058 0c0c 0000000C 	jal _Z14PathExtResolvePcPjh
 2059 0c10 2D300000 	move $6,$0
 2060              	.set macro
 2061              	.set reorder
 2062              	
 2063              	.set noreorder
 2064              	.set nomacro
 2065 0c14 E3FF4010 	beq $2,$0,$L124
 2066 0c18 3800A68F 	lw $6,56($sp)
 2067              	.set macro
 2068              	.set reorder
 2069              	
 2070 0c1c 1001E426 	addiu $4,$23,%lo($LC14)
 2071              	.set noreorder
 2072              	.set nomacro
 2073 0c20 0000000C 	jal printf
 2074 0c24 2D282002 	move $5,$17
 2075              	.set macro
 2076              	.set reorder
 2077              	
 2078              	.set noreorder
 2079              	.set nomacro
 2080 0c28 0000000C 	jal unzOpenCurrentFile
 2081 0c2c 2D200002 	move $4,$16
 2082              	.set macro
 2083              	.set reorder
 2084              	
 2085              	.set noreorder
 2086              	.set nomacro
 2087 0c30 DCFF4014 	bne $2,$0,$L124
 2088 0c34 3800A68F 	lw $6,56($sp)
 2089              	.set macro
 2090              	.set reorder
 2091              	
 2092 0c38 2D200002 	move $4,$16
 2093              	.set noreorder
GAS LISTING  			page 40


 2094              	.set nomacro
 2095 0c3c 0000000C 	jal unzReadCurrentFile
 2096 0c40 2D28C002 	move $5,$22
 2097              	.set macro
 2098              	.set reorder
 2099              	
 2100 0c44 08004018 	blez $2,$L129
 2100      00000000 
 2101              	.set noreorder
 2102              	.set nomacro
 2103 0c4c 0300A012 	beq $21,$0,$L130
 2104 0c50 2D20A002 	move $4,$21
 2105              	.set macro
 2106              	.set reorder
 2107              	
 2108              	.set noreorder
 2109              	.set nomacro
 2110 0c54 0000000C 	jal strcpy
 2111 0c58 2D282002 	move $5,$17
 2112              	.set macro
 2113              	.set reorder
 2114              	
 2115              	$L130:
 2116 0c5c 3800A2DF 	ld $2,56($sp)
 2117              	
 2118 0c60 3C980200 	dsll $19,$2,32
 2119 0c64 3F981300 	dsra $19,$19,32
 2120              	$L129:
 2121              	.set noreorder
 2122              	.set nomacro
 2123 0c68 0000000C 	jal unzCloseCurrentFile
 2124 0c6c 2D200002 	move $4,$16
 2125              	.set macro
 2126              	.set reorder
 2127              	
 2128 0c70 CCFF0010 	b $L124
 2128      00000000 
 2129              	.end _Z20_MainLoopReadZipDataPhiPKcPc
 2130              	$Lfe18:
 2131              	.size _Z20_MainLoopReadZipDataPhiPKcPc,$Lfe18-_Z20_MainLoopReadZipDataPhiPKcPc
 2132              	.rdata
 2133 013f 00       	.align 3
 2134              	$LC16:
 2135 0140 4552524F 	.ascii "ERROR: loading rom %d\n\000"
 2135      523A206C 
 2135      6F616469 
 2135      6E672072 
 2135      6F6D2025 
 2136              	.text
 2137              	.align 2
 2138              	.p2align 3,,7
 2139              	.ent _Z20_MainLoopLoadRomDataP7CEmuRomPhi
 2140              	_Z20_MainLoopLoadRomDataP7CEmuRomPhi:
 2141              	.frame $sp,80,$31
 2142              	.mask 0x80070000,-16
 2143              	.fmask 0x00000000,0
 2144 0c78 B0FFBD27 	subu $sp,$sp,80
GAS LISTING  			page 41


 2145 0c7c 3000B2FF 	sd $18,48($sp)
 2146 0c80 2D908000 	move $18,$4
 2147 0c84 2000B1FF 	sd $17,32($sp)
 2148 0c88 2D20A003 	move $4,$sp
 2149 0c8c 1000B0FF 	sd $16,16($sp)
 2150 0c90 2D88C000 	move $17,$6
 2151 0c94 4000BFFF 	sd $31,64($sp)
 2152              	.set noreorder
 2153              	.set nomacro
 2154 0c98 0000000C 	jal _ZN10CMemFileIOC1Ev
 2155 0c9c 2D80A000 	move $16,$5
 2156              	.set macro
 2157              	.set reorder
 2158              	
 2159 0ca0 2D302002 	move $6,$17
 2160 0ca4 2D280002 	move $5,$16
 2161              	.set noreorder
 2162              	.set nomacro
 2163 0ca8 0000000C 	jal _ZN10CMemFileIO4OpenEPhj
 2164 0cac 2D20A003 	move $4,$sp
 2165              	.set macro
 2166              	.set reorder
 2167              	
 2168 0cb0 2D28A003 	move $5,$sp
 2169 0cb4 0000438E 	lw $3,0($18)
 2170 0cb8 2D380000 	move $7,$0
 2171 0cbc 2D204002 	move $4,$18
 2172 0cc0 0800628C 	lw $2,8($3)
 2173              	
 2174              	.set noreorder
 2175              	.set nomacro
 2176 0cc4 09F84000 	jal $31,$2
 2177 0cc8 2D300000 	move $6,$0
 2178              	.set macro
 2179              	.set reorder
 2180              	
 2181 0ccc 2D20A003 	move $4,$sp
 2182              	.set noreorder
 2183              	.set nomacro
 2184 0cd0 0000000C 	jal _ZN10CMemFileIO5CloseEv
 2185 0cd4 2D804000 	move $16,$2
 2186              	.set macro
 2187              	.set reorder
 2188              	
 2189 0cd8 0000043C 	lui $4,%hi($LC16)
 2190 0cdc 2D280002 	move $5,$16
 2191              	.set noreorder
 2192              	.set nomacro
 2193 0ce0 0F000012 	beq $16,$0,$L137
 2194 0ce4 40018424 	addiu $4,$4,%lo($LC16)
 2195              	.set macro
 2196              	.set reorder
 2197              	
 2198 0ce8 0000000C 	jal printf
 2198      00000000 
 2199 0cf0 2D20A003 	move $4,$sp
 2200 0cf4 0000033C 	lui $3,%hi(_ZTV10CMemFileIO+8)
GAS LISTING  			page 42


 2201 0cf8 08006324 	addiu $3,$3,%lo(_ZTV10CMemFileIO+8)
 2202              	.set noreorder
 2203              	.set nomacro
 2204 0cfc 0000000C 	jal _ZN7CDataIOD2Ev
 2205 0d00 0000A3AF 	sw $3,0($sp)
 2206              	.set macro
 2207              	.set reorder
 2208              	
 2209 0d04 2D100000 	move $2,$0
 2210              	$L136:
 2211 0d08 4000BFDF 	ld $31,64($sp)
 2212 0d0c 3000B2DF 	ld $18,48($sp)
 2213 0d10 2000B1DF 	ld $17,32($sp)
 2214 0d14 1000B0DF 	ld $16,16($sp)
 2215              	
 2216              	.set noreorder
 2217              	.set nomacro
 2218 0d18 0800E003 	j $31
 2219 0d1c 5000BD27 	addu $sp,$sp,80
 2220              	.set macro
 2221              	.set reorder
 2222              	
 2223              	.p2align 3
 2224              	$L137:
 2225 0d20 0000023C 	lui $2,%hi(_ZTV10CMemFileIO+8)
 2226 0d24 2D20A003 	move $4,$sp
 2227 0d28 08004224 	addiu $2,$2,%lo(_ZTV10CMemFileIO+8)
 2228              	.set noreorder
 2229              	.set nomacro
 2230 0d2c 0000000C 	jal _ZN7CDataIOD2Ev
 2231 0d30 0000A2AF 	sw $2,0($sp)
 2232              	.set macro
 2233              	.set reorder
 2234              	
 2235              	.set noreorder
 2236              	.set nomacro
 2237 0d34 F4FF0010 	b $L136
 2238 0d38 01000224 	li $2,1
 2239              	.set macro
 2240              	.set reorder
 2241              	
 2242              	.end _Z20_MainLoopLoadRomDataP7CEmuRomPhi
 2243              	$Lfe19:
 2244              	.size _Z20_MainLoopLoadRomDataP7CEmuRomPhi,$Lfe19-_Z20_MainLoopLoadRomDataP7CEmuRomPhi
 2245              	.rdata
 2246 0157 00       	.align 3
 2247              	$LC17:
 2248 0158 4552524F 	.ascii "ERROR: loading fds bios!\n\000"
 2248      523A206C 
 2248      6F616469 
 2248      6E672066 
 2248      64732062 
 2249              	.text
 2250              	.align 2
 2251 0d3c 00000000 	.p2align 3,,7
 2252              	.ent _Z17_MainLoopLoadBiosP7CEmuRomPKc
 2253              	_Z17_MainLoopLoadBiosP7CEmuRomPKc:
GAS LISTING  			page 43


 2254              	.frame $sp,64,$31
 2255              	.mask 0x80030000,-16
 2256              	.fmask 0x00000000,0
 2257 0d40 C0FFBD27 	subu $sp,$sp,64
 2258 0d44 2000B1FF 	sd $17,32($sp)
 2259 0d48 2D888000 	move $17,$4
 2260 0d4c 2D20A003 	move $4,$sp
 2261 0d50 3000BFFF 	sd $31,48($sp)
 2262 0d54 1000B0FF 	sd $16,16($sp)
 2263              	.set noreorder
 2264              	.set nomacro
 2265 0d58 0000000C 	jal _ZN7CFileIOC1Ev
 2266 0d5c 2D80A000 	move $16,$5
 2267              	.set macro
 2268              	.set reorder
 2269              	
 2270 0d60 0000063C 	lui $6,%hi($LC11)
 2271 0d64 2D280002 	move $5,$16
 2272 0d68 2D20A003 	move $4,$sp
 2273              	.set noreorder
 2274              	.set nomacro
 2275 0d6c 0000000C 	jal _ZN7CFileIO4OpenEPKcS1_
 2276 0d70 D800C624 	addiu $6,$6,%lo($LC11)
 2277              	.set macro
 2278              	.set reorder
 2279              	
 2280 0d74 2D28A003 	move $5,$sp
 2281 0d78 2D380000 	move $7,$0
 2282 0d7c 2D202002 	move $4,$17
 2283              	.set noreorder
 2284              	.set nomacro
 2285 0d80 11004014 	bne $2,$0,$L147
 2286 0d84 2D300000 	move $6,$0
 2287              	.set macro
 2288              	.set reorder
 2289              	
 2290 0d88 0000043C 	lui $4,%hi($LC17)
 2291              	.set noreorder
 2292              	.set nomacro
 2293 0d8c 0000000C 	jal printf
 2294 0d90 58018424 	addiu $4,$4,%lo($LC17)
 2295              	.set macro
 2296              	.set reorder
 2297              	
 2298 0d94 0000023C 	lui $2,%hi(_ZTV7CFileIO+8)
 2299 0d98 08004224 	addiu $2,$2,%lo(_ZTV7CFileIO+8)
 2300 0d9c 2D20A003 	move $4,$sp
 2301 0da0 0000A2AF 	sw $2,0($sp)
 2302              	$L161:
 2303 0da4 0000000C 	jal _ZN7CDataIOD2Ev
 2303      00000000 
 2304 0dac 2D100000 	move $2,$0
 2305              	$L146:
 2306 0db0 3000BFDF 	ld $31,48($sp)
 2307 0db4 2000B1DF 	ld $17,32($sp)
 2308 0db8 1000B0DF 	ld $16,16($sp)
 2309              	
GAS LISTING  			page 44


 2310              	.set noreorder
 2311              	.set nomacro
 2312 0dbc 0800E003 	j $31
 2313 0dc0 4000BD27 	addu $sp,$sp,64
 2314              	.set macro
 2315              	.set reorder
 2316              	
 2317 0dc4 00000000 	.p2align 3
 2318              	$L147:
 2319 0dc8 0000238E 	lw $3,0($17)
 2320              	
 2321 0dcc 0800628C 	lw $2,8($3)
 2322              	
 2323 0dd0 09F84000 	jal $31,$2
 2323      00000000 
 2324 0dd8 2D20A003 	move $4,$sp
 2325              	.set noreorder
 2326              	.set nomacro
 2327 0ddc 0000000C 	jal _ZN7CFileIO5CloseEv
 2328 0de0 2D804000 	move $16,$2
 2329              	.set macro
 2330              	.set reorder
 2331              	
 2332 0de4 0000043C 	lui $4,%hi($LC16)
 2333 0de8 2D280002 	move $5,$16
 2334              	.set noreorder
 2335              	.set nomacro
 2336 0dec 08000012 	beq $16,$0,$L148
 2337 0df0 40018424 	addiu $4,$4,%lo($LC16)
 2338              	.set macro
 2339              	.set reorder
 2340              	
 2341 0df4 0000000C 	jal printf
 2341      00000000 
 2342 0dfc 2D20A003 	move $4,$sp
 2343 0e00 0000033C 	lui $3,%hi(_ZTV7CFileIO+8)
 2344 0e04 08006324 	addiu $3,$3,%lo(_ZTV7CFileIO+8)
 2345              	.set noreorder
 2346              	.set nomacro
 2347 0e08 E6FF0010 	b $L161
 2348 0e0c 0000A3AF 	sw $3,0($sp)
 2349              	.set macro
 2350              	.set reorder
 2351              	
 2352              	.p2align 3
 2353              	$L148:
 2354 0e10 0000023C 	lui $2,%hi(_ZTV7CFileIO+8)
 2355 0e14 2D20A003 	move $4,$sp
 2356 0e18 08004224 	addiu $2,$2,%lo(_ZTV7CFileIO+8)
 2357              	.set noreorder
 2358              	.set nomacro
 2359 0e1c 0000000C 	jal _ZN7CDataIOD2Ev
 2360 0e20 0000A2AF 	sw $2,0($sp)
 2361              	.set macro
 2362              	.set reorder
 2363              	
 2364              	.set noreorder
GAS LISTING  			page 45


 2365              	.set nomacro
 2366 0e24 E2FF0010 	b $L146
 2367 0e28 01000224 	li $2,1
 2368              	.set macro
 2369              	.set reorder
 2370              	
 2371              	.end _Z17_MainLoopLoadBiosP7CEmuRomPKc
 2372              	$Lfe20:
 2373              	.size _Z17_MainLoopLoadBiosP7CEmuRomPKc,$Lfe20-_Z17_MainLoopLoadBiosP7CEmuRomPKc
 2374              	.align 2
 2375 0e2c 00000000 	.p2align 3,,7
 2376              	.ent _Z24_MainLoopLoadSnesPalettePKc
 2377              	_Z24_MainLoopLoadSnesPalettePKc:
 2378              	.frame $sp,32,$31
 2379              	.mask 0x80010000,-16
 2380              	.fmask 0x00000000,0
 2381 0e30 E0FFBD27 	subu $sp,$sp,32
 2382 0e34 1000BFFF 	sd $31,16($sp)
 2383 0e38 0000B0FF 	sd $16,0($sp)
 2384              	.set noreorder
 2385              	.set nomacro
 2386 0e3c 0000000C 	jal _Z20SNPPUColorGetPalettev
 2387 0e40 2D808000 	move $16,$4
 2388              	.set macro
 2389              	.set reorder
 2390              	
 2391 0e44 0200053C 	li $5,131072
 2392 0e48 2D300002 	move $6,$16
 2393              	.set noreorder
 2394              	.set nomacro
 2395 0e4c 8402000C 	jal _Z23_MainLoopReadBinaryDataPhiPKc
 2396 0e50 2D204000 	move $4,$2
 2397              	.set macro
 2398              	.set reorder
 2399              	
 2400 0e54 0000B0DF 	ld $16,0($sp)
 2401 0e58 1000BFDF 	ld $31,16($sp)
 2402 0e5c 2A100200 	slt $2,$0,$2
 2403              	.set noreorder
 2404              	.set nomacro
 2405 0e60 0800E003 	j $31
 2406 0e64 2000BD27 	addu $sp,$sp,32
 2407              	.set macro
 2408              	.set reorder
 2409              	
 2410              	.end _Z24_MainLoopLoadSnesPalettePKc
 2411              	$Lfe21:
 2412              	.size _Z24_MainLoopLoadSnesPalettePKc,$Lfe21-_Z24_MainLoopLoadSnesPalettePKc
 2413              	.rdata
 2414 0172 00000000 	.align 3
 2414      0000
 2415              	$LC18:
 2416 0178 524F4D20 	.ascii "ROM data read: %s (%d bytes)\n\000"
 2416      64617461 
 2416      20726561 
 2416      643A2025 
 2416      73202825 
GAS LISTING  			page 46


 2417 0196 0000     	.align 3
 2418              	$LC19:
 2419 0198 524F4D4E 	.ascii "ROMName: '%s'\n\000"
 2419      616D653A 
 2419      20272573 
 2419      270A00
 2420 01a7 00       	.align 3
 2421              	$LC23:
 2422 01a8 524F4D20 	.ascii "ROM Loaded: %s\n\000"
 2422      4C6F6164 
 2422      65643A20 
 2422      25730A00 
 2423              	.align 3
 2424              	$LC24:
 2425 01b8 3C756E6B 	.ascii "<unknown>\000"
 2425      6E6F776E 
 2425      3E00
 2426 01c2 00000000 	.align 3
 2426      0000
 2427              	$LC25:
 2428 01c8 5741524E 	.ascii "WARNING: Unsupported NES Mapper\000"
 2428      494E473A 
 2428      20556E73 
 2428      7570706F 
 2428      72746564 
 2429              	.align 3
 2430              	$LC26:
 2431 01e8 526F6D20 	.ascii "Rom Title: %s\n\000"
 2431      5469746C 
 2431      653A2025 
 2431      730A00
 2432 01f7 00       	.align 3
 2433              	$LC27:
 2434 01f8 25733A20 	.ascii "%s: %d bytes\n\000"
 2434      25642062 
 2434      79746573 
 2434      0A00
 2435 0206 0000     	.align 3
 2436              	$LC21:
 2437 0208 6469736B 	.ascii "disksys.rom\000"
 2437      7379732E 
 2437      726F6D00 
 2438 0214 00000000 	.align 3
 2439              	$LC22:
 2440 0218 46445352 	.ascii "FDSRom: '%s'\n\000"
 2440      6F6D3A20 
 2440      27257327 
 2440      0A00
 2441 0226 0000     	.align 3
 2442              	$LC20:
 2443 0228 4552524F 	.ascii "ERROR: Cannot load disksys.rom\000"
 2443      523A2043 
 2443      616E6E6F 
 2443      74206C6F 
 2443      61642064 
 2444              	.text
 2445              	.align 2
GAS LISTING  			page 47


 2446              	.p2align 3,,7
 2447              	.ent _Z20_MainLoopExecuteFilePKch
 2448              	_Z20_MainLoopExecuteFilePKch:
 2449              	.frame $sp,656,$31
 2450              	.mask 0x807f0000,-16
 2451              	.fmask 0x00000000,0
 2452 0e68 70FDBD27 	subu $sp,$sp,656
 2453 0e6c 2D180000 	move $3,$0
 2454 0e70 5002B4FF 	sd $20,592($sp)
 2455 0e74 FF00B430 	andi $20,$5,0x00ff
 2456 0e78 2002B1FF 	sd $17,544($sp)
 2457 0e7c 2D888000 	move $17,$4
 2458 0e80 8002BFFF 	sd $31,640($sp)
 2459 0e84 7002B6FF 	sd $22,624($sp)
 2460 0e88 6002B5FF 	sd $21,608($sp)
 2461 0e8c 4002B3FF 	sd $19,576($sp)
 2462 0e90 3002B2FF 	sd $18,560($sp)
 2463              	.set noreorder
 2464              	.set nomacro
 2465 0e94 44008010 	beq $4,$0,$L163
 2466 0e98 1002B0FF 	sd $16,528($sp)
 2467              	.set macro
 2468              	.set reorder
 2469              	
 2470 0e9c 2D288000 	move $5,$4
 2471              	.set noreorder
 2472              	.set nomacro
 2473 0ea0 0000000C 	jal strcpy
 2474 0ea4 2D20A003 	move $4,$sp
 2475              	.set macro
 2476              	.set reorder
 2477              	
 2478 0ea8 01000524 	li $5,1
 2479              	.set noreorder
 2480              	.set nomacro
 2481 0eac 0000000C 	jal fioOpen
 2482 0eb0 2D202002 	move $4,$17
 2483              	.set macro
 2484              	.set reorder
 2485              	
 2486              	.set noreorder
 2487              	.set nomacro
 2488 0eb4 3C004004 	bltz $2,$L163
 2489 0eb8 2D180000 	move $3,$0
 2490              	.set macro
 2491              	.set reorder
 2492              	
 2493              	.set noreorder
 2494              	.set nomacro
 2495 0ebc 0000000C 	jal fioClose
 2496 0ec0 2D204000 	move $4,$2
 2497              	.set macro
 2498              	.set reorder
 2499              	
 2500 0ec4 0002A527 	addu $5,$sp,512
 2501 0ec8 2D20A003 	move $4,$sp
 2502              	.set noreorder
GAS LISTING  			page 48


 2503              	.set nomacro
 2504 0ecc 0000000C 	jal _Z14PathExtResolvePcPjh
 2505 0ed0 01000624 	li $6,1
 2506              	.set macro
 2507              	.set reorder
 2508              	
 2509              	.set noreorder
 2510              	.set nomacro
 2511 0ed4 34004010 	beq $2,$0,$L163
 2512 0ed8 2D180000 	move $3,$0
 2513              	.set macro
 2514              	.set reorder
 2515              	
 2516 0edc 0002A38F 	lw $3,512($sp)
 2517 0ee0 06000224 	li $2,6
 2518 0ee4 27016210 	beq $3,$2,$L217
 2518      00000000 
 2519 0eec 3E02000C 	jal _Z18_MainLoopUnloadRomv
 2519      00000000 
 2520 0ef4 A80B000C 	jal _Z28_MainLoopResetInputChecksumsv
 2520      00000000 
 2521 0efc 0000023C 	lui $2,%hi(_RomData)
 2522 0f00 C0015024 	addiu $16,$2,%lo(_RomData)
 2523 0f04 4000063C 	dli $6,0x400400
 2523      0004C634 
 2524 0f0c 2D280000 	move $5,$0
 2525              	.set noreorder
 2526              	.set nomacro
 2527 0f10 0000000C 	jal memset
 2528 0f14 2D200002 	move $4,$16
 2529              	.set macro
 2530              	.set reorder
 2531              	
 2532 0f18 0002A38F 	lw $3,512($sp)
 2533              	
 2534              	.set noreorder
 2535              	.set nomacro
 2536 0f1c 0C016010 	beq $3,$0,$L218
 2537 0f20 01000224 	li $2,1
 2538              	.set macro
 2539              	.set reorder
 2540              	
 2541              	.set noreorder
 2542              	.set nomacro
 2543 0f24 FB006210 	beq $3,$2,$L219
 2544 0f28 4000053C 	li $5,4194304
 2545              	.set macro
 2546              	.set reorder
 2547              	
 2548 0f2c 2D200002 	move $4,$16
 2549 0f30 0004A534 	ori $5,$5,0x400
 2550              	.set noreorder
 2551              	.set nomacro
 2552 0f34 8402000C 	jal _Z23_MainLoopReadBinaryDataPhiPKc
 2553 0f38 2D302002 	move $6,$17
 2554              	.set macro
 2555              	.set reorder
GAS LISTING  			page 49


 2556              	
 2557 0f3c 2D984000 	move $19,$2
 2558              	$L170:
 2559              	.set noreorder
 2560              	.set nomacro
 2561 0f40 1700601A 	blez $19,$L213
 2562 0f44 0000103C 	lui $16,%hi(_RomName)
 2563              	.set macro
 2564              	.set reorder
 2565              	
 2566 0f48 0000043C 	lui $4,%hi($LC18)
 2567 0f4c 2D306002 	move $6,$19
 2568 0f50 2D282002 	move $5,$17
 2569 0f54 78018424 	addiu $4,$4,%lo($LC18)
 2570              	.set noreorder
 2571              	.set nomacro
 2572 0f58 0000000C 	jal printf
 2573 0f5c 28001026 	addiu $16,$16,%lo(_RomName)
 2574              	.set macro
 2575              	.set reorder
 2576              	
 2577 0f60 2D200002 	move $4,$16
 2578              	.set noreorder
 2579              	.set nomacro
 2580 0f64 A000000C 	jal _Z16_MainLoopGetNamePcS_
 2581 0f68 2D28A003 	move $5,$sp
 2582              	.set macro
 2583              	.set reorder
 2584              	
 2585 0f6c 0000043C 	lui $4,%hi($LC19)
 2586 0f70 2D280002 	move $5,$16
 2587              	.set noreorder
 2588              	.set nomacro
 2589 0f74 0000000C 	jal printf
 2590 0f78 98018424 	addiu $4,$4,%lo($LC19)
 2591              	.set macro
 2592              	.set reorder
 2593              	
 2594 0f7c 03000224 	li $2,3
 2595 0f80 0002A38F 	lw $3,512($sp)
 2596              	
 2597              	.set noreorder
 2598              	.set nomacro
 2599 0f84 DC006210 	beq $3,$2,$L178
 2600 0f88 0400622C 	sltu $2,$3,4
 2601              	.set macro
 2602              	.set reorder
 2603              	
 2604              	.set noreorder
 2605              	.set nomacro
 2606 0f8c C8004010 	beq $2,$0,$L183
 2607 0f90 04000224 	li $2,4
 2608              	.set macro
 2609              	.set reorder
 2610              	
 2611 0f94 02000224 	li $2,2
 2612              	.set noreorder
GAS LISTING  			page 50


 2613              	.set nomacro
 2614 0f98 0E006210 	beq $3,$2,$L177
 2615 0f9c 0000023C 	lui $2,%hi(_pNes)
 2616              	.set macro
 2617              	.set reorder
 2618              	
 2619              	$L213:
 2620 0fa0 2D180000 	move $3,$0
 2621 0fa4 00000000 	.p2align 3
 2622              	$L163:
 2623 0fa8 8002BFDF 	ld $31,640($sp)
 2624              	$L229:
 2625 0fac 2D106000 	move $2,$3
 2626 0fb0 7002B6DF 	ld $22,624($sp)
 2627 0fb4 6002B5DF 	ld $21,608($sp)
 2628 0fb8 5002B4DF 	ld $20,592($sp)
 2629 0fbc 4002B3DF 	ld $19,576($sp)
 2630 0fc0 3002B2DF 	ld $18,560($sp)
 2631 0fc4 2002B1DF 	ld $17,544($sp)
 2632 0fc8 1002B0DF 	ld $16,528($sp)
 2633              	
 2634              	.set noreorder
 2635              	.set nomacro
 2636 0fcc 0800E003 	j $31
 2637 0fd0 9002BD27 	addu $sp,$sp,656
 2638              	.set macro
 2639              	.set reorder
 2640              	
 2641              	$L177:
 2642 0fd4 0000033C 	lui $3,%hi(_pNesRom)
 2643 0fd8 1800558C 	lw $21,%lo(_pNes)($2)
 2644 0fdc 2D800000 	move $16,$0
 2645 0fe0 1C00728C 	lw $18,%lo(_pNesRom)($3)
 2646              	$L215:
 2647 0fe4 4C3F013C 	li.s $f0,8.00000011920928955078e-1
 2647      CDCC2134 
 2647      00008144 
 2648              	$L211:
 2649 0ff0 0000023C 	lui $2,%hi(_MainLoop_fOutputIntensity)
 2650              	.set noreorder
 2651              	.set nomacro
 2652 0ff4 06000012 	beq $16,$0,$L184
 2653 0ff8 200140E4 	s.s $f0,%lo(_MainLoop_fOutputIntensity)($2)
 2654              	.set macro
 2655              	.set reorder
 2656              	
 2657              	.set noreorder
 2658              	.set nomacro
 2659 0ffc AA004012 	beq $18,$0,$L220
 2660 1000 2D200002 	move $4,$16
 2661              	.set macro
 2662              	.set reorder
 2663              	
 2664 1004 04000292 	lbu $2,4($16)
 2665              	
 2666              	.set noreorder
 2667              	.set nomacro
GAS LISTING  			page 51


 2668 1008 86004010 	beq $2,$0,$L221
 2669 100c 0001B627 	addu $22,$sp,256
 2670              	.set macro
 2671              	.set reorder
 2672              	
 2673              	$L184:
 2674              	.set noreorder
 2675              	.set nomacro
 2676 1010 07004012 	beq $18,$0,$L193
 2677 1014 2D306002 	move $6,$19
 2678              	.set macro
 2679              	.set reorder
 2680              	
 2681 1018 0000053C 	lui $5,%hi(_RomData)
 2682 101c 2D204002 	move $4,$18
 2683              	.set noreorder
 2684              	.set nomacro
 2685 1020 1E03000C 	jal _Z20_MainLoopLoadRomDataP7CEmuRomPhi
 2686 1024 C001A524 	addiu $5,$5,%lo(_RomData)
 2687              	.set macro
 2688              	.set reorder
 2689              	
 2690              	.set noreorder
 2691              	.set nomacro
 2692 1028 DFFF4010 	beq $2,$0,$L163
 2693 102c 2D180000 	move $3,$0
 2694              	.set macro
 2695              	.set reorder
 2696              	
 2697              	$L193:
 2698              	.set noreorder
 2699              	.set nomacro
 2700 1030 75000012 	beq $16,$0,$L195
 2701 1034 2D280002 	move $5,$16
 2702              	.set macro
 2703              	.set reorder
 2704              	
 2705 1038 0000A38E 	lw $3,0($21)
 2706              	
 2707 103c 0800628C 	lw $2,8($3)
 2708              	
 2709              	.set noreorder
 2710              	.set nomacro
 2711 1040 09F84000 	jal $31,$2
 2712 1044 2D20A002 	move $4,$21
 2713              	.set macro
 2714              	.set reorder
 2715              	
 2716 1048 0000023C 	lui $2,%hi(_pNes)
 2717 104c 0000033C 	lui $3,%hi(_pNesFDSDisk)
 2718 1050 1800448C 	lw $4,%lo(_pNes)($2)
 2719              	.set noreorder
 2720              	.set nomacro
 2721 1054 0000000C 	jal _ZN9NesSystem10SetNesDiskEP7NesDisk
 2722 1058 2400658C 	lw $5,%lo(_pNesFDSDisk)($3)
 2723              	.set macro
 2724              	.set reorder
GAS LISTING  			page 52


 2725              	
 2726 105c 0000A38E 	lw $3,0($21)
 2727              	$L228:
 2728 1060 0C00628C 	lw $2,12($3)
 2729              	
 2730              	.set noreorder
 2731              	.set nomacro
 2732 1064 09F84000 	jal $31,$2
 2733 1068 2D20A002 	move $4,$21
 2734              	.set macro
 2735              	.set reorder
 2736              	
 2737 106c 0000043C 	lui $4,%hi($LC23)
 2738 1070 0000023C 	lui $2,%hi(_pSystem)
 2739 1074 2D282002 	move $5,$17
 2740 1078 A8018424 	addiu $4,$4,%lo($LC23)
 2741              	.set noreorder
 2742              	.set nomacro
 2743 107c 0000000C 	jal printf
 2744 1080 280155AC 	sw $21,%lo(_pSystem)($2)
 2745              	.set macro
 2746              	.set reorder
 2747              	
 2748              	.set noreorder
 2749              	.set nomacro
 2750 1084 31004052 	beql $18,$0,$L230
 2751 1088 0000A38E 	lw $3,0($21)
 2752              	.set macro
 2753              	.set reorder
 2754              	
 2755              	
 2756 108c 0000438E 	lw $3,0($18)
 2757              	
 2758 1090 2800628C 	lw $2,40($3)
 2759              	
 2760              	.set noreorder
 2761              	.set nomacro
 2762 1094 09F84000 	jal $31,$2
 2763 1098 2D204002 	move $4,$18
 2764              	.set macro
 2765              	.set reorder
 2766              	
 2767              	.set noreorder
 2768              	.set nomacro
 2769 109c 06004010 	beq $2,$0,$L198
 2770 10a0 0000053C 	lui $5,%hi($LC24)
 2771              	.set macro
 2772              	.set reorder
 2773              	
 2774 10a4 2D204000 	move $4,$2
 2775              	.set noreorder
 2776              	.set nomacro
 2777 10a8 0000000C 	jal strcmp
 2778 10ac B801A524 	addiu $5,$5,%lo($LC24)
 2779              	.set macro
 2780              	.set reorder
 2781              	
GAS LISTING  			page 53


 2782              	.set noreorder
 2783              	.set nomacro
 2784 10b0 50004010 	beq $2,$0,$L222
 2785 10b4 0000053C 	lui $5,%hi($LC25)
 2786              	.set macro
 2787              	.set reorder
 2788              	
 2789              	$L198:
 2790 10b8 0000438E 	lw $3,0($18)
 2791              	$L227:
 2792 10bc 2400628C 	lw $2,36($3)
 2793              	
 2794              	.set noreorder
 2795              	.set nomacro
 2796 10c0 09F84000 	jal $31,$2
 2797 10c4 2D204002 	move $4,$18
 2798              	.set macro
 2799              	.set reorder
 2800              	
 2801              	.set noreorder
 2802              	.set nomacro
 2803 10c8 04004010 	beq $2,$0,$L199
 2804 10cc 0000043C 	lui $4,%hi($LC26)
 2805              	.set macro
 2806              	.set reorder
 2807              	
 2808 10d0 2D284000 	move $5,$2
 2809              	.set noreorder
 2810              	.set nomacro
 2811 10d4 0000000C 	jal printf
 2812 10d8 E8018424 	addiu $4,$4,%lo($LC26)
 2813              	.set macro
 2814              	.set reorder
 2815              	
 2816              	$L199:
 2817 10dc 0000438E 	lw $3,0($18)
 2818 10e0 2D204002 	move $4,$18
 2819 10e4 1800628C 	lw $2,24($3)
 2820              	
 2821              	.set noreorder
 2822              	.set nomacro
 2823 10e8 09F84000 	jal $31,$2
 2824 10ec 2D880000 	move $17,$0
 2825              	.set macro
 2826              	.set reorder
 2827              	
 2828              	.set noreorder
 2829              	.set nomacro
 2830 10f0 15004018 	blez $2,$L197
 2831 10f4 2D984000 	move $19,$2
 2832              	.set macro
 2833              	.set reorder
 2834              	
 2835 10f8 0000163C 	lui $22,%hi($LC27)
 2836 10fc 0000438E 	lw $3,0($18)
 2837              	$L231:
 2838 1100 2D282002 	move $5,$17
GAS LISTING  			page 54


 2839 1104 1C00628C 	lw $2,28($3)
 2840              	
 2841              	.set noreorder
 2842              	.set nomacro
 2843 1108 09F84000 	jal $31,$2
 2844 110c 2D204002 	move $4,$18
 2845              	.set macro
 2846              	.set reorder
 2847              	
 2848 1110 2D204002 	move $4,$18
 2849 1114 0000438E 	lw $3,0($18)
 2850 1118 2D804000 	move $16,$2
 2851 111c 2D282002 	move $5,$17
 2852 1120 2000628C 	lw $2,32($3)
 2853              	
 2854              	.set noreorder
 2855              	.set nomacro
 2856 1124 09F84000 	jal $31,$2
 2857 1128 01003126 	addu $17,$17,1
 2858              	.set macro
 2859              	.set reorder
 2860              	
 2861 112c F801C426 	addiu $4,$22,%lo($LC27)
 2862 1130 2D280002 	move $5,$16
 2863              	.set noreorder
 2864              	.set nomacro
 2865 1134 0000000C 	jal printf
 2866 1138 2D304000 	move $6,$2
 2867              	.set macro
 2868              	.set reorder
 2869              	
 2870 113c 2A183302 	slt $3,$17,$19
 2871              	.set noreorder
 2872              	.set nomacro
 2873 1140 EFFF6054 	bnel $3,$0,$L231
 2874 1144 0000438E 	lw $3,0($18)
 2875              	.set macro
 2876              	.set reorder
 2877              	
 2878              	$L197:
 2879 1148 0000A38E 	lw $3,0($21)
 2880              	$L230:
 2881 114c 3000628C 	lw $2,48($3)
 2882              	
 2883              	.set noreorder
 2884              	.set nomacro
 2885 1150 09F84000 	jal $31,$2
 2886 1154 2D20A002 	move $4,$21
 2887              	.set macro
 2888              	.set reorder
 2889              	
 2890              	.set noreorder
 2891              	.set nomacro
 2892 1158 A40B000C 	jal _Z22_MainLoopSetSampleRatej
 2893 115c 2D204000 	move $4,$2
 2894              	.set macro
 2895              	.set reorder
GAS LISTING  			page 55


 2896              	
 2897 1160 20008016 	bne $20,$0,$L223
 2897      00000000 
 2898 1168 0000103C 	lui $16,%hi(_fbTexture)
 2899              	$L226:
 2900              	.set noreorder
 2901              	.set nomacro
 2902 116c 0000000C 	jal _ZN8CSurface5ClearEv
 2903 1170 3001048E 	lw $4,%lo(_fbTexture)($16)
 2904              	.set macro
 2905              	.set reorder
 2906              	
 2907              	
 2908 1174 3001048E 	lw $4,%lo(_fbTexture)($16)
 2909              	.set noreorder
 2910              	.set nomacro
 2911 1178 0000000C 	jal _ZN8CSurface10GetLinePtrEi
 2912 117c 2D280000 	move $5,$0
 2913              	.set macro
 2914              	.set reorder
 2915              	
 2916 1180 0000043C 	lui $4,%hi(_OutTex)
 2917 1184 2D284000 	move $5,$2
 2918              	.set noreorder
 2919              	.set nomacro
 2920 1188 0000000C 	jal _Z13TextureUploadP8TextureTPh
 2921 118c 38018424 	addiu $4,$4,%lo(_OutTex)
 2922              	.set macro
 2923              	.set reorder
 2924              	
 2925 1190 03000224 	li $2,3
 2926 1194 0002A38F 	lw $3,512($sp)
 2927              	
 2928              	.set noreorder
 2929              	.set nomacro
 2930 1198 03006210 	beq $3,$2,$L224
 2931 119c 0000023C 	lui $2,%hi(_pNes)
 2932              	.set macro
 2933              	.set reorder
 2934              	
 2935              	.set noreorder
 2936              	.set nomacro
 2937 11a0 81FF0010 	b $L163
 2938 11a4 01000324 	li $3,1
 2939              	.set macro
 2940              	.set reorder
 2941              	
 2942              	$L224:
 2943 11a8 01000424 	li $4,1
 2944 11ac 1800458C 	lw $5,%lo(_pNes)($2)
 2945 11b0 00800334 	li $3,32768
 2946 11b4 0000023C 	lui $2,%hi(_MainLoop_bDiskInserted)
 2947 11b8 080044A0 	sb $4,%lo(_MainLoop_bDiskInserted)($2)
 2948 11bc 2128A300 	addu $5,$5,$3
 2949 11c0 0000023C 	lui $2,%hi(_MainLoop_iDisk)
 2950 11c4 A443A48C 	lw $4,17316($5)
 2951 11c8 040040AC 	sw $0,%lo(_MainLoop_iDisk)($2)
GAS LISTING  			page 56


 2952 11cc 0000838C 	lw $3,0($4)
 2953              	
 2954 11d0 2400628C 	lw $2,36($3)
 2955              	
 2956              	.set noreorder
 2957              	.set nomacro
 2958 11d4 09F84000 	jal $31,$2
 2959 11d8 2D280000 	move $5,$0
 2960              	.set macro
 2961              	.set reorder
 2962              	
 2963              	.set noreorder
 2964              	.set nomacro
 2965 11dc 72FF0010 	b $L163
 2966 11e0 01000324 	li $3,1
 2967              	.set macro
 2968              	.set reorder
 2969              	
 2970              	$L223:
 2971              	.set noreorder
 2972              	.set nomacro
 2973 11e4 2001000C 	jal _Z17_MainLoopLoadSRAMv
 2974 11e8 0000103C 	lui $16,%hi(_fbTexture)
 2975              	.set macro
 2976              	.set reorder
 2977              	
 2978 11ec DFFF0010 	b $L226
 2978      00000000 
 2979              	$L222:
 2980 11f4 3C000424 	li $4,60
 2981              	.set noreorder
 2982              	.set nomacro
 2983 11f8 0000000C 	jal _Z19MainLoopModalPrintfiPcz
 2984 11fc C801A524 	addiu $5,$5,%lo($LC25)
 2985              	.set macro
 2986              	.set reorder
 2987              	
 2988              	.set noreorder
 2989              	.set nomacro
 2990 1200 AEFF0010 	b $L227
 2991 1204 0000438E 	lw $3,0($18)
 2992              	.set macro
 2993              	.set reorder
 2994              	
 2995              	$L195:
 2996              	
 2997 1208 0000A38E 	lw $3,0($21)
 2998 120c 2D20A002 	move $4,$21
 2999 1210 0800628C 	lw $2,8($3)
 3000              	
 3001              	.set noreorder
 3002              	.set nomacro
 3003 1214 09F84000 	jal $31,$2
 3004 1218 2D284002 	move $5,$18
 3005              	.set macro
 3006              	.set reorder
 3007              	
GAS LISTING  			page 57


 3008              	.set noreorder
 3009              	.set nomacro
 3010 121c 90FF0010 	b $L228
 3011 1220 0000A38E 	lw $3,0($21)
 3012              	.set macro
 3013              	.set reorder
 3014              	
 3015              	$L221:
 3016 1224 2D28A003 	move $5,$sp
 3017              	.set noreorder
 3018              	.set nomacro
 3019 1228 0000000C 	jal strcpy
 3020 122c 2D20C002 	move $4,$22
 3021              	.set macro
 3022              	.set reorder
 3023              	
 3024 1230 2F000524 	li $5,47
 3025              	.set noreorder
 3026              	.set nomacro
 3027 1234 0000000C 	jal strrchr
 3028 1238 2D20C002 	move $4,$22
 3029              	.set macro
 3030              	.set reorder
 3031              	
 3032              	.set noreorder
 3033              	.set nomacro
 3034 123c 14004050 	beql $2,$0,$L225
 3035 1240 2D20C002 	move $4,$22
 3036              	.set macro
 3037              	.set reorder
 3038              	
 3039              	$L191:
 3040 1244 0000053C 	lui $5,%hi($LC21)
 3041 1248 01004424 	addu $4,$2,1
 3042              	.set noreorder
 3043              	.set nomacro
 3044 124c 0000000C 	jal strcpy
 3045 1250 0802A524 	addiu $5,$5,%lo($LC21)
 3046              	.set macro
 3047              	.set reorder
 3048              	
 3049 1254 0000043C 	lui $4,%hi($LC22)
 3050 1258 2D28C002 	move $5,$22
 3051              	.set noreorder
 3052              	.set nomacro
 3053 125c 0000000C 	jal printf
 3054 1260 18028424 	addiu $4,$4,%lo($LC22)
 3055              	.set macro
 3056              	.set reorder
 3057              	
 3058 1264 2D28C002 	move $5,$22
 3059 1268 2D200002 	move $4,$16
 3060              	$L216:
 3061 126c 5003000C 	jal _Z17_MainLoopLoadBiosP7CEmuRomPKc
 3061      00000000 
 3062              	.set noreorder
 3063              	.set nomacro
GAS LISTING  			page 58


 3064 1274 66FF4014 	bne $2,$0,$L184
 3065 1278 0000053C 	lui $5,%hi($LC20)
 3066              	.set macro
 3067              	.set reorder
 3068              	
 3069 127c 2C010424 	li $4,300
 3070              	.set noreorder
 3071              	.set nomacro
 3072 1280 0000000C 	jal _Z19MainLoopModalPrintfiPcz
 3073 1284 2802A524 	addiu $5,$5,%lo($LC20)
 3074              	.set macro
 3075              	.set reorder
 3076              	
 3077              	.set noreorder
 3078              	.set nomacro
 3079 1288 47FF0010 	b $L163
 3080 128c 2D180000 	move $3,$0
 3081              	.set macro
 3082              	.set reorder
 3083              	
 3084              	$L225:
 3085              	.set noreorder
 3086              	.set nomacro
 3087 1290 0000000C 	jal strrchr
 3088 1294 3A000524 	li $5,58
 3089              	.set macro
 3090              	.set reorder
 3091              	
 3092              	.set noreorder
 3093              	.set nomacro
 3094 1298 EAFF4014 	bne $2,$0,$L191
 3095 129c 2D180000 	move $3,$0
 3096              	.set macro
 3097              	.set reorder
 3098              	
 3099              	.set noreorder
 3100              	.set nomacro
 3101 12a0 42FF0010 	b $L229
 3102 12a4 8002BFDF 	ld $31,640($sp)
 3103              	.set macro
 3104              	.set reorder
 3105              	
 3106              	$L220:
 3107              	.set noreorder
 3108              	.set nomacro
 3109 12a8 F0FF0010 	b $L216
 3110 12ac 2D282002 	move $5,$17
 3111              	.set macro
 3112              	.set reorder
 3113              	
 3114              	$L183:
 3115              	.set noreorder
 3116              	.set nomacro
 3117 12b0 0B006210 	beq $3,$2,$L179
 3118 12b4 05000224 	li $2,5
 3119              	.set macro
 3120              	.set reorder
GAS LISTING  			page 59


 3121              	
 3122              	.set noreorder
 3123              	.set nomacro
 3124 12b8 3BFF6214 	bne $3,$2,$L163
 3125 12bc 2D180000 	move $3,$0
 3126              	.set macro
 3127              	.set reorder
 3128              	
 3129 12c0 0000023C 	lui $2,%hi(_pSnes)
 3130 12c4 0000033C 	lui $3,%hi(_pSnesRom)
 3131 12c8 1000558C 	lw $21,%lo(_pSnes)($2)
 3132 12cc 2D800000 	move $16,$0
 3133 12d0 803F013C 	li.s $f0,1.00000000000000000000e0
 3133      00008144 
 3134              	.set noreorder
 3135              	.set nomacro
 3136 12d8 45FF0010 	b $L211
 3137 12dc 1400728C 	lw $18,%lo(_pSnesRom)($3)
 3138              	.set macro
 3139              	.set reorder
 3140              	
 3141              	$L179:
 3142 12e0 0000023C 	lui $2,%hi(_pNes)
 3143 12e4 0000033C 	lui $3,%hi(_pNesFDSBios)
 3144 12e8 1800558C 	lw $21,%lo(_pNes)($2)
 3145 12ec 2D900000 	move $18,$0
 3146              	.set noreorder
 3147              	.set nomacro
 3148 12f0 3CFF0010 	b $L215
 3149 12f4 2000708C 	lw $16,%lo(_pNesFDSBios)($3)
 3150              	.set macro
 3151              	.set reorder
 3152              	
 3153              	$L178:
 3154 12f8 0000023C 	lui $2,%hi(_pNes)
 3155 12fc 0000033C 	lui $3,%hi(_pNesFDSDisk)
 3156 1300 1800558C 	lw $21,%lo(_pNes)($2)
 3157 1304 0000023C 	lui $2,%hi(_pNesFDSBios)
 3158 1308 2400728C 	lw $18,%lo(_pNesFDSDisk)($3)
 3159              	.set noreorder
 3160              	.set nomacro
 3161 130c 35FF0010 	b $L215
 3162 1310 2000508C 	lw $16,%lo(_pNesFDSBios)($2)
 3163              	.set macro
 3164              	.set reorder
 3165              	
 3166              	$L219:
 3167              	
 3168 1314 2D200002 	move $4,$16
 3169 1318 0004A534 	ori $5,$5,0x400
 3170 131c 2D302002 	move $6,$17
 3171              	.set noreorder
 3172              	.set nomacro
 3173 1320 BC02000C 	jal _Z20_MainLoopReadZipDataPhiPKcPc
 3174 1324 2D38A003 	move $7,$sp
 3175              	.set macro
 3176              	.set reorder
GAS LISTING  			page 60


 3177              	
 3178              	.set noreorder
 3179              	.set nomacro
 3180 1328 1DFF4018 	blez $2,$L213
 3181 132c 2D984000 	move $19,$2
 3182              	.set macro
 3183              	.set reorder
 3184              	
 3185 1330 2D20A003 	move $4,$sp
 3186 1334 0002A527 	addu $5,$sp,512
 3187              	.set noreorder
 3188              	.set nomacro
 3189 1338 0000000C 	jal _Z14PathExtResolvePcPjh
 3190 133c 01000624 	li $6,1
 3191              	.set macro
 3192              	.set reorder
 3193              	
 3194              	.set noreorder
 3195              	.set nomacro
 3196 1340 19FF4010 	beq $2,$0,$L163
 3197 1344 2D180000 	move $3,$0
 3198              	.set macro
 3199              	.set reorder
 3200              	
 3201 1348 FDFE0010 	b $L170
 3201      00000000 
 3202              	$L218:
 3203 1350 2D20A003 	move $4,$sp
 3204 1354 0002A527 	addu $5,$sp,512
 3205              	.set noreorder
 3206              	.set nomacro
 3207 1358 0000000C 	jal _Z14PathExtResolvePcPjh
 3208 135c 01000624 	li $6,1
 3209              	.set macro
 3210              	.set reorder
 3211              	
 3212              	.set noreorder
 3213              	.set nomacro
 3214 1360 11FF4010 	beq $2,$0,$L163
 3215 1364 2D180000 	move $3,$0
 3216              	.set macro
 3217              	.set reorder
 3218              	
 3219 1368 4000053C 	li $5,4194304
 3220 136c 2D200002 	move $4,$16
 3221 1370 0004A534 	ori $5,$5,0x400
 3222              	.set noreorder
 3223              	.set nomacro
 3224 1374 A002000C 	jal _Z19_MainLoopReadGZDataPhiPKc
 3225 1378 2D302002 	move $6,$17
 3226              	.set macro
 3227              	.set reorder
 3228              	
 3229              	.set noreorder
 3230              	.set nomacro
 3231 137c F0FE0010 	b $L170
 3232 1380 2D984000 	move $19,$2
GAS LISTING  			page 61


 3233              	.set macro
 3234              	.set reorder
 3235              	
 3236              	$L217:
 3237              	.set noreorder
 3238              	.set nomacro
 3239 1384 8C03000C 	jal _Z24_MainLoopLoadSnesPalettePKc
 3240 1388 2D202002 	move $4,$17
 3241              	.set macro
 3242              	.set reorder
 3243              	
 3244              	.set noreorder
 3245              	.set nomacro
 3246 138c 06FF0010 	b $L163
 3247 1390 2D184000 	move $3,$2
 3248              	.set macro
 3249              	.set reorder
 3250              	
 3251              	.end _Z20_MainLoopExecuteFilePKch
 3252              	$Lfe22:
 3253              	.size _Z20_MainLoopExecuteFilePKch,$Lfe22-_Z20_MainLoopExecuteFilePKch
 3254              	.align 2
 3255 1394 00000000 	.p2align 3,,7
 3256              	.ent _Z19_MainLoopSetPalette7NesPalE
 3257              	_Z19_MainLoopSetPalette7NesPalE:
 3258              	.frame $sp,592,$31
 3259              	.mask 0x800f0000,-16
 3260              	.fmask 0x00000000,0
 3261 1398 B0FDBD27 	subu $sp,$sp,592
 3262 139c 4002BFFF 	sd $31,576($sp)
 3263 13a0 3002B3FF 	sd $19,560($sp)
 3264 13a4 0000133C 	lui $19,%hi(_fbTexture)
 3265 13a8 2002B2FF 	sd $18,544($sp)
 3266 13ac 30017226 	addiu $18,$19,%lo(_fbTexture)
 3267 13b0 1002B1FF 	sd $17,528($sp)
 3268 13b4 0001B127 	addu $17,$sp,256
 3269 13b8 0002B0FF 	sd $16,512($sp)
 3270              	.set noreorder
 3271              	.set nomacro
 3272 13bc 0000000C 	jal _Z21NesPalGetStockPalette7NesPalE
 3273 13c0 2D800000 	move $16,$0
 3274              	.set macro
 3275              	.set reorder
 3276              	
 3277 13c4 00010624 	dli $6,0x100
 3278 13c8 2D20A003 	move $4,$sp
 3279              	.set noreorder
 3280              	.set nomacro
 3281 13cc 0000000C 	jal memcpy
 3282 13d0 2D284000 	move $5,$2
 3283              	.set macro
 3284              	.set reorder
 3285              	
 3286 13d4 2D200002 	move $4,$16
 3287              	$L240:
 3288 13d8 2D282002 	move $5,$17
 3289 13dc 2D30A003 	move $6,$sp
GAS LISTING  			page 62


 3290              	.set noreorder
 3291              	.set nomacro
 3292 13e0 0000000C 	jal _Z20NesPalComposePaletteiP8Color32TS0_j
 3293 13e4 40000724 	li $7,64
 3294              	.set macro
 3295              	.set reorder
 3296              	
 3297 13e8 2D302002 	move $6,$17
 3298 13ec 3001648E 	lw $4,%lo(_fbTexture)($19)
 3299 13f0 2D280002 	move $5,$16
 3300              	.set noreorder
 3301              	.set nomacro
 3302 13f4 0000000C 	jal _ZN14CRenderSurface17SetPaletteEntriesEiP8Color32Ti
 3303 13f8 40000724 	li $7,64
 3304              	.set macro
 3305              	.set reorder
 3306              	
 3307 13fc 2D302002 	move $6,$17
 3308 1400 0400448E 	lw $4,4($18)
 3309 1404 2D280002 	move $5,$16
 3310 1408 40000724 	li $7,64
 3311              	.set noreorder
 3312              	.set nomacro
 3313 140c 0000000C 	jal _ZN14CRenderSurface17SetPaletteEntriesEiP8Color32Ti
 3314 1410 01001026 	addu $16,$16,1
 3315              	.set macro
 3316              	.set reorder
 3317              	
 3318 1414 1000022A 	slt $2,$16,16
 3319              	.set noreorder
 3320              	.set nomacro
 3321 1418 EFFF4014 	bne $2,$0,$L240
 3322 141c 2D200002 	move $4,$16
 3323              	.set macro
 3324              	.set reorder
 3325              	
 3326 1420 4002BFDF 	ld $31,576($sp)
 3327 1424 3002B3DF 	ld $19,560($sp)
 3328 1428 2002B2DF 	ld $18,544($sp)
 3329 142c 1002B1DF 	ld $17,528($sp)
 3330 1430 0002B0DF 	ld $16,512($sp)
 3331              	
 3332              	.set noreorder
 3333              	.set nomacro
 3334 1434 0800E003 	j $31
 3335 1438 5002BD27 	addu $sp,$sp,592
 3336              	.set macro
 3337              	.set reorder
 3338              	
 3339              	.end _Z19_MainLoopSetPalette7NesPalE
 3340              	$Lfe23:
 3341              	.size _Z19_MainLoopSetPalette7NesPalE,$Lfe23-_Z19_MainLoopSetPalette7NesPalE
 3342              	.align 2
 3343 143c 00000000 	.p2align 3,,7
 3344              	.ent _Z18_MainLoopSetScreenP7CScreen
 3345              	_Z18_MainLoopSetScreenP7CScreen:
 3346              	.frame $sp,0,$31
GAS LISTING  			page 63


 3347              	.mask 0x00000000,0
 3348              	.fmask 0x00000000,0
 3349 1440 0000023C 	lui $2,%hi(_MainLoop_pScreen)
 3350              	.set noreorder
 3351              	.set nomacro
 3352 1444 0800E003 	j $31
 3353 1448 000044AC 	sw $4,%lo(_MainLoop_pScreen)($2)
 3354              	.set macro
 3355              	.set reorder
 3356              	
 3357              	.end _Z18_MainLoopSetScreenP7CScreen
 3358              	$Lfe24:
 3359              	.size _Z18_MainLoopSetScreenP7CScreen,$Lfe24-_Z18_MainLoopSetScreenP7CScreen
 3360              	.rdata
 3361 0247 00       	.align 3
 3362              	$LC28:
 3363 0248 4552524F 	.ascii "ERROR: %s\n\000"
 3363      523A2025 
 3363      730A00
 3364              	.text
 3365              	.align 2
 3366 144c 00000000 	.p2align 3,,7
 3367              	.ent _Z21_MainLoopBrowserEventjjPv
 3368              	_Z21_MainLoopBrowserEventjjPv:
 3369              	.frame $sp,448,$31
 3370              	.mask 0x80070000,-16
 3371              	.fmask 0x00000000,0
 3372 1450 40FEBD27 	subu $sp,$sp,448
 3373 1454 01000224 	li $2,1
 3374 1458 A001B2FF 	sd $18,416($sp)
 3375 145c 2D90C000 	move $18,$6
 3376 1460 9001B1FF 	sd $17,400($sp)
 3377 1464 2D888000 	move $17,$4
 3378 1468 B001BFFF 	sd $31,432($sp)
 3379              	.set noreorder
 3380              	.set nomacro
 3381 146c 18008210 	beq $4,$2,$L244
 3382 1470 8001B0FF 	sd $16,384($sp)
 3383              	.set macro
 3384              	.set reorder
 3385              	
 3386 1474 02000224 	li $2,2
 3387              	.set noreorder
 3388              	.set nomacro
 3389 1478 09008210 	beq $4,$2,$L249
 3390 147c 7000B027 	addu $16,$sp,112
 3391              	.set macro
 3392              	.set reorder
 3393              	
 3394 1480 2D100000 	move $2,$0
 3395              	$L242:
 3396 1484 B001BFDF 	ld $31,432($sp)
 3397 1488 A001B2DF 	ld $18,416($sp)
 3398 148c 9001B1DF 	ld $17,400($sp)
 3399 1490 8001B0DF 	ld $16,384($sp)
 3400              	
 3401              	.set noreorder
GAS LISTING  			page 64


 3402              	.set nomacro
 3403 1494 0800E003 	j $31
 3404 1498 C001BD27 	addu $sp,$sp,448
 3405              	.set macro
 3406              	.set reorder
 3407              	
 3408 149c 00000000 	.p2align 3
 3409              	$L249:
 3410 14a0 2D28C000 	move $5,$6
 3411              	.set noreorder
 3412              	.set nomacro
 3413 14a4 0000000C 	jal strcpy
 3414 14a8 2D200002 	move $4,$16
 3415              	.set macro
 3416              	.set reorder
 3417              	
 3418 14ac 7001A527 	addu $5,$sp,368
 3419 14b0 2D200002 	move $4,$16
 3420              	.set noreorder
 3421              	.set nomacro
 3422 14b4 0000000C 	jal _Z14PathExtResolvePcPjh
 3423 14b8 01000624 	li $6,1
 3424              	.set macro
 3425              	.set reorder
 3426              	
 3427 14bc 03000324 	li $3,3
 3428 14c0 0A886200 	movz $17,$3,$2
 3429              	.set noreorder
 3430              	.set nomacro
 3431 14c4 EFFF0010 	b $L242
 3432 14c8 2D102002 	move $2,$17
 3433              	.set macro
 3434              	.set reorder
 3435              	
 3436 14cc 00000000 	.p2align 3
 3437              	$L244:
 3438              	.set noreorder
 3439              	.set nomacro
 3440 14d0 0000000C 	jal NetPlayGetStatus
 3441 14d4 2D20A003 	move $4,$sp
 3442              	.set macro
 3443              	.set reorder
 3444              	
 3445 14d8 02000224 	li $2,2
 3446 14dc 0400A38F 	lw $3,4($sp)
 3447              	
 3448              	.set noreorder
 3449              	.set nomacro
 3450 14e0 0F006210 	beq $3,$2,$L253
 3451 14e4 2D204002 	move $4,$18
 3452              	.set macro
 3453              	.set reorder
 3454              	
 3455              	.set noreorder
 3456              	.set nomacro
 3457 14e8 9A03000C 	jal _Z20_MainLoopExecuteFilePKch
 3458 14ec 01000524 	li $5,1
GAS LISTING  			page 65


 3459              	.set macro
 3460              	.set reorder
 3461              	
 3462              	.set noreorder
 3463              	.set nomacro
 3464 14f0 05004010 	beq $2,$0,$L247
 3465 14f4 0000053C 	lui $5,%hi($LC28)
 3466              	.set macro
 3467              	.set reorder
 3468              	
 3469              	.set noreorder
 3470              	.set nomacro
 3471 14f8 4A0E000C 	jal _Z11_MenuEnableh
 3472 14fc 2D200000 	move $4,$0
 3473              	.set macro
 3474              	.set reorder
 3475              	
 3476              	.set noreorder
 3477              	.set nomacro
 3478 1500 E0FF0010 	b $L242
 3479 1504 01000224 	li $2,1
 3480              	.set macro
 3481              	.set reorder
 3482              	
 3483              	$L247:
 3484 1508 2D304002 	move $6,$18
 3485 150c 3C000424 	li $4,60
 3486              	.set noreorder
 3487              	.set nomacro
 3488 1510 0000000C 	jal _Z19MainLoopModalPrintfiPcz
 3489 1514 4802A524 	addiu $5,$5,%lo($LC28)
 3490              	.set macro
 3491              	.set reorder
 3492              	
 3493              	.set noreorder
 3494              	.set nomacro
 3495 1518 DAFF0010 	b $L242
 3496 151c 01000224 	li $2,1
 3497              	.set macro
 3498              	.set reorder
 3499              	
 3500              	$L253:
 3501              	.set noreorder
 3502              	.set nomacro
 3503 1520 0000000C 	jal NetPlayClientSendLoadReq
 3504 1524 2D204002 	move $4,$18
 3505              	.set macro
 3506              	.set reorder
 3507              	
 3508              	.set noreorder
 3509              	.set nomacro
 3510 1528 D6FF0010 	b $L242
 3511 152c 01000224 	li $2,1
 3512              	.set macro
 3513              	.set reorder
 3514              	
 3515              	.end _Z21_MainLoopBrowserEventjjPv
GAS LISTING  			page 66


 3516              	$Lfe25:
 3517              	.size _Z21_MainLoopBrowserEventjjPv,$Lfe25-_Z21_MainLoopBrowserEventjjPv
 3518              	.rdata
 3519 0253 00000000 	.align 3
 3519      00
 3520              	$LC29:
 3521 0258 436F6E6E 	.ascii "Connecting to %08X\n\000"
 3521      65637469 
 3521      6E672074 
 3521      6F202530 
 3521      38580A00 
 3522              	.text
 3523              	.align 2
 3524              	.p2align 3,,7
 3525              	.ent _Z21_MainLoopNetworkEventjjPv
 3526              	_Z21_MainLoopNetworkEventjjPv:
 3527              	.frame $sp,144,$31
 3528              	.mask 0x80010000,-16
 3529              	.fmask 0x00000000,0
 3530 1530 70FFBD27 	subu $sp,$sp,144
 3531 1534 02000224 	li $2,2
 3532 1538 7000B0FF 	sd $16,112($sp)
 3533 153c 2D80A000 	move $16,$5
 3534              	.set noreorder
 3535              	.set nomacro
 3536 1540 21008210 	beq $4,$2,$L257
 3537 1544 8000BFFF 	sd $31,128($sp)
 3538              	.set macro
 3539              	.set reorder
 3540              	
 3541 1548 0300822C 	sltu $2,$4,3
 3542              	.set noreorder
 3543              	.set nomacro
 3544 154c 12004010 	beq $2,$0,$L265
 3545 1550 03000224 	li $2,3
 3546              	.set macro
 3547              	.set reorder
 3548              	
 3549 1554 01000224 	li $2,1
 3550              	.set noreorder
 3551              	.set nomacro
 3552 1558 07008210 	beq $4,$2,$L256
 3553 155c 0000043C 	lui $4,%hi($LC29)
 3554              	.set macro
 3555              	.set reorder
 3556              	
 3557 1560 2D180000 	move $3,$0
 3558              	$L254:
 3559 1564 8000BFDF 	ld $31,128($sp)
 3560 1568 2D106000 	move $2,$3
 3561 156c 7000B0DF 	ld $16,112($sp)
 3562              	
 3563              	.set noreorder
 3564              	.set nomacro
 3565 1570 0800E003 	j $31
 3566 1574 9000BD27 	addu $sp,$sp,144
 3567              	.set macro
GAS LISTING  			page 67


 3568              	.set reorder
 3569              	
 3570              	$L256:
 3571              	.set noreorder
 3572              	.set nomacro
 3573 1578 0000000C 	jal printf
 3574 157c 58028424 	addiu $4,$4,%lo($LC29)
 3575              	.set macro
 3576              	.set reorder
 3577              	
 3578 1580 E1170524 	li $5,6113
 3579 1584 2D200002 	move $4,$16
 3580              	$L266:
 3581 1588 0000000C 	jal NetPlayClientConnect
 3581      00000000 
 3582              	.set noreorder
 3583              	.set nomacro
 3584 1590 F4FF0010 	b $L254
 3585 1594 2D180000 	move $3,$0
 3586              	.set macro
 3587              	.set reorder
 3588              	
 3589              	.p2align 3
 3590              	$L265:
 3591              	.set noreorder
 3592              	.set nomacro
 3593 1598 F2FF8214 	bne $4,$2,$L254
 3594 159c 2D180000 	move $3,$0
 3595              	.set macro
 3596              	.set reorder
 3597              	
 3598              	.set noreorder
 3599              	.set nomacro
 3600 15a0 0000000C 	jal NetPlayGetStatus
 3601 15a4 2D20A003 	move $4,$sp
 3602              	.set macro
 3603              	.set reorder
 3604              	
 3605 15a8 0400A28F 	lw $2,4($sp)
 3606              	
 3607              	.set noreorder
 3608              	.set nomacro
 3609 15ac EDFF4010 	beq $2,$0,$L254
 3610 15b0 01000324 	li $3,1
 3611              	.set macro
 3612              	.set reorder
 3613              	
 3614 15b4 0000000C 	jal NetPlayClientDisconnect
 3614      00000000 
 3615              	.set noreorder
 3616              	.set nomacro
 3617 15bc E9FF0010 	b $L254
 3618 15c0 2D180000 	move $3,$0
 3619              	.set macro
 3620              	.set reorder
 3621              	
 3622 15c4 00000000 	.p2align 3
GAS LISTING  			page 68


 3623              	$L257:
 3624              	.set noreorder
 3625              	.set nomacro
 3626 15c8 0000000C 	jal NetPlayGetStatus
 3627 15cc 2D20A003 	move $4,$sp
 3628              	.set macro
 3629              	.set reorder
 3630              	
 3631 15d0 0000A38F 	lw $3,0($sp)
 3632              	
 3633 15d4 08006014 	bne $3,$0,$L258
 3633      00000000 
 3634 15dc 2D280002 	move $5,$16
 3635              	.set noreorder
 3636              	.set nomacro
 3637 15e0 0000000C 	jal NetPlayServerStart
 3638 15e4 E1170424 	li $4,6113
 3639              	.set macro
 3640              	.set reorder
 3641              	
 3642 15e8 0001043C 	li $4,16777216
 3643 15ec E1170524 	li $5,6113
 3644              	.set noreorder
 3645              	.set nomacro
 3646 15f0 E5FF0010 	b $L266
 3647 15f4 7F008434 	ori $4,$4,0x7f
 3648              	.set macro
 3649              	.set reorder
 3650              	
 3651              	$L258:
 3652 15f8 0000000C 	jal NetPlayServerStop
 3652      00000000 
 3653              	.set noreorder
 3654              	.set nomacro
 3655 1600 D8FF0010 	b $L254
 3656 1604 2D180000 	move $3,$0
 3657              	.set macro
 3658              	.set reorder
 3659              	
 3660              	.end _Z21_MainLoopNetworkEventjjPv
 3661              	$Lfe26:
 3662              	.size _Z21_MainLoopNetworkEventjjPv,$Lfe26-_Z21_MainLoopNetworkEventjjPv
 3663              	.align 2
 3664              	.p2align 3,,7
 3665              	.ent _Z17_MainLoopLogEventjjPv
 3666              	_Z17_MainLoopLogEventjjPv:
 3667              	.frame $sp,0,$31
 3668              	.mask 0x00000000,0
 3669              	.fmask 0x00000000,0
 3670              	.set noreorder
 3671              	.set nomacro
 3672 1608 0800E003 	j $31
 3673 160c 2D100000 	move $2,$0
 3674              	.set macro
 3675              	.set reorder
 3676              	
 3677              	.end _Z17_MainLoopLogEventjjPv
GAS LISTING  			page 69


 3678              	$Lfe27:
 3679              	.size _Z17_MainLoopLogEventjjPv,$Lfe27-_Z17_MainLoopLogEventjjPv
 3680              	.rdata
 3681 026c 00000000 	.align 3
 3682              	$LC30:
 3683 0270 436F7079 	.ascii "Copy cdrom0: -> mc0:\000"
 3683      20636472 
 3683      6F6D303A 
 3683      202D3E20 
 3683      6D63303A 
 3684 0285 000000   	.align 3
 3685              	$LC31:
 3686 0288 436F7079 	.ascii "Copy cdrom0: -> mc1:\000"
 3686      20636472 
 3686      6F6D303A 
 3686      202D3E20 
 3686      6D63313A 
 3687 029d 000000   	.align 3
 3688              	$LC32:
 3689 02a0 436F7079 	.ascii "Copy host: -> mc0:\000"
 3689      20686F73 
 3689      743A202D 
 3689      3E206D63 
 3689      303A00
 3690 02b3 00000000 	.align 3
 3690      00
 3691              	$LC33:
 3692 02b8 436F7079 	.ascii "Copy mc0: -> mc1:\000"
 3692      206D6330 
 3692      3A202D3E 
 3692      206D6331 
 3692      3A00
 3693 02ca 00000000 	.align 3
 3693      0000
 3694              	$LC34:
 3695 02d0 436F7079 	.ascii "Copy mc1: -> mc0:\000"
 3695      206D6331 
 3695      3A202D3E 
 3695      206D6330 
 3695      3A00
 3696 02e2 00000000 	.align 3
 3696      0000
 3697              	$LC35:
 3698 02e8 436F7079 	.ascii "Copy mc0: -> host:\000"
 3698      206D6330 
 3698      3A202D3E 
 3698      20686F73 
 3698      743A00
 3699 02fb 00000000 	.align 3
 3699      00
 3700              	$LC36:
 3701 0300 44756D70 	.ascii "Dump memory -> host:\000"
 3701      206D656D 
 3701      6F727920 
 3701      2D3E2068 
 3701      6F73743A 
 3702 0315 000000   	.align 3
GAS LISTING  			page 70


 3703              	$LC37:
 3704 0318 41646420 	.ascii "Add PSX CD to mc0:title.db\000"
 3704      50535820 
 3704      43442074 
 3704      6F206D63 
 3704      303A7469 
 3705 0333 00000000 	.align 3
 3705      00
 3706              	$LC38:
 3707 0338 44756D70 	.ascii "Dump mc0:title.db -> tty0:\000"
 3707      206D6330 
 3707      3A746974 
 3707      6C652E64 
 3707      62202D3E 
 3708 0353 00000000 	.align 3
 3708      00
 3709              	$LC39:
 3710 0358 436F7079 	.ascii "Copy rom0:libsd -> host:\000"
 3710      20726F6D 
 3710      303A6C69 
 3710      62736420 
 3710      2D3E2068 
 3711              	.data
 3712 013c 00000000 	.align 3
 3713              	.type _MainLoopMenuEntries,@object
 3714              	.size _MainLoopMenuEntries,44
 3715              	_MainLoopMenuEntries:
 3716 0140 70020000 	.word $LC30
 3717 0144 88020000 	.word $LC31
 3718 0148 A0020000 	.word $LC32
 3719 014c B8020000 	.word $LC33
 3720 0150 D0020000 	.word $LC34
 3721 0154 E8020000 	.word $LC35
 3722 0158 00030000 	.word $LC36
 3723 015c 18030000 	.word $LC37
 3724 0160 38030000 	.word $LC38
 3725 0164 58030000 	.word $LC39
 3726 0168 00000000 	.word 0
 3727              	.rdata
 3728 0371 00000000 	.align 3
 3728      000000
 3729              	$LC40:
 3730 0378 424F4F54 	.ascii "BOOT.ELF\000"
 3730      2E454C46 
 3730      00
 3731 0381 00000000 	.align 3
 3731      000000
 3732              	$LC41:
 3733 0388 5449544C 	.ascii "TITLE.DB\000"
 3733      452E4442 
 3733      00
 3734 0391 00000000 	.align 3
 3734      000000
 3735              	$LC42:
 3736 0398 49434F4E 	.ascii "ICON.SYS\000"
 3736      2E535953 
 3736      00
GAS LISTING  			page 71


 3737 03a1 00000000 	.align 3
 3737      000000
 3738              	$LC43:
 3739 03a8 50533249 	.ascii "PS2IP.IRX\000"
 3739      502E4952 
 3739      5800
 3740 03b2 00000000 	.align 3
 3740      0000
 3741              	$LC44:
 3742 03b8 50533249 	.ascii "PS2IPS.IRX\000"
 3742      50532E49 
 3742      525800
 3743 03c3 00000000 	.align 3
 3743      00
 3744              	$LC45:
 3745 03c8 5053324C 	.ascii "PS2LINK.IRX\000"
 3745      494E4B2E 
 3745      49525800 
 3746 03d4 00000000 	.align 3
 3747              	$LC46:
 3748 03d8 50533253 	.ascii "PS2SMAP.IRX\000"
 3748      4D41502E 
 3748      49525800 
 3749 03e4 00000000 	.align 3
 3750              	$LC47:
 3751 03e8 43445644 	.ascii "CDVD.IRX\000"
 3751      2E495258 
 3751      00
 3752 03f1 00000000 	.align 3
 3752      000000
 3753              	$LC48:
 3754 03f8 534A5043 	.ascii "SJPCM2.IRX\000"
 3754      4D322E49 
 3754      525800
 3755 0403 00000000 	.align 3
 3755      00
 3756              	$LC49:
 3757 0408 4D435341 	.ascii "MCSAVE.IRX\000"
 3757      56452E49 
 3757      525800
 3758 0413 00000000 	.align 3
 3758      00
 3759              	$LC50:
 3760 0418 4E455450 	.ascii "NETPLAY.IRX\000"
 3760      4C41592E 
 3760      49525800 
 3761              	.data
 3762 016c 00000000 	.align 3
 3763              	.type _MainLoop_pInstallFiles,@object
 3764              	.size _MainLoop_pInstallFiles,92
 3765              	_MainLoop_pInstallFiles:
 3766 0170 78030000 	.word $LC40
 3767 0174 78030000 	.word $LC40
 3768 0178 88030000 	.word $LC41
 3769 017c 88030000 	.word $LC41
 3770 0180 98030000 	.word $LC42
 3771 0184 98030000 	.word $LC42
GAS LISTING  			page 72


 3772 0188 A8030000 	.word $LC43
 3773 018c A8030000 	.word $LC43
 3774 0190 B8030000 	.word $LC44
 3775 0194 B8030000 	.word $LC44
 3776 0198 C8030000 	.word $LC45
 3777 019c C8030000 	.word $LC45
 3778 01a0 D8030000 	.word $LC46
 3779 01a4 D8030000 	.word $LC46
 3780 01a8 E8030000 	.word $LC47
 3781 01ac E8030000 	.word $LC47
 3782 01b0 F8030000 	.word $LC48
 3783 01b4 F8030000 	.word $LC48
 3784 01b8 08040000 	.word $LC49
 3785 01bc 08040000 	.word $LC49
 3786 01c0 18040000 	.word $LC50
 3787 01c4 18040000 	.word $LC50
 3788 01c8 00000000 	.word 0
 3789              	.rdata
 3790 0424 00000000 	.align 3
 3791              	$LC51:
 3792 0428 436F7079 	.ascii "Copying %d / %d bytes\000"
 3792      696E6720 
 3792      2564202F 
 3792      20256420 
 3792      62797465 
 3793              	.text
 3794              	.align 2
 3795              	.p2align 3,,7
 3796              	.ent _Z24_MainLoopInstallCallbackPcS_ii
 3797              	_Z24_MainLoopInstallCallbackPcS_ii:
 3798              	.frame $sp,320,$31
 3799              	.mask 0x80070000,-16
 3800              	.fmask 0x00000000,0
 3801 1610 C0FEBD27 	subu $sp,$sp,320
 3802 1614 1001B1FF 	sd $17,272($sp)
 3803 1618 2D88A000 	move $17,$5
 3804 161c 0000053C 	lui $5,%hi($LC51)
 3805 1620 2001B2FF 	sd $18,288($sp)
 3806 1624 0001B0FF 	sd $16,256($sp)
 3807 1628 2804A524 	addiu $5,$5,%lo($LC51)
 3808 162c 0000103C 	lui $16,%hi(_MainLoop_pMenuScreen)
 3809 1630 2D908000 	move $18,$4
 3810 1634 3001BFFF 	sd $31,304($sp)
 3811              	.set noreorder
 3812              	.set nomacro
 3813 1638 0000000C 	jal sprintf
 3814 163c 2D20A003 	move $4,$sp
 3815              	.set macro
 3816              	.set reorder
 3817              	
 3818 1640 2D280000 	move $5,$0
 3819 1644 0800048E 	lw $4,%lo(_MainLoop_pMenuScreen)($16)
 3820              	.set noreorder
 3821              	.set nomacro
 3822 1648 0000000C 	jal _ZN11CMenuScreen7SetTextEiPc
 3823 164c 2D30A003 	move $6,$sp
 3824              	.set macro
GAS LISTING  			page 73


 3825              	.set reorder
 3826              	
 3827 1650 01000524 	li $5,1
 3828 1654 0800048E 	lw $4,%lo(_MainLoop_pMenuScreen)($16)
 3829              	.set noreorder
 3830              	.set nomacro
 3831 1658 0000000C 	jal _ZN11CMenuScreen7SetTextEiPc
 3832 165c 2D302002 	move $6,$17
 3833              	.set macro
 3834              	.set reorder
 3835              	
 3836 1660 02000524 	li $5,2
 3837 1664 0800048E 	lw $4,%lo(_MainLoop_pMenuScreen)($16)
 3838              	.set noreorder
 3839              	.set nomacro
 3840 1668 0000000C 	jal _ZN11CMenuScreen7SetTextEiPc
 3841 166c 2D304002 	move $6,$18
 3842              	.set macro
 3843              	.set reorder
 3844              	
 3845 1670 0000000C 	jal _Z14MainLoopRenderv
 3845      00000000 
 3846 1678 0001B0DF 	ld $16,256($sp)
 3847 167c 3001BFDF 	ld $31,304($sp)
 3848 1680 01000224 	li $2,1
 3849 1684 2001B2DF 	ld $18,288($sp)
 3850 1688 1001B1DF 	ld $17,272($sp)
 3851              	
 3852              	.set noreorder
 3853              	.set nomacro
 3854 168c 0800E003 	j $31
 3855 1690 4001BD27 	addu $sp,$sp,320
 3856              	.set macro
 3857              	.set reorder
 3858              	
 3859              	.end _Z24_MainLoopInstallCallbackPcS_ii
 3860              	$Lfe28:
 3861              	.size _Z24_MainLoopInstallCallbackPcS_ii,$Lfe28-_Z24_MainLoopInstallCallbackPcS_ii
 3862              	.rdata
 3863 043e 0000     	.align 3
 3864              	$LC52:
 3865 0440 686F7374 	.ascii "host:memdump.bin\000"
 3865      3A6D656D 
 3865      64756D70 
 3865      2E62696E 
 3865      00
 3866              	.text
 3867              	.align 2
 3868 1694 00000000 	.p2align 3,,7
 3869              	.ent _Z11_DumpMemoryv
 3870              	_Z11_DumpMemoryv:
 3871              	.frame $sp,32,$31
 3872              	.mask 0x80010000,-16
 3873              	.fmask 0x00000000,0
 3874 1698 0000043C 	lui $4,%hi($LC52)
 3875 169c E0FFBD27 	subu $sp,$sp,32
 3876 16a0 02020524 	li $5,514
GAS LISTING  			page 74


 3877 16a4 0000B0FF 	sd $16,0($sp)
 3878 16a8 1000BFFF 	sd $31,16($sp)
 3879              	.set noreorder
 3880              	.set nomacro
 3881 16ac 0000000C 	jal fioOpen
 3882 16b0 40048424 	addiu $4,$4,%lo($LC52)
 3883              	.set macro
 3884              	.set reorder
 3885              	
 3886 16b4 2D804000 	move $16,$2
 3887 16b8 2D204000 	move $4,$2
 3888 16bc 4000063C 	li $6,4194304
 3889              	.set noreorder
 3890              	.set nomacro
 3891 16c0 05004004 	bltz $2,$L269
 3892 16c4 1000053C 	li $5,1048576
 3893              	.set macro
 3894              	.set reorder
 3895              	
 3896 16c8 0000000C 	jal fioWrite
 3896      00000000 
 3897              	.set noreorder
 3898              	.set nomacro
 3899 16d0 0000000C 	jal fioClose
 3900 16d4 2D200002 	move $4,$16
 3901              	.set macro
 3902              	.set reorder
 3903              	
 3904              	$L269:
 3905 16d8 1000BFDF 	ld $31,16($sp)
 3906 16dc 0000B0DF 	ld $16,0($sp)
 3907              	
 3908              	.set noreorder
 3909              	.set nomacro
 3910 16e0 0800E003 	j $31
 3911 16e4 2000BD27 	addu $sp,$sp,32
 3912              	.set macro
 3913              	.set reorder
 3914              	
 3915              	.end _Z11_DumpMemoryv
 3916              	$Lfe29:
 3917              	.size _Z11_DumpMemoryv,$Lfe29-_Z11_DumpMemoryv
 3918              	.rdata
 3919 0451 00000000 	.align 3
 3919      000000
 3920              	$LC53:
 3921 0458 726F6D30 	.ascii "rom0:ROMVER\000"
 3921      3A524F4D 
 3921      56455200 
 3922 0464 00000000 	.align 3
 3923              	$LC54:
 3924 0468 42256344 	.ascii "B%cDATA-SYSTEM\000"
 3924      4154412D 
 3924      53595354 
 3924      454D00
 3925              	.text
 3926              	.align 2
GAS LISTING  			page 75


 3927              	.p2align 3,,7
 3928              	.ent _Z14_GetExploitDirPc
 3929              	_Z14_GetExploitDirPc:
 3930              	.frame $sp,80,$31
 3931              	.mask 0x80070000,-16
 3932              	.fmask 0x00000000,0
 3933 16e8 B0FFBD27 	subu $sp,$sp,80
 3934 16ec 01000524 	li $5,1
 3935 16f0 3000B2FF 	sd $18,48($sp)
 3936 16f4 2D908000 	move $18,$4
 3937 16f8 0000043C 	lui $4,%hi($LC53)
 3938 16fc 4000BFFF 	sd $31,64($sp)
 3939 1700 58048424 	addiu $4,$4,%lo($LC53)
 3940 1704 2000B1FF 	sd $17,32($sp)
 3941 1708 1000B0FF 	sd $16,16($sp)
 3942              	.set noreorder
 3943              	.set nomacro
 3944 170c 0000000C 	jal fioOpen
 3945 1710 41001124 	li $17,65
 3946              	.set macro
 3947              	.set reorder
 3948              	
 3949 1714 10000624 	li $6,16
 3950 1718 2D804000 	move $16,$2
 3951 171c 2D204000 	move $4,$2
 3952              	.set noreorder
 3953              	.set nomacro
 3954 1720 0000000C 	jal fioRead
 3955 1724 2D28A003 	move $5,$sp
 3956              	.set macro
 3957              	.set reorder
 3958              	
 3959              	.set noreorder
 3960              	.set nomacro
 3961 1728 0000000C 	jal fioClose
 3962 172c 2D200002 	move $4,$16
 3963              	.set macro
 3964              	.set reorder
 3965              	
 3966 1730 45000224 	li $2,69
 3967 1734 0400A383 	lb $3,4($sp)
 3968              	
 3969              	.set noreorder
 3970              	.set nomacro
 3971 1738 0F006210 	beq $3,$2,$L272
 3972 173c 4A006438 	xori $4,$3,0x4a
 3973              	.set macro
 3974              	.set reorder
 3975              	
 3976 1740 49000224 	li $2,73
 3977 1744 0A884400 	movz $17,$2,$4
 3978              	$L273:
 3979 1748 0000053C 	lui $5,%hi($LC54)
 3980 174c 2D204002 	move $4,$18
 3981 1750 2D302002 	move $6,$17
 3982              	.set noreorder
 3983              	.set nomacro
GAS LISTING  			page 76


 3984 1754 0000000C 	jal sprintf
 3985 1758 6804A524 	addiu $5,$5,%lo($LC54)
 3986              	.set macro
 3987              	.set reorder
 3988              	
 3989 175c 1000B0DF 	ld $16,16($sp)
 3990 1760 4000BFDF 	ld $31,64($sp)
 3991 1764 3000B2DF 	ld $18,48($sp)
 3992 1768 2000B1DF 	ld $17,32($sp)
 3993              	
 3994              	.set noreorder
 3995              	.set nomacro
 3996 176c 0800E003 	j $31
 3997 1770 5000BD27 	addu $sp,$sp,80
 3998              	.set macro
 3999              	.set reorder
 4000              	
 4001 1774 00000000 	.p2align 3
 4002              	$L272:
 4003              	.set noreorder
 4004              	.set nomacro
 4005 1778 F3FF0010 	b $L273
 4006 177c 45001124 	li $17,69
 4007              	.set macro
 4008              	.set reorder
 4009              	
 4010              	.end _Z14_GetExploitDirPc
 4011              	$Lfe30:
 4012              	.size _Z14_GetExploitDirPc,$Lfe30-_Z14_GetExploitDirPc
 4013              	.rdata
 4014 0477 00       	.align 3
 4015              	$LC55:
 4016 0478 63646673 	.ascii "cdfs:/SYSTEM.CNF\000"
 4016      3A2F5359 
 4016      5354454D 
 4016      2E434E46 
 4016      00
 4017 0489 00000000 	.align 3
 4017      000000
 4018              	$LC56:
 4019 0490 727400   	.ascii "rt\000"
 4020 0493 00000000 	.align 3
 4020      00
 4021              	$LC58:
 4022 0498 424F4F54 	.ascii "BOOT\000"
 4022      00
 4023 049d 000000   	.align 3
 4024              	$LC59:
 4025 04a0 466F756E 	.ascii "Found '%s'\n\000"
 4025      64202725 
 4025      73270A00 
 4026 04ac 00000000 	.align 3
 4027              	$LC61:
 4028 04b0 556E6162 	.ascii "Unable to add to %s\000"
 4028      6C652074 
 4028      6F206164 
 4028      6420746F 
GAS LISTING  			page 77


 4028      20257300 
 4029 04c4 00000000 	.align 3
 4030              	$LC60:
 4031 04c8 25732061 	.ascii "%s added to mc0:title.db\000"
 4031      64646564 
 4031      20746F20 
 4031      6D63303A 
 4031      7469746C 
 4032 04e1 00000000 	.align 3
 4032      000000
 4033              	$LC62:
 4034 04e8 556E6162 	.ascii "Unable to find PSX ELF\000"
 4034      6C652074 
 4034      6F206669 
 4034      6E642050 
 4034      53582045 
 4035 04ff 00       	.align 3
 4036              	$LC57:
 4037 0500 556E6162 	.ascii "Unable to open SYSTEM.CNF on cd.\000"
 4037      6C652074 
 4037      6F206F70 
 4037      656E2053 
 4037      59535445 
 4038              	.text
 4039              	.align 2
 4040              	.p2align 3,,7
 4041              	.ent _Z11_AddTitleDBPc
 4042              	_Z11_AddTitleDBPc:
 4043              	.frame $sp,336,$31
 4044              	.mask 0x800f0000,-16
 4045              	.fmask 0x00000000,0
 4046 1780 B0FEBD27 	subu $sp,$sp,336
 4047 1784 4001BFFF 	sd $31,320($sp)
 4048 1788 3001B3FF 	sd $19,304($sp)
 4049 178c 2D988000 	move $19,$4
 4050 1790 0001B0FF 	sd $16,256($sp)
 4051 1794 2001B2FF 	sd $18,288($sp)
 4052              	.set noreorder
 4053              	.set nomacro
 4054 1798 0000000C 	jal CDVD_FlushCache
 4055 179c 1001B1FF 	sd $17,272($sp)
 4056              	.set macro
 4057              	.set reorder
 4058              	
 4059 17a0 0000043C 	lui $4,%hi($LC55)
 4060 17a4 0000053C 	lui $5,%hi($LC56)
 4061 17a8 78048424 	addiu $4,$4,%lo($LC55)
 4062              	.set noreorder
 4063              	.set nomacro
 4064 17ac 0000000C 	jal fopen
 4065 17b0 9004A524 	addiu $5,$5,%lo($LC56)
 4066              	.set macro
 4067              	.set reorder
 4068              	
 4069              	.set noreorder
 4070              	.set nomacro
 4071 17b4 3F004010 	beq $2,$0,$L289
GAS LISTING  			page 78


 4072 17b8 2D804000 	move $16,$2
 4073              	.set macro
 4074              	.set reorder
 4075              	
 4076 17bc 0000123C 	lui $18,%hi($LC58)
 4077 17c0 2D20A003 	move $4,$sp
 4078              	$L292:
 4079 17c4 00010524 	li $5,256
 4080              	.set noreorder
 4081              	.set nomacro
 4082 17c8 0000000C 	jal fgets
 4083 17cc 2D300002 	move $6,$16
 4084              	.set macro
 4085              	.set reorder
 4086              	
 4087 17d0 98044526 	addiu $5,$18,%lo($LC58)
 4088 17d4 04000624 	dli $6,0x4
 4089              	.set noreorder
 4090              	.set nomacro
 4091 17d8 2D004010 	beq $2,$0,$L290
 4092 17dc 2D20A003 	move $4,$sp
 4093              	.set macro
 4094              	.set reorder
 4095              	
 4096 17e0 0000000C 	jal memcmp
 4096      00000000 
 4097 17e8 2D20A003 	move $4,$sp
 4098              	.set noreorder
 4099              	.set nomacro
 4100 17ec F5FF4014 	bne $2,$0,$L292
 4101 17f0 5C000524 	li $5,92
 4102              	.set macro
 4103              	.set reorder
 4104              	
 4105 17f4 0000000C 	jal strchr
 4105      00000000 
 4106 17fc 3B000524 	li $5,59
 4107 1800 2D884000 	move $17,$2
 4108              	.set noreorder
 4109              	.set nomacro
 4110 1804 0000000C 	jal strrchr
 4111 1808 2D20A003 	move $4,$sp
 4112              	.set macro
 4113              	.set reorder
 4114              	
 4115              	.set noreorder
 4116              	.set nomacro
 4117 180c EDFF2052 	beql $17,$0,$L292
 4118 1810 2D20A003 	move $4,$sp
 4119              	.set macro
 4120              	.set reorder
 4121              	
 4122              	.set noreorder
 4123              	.set nomacro
 4124 1814 02004010 	beq $2,$0,$L283
 4125 1818 01003126 	addu $17,$17,1
 4126              	.set macro
GAS LISTING  			page 79


 4127              	.set reorder
 4128              	
 4129 181c 000040A0 	sb $0,0($2)
 4130              	$L283:
 4131 1820 0000043C 	lui $4,%hi($LC59)
 4132 1824 2D282002 	move $5,$17
 4133              	.set noreorder
 4134              	.set nomacro
 4135 1828 0000000C 	jal printf
 4136 182c A0048424 	addiu $4,$4,%lo($LC59)
 4137              	.set macro
 4138              	.set reorder
 4139              	
 4140              	.set noreorder
 4141              	.set nomacro
 4142 1830 0000000C 	jal fclose
 4143 1834 2D200002 	move $4,$16
 4144              	.set macro
 4145              	.set reorder
 4146              	
 4147 1838 2D282002 	move $5,$17
 4148              	.set noreorder
 4149              	.set nomacro
 4150 183c 0000000C 	jal add_title_db
 4151 1840 2D206002 	move $4,$19
 4152              	.set macro
 4153              	.set reorder
 4154              	
 4155              	.set noreorder
 4156              	.set nomacro
 4157 1844 0F004014 	bne $2,$0,$L284
 4158 1848 0000053C 	lui $5,%hi($LC61)
 4159              	.set macro
 4160              	.set reorder
 4161              	
 4162 184c 0000053C 	lui $5,%hi($LC60)
 4163 1850 2D302002 	move $6,$17
 4164 1854 C804A524 	addiu $5,$5,%lo($LC60)
 4165              	$L287:
 4166              	.set noreorder
 4167              	.set nomacro
 4168 1858 0000000C 	jal _Z19MainLoopModalPrintfiPcz
 4169 185c B4000424 	li $4,180
 4170              	.set macro
 4171              	.set reorder
 4172              	
 4173              	.set noreorder
 4174              	.set nomacro
 4175 1860 0000000C 	jal fclose
 4176 1864 2D200002 	move $4,$16
 4177              	.set macro
 4178              	.set reorder
 4179              	
 4180 1868 4001BFDF 	ld $31,320($sp)
 4181              	$L291:
 4182 186c 3001B3DF 	ld $19,304($sp)
 4183 1870 2001B2DF 	ld $18,288($sp)
GAS LISTING  			page 80


 4184 1874 1001B1DF 	ld $17,272($sp)
 4185 1878 0001B0DF 	ld $16,256($sp)
 4186              	
 4187              	.set noreorder
 4188              	.set nomacro
 4189 187c 0800E003 	j $31
 4190 1880 5001BD27 	addu $sp,$sp,336
 4191              	.set macro
 4192              	.set reorder
 4193              	
 4194              	$L284:
 4195 1884 2D306002 	move $6,$19
 4196              	.set noreorder
 4197              	.set nomacro
 4198 1888 F3FF0010 	b $L287
 4199 188c B004A524 	addiu $5,$5,%lo($LC61)
 4200              	.set macro
 4201              	.set reorder
 4202              	
 4203              	$L290:
 4204              	.set noreorder
 4205              	.set nomacro
 4206 1890 0000000C 	jal fclose
 4207 1894 2D200002 	move $4,$16
 4208              	.set macro
 4209              	.set reorder
 4210              	
 4211 1898 0000053C 	lui $5,%hi($LC62)
 4212 189c B4000424 	li $4,180
 4213 18a0 E804A524 	addiu $5,$5,%lo($LC62)
 4214              	$L288:
 4215 18a4 0000000C 	jal _Z19MainLoopModalPrintfiPcz
 4215      00000000 
 4216              	.set noreorder
 4217              	.set nomacro
 4218 18ac EFFF0010 	b $L291
 4219 18b0 4001BFDF 	ld $31,320($sp)
 4220              	.set macro
 4221              	.set reorder
 4222              	
 4223              	$L289:
 4224 18b4 0000053C 	lui $5,%hi($LC57)
 4225 18b8 B4000424 	li $4,180
 4226              	.set noreorder
 4227              	.set nomacro
 4228 18bc F9FF0010 	b $L288
 4229 18c0 0005A524 	addiu $5,$5,%lo($LC57)
 4230              	.set macro
 4231              	.set reorder
 4232              	
 4233              	.end _Z11_AddTitleDBPc
 4234              	$Lfe31:
 4235              	.size _Z11_AddTitleDBPc,$Lfe31-_Z11_AddTitleDBPc
 4236              	.rdata
 4237 0521 00000000 	.align 3
 4237      000000
 4238              	$LC63:
GAS LISTING  			page 81


 4239 0528 6D63303A 	.ascii "mc0:/%s\000"
 4239      2F257300 
 4240              	.align 3
 4241              	$LC64:
 4242 0530 6D63313A 	.ascii "mc1:/%s\000"
 4242      2F257300 
 4243              	.align 3
 4244              	$LC65:
 4245 0538 6364726F 	.ascii "cdrom0:\\\000"
 4245      6D303A5C 
 4245      00
 4246 0541 00000000 	.align 3
 4246      000000
 4247              	$LC71:
 4248 0548 00       	.ascii "\000"
 4249 0549 00000000 	.align 3
 4249      000000
 4250              	$LC67:
 4251 0550 686F7374 	.ascii "host:\000"
 4251      3A00
 4252 0556 0000     	.align 3
 4253              	$LC66:
 4254 0558 534E4553 	.ascii "SNESTICLE.ELF\000"
 4254      5449434C 
 4254      452E454C 
 4254      4600
 4255 0566 0000     	.align 3
 4256              	$LC68:
 4257 0568 6D63303A 	.ascii "mc0:/%s/TITLE.DB\000"
 4257      2F25732F 
 4257      5449544C 
 4257      452E4442 
 4257      00
 4258 0579 00000000 	.align 3
 4258      000000
 4259              	$LC69:
 4260 0580 686F7374 	.ascii "host:LIBSD.IRX\000"
 4260      3A4C4942 
 4260      53442E49 
 4260      525800
 4261 058f 00       	.align 3
 4262              	$LC70:
 4263 0590 726F6D30 	.ascii "rom0:LIBSD\000"
 4263      3A4C4942 
 4263      534400
 4264              	.text
 4265              	.align 2
 4266 18c4 00000000 	.p2align 3,,7
 4267              	.ent _Z18_MainLoopMenuEventjjPv
 4268              	_Z18_MainLoopMenuEventjjPv:
 4269              	.frame $sp,864,$31
 4270              	.mask 0x801f0000,-16
 4271              	.fmask 0x00000000,0
 4272 18c8 A0FCBD27 	subu $sp,$sp,864
 4273 18cc 01000224 	li $2,1
 4274 18d0 1003B1FF 	sd $17,784($sp)
 4275 18d4 2D88A000 	move $17,$5
GAS LISTING  			page 82


 4276 18d8 5003BFFF 	sd $31,848($sp)
 4277 18dc 4003B4FF 	sd $20,832($sp)
 4278 18e0 3003B3FF 	sd $19,816($sp)
 4279 18e4 2003B2FF 	sd $18,800($sp)
 4280              	.set noreorder
 4281              	.set nomacro
 4282 18e8 0B008210 	beq $4,$2,$L317
 4283 18ec 0003B0FF 	sd $16,768($sp)
 4284              	.set macro
 4285              	.set reorder
 4286              	
 4287              	$L293:
 4288 18f0 5003BFDF 	ld $31,848($sp)
 4289              	$L319:
 4290 18f4 2D100000 	move $2,$0
 4291 18f8 4003B4DF 	ld $20,832($sp)
 4292 18fc 3003B3DF 	ld $19,816($sp)
 4293 1900 2003B2DF 	ld $18,800($sp)
 4294 1904 1003B1DF 	ld $17,784($sp)
 4295 1908 0003B0DF 	ld $16,768($sp)
 4296              	
 4297              	.set noreorder
 4298              	.set nomacro
 4299 190c 0800E003 	j $31
 4300 1910 6003BD27 	addu $sp,$sp,864
 4301              	.set macro
 4302              	.set reorder
 4303              	
 4304 1914 00000000 	.p2align 3
 4305              	$L317:
 4306 1918 0002B227 	addu $18,$sp,512
 4307 191c 0001B327 	addu $19,$sp,256
 4308 1920 2D204002 	move $4,$18
 4309              	.set noreorder
 4310              	.set nomacro
 4311 1924 BA05000C 	jal _Z14_GetExploitDirPc
 4312 1928 0000103C 	lui $16,%hi(_MainLoop_pInstallFiles)
 4313              	.set macro
 4314              	.set reorder
 4315              	
 4316 192c 70011426 	addiu $20,$16,%lo(_MainLoop_pInstallFiles)
 4317 1930 0000053C 	lui $5,%hi($LC63)
 4318 1934 2D20A003 	move $4,$sp
 4319 1938 2D304002 	move $6,$18
 4320              	.set noreorder
 4321              	.set nomacro
 4322 193c 0000000C 	jal sprintf
 4323 1940 2805A524 	addiu $5,$5,%lo($LC63)
 4324              	.set macro
 4325              	.set reorder
 4326              	
 4327 1944 0000053C 	lui $5,%hi($LC64)
 4328 1948 2D304002 	move $6,$18
 4329 194c 2D206002 	move $4,$19
 4330              	.set noreorder
 4331              	.set nomacro
 4332 1950 0000000C 	jal sprintf
GAS LISTING  			page 83


 4333 1954 3005A524 	addiu $5,$5,%lo($LC64)
 4334              	.set macro
 4335              	.set reorder
 4336              	
 4337 1958 0000023C 	lui $2,%hi($LC40)
 4338 195c 78034224 	addiu $2,$2,%lo($LC40)
 4339 1960 0A00232E 	sltu $3,$17,10
 4340              	.set noreorder
 4341              	.set nomacro
 4342 1964 E2FF6010 	beq $3,$0,$L293
 4343 1968 700102AE 	sw $2,%lo(_MainLoop_pInstallFiles)($16)
 4344              	.set macro
 4345              	.set reorder
 4346              	
 4347 196c 0000033C 	lui $3,%hi($L308)
 4348 1970 80101100 	sll $2,$17,2
 4349 1974 9C056324 	addiu $3,$3,%lo($L308)
 4350 1978 21104300 	addu $2,$2,$3
 4351 197c 0000448C 	lw $4,0($2)
 4352              	
 4353 1980 08008000 	j $4
 4353      00000000 
 4354              	.rdata
 4355 059b 00       	.align 2
 4356              	$L308:
 4357 059c 88190000 	.word $L297
 4358 05a0 F4190000 	.word $L298
 4359 05a4 181A0000 	.word $L299
 4360 05a8 3C1A0000 	.word $L300
 4361 05ac 5C1A0000 	.word $L301
 4362 05b0 741A0000 	.word $L302
 4363 05b4 A81A0000 	.word $L303
 4364 05b8 B81A0000 	.word $L304
 4365 05bc DC1A0000 	.word $L305
 4366 05c0 001B0000 	.word $L306
 4367              	.text
 4368              	$L297:
 4369 1988 0000000C 	jal _Z17VersionGetElfNamev
 4369      00000000 
 4370 1990 2D20A003 	move $4,$sp
 4371 1994 0000053C 	lui $5,%hi($LC65)
 4372 1998 0000073C 	lui $7,%hi(_Z24_MainLoopInstallCallbackPcS_ii)
 4373 199c 2D308002 	move $6,$20
 4374 19a0 3805A524 	addiu $5,$5,%lo($LC65)
 4375 19a4 1016E724 	addiu $7,$7,%lo(_Z24_MainLoopInstallCallbackPcS_ii)
 4376              	$L315:
 4377 19a8 040082AE 	sw $2,4($20)
 4378              	$L311:
 4379              	.set noreorder
 4380              	.set nomacro
 4381 19ac 0000000C 	jal _Z12InstallFilesPcS_PS_PFiS_S_iiE
 4382 19b0 0000113C 	lui $17,%hi(_MainLoop_pMenuScreen)
 4383              	.set macro
 4384              	.set reorder
 4385              	
 4386              	$L321:
 4387 19b4 0000103C 	lui $16,%hi($LC71)
GAS LISTING  			page 84


 4388              	$L320:
 4389 19b8 48051026 	addiu $16,$16,%lo($LC71)
 4390 19bc 0800248E 	lw $4,%lo(_MainLoop_pMenuScreen)($17)
 4391 19c0 2D280000 	move $5,$0
 4392              	.set noreorder
 4393              	.set nomacro
 4394 19c4 0000000C 	jal _ZN11CMenuScreen7SetTextEiPc
 4395 19c8 2D300002 	move $6,$16
 4396              	.set macro
 4397              	.set reorder
 4398              	
 4399 19cc 01000524 	li $5,1
 4400 19d0 0800248E 	lw $4,%lo(_MainLoop_pMenuScreen)($17)
 4401              	.set noreorder
 4402              	.set nomacro
 4403 19d4 0000000C 	jal _ZN11CMenuScreen7SetTextEiPc
 4404 19d8 2D300002 	move $6,$16
 4405              	.set macro
 4406              	.set reorder
 4407              	
 4408 19dc 02000524 	li $5,2
 4409 19e0 0800248E 	lw $4,%lo(_MainLoop_pMenuScreen)($17)
 4410              	.set noreorder
 4411              	.set nomacro
 4412 19e4 0000000C 	jal _ZN11CMenuScreen7SetTextEiPc
 4413 19e8 2D300002 	move $6,$16
 4414              	.set macro
 4415              	.set reorder
 4416              	
 4417              	.set noreorder
 4418              	.set nomacro
 4419 19ec C1FF0010 	b $L319
 4420 19f0 5003BFDF 	ld $31,848($sp)
 4421              	.set macro
 4422              	.set reorder
 4423              	
 4424              	$L298:
 4425              	
 4426 19f4 0000000C 	jal _Z17VersionGetElfNamev
 4426      00000000 
 4427 19fc 0000073C 	lui $7,%hi(_Z24_MainLoopInstallCallbackPcS_ii)
 4428 1a00 0000053C 	lui $5,%hi($LC65)
 4429 1a04 2D308002 	move $6,$20
 4430 1a08 2D206002 	move $4,$19
 4431 1a0c 3805A524 	addiu $5,$5,%lo($LC65)
 4432              	.set noreorder
 4433              	.set nomacro
 4434 1a10 E5FF0010 	b $L315
 4435 1a14 1016E724 	addiu $7,$7,%lo(_Z24_MainLoopInstallCallbackPcS_ii)
 4436              	.set macro
 4437              	.set reorder
 4438              	
 4439              	$L299:
 4440 1a18 0000053C 	lui $5,%hi($LC67)
 4441 1a1c 0000073C 	lui $7,%hi(_Z24_MainLoopInstallCallbackPcS_ii)
 4442 1a20 0000023C 	lui $2,%hi($LC66)
 4443 1a24 5005A524 	addiu $5,$5,%lo($LC67)
GAS LISTING  			page 85


 4444 1a28 2D308002 	move $6,$20
 4445 1a2c 1016E724 	addiu $7,$7,%lo(_Z24_MainLoopInstallCallbackPcS_ii)
 4446 1a30 2D20A003 	move $4,$sp
 4447              	.set noreorder
 4448              	.set nomacro
 4449 1a34 DCFF0010 	b $L315
 4450 1a38 58054224 	addiu $2,$2,%lo($LC66)
 4451              	.set macro
 4452              	.set reorder
 4453              	
 4454              	$L300:
 4455 1a3c 0000073C 	lui $7,%hi(_Z24_MainLoopInstallCallbackPcS_ii)
 4456 1a40 2D206002 	move $4,$19
 4457 1a44 2D308002 	move $6,$20
 4458 1a48 1016E724 	addiu $7,$7,%lo(_Z24_MainLoopInstallCallbackPcS_ii)
 4459 1a4c 2D28A003 	move $5,$sp
 4460              	$L316:
 4461 1a50 0000023C 	lui $2,%hi($LC40)
 4462              	.set noreorder
 4463              	.set nomacro
 4464 1a54 D4FF0010 	b $L315
 4465 1a58 78034224 	addiu $2,$2,%lo($LC40)
 4466              	.set macro
 4467              	.set reorder
 4468              	
 4469              	$L301:
 4470 1a5c 0000073C 	lui $7,%hi(_Z24_MainLoopInstallCallbackPcS_ii)
 4471 1a60 2D286002 	move $5,$19
 4472 1a64 2D308002 	move $6,$20
 4473 1a68 1016E724 	addiu $7,$7,%lo(_Z24_MainLoopInstallCallbackPcS_ii)
 4474              	.set noreorder
 4475              	.set nomacro
 4476 1a6c F8FF0010 	b $L316
 4477 1a70 2D20A003 	move $4,$sp
 4478              	.set macro
 4479              	.set reorder
 4480              	
 4481              	$L302:
 4482 1a74 0000023C 	lui $2,%hi($LC66)
 4483 1a78 0000033C 	lui $3,%hi($LC40)
 4484 1a7c 58054224 	addiu $2,$2,%lo($LC66)
 4485 1a80 78036324 	addiu $3,$3,%lo($LC40)
 4486 1a84 0000043C 	lui $4,%hi($LC67)
 4487 1a88 0000073C 	lui $7,%hi(_Z24_MainLoopInstallCallbackPcS_ii)
 4488 1a8c 000082AE 	sw $2,0($20)
 4489 1a90 50058424 	addiu $4,$4,%lo($LC67)
 4490 1a94 040083AE 	sw $3,4($20)
 4491 1a98 2D308002 	move $6,$20
 4492 1a9c 1016E724 	addiu $7,$7,%lo(_Z24_MainLoopInstallCallbackPcS_ii)
 4493              	.set noreorder
 4494              	.set nomacro
 4495 1aa0 C2FF0010 	b $L311
 4496 1aa4 2D28A003 	move $5,$sp
 4497              	.set macro
 4498              	.set reorder
 4499              	
 4500              	$L303:
GAS LISTING  			page 86


 4501              	.set noreorder
 4502              	.set nomacro
 4503 1aa8 A605000C 	jal _Z11_DumpMemoryv
 4504 1aac 0000113C 	lui $17,%hi(_MainLoop_pMenuScreen)
 4505              	.set macro
 4506              	.set reorder
 4507              	
 4508              	.set noreorder
 4509              	.set nomacro
 4510 1ab0 C1FF0010 	b $L320
 4511 1ab4 0000103C 	lui $16,%hi($LC71)
 4512              	.set macro
 4513              	.set reorder
 4514              	
 4515              	$L304:
 4516 1ab8 0000053C 	lui $5,%hi($LC68)
 4517 1abc 2D20A003 	move $4,$sp
 4518 1ac0 2D304002 	move $6,$18
 4519              	.set noreorder
 4520              	.set nomacro
 4521 1ac4 0000000C 	jal sprintf
 4522 1ac8 6805A524 	addiu $5,$5,%lo($LC68)
 4523              	.set macro
 4524              	.set reorder
 4525              	
 4526              	.set noreorder
 4527              	.set nomacro
 4528 1acc E005000C 	jal _Z11_AddTitleDBPc
 4529 1ad0 2D20A003 	move $4,$sp
 4530              	.set macro
 4531              	.set reorder
 4532              	
 4533              	.set noreorder
 4534              	.set nomacro
 4535 1ad4 B7FF0010 	b $L321
 4536 1ad8 0000113C 	lui $17,%hi(_MainLoop_pMenuScreen)
 4537              	.set macro
 4538              	.set reorder
 4539              	
 4540              	$L305:
 4541 1adc 0000053C 	lui $5,%hi($LC68)
 4542 1ae0 2D20A003 	move $4,$sp
 4543 1ae4 2D304002 	move $6,$18
 4544              	.set noreorder
 4545              	.set nomacro
 4546 1ae8 0000000C 	jal sprintf
 4547 1aec 6805A524 	addiu $5,$5,%lo($LC68)
 4548              	.set macro
 4549              	.set reorder
 4550              	
 4551              	.set noreorder
 4552              	.set nomacro
 4553 1af0 0000000C 	jal list_title_db
 4554 1af4 2D20A003 	move $4,$sp
 4555              	.set macro
 4556              	.set reorder
 4557              	
GAS LISTING  			page 87


 4558              	.set noreorder
 4559              	.set nomacro
 4560 1af8 AEFF0010 	b $L321
 4561 1afc 0000113C 	lui $17,%hi(_MainLoop_pMenuScreen)
 4562              	.set macro
 4563              	.set reorder
 4564              	
 4565              	$L306:
 4566 1b00 0000043C 	lui $4,%hi($LC69)
 4567 1b04 0000053C 	lui $5,%hi($LC70)
 4568 1b08 80058424 	addiu $4,$4,%lo($LC69)
 4569 1b0c 9005A524 	addiu $5,$5,%lo($LC70)
 4570              	.set noreorder
 4571              	.set nomacro
 4572 1b10 0000000C 	jal _Z8CopyFilePcS_PFiS_S_iiE
 4573 1b14 2D300000 	move $6,$0
 4574              	.set macro
 4575              	.set reorder
 4576              	
 4577              	.set noreorder
 4578              	.set nomacro
 4579 1b18 A6FF0010 	b $L321
 4580 1b1c 0000113C 	lui $17,%hi(_MainLoop_pMenuScreen)
 4581              	.set macro
 4582              	.set reorder
 4583              	
 4584              	.end _Z18_MainLoopMenuEventjjPv
 4585              	$Lfe32:
 4586              	.size _Z18_MainLoopMenuEventjjPv,$Lfe32-_Z18_MainLoopMenuEventjjPv
 4587              	.rdata
 4588 05c4 00000000 	.align 3
 4589              	$LC72:
 4590 05c8 4E657443 	.ascii "NetClientEE: Connected\n\000"
 4590      6C69656E 
 4590      7445453A 
 4590      20436F6E 
 4590      6E656374 
 4591              	.align 3
 4592              	$LC73:
 4593 05e0 4E657443 	.ascii "NetClientEE: Disconnected\n\000"
 4593      6C69656E 
 4593      7445453A 
 4593      20446973 
 4593      636F6E6E 
 4594 05fb 00000000 	.align 3
 4594      00
 4595              	$LC74:
 4596 0600 4E657443 	.ascii "NetClientEE: Loading the netgame %s\n\000"
 4596      6C69656E 
 4596      7445453A 
 4596      204C6F61 
 4596      64696E67 
 4597 0625 000000   	.align 3
 4598              	$LC75:
 4599 0628 4E657443 	.ascii "NetClientEE: Unloading the netgame\n\000"
 4599      6C69656E 
 4599      7445453A 
GAS LISTING  			page 88


 4599      20556E6C 
 4599      6F616469 
 4600 064c 00000000 	.align 3
 4601              	$LC76:
 4602 0650 4E657443 	.ascii "NetClientEE: Starting the netgame\n\000"
 4602      6C69656E 
 4602      7445453A 
 4602      20537461 
 4602      7274696E 
 4603 0673 00000000 	.align 3
 4603      00
 4604              	$LC77:
 4605 0678 4E657443 	.ascii "NetClientEE: Callback %d\n\000"
 4605      6C69656E 
 4605      7445453A 
 4605      2043616C 
 4605      6C626163 
 4606              	.text
 4607              	.align 2
 4608              	.p2align 3,,7
 4609              	.ent _Z20_MainLoopNetCallback16NetPlayCallbackEPci
 4610              	_Z20_MainLoopNetCallback16NetPlayCallbackEPci:
 4611              	.frame $sp,64,$31
 4612              	.mask 0x80070000,-16
 4613              	.fmask 0x00000000,0
 4614 1b20 C0FFBD27 	subu $sp,$sp,64
 4615 1b24 0600822C 	sltu $2,$4,6
 4616 1b28 1000B1FF 	sd $17,16($sp)
 4617 1b2c 2D88A000 	move $17,$5
 4618 1b30 0000B0FF 	sd $16,0($sp)
 4619 1b34 2D80C000 	move $16,$6
 4620 1b38 3000BFFF 	sd $31,48($sp)
 4621              	.set noreorder
 4622              	.set nomacro
 4623 1b3c 38004010 	beq $2,$0,$L333
 4624 1b40 2000B2FF 	sd $18,32($sp)
 4625              	.set macro
 4626              	.set reorder
 4627              	
 4628 1b44 0000033C 	lui $3,%hi($L334)
 4629 1b48 80100400 	sll $2,$4,2
 4630 1b4c 94066324 	addiu $3,$3,%lo($L334)
 4631 1b50 21104300 	addu $2,$2,$3
 4632 1b54 0000448C 	lw $4,0($2)
 4633              	
 4634 1b58 08008000 	j $4
 4634      00000000 
 4635              	.rdata
 4636 0692 0000     	.align 2
 4637              	$L334:
 4638 0694 701B0000 	.word $L323
 4639 0698 601B0000 	.word $L325
 4640 069c 901B0000 	.word $L326
 4641 06a0 A01B0000 	.word $L327
 4642 06a4 E01B0000 	.word $L331
 4643 06a8 001C0000 	.word $L332
 4644              	.text
GAS LISTING  			page 89


 4645              	.p2align 3
 4646              	$L325:
 4647 1b60 0000043C 	lui $4,%hi($LC72)
 4648 1b64 C8058424 	addiu $4,$4,%lo($LC72)
 4649              	$L336:
 4650 1b68 0000000C 	jal printf
 4650      00000000 
 4651              	$L323:
 4652 1b70 3000BFDF 	ld $31,48($sp)
 4653              	$L337:
 4654 1b74 2D100000 	move $2,$0
 4655 1b78 2000B2DF 	ld $18,32($sp)
 4656 1b7c 1000B1DF 	ld $17,16($sp)
 4657 1b80 0000B0DF 	ld $16,0($sp)
 4658              	
 4659              	.set noreorder
 4660              	.set nomacro
 4661 1b84 0800E003 	j $31
 4662 1b88 4000BD27 	addu $sp,$sp,64
 4663              	.set macro
 4664              	.set reorder
 4665              	
 4666 1b8c 00000000 	.p2align 3
 4667              	$L326:
 4668 1b90 0000043C 	lui $4,%hi($LC73)
 4669              	.set noreorder
 4670              	.set nomacro
 4671 1b94 F4FF0010 	b $L336
 4672 1b98 E0058424 	addiu $4,$4,%lo($LC73)
 4673              	.set macro
 4674              	.set reorder
 4675              	
 4676 1b9c 00000000 	.p2align 3
 4677              	$L327:
 4678 1ba0 0000043C 	lui $4,%hi($LC74)
 4679 1ba4 2D900000 	move $18,$0
 4680              	.set noreorder
 4681              	.set nomacro
 4682 1ba8 0000000C 	jal printf
 4683 1bac 00068424 	addiu $4,$4,%lo($LC74)
 4684              	.set macro
 4685              	.set reorder
 4686              	
 4687              	.set noreorder
 4688              	.set nomacro
 4689 1bb0 0400001A 	blez $16,$L328
 4690 1bb4 2D202002 	move $4,$17
 4691              	.set macro
 4692              	.set reorder
 4693              	
 4694              	.set noreorder
 4695              	.set nomacro
 4696 1bb8 9A03000C 	jal _Z20_MainLoopExecuteFilePKch
 4697 1bbc 2D280000 	move $5,$0
 4698              	.set macro
 4699              	.set reorder
 4700              	
GAS LISTING  			page 90


 4701 1bc0 2D904000 	move $18,$2
 4702              	$L328:
 4703              	.set noreorder
 4704              	.set nomacro
 4705 1bc4 02004012 	beq $18,$0,$L335
 4706 1bc8 01000424 	li $4,1
 4707              	.set macro
 4708              	.set reorder
 4709              	
 4710 1bcc 2D200000 	move $4,$0
 4711              	$L335:
 4712 1bd0 0000000C 	jal NetPlayClientSendLoadAck
 4712      00000000 
 4713              	.set noreorder
 4714              	.set nomacro
 4715 1bd8 E6FF0010 	b $L337
 4716 1bdc 3000BFDF 	ld $31,48($sp)
 4717              	.set macro
 4718              	.set reorder
 4719              	
 4720              	.p2align 3
 4721              	$L331:
 4722 1be0 0000043C 	lui $4,%hi($LC75)
 4723              	.set noreorder
 4724              	.set nomacro
 4725 1be4 0000000C 	jal printf
 4726 1be8 28068424 	addiu $4,$4,%lo($LC75)
 4727              	.set macro
 4728              	.set reorder
 4729              	
 4730 1bec 3E02000C 	jal _Z18_MainLoopUnloadRomv
 4730      00000000 
 4731              	.set noreorder
 4732              	.set nomacro
 4733 1bf4 DFFF0010 	b $L337
 4734 1bf8 3000BFDF 	ld $31,48($sp)
 4735              	.set macro
 4736              	.set reorder
 4737              	
 4738 1bfc 00000000 	.p2align 3
 4739              	$L332:
 4740 1c00 0000043C 	lui $4,%hi($LC76)
 4741              	.set noreorder
 4742              	.set nomacro
 4743 1c04 0000000C 	jal printf
 4744 1c08 50068424 	addiu $4,$4,%lo($LC76)
 4745              	.set macro
 4746              	.set reorder
 4747              	
 4748              	.set noreorder
 4749              	.set nomacro
 4750 1c0c 4A0E000C 	jal _Z11_MenuEnableh
 4751 1c10 2D200000 	move $4,$0
 4752              	.set macro
 4753              	.set reorder
 4754              	
 4755              	.set noreorder
GAS LISTING  			page 91


 4756              	.set nomacro
 4757 1c14 D7FF0010 	b $L337
 4758 1c18 3000BFDF 	ld $31,48($sp)
 4759              	.set macro
 4760              	.set reorder
 4761              	
 4762 1c1c 00000000 	.p2align 3
 4763              	$L333:
 4764 1c20 2D288000 	move $5,$4
 4765 1c24 0000043C 	lui $4,%hi($LC77)
 4766              	.set noreorder
 4767              	.set nomacro
 4768 1c28 0000000C 	jal printf
 4769 1c2c 78068424 	addiu $4,$4,%lo($LC77)
 4770              	.set macro
 4771              	.set reorder
 4772              	
 4773              	.set noreorder
 4774              	.set nomacro
 4775 1c30 D0FF0010 	b $L337
 4776 1c34 3000BFDF 	ld $31,48($sp)
 4777              	.set macro
 4778              	.set reorder
 4779              	
 4780              	.end _Z20_MainLoopNetCallback16NetPlayCallbackEPci
 4781              	$Lfe33:
 4782              	.size _Z20_MainLoopNetCallback16NetPlayCallbackEPci,$Lfe33-_Z20_MainLoopNetCallback16NetPlayCallbackEPci
 4783              	.section .bss
 4784              	_MainLoop_BootDir:
 4785              	.align 3
 4786 4c6d08 00000000 	.space 256
 4786      00000000 
 4786      00000000 
 4786      00000000 
 4786      00000000 
 4787              	.previous
 4788              	.rdata
 4789 06ac 00000000 	.align 3
 4790              	$LC78:
 4791 06b0 6364726F 	.ascii "cdrom:\\\000"
 4791      6D3A5C00 
 4792              	.align 3
 4793              	$LC79:
 4794 06b8 726F6D30 	.ascii "rom0:\000"
 4794      3A00
 4795              	.data
 4796 01cc 00000000 	.align 3
 4797              	.type _MainLoop_IOPModulePaths,@object
 4798              	.size _MainLoop_IOPModulePaths,20
 4799              	_MainLoop_IOPModulePaths:
 4800 01d0 086D4C00 	.word _MainLoop_BootDir
 4801 01d4 50050000 	.word $LC67
 4802 01d8 B0060000 	.word $LC78
 4803 01dc B8060000 	.word $LC79
 4804 01e0 00000000 	.word 0
 4805              	.rdata
 4806 06be 0000     	.align 3
GAS LISTING  			page 92


 4807              	$LC80:
 4808 06c0 6D63303A 	.ascii "mc0:/SNESticle/\000"
 4808      2F534E45 
 4808      53746963 
 4808      6C652F00 
 4809              	.data
 4810 01e4 00000000 	.align 3
 4811              	.type _MainLoop_NetConfigPaths,@object
 4812              	.size _MainLoop_NetConfigPaths,12
 4813              	_MainLoop_NetConfigPaths:
 4814 01e8 C0060000 	.word $LC80
 4815 01ec 086D4C00 	.word _MainLoop_BootDir
 4816 01f0 00000000 	.word 0
 4817              	.rdata
 4818              	.align 3
 4819              	$LC81:
 4820 06d0 4C6F6164 	.ascii "LoadMcModule %s (%d)\n\000"
 4820      4D634D6F 
 4820      64756C65 
 4820      20257320 
 4820      28256429 
 4821 06e6 0000     	.align 3
 4822              	$LC82:
 4823 06e8 5369664C 	.ascii "SifLoadModuleBuffer %08X\n\000"
 4823      6F61644D 
 4823      6F64756C 
 4823      65427566 
 4823      66657220 
 4824 0702 00000000 	.align 3
 4824      0000
 4825              	$LC83:
 4826 0708 5369664C 	.ascii "SifLoadModuleBuffer %d\n\000"
 4826      6F61644D 
 4826      6F64756C 
 4826      65427566 
 4826      66657220 
 4827              	.text
 4828              	.align 2
 4829              	.p2align 3,,7
 4830              	.ent _Z13_LoadMcModulePKciS0_
 4831              	_Z13_LoadMcModulePKciS0_:
 4832              	.frame $sp,96,$31
 4833              	.mask 0x801f0000,-16
 4834              	.fmask 0x00000000,0
 4835 1c38 A0FFBD27 	subu $sp,$sp,96
 4836 1c3c 3000B3FF 	sd $19,48($sp)
 4837 1c40 2D98A000 	move $19,$5
 4838 1c44 01000524 	li $5,1
 4839 1c48 4000B4FF 	sd $20,64($sp)
 4840 1c4c 2000B2FF 	sd $18,32($sp)
 4841 1c50 2DA0C000 	move $20,$6
 4842 1c54 1000B1FF 	sd $17,16($sp)
 4843 1c58 2D908000 	move $18,$4
 4844 1c5c 5000BFFF 	sd $31,80($sp)
 4845              	.set noreorder
 4846              	.set nomacro
 4847 1c60 0000000C 	jal fioOpen
GAS LISTING  			page 93


 4848 1c64 0000B0FF 	sd $16,0($sp)
 4849              	.set macro
 4850              	.set reorder
 4851              	
 4852 1c68 2D884000 	move $17,$2
 4853              	.set noreorder
 4854              	.set nomacro
 4855 1c6c 25002006 	bltz $17,$L338
 4856 1c70 FFFF0224 	li $2,-1
 4857              	.set macro
 4858              	.set reorder
 4859              	
 4860 1c74 2D280000 	move $5,$0
 4861 1c78 02000624 	li $6,2
 4862              	.set noreorder
 4863              	.set nomacro
 4864 1c7c 0000000C 	jal fioLseek
 4865 1c80 2D202002 	move $4,$17
 4866              	.set macro
 4867              	.set reorder
 4868              	
 4869 1c84 2D202002 	move $4,$17
 4870              	.set noreorder
 4871              	.set nomacro
 4872 1c88 0000000C 	jal fioClose
 4873 1c8c 2D804000 	move $16,$2
 4874              	.set macro
 4875              	.set reorder
 4876              	
 4877 1c90 0000043C 	lui $4,%hi($LC81)
 4878 1c94 2D300002 	move $6,$16
 4879 1c98 2D284002 	move $5,$18
 4880              	.set noreorder
 4881              	.set nomacro
 4882 1c9c 0000000C 	jal printf
 4883 1ca0 D0068424 	addiu $4,$4,%lo($LC81)
 4884              	.set macro
 4885              	.set reorder
 4886              	
 4887              	.set noreorder
 4888              	.set nomacro
 4889 1ca4 0000000C 	jal SifAllocIopHeap
 4890 1ca8 2D200002 	move $4,$16
 4891              	.set macro
 4892              	.set reorder
 4893              	
 4894 1cac 2D884000 	move $17,$2
 4895              	.set noreorder
 4896              	.set nomacro
 4897 1cb0 14002012 	beq $17,$0,$L338
 4898 1cb4 FEFF0224 	li $2,-2
 4899              	.set macro
 4900              	.set reorder
 4901              	
 4902 1cb8 2D204002 	move $4,$18
 4903              	.set noreorder
 4904              	.set nomacro
GAS LISTING  			page 94


 4905 1cbc 0000000C 	jal SifLoadIopHeap
 4906 1cc0 2D282002 	move $5,$17
 4907              	.set macro
 4908              	.set reorder
 4909              	
 4910 1cc4 0000043C 	lui $4,%hi($LC82)
 4911 1cc8 2D282002 	move $5,$17
 4912              	.set noreorder
 4913              	.set nomacro
 4914 1ccc 0000000C 	jal printf
 4915 1cd0 E8068424 	addiu $4,$4,%lo($LC82)
 4916              	.set macro
 4917              	.set reorder
 4918              	
 4919 1cd4 2D308002 	move $6,$20
 4920 1cd8 2D202002 	move $4,$17
 4921              	.set noreorder
 4922              	.set nomacro
 4923 1cdc 0000000C 	jal SifLoadModuleBuffer
 4924 1ce0 2D286002 	move $5,$19
 4925              	.set macro
 4926              	.set reorder
 4927              	
 4928 1ce4 0000043C 	lui $4,%hi($LC83)
 4929 1ce8 2D284000 	move $5,$2
 4930 1cec 08078424 	addiu $4,$4,%lo($LC83)
 4931              	.set noreorder
 4932              	.set nomacro
 4933 1cf0 0000000C 	jal printf
 4934 1cf4 2D804000 	move $16,$2
 4935              	.set macro
 4936              	.set reorder
 4937              	
 4938              	.set noreorder
 4939              	.set nomacro
 4940 1cf8 0000000C 	jal SifFreeIopHeap
 4941 1cfc 2D202002 	move $4,$17
 4942              	.set macro
 4943              	.set reorder
 4944              	
 4945 1d00 2D100002 	move $2,$16
 4946              	$L338:
 4947 1d04 5000BFDF 	ld $31,80($sp)
 4948 1d08 4000B4DF 	ld $20,64($sp)
 4949 1d0c 3000B3DF 	ld $19,48($sp)
 4950 1d10 2000B2DF 	ld $18,32($sp)
 4951 1d14 1000B1DF 	ld $17,16($sp)
 4952 1d18 0000B0DF 	ld $16,0($sp)
 4953              	
 4954              	.set noreorder
 4955              	.set nomacro
 4956 1d1c 0800E003 	j $31
 4957 1d20 6000BD27 	addu $sp,$sp,96
 4958              	.set macro
 4959              	.set reorder
 4960              	
 4961              	.end _Z13_LoadMcModulePKciS0_
GAS LISTING  			page 95


 4962              	$Lfe34:
 4963              	.size _Z13_LoadMcModulePKciS0_,$Lfe34-_Z13_LoadMcModulePKciS0_
 4964              	.rdata
 4965              	.align 3
 4966              	$LC85:
 4967 0720 494F5020 	.ascii "IOP Fail: %s %d\n\000"
 4967      4661696C 
 4967      3A202573 
 4967      2025640A 
 4967      00
 4968 0731 00000000 	.align 3
 4968      000000
 4969              	$LC84:
 4970 0738 494F5020 	.ascii "IOP Load: %s\n\000"
 4970      4C6F6164 
 4970      3A202573 
 4970      0A00
 4971 0746 0000     	.align 3
 4972              	$LC86:
 4973 0748 494F503A 	.ascii "IOP: Failed to load module '%s'\n\000"
 4973      20466169 
 4973      6C656420 
 4973      746F206C 
 4973      6F616420 
 4974              	.text
 4975              	.align 2
 4976 1d24 00000000 	.p2align 3,,7
 4977              	.globl _Z13IOPLoadModulePKcPPciS0_
 4978              	.ent _Z13IOPLoadModulePKcPPciS0_
 4979              	_Z13IOPLoadModulePKcPPciS0_:
 4980              	.frame $sp,384,$31
 4981              	.mask 0x807f0000,-16
 4982              	.fmask 0x00000000,0
 4983 1d28 80FEBD27 	subu $sp,$sp,384
 4984 1d2c 4001B4FF 	sd $20,320($sp)
 4985 1d30 2DA08000 	move $20,$4
 4986 1d34 3001B3FF 	sd $19,304($sp)
 4987 1d38 2D98E000 	move $19,$7
 4988 1d3c 2001B2FF 	sd $18,288($sp)
 4989 1d40 2D90C000 	move $18,$6
 4990 1d44 1001B1FF 	sd $17,272($sp)
 4991 1d48 FFFF1124 	li $17,-1
 4992 1d4c 0001B0FF 	sd $16,256($sp)
 4993 1d50 2D80A000 	move $16,$5
 4994 1d54 7001BFFF 	sd $31,368($sp)
 4995 1d58 6001B6FF 	sd $22,352($sp)
 4996              	.set noreorder
 4997              	.set nomacro
 4998 1d5c 4100A010 	beq $5,$0,$L343
 4999 1d60 5001B5FF 	sd $21,336($sp)
 5000              	.set macro
 5001              	.set reorder
 5002              	
 5003 1d64 0000A28C 	lw $2,0($5)
 5004              	
 5005              	.set noreorder
 5006              	.set nomacro
GAS LISTING  			page 96


 5007 1d68 0B004010 	beq $2,$0,$L352
 5008 1d6c 6D001524 	li $21,109
 5009              	.set macro
 5010              	.set reorder
 5011              	
 5012 1d70 63001624 	li $22,99
 5013 1d74 00000000 	.p2align 3
 5014              	$L351:
 5015              	.set noreorder
 5016              	.set nomacro
 5017 1d78 0000000C 	jal strlen
 5018 1d7c 0000048E 	lw $4,0($16)
 5019              	.set macro
 5020              	.set reorder
 5021              	
 5022              	.set noreorder
 5023              	.set nomacro
 5024 1d80 21004014 	bne $2,$0,$L358
 5025 1d84 2D20A003 	move $4,$sp
 5026              	.set macro
 5027              	.set reorder
 5028              	
 5029              	$L347:
 5030 1d88 04001026 	addu $16,$16,4
 5031 1d8c 0000028E 	lw $2,0($16)
 5032              	
 5033 1d90 F9FF4014 	bne $2,$0,$L351
 5033      00000000 
 5034              	$L352:
 5035              	.set noreorder
 5036              	.set nomacro
 5037 1d98 10002206 	bltzl $17,$L353
 5038 1d9c 0000043C 	lui $4,%hi($LC85)
 5039              	.set macro
 5040              	.set reorder
 5041              	
 5042 1da0 0000043C 	lui $4,%hi($LC84)
 5043              	$L360:
 5044 1da4 2D28A003 	move $5,$sp
 5045              	.set noreorder
 5046              	.set nomacro
 5047 1da8 0000000C 	jal _Z9ScrPrintfPcz
 5048 1dac 38078424 	addiu $4,$4,%lo($LC84)
 5049              	.set macro
 5050              	.set reorder
 5051              	
 5052 1db0 2D102002 	move $2,$17
 5053              	$L342:
 5054 1db4 7001BFDF 	ld $31,368($sp)
 5055 1db8 6001B6DF 	ld $22,352($sp)
 5056 1dbc 5001B5DF 	ld $21,336($sp)
 5057 1dc0 4001B4DF 	ld $20,320($sp)
 5058 1dc4 3001B3DF 	ld $19,304($sp)
 5059 1dc8 2001B2DF 	ld $18,288($sp)
 5060 1dcc 1001B1DF 	ld $17,272($sp)
 5061 1dd0 0001B0DF 	ld $16,256($sp)
 5062              	
GAS LISTING  			page 97


 5063              	.set noreorder
 5064              	.set nomacro
 5065 1dd4 0800E003 	j $31
 5066 1dd8 8001BD27 	addu $sp,$sp,384
 5067              	.set macro
 5068              	.set reorder
 5069              	
 5070              	$L353:
 5071 1ddc 2D302002 	move $6,$17
 5072 1de0 2D288002 	move $5,$20
 5073              	.set noreorder
 5074              	.set nomacro
 5075 1de4 0000000C 	jal _Z9ScrPrintfPcz
 5076 1de8 20078424 	addiu $4,$4,%lo($LC85)
 5077              	.set macro
 5078              	.set reorder
 5079              	
 5080 1dec 0000043C 	lui $4,%hi($LC86)
 5081 1df0 2D288002 	move $5,$20
 5082              	.set noreorder
 5083              	.set nomacro
 5084 1df4 0000000C 	jal printf
 5085 1df8 48078424 	addiu $4,$4,%lo($LC86)
 5086              	.set macro
 5087              	.set reorder
 5088              	
 5089              	.set noreorder
 5090              	.set nomacro
 5091 1dfc EDFF0010 	b $L342
 5092 1e00 FFFF0224 	li $2,-1
 5093              	.set macro
 5094              	.set reorder
 5095              	
 5096 1e04 00000000 	.p2align 3
 5097              	$L358:
 5098              	.set noreorder
 5099              	.set nomacro
 5100 1e08 0000000C 	jal strcpy
 5101 1e0c 0000058E 	lw $5,0($16)
 5102              	.set macro
 5103              	.set reorder
 5104              	
 5105              	
 5106 1e10 2D288002 	move $5,$20
 5107              	.set noreorder
 5108              	.set nomacro
 5109 1e14 0000000C 	jal strcat
 5110 1e18 2D20A003 	move $4,$sp
 5111              	.set macro
 5112              	.set reorder
 5113              	
 5114 1e1c 2D306002 	move $6,$19
 5115 1e20 0000A383 	lb $3,0($sp)
 5116 1e24 2D20A003 	move $4,$sp
 5117              	.set noreorder
 5118              	.set nomacro
 5119 1e28 07007510 	beq $3,$21,$L359
GAS LISTING  			page 98


 5120 1e2c 2D284002 	move $5,$18
 5121              	.set macro
 5122              	.set reorder
 5123              	
 5124              	$L348:
 5125 1e30 0000000C 	jal SifLoadModule
 5125      00000000 
 5126              	$L357:
 5127              	.set noreorder
 5128              	.set nomacro
 5129 1e38 D3FF4004 	bltz $2,$L347
 5130 1e3c 2D884000 	move $17,$2
 5131              	.set macro
 5132              	.set reorder
 5133              	
 5134              	.set noreorder
 5135              	.set nomacro
 5136 1e40 D8FF0010 	b $L360
 5137 1e44 0000043C 	lui $4,%hi($LC84)
 5138              	.set macro
 5139              	.set reorder
 5140              	
 5141              	.p2align 3
 5142              	$L359:
 5143 1e48 0100A283 	lb $2,1($sp)
 5144              	
 5145 1e4c F8FF5614 	bne $2,$22,$L348
 5145      00000000 
 5146 1e54 0E07000C 	jal _Z13_LoadMcModulePKciS0_
 5146      00000000 
 5147 1e5c F6FF0010 	b $L357
 5147      00000000 
 5148              	$L343:
 5149 1e64 2D20A003 	move $4,$sp
 5150              	.set noreorder
 5151              	.set nomacro
 5152 1e68 0000000C 	jal strcpy
 5153 1e6c 2D288002 	move $5,$20
 5154              	.set macro
 5155              	.set reorder
 5156              	
 5157 1e70 2D306002 	move $6,$19
 5158 1e74 2D20A003 	move $4,$sp
 5159              	.set noreorder
 5160              	.set nomacro
 5161 1e78 0000000C 	jal SifLoadModule
 5162 1e7c 2D284002 	move $5,$18
 5163              	.set macro
 5164              	.set reorder
 5165              	
 5166              	.set noreorder
 5167              	.set nomacro
 5168 1e80 C5FF0010 	b $L352
 5169 1e84 2D884000 	move $17,$2
 5170              	.set macro
 5171              	.set reorder
 5172              	
GAS LISTING  			page 99


 5173              	.end _Z13IOPLoadModulePKcPPciS0_
 5174              	$Lfe35:
 5175              	.size _Z13IOPLoadModulePKcPPciS0_,$Lfe35-_Z13IOPLoadModulePKcPPciS0_
 5176              	.rdata
 5177 0769 00000000 	.align 3
 5177      000000
 5178              	$LC87:
 5179 0770 6E657463 	.ascii "netconfigload: %s\n\000"
 5179      6F6E6669 
 5179      676C6F61 
 5179      643A2025 
 5179      730A00
 5180              	.text
 5181              	.align 2
 5182              	.p2align 3,,7
 5183              	.ent _Z22_MainLoopLoadNetConfigP9t_ip_infoPKc
 5184              	_Z22_MainLoopLoadNetConfigP9t_ip_infoPKc:
 5185              	.frame $sp,16,$31
 5186              	.mask 0x80000000,-16
 5187              	.fmask 0x00000000,0
 5188 1e88 0000043C 	lui $4,%hi($LC87)
 5189 1e8c F0FFBD27 	subu $sp,$sp,16
 5190 1e90 0000BFFF 	sd $31,0($sp)
 5191              	.set noreorder
 5192              	.set nomacro
 5193 1e94 0000000C 	jal printf
 5194 1e98 70078424 	addiu $4,$4,%lo($LC87)
 5195              	.set macro
 5196              	.set reorder
 5197              	
 5198 1e9c 0000BFDF 	ld $31,0($sp)
 5199 1ea0 2D100000 	move $2,$0
 5200              	.set noreorder
 5201              	.set nomacro
 5202 1ea4 0800E003 	j $31
 5203 1ea8 1000BD27 	addu $sp,$sp,16
 5204              	.set macro
 5205              	.set reorder
 5206              	
 5207              	.end _Z22_MainLoopLoadNetConfigP9t_ip_infoPKc
 5208              	$Lfe36:
 5209              	.size _Z22_MainLoopLoadNetConfigP9t_ip_infoPKc,$Lfe36-_Z22_MainLoopLoadNetConfigP9t_ip_infoPKc
 5210              	.rdata
 5211 0783 00000000 	.align 3
 5211      00
 5212              	$LC88:
 5213 0788 736D3100 	.ascii "sm1\000"
 5214 078c 00000000 	.align 3
 5215              	$LC89:
 5216 0790 25732573 	.ascii "%s%s\000"
 5216      00
 5217 0795 000000   	.align 3
 5218              	$LC90:
 5219 0798 25303858 	.ascii "%08X %08X %08X %d\n\000"
 5219      20253038 
 5219      58202530 
 5219      38582025 
GAS LISTING  			page 100


 5219      640A00
 5220              	.text
 5221              	.align 2
 5222 1eac 00000000 	.p2align 3,,7
 5223              	.ent _Z25_MainLoopConfigureNetworkPPcS_
 5224              	_Z25_MainLoopConfigureNetworkPPcS_:
 5225              	.frame $sp,368,$31
 5226              	.mask 0x800f0000,-16
 5227              	.fmask 0x00000000,0
 5228 1eb0 90FEBD27 	subu $sp,$sp,368
 5229 1eb4 20000624 	dli $6,0x20
 5230 1eb8 4001B2FF 	sd $18,320($sp)
 5231 1ebc 2D90A000 	move $18,$5
 5232 1ec0 2001B0FF 	sd $16,288($sp)
 5233 1ec4 2D280000 	move $5,$0
 5234 1ec8 2D808000 	move $16,$4
 5235 1ecc 6001BFFF 	sd $31,352($sp)
 5236 1ed0 2D20A003 	move $4,$sp
 5237 1ed4 5001B3FF 	sd $19,336($sp)
 5238              	.set noreorder
 5239              	.set nomacro
 5240 1ed8 0000000C 	jal memset
 5241 1edc 3001B1FF 	sd $17,304($sp)
 5242              	.set macro
 5243              	.set reorder
 5244              	
 5245 1ee0 0000053C 	lui $5,%hi($LC88)
 5246 1ee4 2D20A003 	move $4,$sp
 5247              	.set noreorder
 5248              	.set nomacro
 5249 1ee8 0000000C 	jal strcpy
 5250 1eec 8807A524 	addiu $5,$5,%lo($LC88)
 5251              	.set macro
 5252              	.set reorder
 5253              	
 5254 1ef0 01000224 	li $2,1
 5255 1ef4 0000038E 	lw $3,0($16)
 5256 1ef8 0400A0AF 	sw $0,4($sp)
 5257 1efc 1000A2AF 	sw $2,16($sp)
 5258 1f00 0800A0AF 	sw $0,8($sp)
 5259              	.set noreorder
 5260              	.set nomacro
 5261 1f04 0E006010 	beq $3,$0,$L364
 5262 1f08 0C00A0AF 	sw $0,12($sp)
 5263              	.set macro
 5264              	.set reorder
 5265              	
 5266 1f0c 2000B127 	addu $17,$sp,32
 5267 1f10 0000133C 	lui $19,%hi($LC89)
 5268 1f14 00000000 	.p2align 3
 5269              	$L368:
 5270              	.set noreorder
 5271              	.set nomacro
 5272 1f18 0000000C 	jal strlen
 5273 1f1c 0000048E 	lw $4,0($16)
 5274              	.set macro
 5275              	.set reorder
GAS LISTING  			page 101


 5276              	
 5277 1f20 90076526 	addiu $5,$19,%lo($LC89)
 5278 1f24 2D384002 	move $7,$18
 5279              	.set noreorder
 5280              	.set nomacro
 5281 1f28 1D004014 	bne $2,$0,$L371
 5282 1f2c 2D202002 	move $4,$17
 5283              	.set macro
 5284              	.set reorder
 5285              	
 5286 1f30 04001026 	addu $16,$16,4
 5287              	$L374:
 5288 1f34 0000028E 	lw $2,0($16)
 5289              	
 5290 1f38 F7FF4014 	bne $2,$0,$L368
 5290      00000000 
 5291              	$L364:
 5292              	.set noreorder
 5293              	.set nomacro
 5294 1f40 0000000C 	jal ps2ip_setconfig
 5295 1f44 2D20A003 	move $4,$sp
 5296              	.set macro
 5297              	.set reorder
 5298              	
 5299 1f48 2D28A003 	move $5,$sp
 5300              	.set noreorder
 5301              	.set nomacro
 5302 1f4c 0000000C 	jal ps2ip_getconfig
 5303 1f50 2D20A003 	move $4,$sp
 5304              	.set macro
 5305              	.set reorder
 5306              	
 5307              	.set noreorder
 5308              	.set nomacro
 5309 1f54 09004054 	bnel $2,$0,$L372
 5310 1f58 0000043C 	lui $4,%hi($LC90)
 5311              	.set macro
 5312              	.set reorder
 5313              	
 5314 1f5c 6001BFDF 	ld $31,352($sp)
 5315              	$L373:
 5316 1f60 01000224 	li $2,1
 5317 1f64 5001B3DF 	ld $19,336($sp)
 5318 1f68 4001B2DF 	ld $18,320($sp)
 5319 1f6c 3001B1DF 	ld $17,304($sp)
 5320 1f70 2001B0DF 	ld $16,288($sp)
 5321              	
 5322              	.set noreorder
 5323              	.set nomacro
 5324 1f74 0800E003 	j $31
 5325 1f78 7001BD27 	addu $sp,$sp,368
 5326              	.set macro
 5327              	.set reorder
 5328              	
 5329              	$L372:
 5330 1f7c 0400A58F 	lw $5,4($sp)
 5331 1f80 0800A68F 	lw $6,8($sp)
GAS LISTING  			page 102


 5332 1f84 98078424 	addiu $4,$4,%lo($LC90)
 5333 1f88 0C00A78F 	lw $7,12($sp)
 5334              	.set noreorder
 5335              	.set nomacro
 5336 1f8c 0000000C 	jal printf
 5337 1f90 1000A88F 	lw $8,16($sp)
 5338              	.set macro
 5339              	.set reorder
 5340              	
 5341              	.set noreorder
 5342              	.set nomacro
 5343 1f94 F2FF0010 	b $L373
 5344 1f98 6001BFDF 	ld $31,352($sp)
 5345              	.set macro
 5346              	.set reorder
 5347              	
 5348 1f9c 00000000 	.p2align 3
 5349              	$L371:
 5350              	
 5351              	.set noreorder
 5352              	.set nomacro
 5353 1fa0 0000000C 	jal sprintf
 5354 1fa4 0000068E 	lw $6,0($16)
 5355              	.set macro
 5356              	.set reorder
 5357              	
 5358 1fa8 2D282002 	move $5,$17
 5359              	.set noreorder
 5360              	.set nomacro
 5361 1fac A207000C 	jal _Z22_MainLoopLoadNetConfigP9t_ip_infoPKc
 5362 1fb0 2D20A003 	move $4,$sp
 5363              	.set macro
 5364              	.set reorder
 5365              	
 5366              	.set noreorder
 5367              	.set nomacro
 5368 1fb4 DFFF4010 	beq $2,$0,$L374
 5369 1fb8 04001026 	addu $16,$16,4
 5370              	.set macro
 5371              	.set reorder
 5372              	
 5373 1fbc E0FF0010 	b $L364
 5373      00000000 
 5374              	.end _Z25_MainLoopConfigureNetworkPPcS_
 5375              	$Lfe37:
 5376              	.size _Z25_MainLoopConfigureNetworkPPcS_,$Lfe37-_Z25_MainLoopConfigureNetworkPPcS_
 5377              	.rdata
 5378 07ab 00000000 	.align 3
 5378      00
 5379              	$LC91:
 5380 07b0 70733269 	.ascii "ps2ip_Init()\n\000"
 5380      705F496E 
 5380      69742829 
 5380      0A00
 5381              	.text
 5382              	.align 2
 5383 1fc4 00000000 	.p2align 3,,7
GAS LISTING  			page 103


 5384              	.ent _Z20_MainLoopInitNetworkPPc
 5385              	_Z20_MainLoopInitNetworkPPc:
 5386              	.frame $sp,64,$31
 5387              	.mask 0x80070000,-16
 5388              	.fmask 0x00000000,0
 5389 1fc8 C0FFBD27 	subu $sp,$sp,64
 5390 1fcc 0000023C 	lui $2,%hi($LC44)
 5391 1fd0 2000B2FF 	sd $18,32($sp)
 5392 1fd4 2D288000 	move $5,$4
 5393 1fd8 B8035224 	addiu $18,$2,%lo($LC44)
 5394 1fdc 0000B0FF 	sd $16,0($sp)
 5395 1fe0 2D300000 	move $6,$0
 5396 1fe4 2D380000 	move $7,$0
 5397 1fe8 2D808000 	move $16,$4
 5398 1fec 1000B1FF 	sd $17,16($sp)
 5399 1ff0 3000BFFF 	sd $31,48($sp)
 5400              	.set noreorder
 5401              	.set nomacro
 5402 1ff4 0000000C 	jal _Z13IOPLoadModulePKcPPciS0_
 5403 1ff8 2D204002 	move $4,$18
 5404              	.set macro
 5405              	.set reorder
 5406              	
 5407 1ffc 2D880000 	move $17,$0
 5408 2000 0000043C 	lui $4,%hi($LC43)
 5409 2004 2D380000 	move $7,$0
 5410 2008 2D280002 	move $5,$16
 5411 200c 2D300000 	move $6,$0
 5412              	.set noreorder
 5413              	.set nomacro
 5414 2010 0F004004 	bltz $2,$L378
 5415 2014 A8038424 	addiu $4,$4,%lo($LC43)
 5416              	.set macro
 5417              	.set reorder
 5418              	
 5419              	$L376:
 5420 2018 0000043C 	lui $4,%hi($LC91)
 5421              	.set noreorder
 5422              	.set nomacro
 5423 201c 0000000C 	jal printf
 5424 2020 B0078424 	addiu $4,$4,%lo($LC91)
 5425              	.set macro
 5426              	.set reorder
 5427              	
 5428 2024 0000000C 	jal ps2ip_init
 5428      00000000 
 5429 202c 2D182002 	move $3,$17
 5430              	$L375:
 5431 2030 3000BFDF 	ld $31,48($sp)
 5432 2034 2D106000 	move $2,$3
 5433 2038 2000B2DF 	ld $18,32($sp)
 5434 203c 1000B1DF 	ld $17,16($sp)
 5435 2040 0000B0DF 	ld $16,0($sp)
 5436              	
 5437              	.set noreorder
 5438              	.set nomacro
 5439 2044 0800E003 	j $31
GAS LISTING  			page 104


 5440 2048 4000BD27 	addu $sp,$sp,64
 5441              	.set macro
 5442              	.set reorder
 5443              	
 5444 204c 00000000 	.p2align 3
 5445              	$L378:
 5446 2050 0000000C 	jal _Z13IOPLoadModulePKcPPciS0_
 5446      00000000 
 5447 2058 0000043C 	lui $4,%hi($LC46)
 5448 205c 2D380000 	move $7,$0
 5449 2060 2D280002 	move $5,$16
 5450 2064 2D300000 	move $6,$0
 5451              	.set noreorder
 5452              	.set nomacro
 5453 2068 0000000C 	jal _Z13IOPLoadModulePKcPPciS0_
 5454 206c D8038424 	addiu $4,$4,%lo($LC46)
 5455              	.set macro
 5456              	.set reorder
 5457              	
 5458 2070 2D300000 	move $6,$0
 5459 2074 2D204002 	move $4,$18
 5460 2078 2D280002 	move $5,$16
 5461              	.set noreorder
 5462              	.set nomacro
 5463 207c 0000000C 	jal _Z13IOPLoadModulePKcPPciS0_
 5464 2080 2D380000 	move $7,$0
 5465              	.set macro
 5466              	.set reorder
 5467              	
 5468              	.set noreorder
 5469              	.set nomacro
 5470 2084 EAFF4004 	bltz $2,$L375
 5471 2088 2D180000 	move $3,$0
 5472              	.set macro
 5473              	.set reorder
 5474              	
 5475              	.set noreorder
 5476              	.set nomacro
 5477 208c E2FF0010 	b $L376
 5478 2090 01001124 	li $17,1
 5479              	.set macro
 5480              	.set reorder
 5481              	
 5482              	.end _Z20_MainLoopInitNetworkPPc
 5483              	$Lfe38:
 5484              	.size _Z20_MainLoopInitNetworkPPc,$Lfe38-_Z20_MainLoopInitNetworkPPc
 5485              	.rdata
 5486 07be 0000     	.align 3
 5487              	$LC92:
 5488 07c0 726F6D30 	.ascii "rom0:XSIO2MAN\000"
 5488      3A585349 
 5488      4F324D41 
 5488      4E00
 5489 07ce 0000     	.align 3
 5490              	$LC93:
 5491 07d0 726F6D30 	.ascii "rom0:XMTAPMAN\000"
 5491      3A584D54 
GAS LISTING  			page 105


 5491      41504D41 
 5491      4E00
 5492 07de 0000     	.align 3
 5493              	$LC94:
 5494 07e0 726F6D30 	.ascii "rom0:XPADMAN\000"
 5494      3A585041 
 5494      444D414E 
 5494      00
 5495 07ed 000000   	.align 3
 5496              	$LC95:
 5497 07f0 726F6D30 	.ascii "rom0:XMCMAN\000"
 5497      3A584D43 
 5497      4D414E00 
 5498 07fc 00000000 	.align 3
 5499              	$LC96:
 5500 0800 726F6D30 	.ascii "rom0:XMCSERV\000"
 5500      3A584D43 
 5500      53455256 
 5500      00
 5501 080d 000000   	.align 3
 5502              	$LC102:
 5503 0810 43445644 	.ascii "CDVD_Init()\n\000"
 5503      5F496E69 
 5503      7428290A 
 5503      00
 5504 081d 000000   	.align 3
 5505              	$LC103:
 5506 0820 4C494253 	.ascii "LIBSD.IRX\000"
 5506      442E4952 
 5506      5800
 5507 082a 00000000 	.align 3
 5507      0000
 5508              	$LC104:
 5509 0830 536A5043 	.ascii "SjPCM_Init()\n\000"
 5509      4D5F496E 
 5509      69742829 
 5509      0A00
 5510 083e 0000     	.align 3
 5511              	$LC105:
 5512 0840 436F756C 	.ascii "Could not initialize SjPCM\n\000"
 5512      64206E6F 
 5512      7420696E 
 5512      69746961 
 5512      6C697A65 
 5513 085c 00000000 	.align 3
 5514              	$LC106:
 5515 0860 4D435361 	.ascii "MCSave_Init()\n\000"
 5515      76655F49 
 5515      6E697428 
 5515      290A00
 5516 086f 00       	.align 3
 5517              	$LC101:
 5518 0870 6970636F 	.ascii "ipconfig.dat\000"
 5518      6E666967 
 5518      2E646174 
 5518      00
 5519 087d 000000   	.align 3
GAS LISTING  			page 106


 5520              	$LC97:
 5521 0880 726F6D30 	.ascii "rom0:SIO2MAN\000"
 5521      3A53494F 
 5521      324D414E 
 5521      00
 5522 088d 000000   	.align 3
 5523              	$LC98:
 5524 0890 726F6D30 	.ascii "rom0:PADMAN\000"
 5524      3A504144 
 5524      4D414E00 
 5525 089c 00000000 	.align 3
 5526              	$LC99:
 5527 08a0 726F6D30 	.ascii "rom0:MCMAN\000"
 5527      3A4D434D 
 5527      414E00
 5528 08ab 00000000 	.align 3
 5528      00
 5529              	$LC100:
 5530 08b0 726F6D30 	.ascii "rom0:MCSERV\000"
 5530      3A4D4353 
 5530      45525600 
 5531              	.text
 5532              	.align 2
 5533 2094 00000000 	.p2align 3,,7
 5534              	.ent _Z20_MainLoopLoadModulesPPc
 5535              	_Z20_MainLoopLoadModulesPPc:
 5536              	.frame $sp,48,$31
 5537              	.mask 0x80030000,-16
 5538              	.fmask 0x00000000,0
 5539 2098 D0FFBD27 	subu $sp,$sp,48
 5540 209c 2D280000 	move $5,$0
 5541 20a0 0000B0FF 	sd $16,0($sp)
 5542 20a4 2D300000 	move $6,$0
 5543 20a8 2D808000 	move $16,$4
 5544 20ac 2D380000 	move $7,$0
 5545 20b0 0000043C 	lui $4,%hi($LC92)
 5546 20b4 2000BFFF 	sd $31,32($sp)
 5547 20b8 C0078424 	addiu $4,$4,%lo($LC92)
 5548              	.set noreorder
 5549              	.set nomacro
 5550 20bc 0000000C 	jal _Z13IOPLoadModulePKcPPciS0_
 5551 20c0 1000B1FF 	sd $17,16($sp)
 5552              	.set macro
 5553              	.set reorder
 5554              	
 5555              	.set noreorder
 5556              	.set nomacro
 5557 20c4 8C004004 	bltz $2,$L380
 5558 20c8 2D280000 	move $5,$0
 5559              	.set macro
 5560              	.set reorder
 5561              	
 5562 20cc 0000043C 	lui $4,%hi($LC93)
 5563 20d0 2D300000 	move $6,$0
 5564 20d4 D0078424 	addiu $4,$4,%lo($LC93)
 5565              	.set noreorder
 5566              	.set nomacro
GAS LISTING  			page 107


 5567 20d8 0000000C 	jal _Z13IOPLoadModulePKcPPciS0_
 5568 20dc 2D380000 	move $7,$0
 5569              	.set macro
 5570              	.set reorder
 5571              	
 5572              	.set noreorder
 5573              	.set nomacro
 5574 20e0 07004004 	bltz $2,$L405
 5575 20e4 0000043C 	lui $4,%hi($LC94)
 5576              	.set macro
 5577              	.set reorder
 5578              	
 5579              	.set noreorder
 5580              	.set nomacro
 5581 20e8 0000000C 	jal xmtapInit
 5582 20ec 2D200000 	move $4,$0
 5583              	.set macro
 5584              	.set reorder
 5585              	
 5586 20f0 01000424 	li $4,1
 5587              	.set noreorder
 5588              	.set nomacro
 5589 20f4 0000000C 	jal xmtapPortOpen
 5590 20f8 2D280000 	move $5,$0
 5591              	.set macro
 5592              	.set reorder
 5593              	
 5594 20fc 0000043C 	lui $4,%hi($LC94)
 5595              	$L405:
 5596 2100 2D280000 	move $5,$0
 5597 2104 2D300000 	move $6,$0
 5598 2108 E0078424 	addiu $4,$4,%lo($LC94)
 5599              	.set noreorder
 5600              	.set nomacro
 5601 210c 0000000C 	jal _Z13IOPLoadModulePKcPPciS0_
 5602 2110 2D380000 	move $7,$0
 5603              	.set macro
 5604              	.set reorder
 5605              	
 5606              	.set noreorder
 5607              	.set nomacro
 5608 2114 06004004 	bltz $2,$L406
 5609 2118 0000043C 	lui $4,%hi($LC95)
 5610              	.set macro
 5611              	.set reorder
 5612              	
 5613              	.set noreorder
 5614              	.set nomacro
 5615 211c 0000000C 	jal xpadInit
 5616 2120 2D200000 	move $4,$0
 5617              	.set macro
 5618              	.set reorder
 5619              	
 5620              	.set noreorder
 5621              	.set nomacro
 5622 2124 0000000C 	jal _Z9InputInith
 5623 2128 01000424 	li $4,1
GAS LISTING  			page 108


 5624              	.set macro
 5625              	.set reorder
 5626              	
 5627 212c 0000043C 	lui $4,%hi($LC95)
 5628              	$L406:
 5629 2130 2D280000 	move $5,$0
 5630 2134 2D300000 	move $6,$0
 5631 2138 F0078424 	addiu $4,$4,%lo($LC95)
 5632              	.set noreorder
 5633              	.set nomacro
 5634 213c 0000000C 	jal _Z13IOPLoadModulePKcPPciS0_
 5635 2140 2D380000 	move $7,$0
 5636              	.set macro
 5637              	.set reorder
 5638              	
 5639 2144 0000043C 	lui $4,%hi($LC96)
 5640 2148 2D380000 	move $7,$0
 5641 214c 2D280000 	move $5,$0
 5642 2150 2D300000 	move $6,$0
 5643 2154 00088424 	addiu $4,$4,%lo($LC96)
 5644              	$L396:
 5645 2158 0000000C 	jal _Z13IOPLoadModulePKcPPciS0_
 5645      00000000 
 5646 2160 03004004 	bltz $2,$L384
 5646      00000000 
 5647 2168 0000000C 	jal _Z11MemCardInitv
 5647      00000000 
 5648              	$L384:
 5649              	.set noreorder
 5650              	.set nomacro
 5651 2170 F207000C 	jal _Z20_MainLoopInitNetworkPPc
 5652 2174 2D200002 	move $4,$16
 5653              	.set macro
 5654              	.set reorder
 5655              	
 5656              	.set noreorder
 5657              	.set nomacro
 5658 2178 57004014 	bne $2,$0,$L397
 5659 217c 2D884000 	move $17,$2
 5660              	.set macro
 5661              	.set reorder
 5662              	
 5663 2180 0000043C 	lui $4,%hi($LC50)
 5664              	$L404:
 5665 2184 2D280002 	move $5,$16
 5666 2188 2D300000 	move $6,$0
 5667 218c 18048424 	addiu $4,$4,%lo($LC50)
 5668              	.set noreorder
 5669              	.set nomacro
 5670 2190 0000000C 	jal _Z13IOPLoadModulePKcPPciS0_
 5671 2194 2D380000 	move $7,$0
 5672              	.set macro
 5673              	.set reorder
 5674              	
 5675              	.set noreorder
 5676              	.set nomacro
 5677 2198 03004004 	bltz $2,$L388
GAS LISTING  			page 109


 5678 219c 0000043C 	lui $4,%hi(_Z20_MainLoopNetCallback16NetPlayCallbackEPci)
 5679              	.set macro
 5680              	.set reorder
 5681              	
 5682              	.set noreorder
 5683              	.set nomacro
 5684 21a0 0000000C 	jal NetPlayInit
 5685 21a4 201B8424 	addiu $4,$4,%lo(_Z20_MainLoopNetCallback16NetPlayCallbackEPci)
 5686              	.set macro
 5687              	.set reorder
 5688              	
 5689              	$L388:
 5690 21a8 0000043C 	lui $4,%hi($LC47)
 5691 21ac 2D280002 	move $5,$16
 5692 21b0 2D300000 	move $6,$0
 5693 21b4 E8038424 	addiu $4,$4,%lo($LC47)
 5694              	.set noreorder
 5695              	.set nomacro
 5696 21b8 0000000C 	jal _Z13IOPLoadModulePKcPPciS0_
 5697 21bc 2D380000 	move $7,$0
 5698              	.set macro
 5699              	.set reorder
 5700              	
 5701              	.set noreorder
 5702              	.set nomacro
 5703 21c0 05004004 	bltz $2,$L389
 5704 21c4 0000043C 	lui $4,%hi($LC102)
 5705              	.set macro
 5706              	.set reorder
 5707              	
 5708              	.set noreorder
 5709              	.set nomacro
 5710 21c8 0000000C 	jal printf
 5711 21cc 10088424 	addiu $4,$4,%lo($LC102)
 5712              	.set macro
 5713              	.set reorder
 5714              	
 5715 21d0 0000000C 	jal CDVD_Init
 5715      00000000 
 5716              	$L389:
 5717 21d8 0000043C 	lui $4,%hi($LC70)
 5718 21dc 2D280000 	move $5,$0
 5719 21e0 2D300000 	move $6,$0
 5720 21e4 90058424 	addiu $4,$4,%lo($LC70)
 5721              	.set noreorder
 5722              	.set nomacro
 5723 21e8 0000000C 	jal _Z13IOPLoadModulePKcPPciS0_
 5724 21ec 2D380000 	move $7,$0
 5725              	.set macro
 5726              	.set reorder
 5727              	
 5728              	.set noreorder
 5729              	.set nomacro
 5730 21f0 31004004 	bltz $2,$L398
 5731 21f4 0000043C 	lui $4,%hi($LC103)
 5732              	.set macro
 5733              	.set reorder
GAS LISTING  			page 110


 5734              	
 5735 21f8 0000043C 	lui $4,%hi($LC48)
 5736              	$L403:
 5737 21fc 2D280002 	move $5,$16
 5738 2200 2D300000 	move $6,$0
 5739 2204 F8038424 	addiu $4,$4,%lo($LC48)
 5740              	.set noreorder
 5741              	.set nomacro
 5742 2208 0000000C 	jal _Z13IOPLoadModulePKcPPciS0_
 5743 220c 2D380000 	move $7,$0
 5744              	.set macro
 5745              	.set reorder
 5746              	
 5747              	.set noreorder
 5748              	.set nomacro
 5749 2210 09004004 	bltz $2,$L391
 5750 2214 0000043C 	lui $4,%hi($LC104)
 5751              	.set macro
 5752              	.set reorder
 5753              	
 5754              	.set noreorder
 5755              	.set nomacro
 5756 2218 0000000C 	jal printf
 5757 221c 30088424 	addiu $4,$4,%lo($LC104)
 5758              	.set macro
 5759              	.set reorder
 5760              	
 5761 2220 C05D0524 	li $5,24000
 5762 2224 A00F0624 	li $6,4000
 5763              	.set noreorder
 5764              	.set nomacro
 5765 2228 0000000C 	jal SjPCM_Init
 5766 222c 2D200000 	move $4,$0
 5767              	.set macro
 5768              	.set reorder
 5769              	
 5770              	.set noreorder
 5771              	.set nomacro
 5772 2230 1C004004 	bltz $2,$L399
 5773 2234 0000043C 	lui $4,%hi($LC105)
 5774              	.set macro
 5775              	.set reorder
 5776              	
 5777              	$L391:
 5778 2238 0000043C 	lui $4,%hi($LC49)
 5779              	$L402:
 5780 223c 2D280002 	move $5,$16
 5781 2240 2D300000 	move $6,$0
 5782 2244 08048424 	addiu $4,$4,%lo($LC49)
 5783              	.set noreorder
 5784              	.set nomacro
 5785 2248 0000000C 	jal _Z13IOPLoadModulePKcPPciS0_
 5786 224c 2D380000 	move $7,$0
 5787              	.set macro
 5788              	.set reorder
 5789              	
 5790 2250 06004004 	bltz $2,$L393
GAS LISTING  			page 111


 5790      00000000 
 5791 2258 0000043C 	lui $4,%hi($LC106)
 5792              	.set noreorder
 5793              	.set nomacro
 5794 225c 0000000C 	jal printf
 5795 2260 60088424 	addiu $4,$4,%lo($LC106)
 5796              	.set macro
 5797              	.set reorder
 5798              	
 5799              	.set noreorder
 5800              	.set nomacro
 5801 2264 0000000C 	jal MCSave_Init
 5802 2268 0100043C 	li $4,65536
 5803              	.set macro
 5804              	.set reorder
 5805              	
 5806              	$L393:
 5807              	.set noreorder
 5808              	.set nomacro
 5809 226c 06002056 	bnel $17,$0,$L400
 5810 2270 0000043C 	lui $4,%hi($LC45)
 5811              	.set macro
 5812              	.set reorder
 5813              	
 5814 2274 2000BFDF 	ld $31,32($sp)
 5815              	$L401:
 5816 2278 1000B1DF 	ld $17,16($sp)
 5817 227c 0000B0DF 	ld $16,0($sp)
 5818              	
 5819              	.set noreorder
 5820              	.set nomacro
 5821 2280 0800E003 	j $31
 5822 2284 3000BD27 	addu $sp,$sp,48
 5823              	.set macro
 5824              	.set reorder
 5825              	
 5826              	.p2align 3
 5827              	$L400:
 5828 2288 2D280002 	move $5,$16
 5829 228c 2D300000 	move $6,$0
 5830 2290 C8038424 	addiu $4,$4,%lo($LC45)
 5831              	.set noreorder
 5832              	.set nomacro
 5833 2294 0000000C 	jal _Z13IOPLoadModulePKcPPciS0_
 5834 2298 2D380000 	move $7,$0
 5835              	.set macro
 5836              	.set reorder
 5837              	
 5838              	.set noreorder
 5839              	.set nomacro
 5840 229c F6FF0010 	b $L401
 5841 22a0 2000BFDF 	ld $31,32($sp)
 5842              	.set macro
 5843              	.set reorder
 5844              	
 5845              	$L399:
 5846              	
GAS LISTING  			page 112


 5847              	.set noreorder
 5848              	.set nomacro
 5849 22a4 0000000C 	jal printf
 5850 22a8 40088424 	addiu $4,$4,%lo($LC105)
 5851              	.set macro
 5852              	.set reorder
 5853              	
 5854              	.set noreorder
 5855              	.set nomacro
 5856 22ac E3FF0010 	b $L402
 5857 22b0 0000043C 	lui $4,%hi($LC49)
 5858              	.set macro
 5859              	.set reorder
 5860              	
 5861 22b4 00000000 	.p2align 3
 5862              	$L398:
 5863 22b8 2D280002 	move $5,$16
 5864 22bc 2D300000 	move $6,$0
 5865 22c0 20088424 	addiu $4,$4,%lo($LC103)
 5866              	.set noreorder
 5867              	.set nomacro
 5868 22c4 0000000C 	jal _Z13IOPLoadModulePKcPPciS0_
 5869 22c8 2D380000 	move $7,$0
 5870              	.set macro
 5871              	.set reorder
 5872              	
 5873              	.set noreorder
 5874              	.set nomacro
 5875 22cc CBFF0010 	b $L403
 5876 22d0 0000043C 	lui $4,%hi($LC48)
 5877              	.set macro
 5878              	.set reorder
 5879              	
 5880 22d4 00000000 	.p2align 3
 5881              	$L397:
 5882 22d8 0000043C 	lui $4,%hi(_MainLoop_NetConfigPaths)
 5883 22dc 0000053C 	lui $5,%hi($LC101)
 5884 22e0 E8018424 	addiu $4,$4,%lo(_MainLoop_NetConfigPaths)
 5885              	.set noreorder
 5886              	.set nomacro
 5887 22e4 AC07000C 	jal _Z25_MainLoopConfigureNetworkPPcS_
 5888 22e8 7008A524 	addiu $5,$5,%lo($LC101)
 5889              	.set macro
 5890              	.set reorder
 5891              	
 5892              	.set noreorder
 5893              	.set nomacro
 5894 22ec A5FF0010 	b $L404
 5895 22f0 0000043C 	lui $4,%hi($LC50)
 5896              	.set macro
 5897              	.set reorder
 5898              	
 5899 22f4 00000000 	.p2align 3
 5900              	$L380:
 5901 22f8 0000043C 	lui $4,%hi($LC97)
 5902 22fc 2D300000 	move $6,$0
 5903 2300 80088424 	addiu $4,$4,%lo($LC97)
GAS LISTING  			page 113


 5904              	.set noreorder
 5905              	.set nomacro
 5906 2304 0000000C 	jal _Z13IOPLoadModulePKcPPciS0_
 5907 2308 2D380000 	move $7,$0
 5908              	.set macro
 5909              	.set reorder
 5910              	
 5911 230c 0000043C 	lui $4,%hi($LC98)
 5912 2310 2D380000 	move $7,$0
 5913 2314 2D280000 	move $5,$0
 5914 2318 2D300000 	move $6,$0
 5915              	.set noreorder
 5916              	.set nomacro
 5917 231c 0000000C 	jal _Z13IOPLoadModulePKcPPciS0_
 5918 2320 90088424 	addiu $4,$4,%lo($LC98)
 5919              	.set macro
 5920              	.set reorder
 5921              	
 5922              	.set noreorder
 5923              	.set nomacro
 5924 2324 06004204 	bltzl $2,$L407
 5925 2328 0000043C 	lui $4,%hi($LC99)
 5926              	.set macro
 5927              	.set reorder
 5928              	
 5929              	.set noreorder
 5930              	.set nomacro
 5931 232c 0000000C 	jal padInit
 5932 2330 2D200000 	move $4,$0
 5933              	.set macro
 5934              	.set reorder
 5935              	
 5936              	.set noreorder
 5937              	.set nomacro
 5938 2334 0000000C 	jal _Z9InputInith
 5939 2338 2D200000 	move $4,$0
 5940              	.set macro
 5941              	.set reorder
 5942              	
 5943 233c 0000043C 	lui $4,%hi($LC99)
 5944              	$L407:
 5945 2340 2D280000 	move $5,$0
 5946 2344 2D300000 	move $6,$0
 5947 2348 A0088424 	addiu $4,$4,%lo($LC99)
 5948              	.set noreorder
 5949              	.set nomacro
 5950 234c 0000000C 	jal _Z13IOPLoadModulePKcPPciS0_
 5951 2350 2D380000 	move $7,$0
 5952              	.set macro
 5953              	.set reorder
 5954              	
 5955 2354 0000043C 	lui $4,%hi($LC100)
 5956 2358 2D380000 	move $7,$0
 5957 235c 2D280000 	move $5,$0
 5958 2360 2D300000 	move $6,$0
 5959              	.set noreorder
 5960              	.set nomacro
GAS LISTING  			page 114


 5961 2364 7CFF0010 	b $L396
 5962 2368 B0088424 	addiu $4,$4,%lo($LC100)
 5963              	.set macro
 5964              	.set reorder
 5965              	
 5966              	.end _Z20_MainLoopLoadModulesPPc
 5967              	$Lfe39:
 5968              	.size _Z20_MainLoopLoadModulesPPc,$Lfe39-_Z20_MainLoopLoadModulesPPc
 5969              	.rdata
 5970 08bc 00000000 	.align 3
 5971              	$LC108:
 5972 08c0 436F7069 	.ascii "Copied %s->%s (%d bytes)\n\000"
 5972      65642025 
 5972      732D3E25 
 5972      73202825 
 5972      64206279 
 5973 08da 00000000 	.align 3
 5973      0000
 5974              	$LC109:
 5975 08e0 4552524F 	.ascii "ERROR\n\000"
 5975      520A00
 5976 08e7 00       	.align 3
 5977              	$LC107:
 5978 08e8 556E6162 	.ascii "Unable to open file %s\n\000"
 5978      6C652074 
 5978      6F206F70 
 5978      656E2066 
 5978      696C6520 
 5979              	.text
 5980              	.align 2
 5981 236c 00000000 	.p2align 3,,7
 5982              	.globl _Z8CopyFilePcS_PFiS_S_iiE
 5983              	.ent _Z8CopyFilePcS_PFiS_S_iiE
 5984              	_Z8CopyFilePcS_PFiS_S_iiE:
 5985              	.frame $sp,32912,$31
 5986              	.mask 0x80ff0000,-16
 5987              	.fmask 0x00000000,0
 5988 2370 90800C34 	li $12,32912
 5989 2374 80800D34 	li $13,32896
 5990 2378 23E8AC03 	subu $sp,$sp,$12
 5991 237c 2168BD01 	addu $13,$13,$sp
 5992 2380 E0FFB6FD 	sd $22,-32($13)
 5993 2384 2DB08000 	move $22,$4
 5994 2388 D0FFB5FD 	sd $21,-48($13)
 5995 238c 2DA8A000 	move $21,$5
 5996 2390 C0FFB4FD 	sd $20,-64($13)
 5997 2394 2D20A002 	move $4,$21
 5998 2398 B0FFB3FD 	sd $19,-80($13)
 5999 239c 01000524 	li $5,1
 6000 23a0 A0FFB2FD 	sd $18,-96($13)
 6001 23a4 2DA00000 	move $20,$0
 6002 23a8 0000BFFD 	sd $31,0($13)
 6003 23ac 2D90C000 	move $18,$6
 6004 23b0 F0FFB7FD 	sd $23,-16($13)
 6005 23b4 90FFB1FD 	sd $17,-112($13)
 6006              	.set noreorder
 6007              	.set nomacro
GAS LISTING  			page 115


 6008 23b8 0000000C 	jal fioOpen
 6009 23bc 80FFB0FD 	sd $16,-128($13)
 6010              	.set macro
 6011              	.set reorder
 6012              	
 6013              	.set noreorder
 6014              	.set nomacro
 6015 23c0 54004018 	blez $2,$L421
 6016 23c4 2D984000 	move $19,$2
 6017              	.set macro
 6018              	.set reorder
 6019              	
 6020 23c8 2D280000 	move $5,$0
 6021 23cc 02000624 	li $6,2
 6022              	.set noreorder
 6023              	.set nomacro
 6024 23d0 0000000C 	jal fioLseek
 6025 23d4 2D204000 	move $4,$2
 6026              	.set macro
 6027              	.set reorder
 6028              	
 6029 23d8 2D280000 	move $5,$0
 6030 23dc 2D206002 	move $4,$19
 6031 23e0 2D300000 	move $6,$0
 6032              	.set noreorder
 6033              	.set nomacro
 6034 23e4 0000000C 	jal fioLseek
 6035 23e8 2DB84000 	move $23,$2
 6036              	.set macro
 6037              	.set reorder
 6038              	
 6039 23ec 2D20C002 	move $4,$22
 6040              	.set noreorder
 6041              	.set nomacro
 6042 23f0 0000000C 	jal fioOpen
 6043 23f4 02020524 	li $5,514
 6044              	.set macro
 6045              	.set reorder
 6046              	
 6047              	.set noreorder
 6048              	.set nomacro
 6049 23f8 3E004018 	blez $2,$L422
 6050 23fc 2D884000 	move $17,$2
 6051              	.set macro
 6052              	.set reorder
 6053              	
 6054 2400 2D38E002 	move $7,$23
 6055              	$L423:
 6056 2404 2D20C002 	move $4,$22
 6057 2408 2D28A002 	move $5,$21
 6058              	.set noreorder
 6059              	.set nomacro
 6060 240c 03004012 	beq $18,$0,$L414
 6061 2410 2D308002 	move $6,$20
 6062              	.set macro
 6063              	.set reorder
 6064              	
GAS LISTING  			page 116


 6065 2414 09F84002 	jal $31,$18
 6065      00000000 
 6066              	$L414:
 6067 241c 2D206002 	move $4,$19
 6068 2420 2D28A003 	move $5,$sp
 6069              	.set noreorder
 6070              	.set nomacro
 6071 2424 0000000C 	jal fioRead
 6072 2428 00800634 	li $6,32768
 6073              	.set macro
 6074              	.set reorder
 6075              	
 6076 242c 2D202002 	move $4,$17
 6077 2430 2D804000 	move $16,$2
 6078 2434 2D28A003 	move $5,$sp
 6079              	.set noreorder
 6080              	.set nomacro
 6081 2438 05004018 	blez $2,$L420
 6082 243c 2D304000 	move $6,$2
 6083              	.set macro
 6084              	.set reorder
 6085              	
 6086              	.set noreorder
 6087              	.set nomacro
 6088 2440 0000000C 	jal fioWrite
 6089 2444 21A09002 	addu $20,$20,$16
 6090              	.set macro
 6091              	.set reorder
 6092              	
 6093              	.set noreorder
 6094              	.set nomacro
 6095 2448 EEFF0010 	b $L423
 6096 244c 2D38E002 	move $7,$23
 6097              	.set macro
 6098              	.set reorder
 6099              	
 6100              	$L420:
 6101              	.set noreorder
 6102              	.set nomacro
 6103 2450 05004012 	beq $18,$0,$L417
 6104 2454 2D38E002 	move $7,$23
 6105              	.set macro
 6106              	.set reorder
 6107              	
 6108 2458 2D20C002 	move $4,$22
 6109 245c 2D28A002 	move $5,$21
 6110              	.set noreorder
 6111              	.set nomacro
 6112 2460 09F84002 	jal $31,$18
 6113 2464 2D308002 	move $6,$20
 6114              	.set macro
 6115              	.set reorder
 6116              	
 6117              	$L417:
 6118              	.set noreorder
 6119              	.set nomacro
 6120 2468 0000000C 	jal fioClose
GAS LISTING  			page 117


 6121 246c 2D206002 	move $4,$19
 6122              	.set macro
 6123              	.set reorder
 6124              	
 6125              	.set noreorder
 6126              	.set nomacro
 6127 2470 0000000C 	jal fioClose
 6128 2474 2D202002 	move $4,$17
 6129              	.set macro
 6130              	.set reorder
 6131              	
 6132 2478 0000043C 	lui $4,%hi($LC108)
 6133 247c 2D28A002 	move $5,$21
 6134 2480 C0088424 	addiu $4,$4,%lo($LC108)
 6135 2484 2D388002 	move $7,$20
 6136              	.set noreorder
 6137              	.set nomacro
 6138 2488 0000000C 	jal printf
 6139 248c 2D30C002 	move $6,$22
 6140              	.set macro
 6141              	.set reorder
 6142              	
 6143 2490 01000524 	li $5,1
 6144              	.set noreorder
 6145              	.set nomacro
 6146 2494 0000000C 	jal fioOpen
 6147 2498 2D20C002 	move $4,$22
 6148              	.set macro
 6149              	.set reorder
 6150              	
 6151              	.set noreorder
 6152              	.set nomacro
 6153 249c 11004018 	blez $2,$L418
 6154 24a0 0000043C 	lui $4,%hi($LC109)
 6155              	.set macro
 6156              	.set reorder
 6157              	
 6158              	.set noreorder
 6159              	.set nomacro
 6160 24a4 0000000C 	jal fioClose
 6161 24a8 2D204000 	move $4,$2
 6162              	.set macro
 6163              	.set reorder
 6164              	
 6165 24ac 2D100000 	move $2,$0
 6166              	$L408:
 6167 24b0 90800C34 	li $12,32912
 6168 24b4 21689D01 	addu $13,$12,$sp
 6169 24b8 F0FFBFDD 	ld $31,-16($13)
 6170 24bc E0FFB7DD 	ld $23,-32($13)
 6171 24c0 D0FFB6DD 	ld $22,-48($13)
 6172 24c4 C0FFB5DD 	ld $21,-64($13)
 6173 24c8 B0FFB4DD 	ld $20,-80($13)
 6174 24cc A0FFB3DD 	ld $19,-96($13)
 6175 24d0 90FFB2DD 	ld $18,-112($13)
 6176 24d4 80FFB1DD 	ld $17,-128($13)
 6177 24d8 70FFB0DD 	ld $16,-144($13)
GAS LISTING  			page 118


 6178              	
 6179              	.set noreorder
 6180              	.set nomacro
 6181 24dc 0800E003 	j $31
 6182 24e0 21E8AC03 	addu $sp,$sp,$12
 6183              	.set macro
 6184              	.set reorder
 6185              	
 6186              	$L418:
 6187              	.set noreorder
 6188              	.set nomacro
 6189 24e4 0000000C 	jal printf
 6190 24e8 E0088424 	addiu $4,$4,%lo($LC109)
 6191              	.set macro
 6192              	.set reorder
 6193              	
 6194              	.set noreorder
 6195              	.set nomacro
 6196 24ec F0FF0010 	b $L408
 6197 24f0 FDFF0224 	li $2,-3
 6198              	.set macro
 6199              	.set reorder
 6200              	
 6201              	$L422:
 6202              	.set noreorder
 6203              	.set nomacro
 6204 24f4 0000000C 	jal fioClose
 6205 24f8 2D206002 	move $4,$19
 6206              	.set macro
 6207              	.set reorder
 6208              	
 6209 24fc 0000043C 	lui $4,%hi($LC107)
 6210 2500 2D28C002 	move $5,$22
 6211              	.set noreorder
 6212              	.set nomacro
 6213 2504 0000000C 	jal printf
 6214 2508 E8088424 	addiu $4,$4,%lo($LC107)
 6215              	.set macro
 6216              	.set reorder
 6217              	
 6218              	.set noreorder
 6219              	.set nomacro
 6220 250c E8FF0010 	b $L408
 6221 2510 FEFF0224 	li $2,-2
 6222              	.set macro
 6223              	.set reorder
 6224              	
 6225              	$L421:
 6226 2514 0000043C 	lui $4,%hi($LC107)
 6227 2518 2D28A002 	move $5,$21
 6228              	.set noreorder
 6229              	.set nomacro
 6230 251c 0000000C 	jal printf
 6231 2520 E8088424 	addiu $4,$4,%lo($LC107)
 6232              	.set macro
 6233              	.set reorder
 6234              	
GAS LISTING  			page 119


 6235              	.set noreorder
 6236              	.set nomacro
 6237 2524 E2FF0010 	b $L408
 6238 2528 FFFF0224 	li $2,-1
 6239              	.set macro
 6240              	.set reorder
 6241              	
 6242              	.end _Z8CopyFilePcS_PFiS_S_iiE
 6243              	$Lfe40:
 6244              	.size _Z8CopyFilePcS_PFiS_S_iiE,$Lfe40-_Z8CopyFilePcS_PFiS_S_iiE
 6245              	.align 2
 6246 252c 00000000 	.p2align 3,,7
 6247              	.ent _Z14_bTrailingPathPc
 6248              	_Z14_bTrailingPathPc:
 6249              	.frame $sp,32,$31
 6250              	.mask 0x80010000,-16
 6251              	.fmask 0x00000000,0
 6252 2530 E0FFBD27 	subu $sp,$sp,32
 6253 2534 0000B0FF 	sd $16,0($sp)
 6254 2538 1000BFFF 	sd $31,16($sp)
 6255              	.set noreorder
 6256              	.set nomacro
 6257 253c 0000000C 	jal strlen
 6258 2540 2D808000 	move $16,$4
 6259              	.set macro
 6260              	.set reorder
 6261              	
 6262              	.set noreorder
 6263              	.set nomacro
 6264 2544 0B004018 	blez $2,$L424
 6265 2548 01000324 	li $3,1
 6266              	.set macro
 6267              	.set reorder
 6268              	
 6269 254c 21100202 	addu $2,$16,$2
 6270 2550 FFFF4480 	lb $4,-1($2)
 6271 2554 2F000224 	li $2,47
 6272              	.set noreorder
 6273              	.set nomacro
 6274 2558 0B008210 	beq $4,$2,$L427
 6275 255c 2D180000 	move $3,$0
 6276              	.set macro
 6277              	.set reorder
 6278              	
 6279 2560 5C000224 	li $2,92
 6280              	.set noreorder
 6281              	.set nomacro
 6282 2564 08008210 	beq $4,$2,$L427
 6283 2568 3A000224 	li $2,58
 6284              	.set macro
 6285              	.set reorder
 6286              	
 6287              	.set noreorder
 6288              	.set nomacro
 6289 256c 01008250 	beql $4,$2,$L424
 6290 2570 01000324 	li $3,1
 6291              	.set macro
GAS LISTING  			page 120


 6292              	.set reorder
 6293              	
 6294              	$L424:
 6295 2574 1000BFDF 	ld $31,16($sp)
 6296 2578 2D106000 	move $2,$3
 6297 257c 0000B0DF 	ld $16,0($sp)
 6298              	
 6299              	.set noreorder
 6300              	.set nomacro
 6301 2580 0800E003 	j $31
 6302 2584 2000BD27 	addu $sp,$sp,32
 6303              	.set macro
 6304              	.set reorder
 6305              	
 6306              	.p2align 3
 6307              	$L427:
 6308              	.set noreorder
 6309              	.set nomacro
 6310 2588 FAFF0010 	b $L424
 6311 258c 01000324 	li $3,1
 6312              	.set macro
 6313              	.set reorder
 6314              	
 6315              	.end _Z14_bTrailingPathPc
 6316              	$Lfe41:
 6317              	.size _Z14_bTrailingPathPc,$Lfe41-_Z14_bTrailingPathPc
 6318              	.rdata
 6319              	.align 3
 6320              	$LC110:
 6321 0900 496E7374 	.ascii "InstallFiles %s -> %s\n\000"
 6321      616C6C46 
 6321      696C6573 
 6321      20257320 
 6321      2D3E2025 
 6322 0917 00       	.align 3
 6323              	$LC111:
 6324 0918 556E6162 	.ascii "Unable to create directory %s\n\000"
 6324      6C652074 
 6324      6F206372 
 6324      65617465 
 6324      20646972 
 6325 0937 00       	.align 3
 6326              	$LC112:
 6327 0938 496E7374 	.ascii "Installing %s -> %s\n\000"
 6327      616C6C69 
 6327      6E672025 
 6327      73202D3E 
 6327      2025730A 
 6328 094d 000000   	.align 3
 6329              	$LC113:
 6330 0950 25732F25 	.ascii "%s/%s\000"
 6330      7300
 6331              	.text
 6332              	.align 2
 6333              	.p2align 3,,7
 6334              	.globl _Z12InstallFilesPcS_PS_PFiS_S_iiE
 6335              	.ent _Z12InstallFilesPcS_PS_PFiS_S_iiE
GAS LISTING  			page 121


 6336              	_Z12InstallFilesPcS_PS_PFiS_S_iiE:
 6337              	.frame $sp,672,$31
 6338              	.mask 0xc0ff0000,-16
 6339              	.fmask 0x00000000,0
 6340 2590 60FDBD27 	subu $sp,$sp,672
 6341 2594 9002BFFF 	sd $31,656($sp)
 6342 2598 6002B6FF 	sd $22,608($sp)
 6343 259c 2DB0E000 	move $22,$7
 6344 25a0 5002B5FF 	sd $21,592($sp)
 6345 25a4 4002B4FF 	sd $20,576($sp)
 6346 25a8 3002B3FF 	sd $19,560($sp)
 6347 25ac 2D98A000 	move $19,$5
 6348 25b0 2002B2FF 	sd $18,544($sp)
 6349 25b4 2D908000 	move $18,$4
 6350 25b8 0002B0FF 	sd $16,512($sp)
 6351 25bc 0000043C 	lui $4,%hi($LC110)
 6352 25c0 8002BEFF 	sd $fp,640($sp)
 6353 25c4 2D80C000 	move $16,$6
 6354 25c8 7002B7FF 	sd $23,624($sp)
 6355 25cc 00098424 	addiu $4,$4,%lo($LC110)
 6356 25d0 1002B1FF 	sd $17,528($sp)
 6357 25d4 0000C58C 	lw $5,0($6)
 6358              	.set noreorder
 6359              	.set nomacro
 6360 25d8 0000000C 	jal printf
 6361 25dc 0400C68C 	lw $6,4($6)
 6362              	.set macro
 6363              	.set reorder
 6364              	
 6365              	.set noreorder
 6366              	.set nomacro
 6367 25e0 4C09000C 	jal _Z14_bTrailingPathPc
 6368 25e4 2D206002 	move $4,$19
 6369              	.set macro
 6370              	.set reorder
 6371              	
 6372 25e8 2D204002 	move $4,$18
 6373              	.set noreorder
 6374              	.set nomacro
 6375 25ec 4C09000C 	jal _Z14_bTrailingPathPc
 6376 25f0 2DA84000 	move $21,$2
 6377              	.set macro
 6378              	.set reorder
 6379              	
 6380 25f4 2D204002 	move $4,$18
 6381              	.set noreorder
 6382              	.set nomacro
 6383 25f8 0000000C 	jal fioMkdir
 6384 25fc 2DA04000 	move $20,$2
 6385              	.set macro
 6386              	.set reorder
 6387              	
 6388              	.set noreorder
 6389              	.set nomacro
 6390 2600 38004004 	bltz $2,$L443
 6391 2604 0000043C 	lui $4,%hi($LC111)
 6392              	.set macro
GAS LISTING  			page 122


 6393              	.set reorder
 6394              	
 6395 2608 0000028E 	lw $2,0($16)
 6396              	$L444:
 6397              	.set noreorder
 6398              	.set nomacro
 6399 260c 1D004010 	beq $2,$0,$L440
 6400 2610 00001E3C 	lui $fp,%hi($LC89)
 6401              	.set macro
 6402              	.set reorder
 6403              	
 6404 2614 0001B127 	addu $17,$sp,256
 6405 2618 0000173C 	lui $23,%hi($LC112)
 6406 261c 0000058E 	lw $5,0($16)
 6407              	$L445:
 6408 2620 3809E426 	addiu $4,$23,%lo($LC112)
 6409              	.set noreorder
 6410              	.set nomacro
 6411 2624 0000000C 	jal printf
 6412 2628 0400068E 	lw $6,4($16)
 6413              	.set macro
 6414              	.set reorder
 6415              	
 6416 262c 9007C527 	addiu $5,$fp,%lo($LC89)
 6417 2630 2D306002 	move $6,$19
 6418              	.set noreorder
 6419              	.set nomacro
 6420 2634 2600A012 	beq $21,$0,$L433
 6421 2638 2D202002 	move $4,$17
 6422              	.set macro
 6423              	.set reorder
 6424              	
 6425 263c 0400078E 	lw $7,4($16)
 6426              	$L441:
 6427 2640 0000000C 	jal sprintf
 6427      00000000 
 6428 2648 2D304002 	move $6,$18
 6429 264c 0000023C 	lui $2,%hi($LC89)
 6430 2650 2D20A003 	move $4,$sp
 6431              	.set noreorder
 6432              	.set nomacro
 6433 2654 18008012 	beq $20,$0,$L435
 6434 2658 90074524 	addiu $5,$2,%lo($LC89)
 6435              	.set macro
 6436              	.set reorder
 6437              	
 6438 265c 0000078E 	lw $7,0($16)
 6439              	$L442:
 6440              	.set noreorder
 6441              	.set nomacro
 6442 2660 0000000C 	jal sprintf
 6443 2664 08001026 	addu $16,$16,8
 6444              	.set macro
 6445              	.set reorder
 6446              	
 6447 2668 2D20A003 	move $4,$sp
 6448 266c 2D282002 	move $5,$17
GAS LISTING  			page 123


 6449              	.set noreorder
 6450              	.set nomacro
 6451 2670 0000000C 	jal _Z8CopyFilePcS_PFiS_S_iiE
 6452 2674 2D30C002 	move $6,$22
 6453              	.set macro
 6454              	.set reorder
 6455              	
 6456 2678 0000038E 	lw $3,0($16)
 6457              	
 6458              	.set noreorder
 6459              	.set nomacro
 6460 267c E8FF6054 	bnel $3,$0,$L445
 6461 2680 0000058E 	lw $5,0($16)
 6462              	.set macro
 6463              	.set reorder
 6464              	
 6465              	$L440:
 6466 2684 9002BFDF 	ld $31,656($sp)
 6467 2688 2D100000 	move $2,$0
 6468 268c 8002BEDF 	ld $fp,640($sp)
 6469 2690 7002B7DF 	ld $23,624($sp)
 6470 2694 6002B6DF 	ld $22,608($sp)
 6471 2698 5002B5DF 	ld $21,592($sp)
 6472 269c 4002B4DF 	ld $20,576($sp)
 6473 26a0 3002B3DF 	ld $19,560($sp)
 6474 26a4 2002B2DF 	ld $18,544($sp)
 6475 26a8 1002B1DF 	ld $17,528($sp)
 6476 26ac 0002B0DF 	ld $16,512($sp)
 6477              	
 6478              	.set noreorder
 6479              	.set nomacro
 6480 26b0 0800E003 	j $31
 6481 26b4 A002BD27 	addu $sp,$sp,672
 6482              	.set macro
 6483              	.set reorder
 6484              	
 6485              	.p2align 3
 6486              	$L435:
 6487 26b8 0000023C 	lui $2,%hi($LC113)
 6488 26bc 0000078E 	lw $7,0($16)
 6489 26c0 2D20A003 	move $4,$sp
 6490 26c4 50094524 	addiu $5,$2,%lo($LC113)
 6491              	.set noreorder
 6492              	.set nomacro
 6493 26c8 E5FF0010 	b $L442
 6494 26cc 2D304002 	move $6,$18
 6495              	.set macro
 6496              	.set reorder
 6497              	
 6498              	.p2align 3
 6499              	$L433:
 6500 26d0 0000023C 	lui $2,%hi($LC113)
 6501 26d4 0400078E 	lw $7,4($16)
 6502 26d8 50094524 	addiu $5,$2,%lo($LC113)
 6503              	.set noreorder
 6504              	.set nomacro
 6505 26dc D8FF0010 	b $L441
GAS LISTING  			page 124


 6506 26e0 2D306002 	move $6,$19
 6507              	.set macro
 6508              	.set reorder
 6509              	
 6510              	$L443:
 6511 26e4 2D284002 	move $5,$18
 6512              	.set noreorder
 6513              	.set nomacro
 6514 26e8 0000000C 	jal printf
 6515 26ec 18098424 	addiu $4,$4,%lo($LC111)
 6516              	.set macro
 6517              	.set reorder
 6518              	
 6519              	.set noreorder
 6520              	.set nomacro
 6521 26f0 C6FF0010 	b $L444
 6522 26f4 0000028E 	lw $2,0($16)
 6523              	.set macro
 6524              	.set reorder
 6525              	
 6526              	.end _Z12InstallFilesPcS_PS_PFiS_S_iiE
 6527              	$Lfe42:
 6528              	.size _Z12InstallFilesPcS_PS_PFiS_S_iiE,$Lfe42-_Z12InstallFilesPcS_PS_PFiS_S_iiE
 6529              	.globl dispx
 6530              	.data
 6531              	.align 2
 6532              	.type dispx,@object
 6533              	.size dispx,4
 6534              	dispx:
 6535 01f4 00000000 	.space 4
 6536              	.globl dispy
 6537              	.align 2
 6538              	.type dispy,@object
 6539              	.size dispy,4
 6540              	dispy:
 6541 01f8 00000000 	.space 4
 6542 01fc 00000000 	.align 3
 6543              	.type _ColorCalib,@object
 6544              	.size _ColorCalib,12
 6545              	_ColorCalib:
 6546 0200 6666663F 	.word 1063675494
 6547 0204 0000A041 	.word 1101004800
 6548 0208 CDCC4C3E 	.word 1045220557
 6549              	.rdata
 6550 0956 0000     	.align 3
 6551              	$LC114:
 6552 0958 25732076 	.ascii "%s v%d.%d.%d %s %s %s\000"
 6552      25642E25 
 6552      642E2564 
 6552      20257320 
 6552      25732025 
 6553 096e 0000     	.align 3
 6554              	$LC115:
 6555 0970 257300   	.ascii "%s\000"
 6556 0973 00000000 	.align 3
 6556      00
 6557              	$LC116:
GAS LISTING  			page 125


 6558 0978 426F6F74 	.ascii "BootPath: %s\000"
 6558      50617468 
 6558      3A202573 
 6558      00
 6559 0985 000000   	.align 3
 6560              	$LC117:
 6561 0988 426F6F74 	.ascii "BootDir: %s\000"
 6561      4469723A 
 6561      20257300 
 6562 0994 00000000 	.align 3
 6563              	$LC118:
 6564 0998 4D61696E 	.ascii "MainLoopInit\n\000"
 6564      4C6F6F70 
 6564      496E6974 
 6564      0A00
 6565 09a6 0000     	.align 3
 6566              	$LC119:
 6567 09a8 677A00   	.ascii "gz\000"
 6568 09ab 00000000 	.align 3
 6568      00
 6569              	$LC120:
 6570 09b0 7A697000 	.ascii "zip\000"
 6571 09b4 00000000 	.align 3
 6572              	$LC121:
 6573 09b8 736E7061 	.ascii "snpal\000"
 6573      6C00
 6574 09be 0000     	.align 3
 6575              	$LC122:
 6576 09c0 63646673 	.ascii "cdfs:/\000"
 6576      3A2F00
 6577 09c7 00       	.align 3
 6578              	$LC123:
 6579 09c8 496E7374 	.ascii "Install Menu\000"
 6579      616C6C20 
 6579      4D656E75 
 6579      00
 6580 09d5 000000   	.align 3
 6581              	$LC124:
 6582 09d8 6D63303A 	.ascii "mc0:/SNESticle/default.snpal\000"
 6582      2F534E45 
 6582      53746963 
 6582      6C652F64 
 6582      65666175 
 6583              	.text
 6584              	.align 2
 6585              	.p2align 3,,7
 6586              	.globl _Z12MainLoopInitv
 6587              	.ent _Z12MainLoopInitv
 6588              	_Z12MainLoopInitv:
 6589              	.frame $sp,112,$31
 6590              	.mask 0x803f0000,-16
 6591              	.fmask 0x00000000,0
 6592 26f8 90FFBD27 	subu $sp,$sp,112
 6593 26fc 02000424 	li $4,2
 6594 2700 2D280000 	move $5,$0
 6595 2704 6000BFFF 	sd $31,96($sp)
 6596 2708 2000B2FF 	sd $18,32($sp)
GAS LISTING  			page 126


 6597 270c FFFF1224 	li $18,-1
 6598 2710 1000B1FF 	sd $17,16($sp)
 6599 2714 77001124 	li $17,119
 6600 2718 0000B0FF 	sd $16,0($sp)
 6601 271c 5000B5FF 	sd $21,80($sp)
 6602 2720 4000B4FF 	sd $20,64($sp)
 6603              	.set noreorder
 6604              	.set nomacro
 6605 2724 0000000C 	jal GS_InitGraph
 6606 2728 3000B3FF 	sd $19,48($sp)
 6607              	.set macro
 6608              	.set reorder
 6609              	
 6610 272c 41000324 	li $3,65
 6611 2730 0000023C 	lui $2,%hi(dispx)
 6612 2734 000043AC 	sw $3,%lo(dispx)($2)
 6613 2738 11000824 	li $8,17
 6614 273c 0000023C 	lui $2,%hi(dispy)
 6615 2740 41000424 	li $4,65
 6616 2744 11000524 	li $5,17
 6617 2748 00010624 	li $6,256
 6618 274c F0000724 	li $7,240
 6619              	.set noreorder
 6620              	.set nomacro
 6621 2750 0000000C 	jal GS_SetDispMode
 6622 2754 000048AC 	sw $8,%lo(dispy)($2)
 6623              	.set macro
 6624              	.set reorder
 6625              	
 6626 2758 F0000524 	li $5,240
 6627 275c 2D300000 	move $6,$0
 6628 2760 000C0724 	li $7,3072
 6629 2764 2D400000 	move $8,$0
 6630 2768 00180924 	li $9,6144
 6631 276c 0A000A24 	li $10,10
 6632              	.set noreorder
 6633              	.set nomacro
 6634 2770 0000000C 	jal GS_SetEnv
 6635 2774 00010424 	li $4,256
 6636              	.set macro
 6637              	.set reorder
 6638              	
 6639 2778 4800043C 	lui $4,%hi(_MainLoop_GfxPipe)
 6640 277c 0400053C 	li $5,262144
 6641              	.set noreorder
 6642              	.set nomacro
 6643 2780 0000000C 	jal GPFifoInit
 6644 2784 006B8424 	addiu $4,$4,%lo(_MainLoop_GfxPipe)
 6645              	.set macro
 6646              	.set reorder
 6647              	
 6648              	.set noreorder
 6649              	.set nomacro
 6650 2788 0000000C 	jal _Z8PolyInitv
 6651 278c FFFF3126 	addu $17,$17,-1
 6652              	.set macro
 6653              	.set reorder
GAS LISTING  			page 127


 6654              	
 6655              	.set noreorder
 6656              	.set nomacro
 6657 2790 0000000C 	jal _Z8FontInitj
 6658 2794 00300424 	li $4,12288
 6659              	.set macro
 6660              	.set reorder
 6661              	
 6662              	.set noreorder
 6663              	.set nomacro
 6664 2798 0000000C 	jal _Znwj
 6665 279c 14100424 	li $4,4116
 6666              	.set macro
 6667              	.set reorder
 6668              	
 6669 27a0 2D204000 	move $4,$2
 6670              	.set noreorder
 6671              	.set nomacro
 6672 27a4 0000000C 	jal _ZN10CLogScreenC1Ev
 6673 27a8 2D804000 	move $16,$2
 6674              	.set macro
 6675              	.set reorder
 6676              	
 6677 27ac 0000023C 	lui $2,%hi(_Z17_MainLoopLogEventjjPv)
 6678 27b0 0000033C 	lui $3,%hi(_MainLoop_pLogScreen)
 6679 27b4 08164224 	addiu $2,$2,%lo(_Z17_MainLoopLogEventjjPv)
 6680 27b8 0C0070AC 	sw $16,%lo(_MainLoop_pLogScreen)($3)
 6681 27bc 2D200002 	move $4,$16
 6682              	.set noreorder
 6683              	.set nomacro
 6684 27c0 1005000C 	jal _Z18_MainLoopSetScreenP7CScreen
 6685 27c4 040002AE 	sw $2,4($16)
 6686              	.set macro
 6687              	.set reorder
 6688              	
 6689 27c8 0000023C 	lui $2,%hi(_bMenu)
 6690 27cc 01000324 	li $3,1
 6691              	.set noreorder
 6692              	.set nomacro
 6693 27d0 0000000C 	jal _Z14VersionGetInfov
 6694 27d4 280143A0 	sb $3,%lo(_bMenu)($2)
 6695              	.set macro
 6696              	.set reorder
 6697              	
 6698 27d8 0800478C 	lw $7,8($2)
 6699 27dc 0000043C 	lui $4,%hi($LC114)
 6700 27e0 0C00488C 	lw $8,12($2)
 6701 27e4 2D804000 	move $16,$2
 6702 27e8 1000498C 	lw $9,16($2)
 6703 27ec 58098424 	addiu $4,$4,%lo($LC114)
 6704 27f0 1C004A8C 	lw $10,28($2)
 6705 27f4 20004B8C 	lw $11,32($2)
 6706 27f8 0400468C 	lw $6,4($2)
 6707              	.set noreorder
 6708              	.set nomacro
 6709 27fc 0000000C 	jal _Z9ScrPrintfPcz
 6710 2800 0000458C 	lw $5,0($2)
GAS LISTING  			page 128


 6711              	.set macro
 6712              	.set reorder
 6713              	
 6714 2804 0000043C 	lui $4,%hi($LC115)
 6715 2808 1800058E 	lw $5,24($16)
 6716              	.set noreorder
 6717              	.set nomacro
 6718 280c 0000000C 	jal _Z9ScrPrintfPcz
 6719 2810 70098424 	addiu $4,$4,%lo($LC115)
 6720              	.set macro
 6721              	.set reorder
 6722              	
 6723 2814 0000000C 	jal _Z15MainGetBootPathv
 6723      00000000 
 6724 281c 0000043C 	lui $4,%hi($LC116)
 6725 2820 2D284000 	move $5,$2
 6726              	.set noreorder
 6727              	.set nomacro
 6728 2824 0000000C 	jal _Z9ScrPrintfPcz
 6729 2828 78098424 	addiu $4,$4,%lo($LC116)
 6730              	.set macro
 6731              	.set reorder
 6732              	
 6733 282c 0000000C 	jal _Z14MainGetBootDirv
 6733      00000000 
 6734 2834 0000043C 	lui $4,%hi($LC117)
 6735 2838 2D284000 	move $5,$2
 6736              	.set noreorder
 6737              	.set nomacro
 6738 283c 0000000C 	jal _Z9ScrPrintfPcz
 6739 2840 88098424 	addiu $4,$4,%lo($LC117)
 6740              	.set macro
 6741              	.set reorder
 6742              	
 6743 2844 0000000C 	jal _Z14MainGetBootDirv
 6743      00000000 
 6744 284c 4C00043C 	lui $4,%hi(_MainLoop_BootDir)
 6745 2850 2D284000 	move $5,$2
 6746              	.set noreorder
 6747              	.set nomacro
 6748 2854 0000000C 	jal strcpy
 6749 2858 086D8424 	addiu $4,$4,%lo(_MainLoop_BootDir)
 6750              	.set macro
 6751              	.set reorder
 6752              	
 6753 285c 0000043C 	lui $4,%hi(_MainLoop_IOPModulePaths)
 6754              	.set noreorder
 6755              	.set nomacro
 6756 2860 2608000C 	jal _Z20_MainLoopLoadModulesPPc
 6757 2864 D0018424 	addiu $4,$4,%lo(_MainLoop_IOPModulePaths)
 6758              	.set macro
 6759              	.set reorder
 6760              	
 6761 2868 0000000C 	jal VramInit
 6761      00000000 
 6762              	.set noreorder
 6763              	.set nomacro
GAS LISTING  			page 129


 6764 2870 0000000C 	jal _Znwj
 6765 2874 B03E0424 	li $4,16048
 6766              	.set macro
 6767              	.set reorder
 6768              	
 6769 2878 007D0524 	li $5,32000
 6770 287c 2D204000 	move $4,$2
 6771 2880 01000624 	li $6,1
 6772              	.set noreorder
 6773              	.set nomacro
 6774 2884 0000000C 	jal _ZN14SJPCMMixBufferC1Ejh
 6775 2888 2D804000 	move $16,$2
 6776              	.set macro
 6777              	.set reorder
 6778              	
 6779 288c 0000043C 	lui $4,%hi($LC118)
 6780 2890 4C00023C 	lui $2,%hi(_SJPCMMix)
 6781 2894 98098424 	addiu $4,$4,%lo($LC118)
 6782              	.set noreorder
 6783              	.set nomacro
 6784 2898 0000000C 	jal printf
 6785 289c 006B50AC 	sw $16,%lo(_SJPCMMix)($2)
 6786              	.set macro
 6787              	.set reorder
 6788              	
 6789              	$L487:
 6790              	.set noreorder
 6791              	.set nomacro
 6792 28a0 0000000C 	jal WaitForNextVRstart
 6793 28a4 01000424 	li $4,1
 6794              	.set macro
 6795              	.set reorder
 6796              	
 6797              	.set noreorder
 6798              	.set nomacro
 6799 28a8 FDFF3216 	bne $17,$18,$L487
 6800 28ac FFFF3126 	addu $17,$17,-1
 6801              	.set macro
 6802              	.set reorder
 6803              	
 6804 28b0 30440424 	li $4,17456
 6805              	.set noreorder
 6806              	.set nomacro
 6807 28b4 0000000C 	jal _Znwj
 6808 28b8 0000123C 	lui $18,%hi(_fbTexture)
 6809              	.set macro
 6810              	.set reorder
 6811              	
 6812 28bc 30015126 	addiu $17,$18,%lo(_fbTexture)
 6813 28c0 2D204000 	move $4,$2
 6814              	.set noreorder
 6815              	.set nomacro
 6816 28c4 0000000C 	jal _ZN14CRenderSurfaceC1Ev
 6817 28c8 2D804000 	move $16,$2
 6818              	.set macro
 6819              	.set reorder
 6820              	
GAS LISTING  			page 130


 6821 28cc 0000133C 	lui $19,%hi(_pSnesRom)
 6822 28d0 30440424 	li $4,17456
 6823              	.set noreorder
 6824              	.set nomacro
 6825 28d4 0000000C 	jal _Znwj
 6826 28d8 300150AE 	sw $16,%lo(_fbTexture)($18)
 6827              	.set macro
 6828              	.set reorder
 6829              	
 6830 28dc 2DA86002 	move $21,$19
 6831 28e0 2D804000 	move $16,$2
 6832              	.set noreorder
 6833              	.set nomacro
 6834 28e4 0000000C 	jal _ZN14CRenderSurfaceC1Ev
 6835 28e8 2D204000 	move $4,$2
 6836              	.set macro
 6837              	.set reorder
 6838              	
 6839 28ec 2DA00000 	move $20,$0
 6840 28f0 040030AE 	sw $16,4($17)
 6841 28f4 0A000424 	li $4,10
 6842              	.set noreorder
 6843              	.set nomacro
 6844 28f8 0000000C 	jal _Z20PixelFormatGetByEnum12PixelFormatE
 6845 28fc 0000103C 	lui $16,%hi(_OutTex)
 6846              	.set macro
 6847              	.set reorder
 6848              	
 6849 2900 38011026 	addiu $16,$16,%lo(_OutTex)
 6850 2904 3001448E 	lw $4,%lo(_fbTexture)($18)
 6851 2908 2D384000 	move $7,$2
 6852 290c 00010524 	li $5,256
 6853              	.set noreorder
 6854              	.set nomacro
 6855 2910 0000000C 	jal _ZN8CSurface5AllocEjjP12PixelFormatT
 6856 2914 00010624 	li $6,256
 6857              	.set macro
 6858              	.set reorder
 6859              	
 6860              	.set noreorder
 6861              	.set nomacro
 6862 2918 0000000C 	jal _Z20PixelFormatGetByEnum12PixelFormatE
 6863 291c 0A000424 	li $4,10
 6864              	.set macro
 6865              	.set reorder
 6866              	
 6867 2920 00010524 	li $5,256
 6868 2924 0400248E 	lw $4,4($17)
 6869 2928 2D384000 	move $7,$2
 6870              	.set noreorder
 6871              	.set nomacro
 6872 292c 0000000C 	jal _ZN8CSurface5AllocEjjP12PixelFormatT
 6873 2930 00010624 	li $6,256
 6874              	.set macro
 6875              	.set reorder
 6876              	
 6877              	.set noreorder
GAS LISTING  			page 131


 6878              	.set nomacro
 6879 2934 0000000C 	jal _ZN8CSurface5ClearEv
 6880 2938 3001448E 	lw $4,%lo(_fbTexture)($18)
 6881              	.set macro
 6882              	.set reorder
 6883              	
 6884              	.set noreorder
 6885              	.set nomacro
 6886 293c 0000000C 	jal _ZN8CSurface5ClearEv
 6887 2940 0400248E 	lw $4,4($17)
 6888              	.set macro
 6889              	.set reorder
 6890              	
 6891              	
 6892 2944 2D200002 	move $4,$16
 6893 2948 2D380000 	move $7,$0
 6894 294c 00010624 	li $6,256
 6895              	.set noreorder
 6896              	.set nomacro
 6897 2950 0000000C 	jal _Z10TextureNewP8TextureTjjj
 6898 2954 00010524 	li $5,256
 6899              	.set macro
 6900              	.set reorder
 6901              	
 6902 2958 00240524 	li $5,9216
 6903              	.set noreorder
 6904              	.set nomacro
 6905 295c 0000000C 	jal _Z14TextureSetAddrP8TextureTj
 6906 2960 2D200002 	move $4,$16
 6907              	.set macro
 6908              	.set reorder
 6909              	
 6910 2964 3001448E 	lw $4,%lo(_fbTexture)($18)
 6911              	.set noreorder
 6912              	.set nomacro
 6913 2968 0000000C 	jal _ZN8CSurface10GetLinePtrEi
 6914 296c 2D280000 	move $5,$0
 6915              	.set macro
 6916              	.set reorder
 6917              	
 6918 2970 2D200002 	move $4,$16
 6919              	.set noreorder
 6920              	.set nomacro
 6921 2974 0000000C 	jal _Z13TextureUploadP8TextureTPh
 6922 2978 2D284000 	move $5,$2
 6923              	.set macro
 6924              	.set reorder
 6925              	
 6926              	.set noreorder
 6927              	.set nomacro
 6928 297c E604000C 	jal _Z19_MainLoopSetPalette7NesPalE
 6929 2980 02000424 	li $4,2
 6930              	.set macro
 6931              	.set reorder
 6932              	
 6933 2984 0000053C 	lui $5,%hi($LC119)
 6934 2988 2D200000 	move $4,$0
GAS LISTING  			page 132


 6935              	.set noreorder
 6936              	.set nomacro
 6937 298c 0000000C 	jal _Z10PathExtAddjPc
 6938 2990 A809A524 	addiu $5,$5,%lo($LC119)
 6939              	.set macro
 6940              	.set reorder
 6941              	
 6942 2994 0000053C 	lui $5,%hi($LC120)
 6943 2998 B009A524 	addiu $5,$5,%lo($LC120)
 6944              	.set noreorder
 6945              	.set nomacro
 6946 299c 0000000C 	jal _Z10PathExtAddjPc
 6947 29a0 01000424 	li $4,1
 6948              	.set macro
 6949              	.set reorder
 6950              	
 6951 29a4 0000043C 	lui $4,%hi(_ColorCalib)
 6952              	.set noreorder
 6953              	.set nomacro
 6954 29a8 0000000C 	jal _Z19SNPPUColorCalibratePK16SNPPUColorCalibT
 6955 29ac 00028424 	addiu $4,$4,%lo(_ColorCalib)
 6956              	.set macro
 6957              	.set reorder
 6958              	
 6959 29b0 0900043C 	li $4,589824
 6960              	.set noreorder
 6961              	.set nomacro
 6962 29b4 0000000C 	jal _Znwj
 6963 29b8 F0A48434 	ori $4,$4,0xa4f0
 6964              	.set macro
 6965              	.set reorder
 6966              	
 6967 29bc 2D804000 	move $16,$2
 6968              	.set noreorder
 6969              	.set nomacro
 6970 29c0 0000000C 	jal _ZN10SnesSystemC1Ev
 6971 29c4 2D204000 	move $4,$2
 6972              	.set macro
 6973              	.set reorder
 6974              	
 6975 29c8 0000023C 	lui $2,%hi(_pSnes)
 6976 29cc 0000058E 	lw $5,0($16)
 6977 29d0 100050AC 	sw $16,%lo(_pSnes)($2)
 6978 29d4 0C00A38C 	lw $3,12($5)
 6979              	
 6980              	.set noreorder
 6981              	.set nomacro
 6982 29d8 09F86000 	jal $31,$3
 6983 29dc 2D200002 	move $4,$16
 6984              	.set macro
 6985              	.set reorder
 6986              	
 6987              	.set noreorder
 6988              	.set nomacro
 6989 29e0 0000000C 	jal _Znwj
 6990 29e4 2C010424 	li $4,300
 6991              	.set macro
GAS LISTING  			page 133


 6992              	.set reorder
 6993              	
 6994 29e8 2D204000 	move $4,$2
 6995              	.set noreorder
 6996              	.set nomacro
 6997 29ec 0000000C 	jal _ZN7SnesRomC1Ev
 6998 29f0 2D804000 	move $16,$2
 6999              	.set macro
 7000              	.set reorder
 7001              	
 7002 29f4 140070AE 	sw $16,%lo(_pSnesRom)($19)
 7003 29f8 1400A48E 	lw $4,%lo(_pSnesRom)($21)
 7004              	$L483:
 7005 29fc 0000838C 	lw $3,0($4)
 7006              	
 7007 2a00 1000628C 	lw $2,16($3)
 7008              	
 7009 2a04 09F84000 	jal $31,$2
 7009      00000000 
 7010 2a0c 2D288002 	move $5,$20
 7011 2a10 2B108202 	sltu $2,$20,$2
 7012              	.set noreorder
 7013              	.set nomacro
 7014 2a14 0C004010 	beq $2,$0,$L479
 7015 2a18 01009426 	addu $20,$20,1
 7016              	.set macro
 7017              	.set reorder
 7018              	
 7019 2a1c 1400A28E 	lw $2,%lo(_pSnesRom)($21)
 7020              	
 7021 2a20 0000438C 	lw $3,0($2)
 7022 2a24 2D204000 	move $4,$2
 7023 2a28 1400628C 	lw $2,20($3)
 7024              	
 7025 2a2c 09F84000 	jal $31,$2
 7025      00000000 
 7026 2a34 05000424 	li $4,5
 7027              	.set noreorder
 7028              	.set nomacro
 7029 2a38 0000000C 	jal _Z10PathExtAddjPc
 7030 2a3c 2D284000 	move $5,$2
 7031              	.set macro
 7032              	.set reorder
 7033              	
 7034              	.set noreorder
 7035              	.set nomacro
 7036 2a40 EEFF0010 	b $L483
 7037 2a44 1400A48E 	lw $4,%lo(_pSnesRom)($21)
 7038              	.set macro
 7039              	.set reorder
 7040              	
 7041              	$L479:
 7042 2a48 0000053C 	lui $5,%hi($LC121)
 7043 2a4c 06000424 	li $4,6
 7044 2a50 B809A524 	addiu $5,$5,%lo($LC121)
 7045              	.set noreorder
 7046              	.set nomacro
GAS LISTING  			page 134


 7047 2a54 0000000C 	jal _Z10PathExtAddjPc
 7048 2a58 0000113C 	lui $17,%hi(_pNesRom)
 7049              	.set macro
 7050              	.set reorder
 7051              	
 7052 2a5c 2D982002 	move $19,$17
 7053 2a60 ACC30434 	li $4,50092
 7054              	.set noreorder
 7055              	.set nomacro
 7056 2a64 0000000C 	jal _Znwj
 7057 2a68 2D900000 	move $18,$0
 7058              	.set macro
 7059              	.set reorder
 7060              	
 7061 2a6c 2D804000 	move $16,$2
 7062              	.set noreorder
 7063              	.set nomacro
 7064 2a70 0000000C 	jal _ZN9NesSystemC1Ev
 7065 2a74 2D204000 	move $4,$2
 7066              	.set macro
 7067              	.set reorder
 7068              	
 7069 2a78 0000023C 	lui $2,%hi(_pNes)
 7070 2a7c 0000058E 	lw $5,0($16)
 7071 2a80 180050AC 	sw $16,%lo(_pNes)($2)
 7072 2a84 0C00A38C 	lw $3,12($5)
 7073              	
 7074              	.set noreorder
 7075              	.set nomacro
 7076 2a88 09F86000 	jal $31,$3
 7077 2a8c 2D200002 	move $4,$16
 7078              	.set macro
 7079              	.set reorder
 7080              	
 7081              	.set noreorder
 7082              	.set nomacro
 7083 2a90 0000000C 	jal _Znwj
 7084 2a94 40000424 	li $4,64
 7085              	.set macro
 7086              	.set reorder
 7087              	
 7088 2a98 2D204000 	move $4,$2
 7089              	.set noreorder
 7090              	.set nomacro
 7091 2a9c 0000000C 	jal _ZN6NesRomC1Ev
 7092 2aa0 2D804000 	move $16,$2
 7093              	.set macro
 7094              	.set reorder
 7095              	
 7096 2aa4 1C0030AE 	sw $16,%lo(_pNesRom)($17)
 7097 2aa8 1C00648E 	lw $4,%lo(_pNesRom)($19)
 7098              	$L484:
 7099 2aac 0000838C 	lw $3,0($4)
 7100              	
 7101 2ab0 1000628C 	lw $2,16($3)
 7102              	
 7103 2ab4 09F84000 	jal $31,$2
GAS LISTING  			page 135


 7103      00000000 
 7104 2abc 2D284002 	move $5,$18
 7105 2ac0 2B104202 	sltu $2,$18,$2
 7106              	.set noreorder
 7107              	.set nomacro
 7108 2ac4 0C004010 	beq $2,$0,$L480
 7109 2ac8 01005226 	addu $18,$18,1
 7110              	.set macro
 7111              	.set reorder
 7112              	
 7113 2acc 1C00628E 	lw $2,%lo(_pNesRom)($19)
 7114              	
 7115 2ad0 0000438C 	lw $3,0($2)
 7116 2ad4 2D204000 	move $4,$2
 7117 2ad8 1400628C 	lw $2,20($3)
 7118              	
 7119 2adc 09F84000 	jal $31,$2
 7119      00000000 
 7120 2ae4 02000424 	li $4,2
 7121              	.set noreorder
 7122              	.set nomacro
 7123 2ae8 0000000C 	jal _Z10PathExtAddjPc
 7124 2aec 2D284000 	move $5,$2
 7125              	.set macro
 7126              	.set reorder
 7127              	
 7128              	.set noreorder
 7129              	.set nomacro
 7130 2af0 EEFF0010 	b $L484
 7131 2af4 1C00648E 	lw $4,%lo(_pNesRom)($19)
 7132              	.set macro
 7133              	.set reorder
 7134              	
 7135              	$L480:
 7136              	
 7137 2af8 1C000424 	li $4,28
 7138              	.set noreorder
 7139              	.set nomacro
 7140 2afc 0000000C 	jal _Znwj
 7141 2b00 0000113C 	lui $17,%hi(_pNesFDSDisk)
 7142              	.set macro
 7143              	.set reorder
 7144              	
 7145 2b04 2D982002 	move $19,$17
 7146 2b08 2D204000 	move $4,$2
 7147 2b0c 2D804000 	move $16,$2
 7148              	.set noreorder
 7149              	.set nomacro
 7150 2b10 0000000C 	jal _ZN7NesDiskC1Ev
 7151 2b14 2D900000 	move $18,$0
 7152              	.set macro
 7153              	.set reorder
 7154              	
 7155 2b18 240030AE 	sw $16,%lo(_pNesFDSDisk)($17)
 7156 2b1c 2400648E 	lw $4,%lo(_pNesFDSDisk)($19)
 7157              	$L485:
 7158 2b20 0000838C 	lw $3,0($4)
GAS LISTING  			page 136


 7159              	
 7160 2b24 1000628C 	lw $2,16($3)
 7161              	
 7162 2b28 09F84000 	jal $31,$2
 7162      00000000 
 7163 2b30 2D284002 	move $5,$18
 7164 2b34 2B104202 	sltu $2,$18,$2
 7165              	.set noreorder
 7166              	.set nomacro
 7167 2b38 0C004010 	beq $2,$0,$L481
 7168 2b3c 01005226 	addu $18,$18,1
 7169              	.set macro
 7170              	.set reorder
 7171              	
 7172 2b40 2400628E 	lw $2,%lo(_pNesFDSDisk)($19)
 7173              	
 7174 2b44 0000438C 	lw $3,0($2)
 7175 2b48 2D204000 	move $4,$2
 7176 2b4c 1400628C 	lw $2,20($3)
 7177              	
 7178 2b50 09F84000 	jal $31,$2
 7178      00000000 
 7179 2b58 03000424 	li $4,3
 7180              	.set noreorder
 7181              	.set nomacro
 7182 2b5c 0000000C 	jal _Z10PathExtAddjPc
 7183 2b60 2D284000 	move $5,$2
 7184              	.set macro
 7185              	.set reorder
 7186              	
 7187              	.set noreorder
 7188              	.set nomacro
 7189 2b64 EEFF0010 	b $L485
 7190 2b68 2400648E 	lw $4,%lo(_pNesFDSDisk)($19)
 7191              	.set macro
 7192              	.set reorder
 7193              	
 7194              	$L481:
 7195              	
 7196 2b6c 40000424 	li $4,64
 7197              	.set noreorder
 7198              	.set nomacro
 7199 2b70 0000000C 	jal _Znwj
 7200 2b74 0000113C 	lui $17,%hi(_pNesFDSBios)
 7201              	.set macro
 7202              	.set reorder
 7203              	
 7204 2b78 2D982002 	move $19,$17
 7205 2b7c 2D204000 	move $4,$2
 7206              	.set noreorder
 7207              	.set nomacro
 7208 2b80 0000000C 	jal _ZN6NesRomC2Ev
 7209 2b84 2D804000 	move $16,$2
 7210              	.set macro
 7211              	.set reorder
 7212              	
 7213 2b88 2D900000 	move $18,$0
GAS LISTING  			page 137


 7214 2b8c 0000023C 	lui $2,%hi(_ZTV10NesFDSBios+8)
 7215 2b90 08004224 	addiu $2,$2,%lo(_ZTV10NesFDSBios+8)
 7216 2b94 000002AE 	sw $2,0($16)
 7217 2b98 200030AE 	sw $16,%lo(_pNesFDSBios)($17)
 7218 2b9c 2000648E 	lw $4,%lo(_pNesFDSBios)($19)
 7219              	$L486:
 7220 2ba0 0000838C 	lw $3,0($4)
 7221              	
 7222 2ba4 1000628C 	lw $2,16($3)
 7223              	
 7224 2ba8 09F84000 	jal $31,$2
 7224      00000000 
 7225 2bb0 2D284002 	move $5,$18
 7226 2bb4 2B104202 	sltu $2,$18,$2
 7227              	.set noreorder
 7228              	.set nomacro
 7229 2bb8 0C004010 	beq $2,$0,$L482
 7230 2bbc 01005226 	addu $18,$18,1
 7231              	.set macro
 7232              	.set reorder
 7233              	
 7234 2bc0 2000628E 	lw $2,%lo(_pNesFDSBios)($19)
 7235              	
 7236 2bc4 0000438C 	lw $3,0($2)
 7237 2bc8 2D204000 	move $4,$2
 7238 2bcc 1400628C 	lw $2,20($3)
 7239              	
 7240 2bd0 09F84000 	jal $31,$2
 7240      00000000 
 7241 2bd8 04000424 	li $4,4
 7242              	.set noreorder
 7243              	.set nomacro
 7244 2bdc 0000000C 	jal _Z10PathExtAddjPc
 7245 2be0 2D284000 	move $5,$2
 7246              	.set macro
 7247              	.set reorder
 7248              	
 7249              	.set noreorder
 7250              	.set nomacro
 7251 2be4 EEFF0010 	b $L486
 7252 2be8 2000648E 	lw $4,%lo(_pNesFDSBios)($19)
 7253              	.set macro
 7254              	.set reorder
 7255              	
 7256              	$L482:
 7257              	
 7258 2bec 20000424 	li $4,32
 7259              	.set noreorder
 7260              	.set nomacro
 7261 2bf0 0000000C 	jal _Znwj
 7262 2bf4 0000113C 	lui $17,%hi(_MainLoop_pBrowserScreen)
 7263              	.set macro
 7264              	.set reorder
 7265              	
 7266 2bf8 0000123C 	lui $18,%hi(_MainLoop_pMenuScreen)
 7267 2bfc 2D804000 	move $16,$2
 7268 2c00 0000023C 	lui $2,%hi(_pSnes)
GAS LISTING  			page 138


 7269 2c04 1000448C 	lw $4,%lo(_pSnes)($2)
 7270              	
 7271 2c08 0000838C 	lw $3,0($4)
 7272              	
 7273 2c0c 2000628C 	lw $2,32($3)
 7274              	
 7275              	.set noreorder
 7276              	.set nomacro
 7277 2c10 09F84000 	jal $31,$2
 7278 2c14 0000133C 	lui $19,%hi(_bMenu)
 7279              	.set macro
 7280              	.set reorder
 7281              	
 7282 2c18 0300063C 	li $6,196608
 7283 2c1c C04BC634 	ori $6,$6,0x4bc0
 7284 2c20 2D284000 	move $5,$2
 7285              	.set noreorder
 7286              	.set nomacro
 7287 2c24 0000000C 	jal _ZN13CEmuMovieClipC1Ejj
 7288 2c28 2D200002 	move $4,$16
 7289              	.set macro
 7290              	.set reorder
 7291              	
 7292 2c2c 4800023C 	lui $2,%hi(s_pMovieClip)
 7293 2c30 F8060424 	li $4,1784
 7294              	.set noreorder
 7295              	.set nomacro
 7296 2c34 0000000C 	jal _Znwj
 7297 2c38 9C6A50AC 	sw $16,%lo(s_pMovieClip)($2)
 7298              	.set macro
 7299              	.set reorder
 7300              	
 7301 2c3c 70170524 	li $5,6000
 7302 2c40 2D204000 	move $4,$2
 7303              	.set noreorder
 7304              	.set nomacro
 7305 2c44 0000000C 	jal _ZN14CBrowserScreenC1Ej
 7306 2c48 2D804000 	move $16,$2
 7307              	.set macro
 7308              	.set reorder
 7309              	
 7310 2c4c 0000053C 	lui $5,%hi($LC122)
 7311 2c50 0000023C 	lui $2,%hi(_Z21_MainLoopBrowserEventjjPv)
 7312 2c54 000030AE 	sw $16,%lo(_MainLoop_pBrowserScreen)($17)
 7313 2c58 50144224 	addiu $2,$2,%lo(_Z21_MainLoopBrowserEventjjPv)
 7314 2c5c C009A524 	addiu $5,$5,%lo($LC122)
 7315 2c60 040002AE 	sw $2,4($16)
 7316              	.set noreorder
 7317              	.set nomacro
 7318 2c64 0000000C 	jal _ZN14CBrowserScreen6SetDirEPc
 7319 2c68 2D200002 	move $4,$16
 7320              	.set macro
 7321              	.set reorder
 7322              	
 7323              	.set noreorder
 7324              	.set nomacro
 7325 2c6c 0000000C 	jal _Znwj
GAS LISTING  			page 139


 7326 2c70 28000424 	li $4,40
 7327              	.set macro
 7328              	.set reorder
 7329              	
 7330 2c74 2D204000 	move $4,$2
 7331              	.set noreorder
 7332              	.set nomacro
 7333 2c78 0000000C 	jal _ZN14CNetworkScreenC1Ev
 7334 2c7c 2D804000 	move $16,$2
 7335              	.set macro
 7336              	.set reorder
 7337              	
 7338 2c80 E1170324 	li $3,6113
 7339 2c84 0000023C 	lui $2,%hi(_MainLoop_pNetworkScreen)
 7340 2c88 D4040424 	li $4,1236
 7341 2c8c 040050AC 	sw $16,%lo(_MainLoop_pNetworkScreen)($2)
 7342 2c90 0000023C 	lui $2,%hi(_Z21_MainLoopNetworkEventjjPv)
 7343 2c94 30154224 	addiu $2,$2,%lo(_Z21_MainLoopNetworkEventjjPv)
 7344 2c98 200003AE 	sw $3,32($16)
 7345              	.set noreorder
 7346              	.set nomacro
 7347 2c9c 0000000C 	jal _Znwj
 7348 2ca0 040002AE 	sw $2,4($16)
 7349              	.set macro
 7350              	.set reorder
 7351              	
 7352 2ca4 2D204000 	move $4,$2
 7353              	.set noreorder
 7354              	.set nomacro
 7355 2ca8 0000000C 	jal _ZN11CMenuScreenC1Ev
 7356 2cac 2D804000 	move $16,$2
 7357              	.set macro
 7358              	.set reorder
 7359              	
 7360 2cb0 0000053C 	lui $5,%hi($LC123)
 7361 2cb4 0000023C 	lui $2,%hi(_Z18_MainLoopMenuEventjjPv)
 7362 2cb8 080050AE 	sw $16,%lo(_MainLoop_pMenuScreen)($18)
 7363 2cbc C8184224 	addiu $2,$2,%lo(_Z18_MainLoopMenuEventjjPv)
 7364 2cc0 2D200002 	move $4,$16
 7365 2cc4 040002AE 	sw $2,4($16)
 7366              	.set noreorder
 7367              	.set nomacro
 7368 2cc8 0000000C 	jal _ZN11CMenuScreen8SetTitleEPc
 7369 2ccc C809A524 	addiu $5,$5,%lo($LC123)
 7370              	.set macro
 7371              	.set reorder
 7372              	
 7373 2cd0 0000053C 	lui $5,%hi(_MainLoopMenuEntries)
 7374 2cd4 0800448E 	lw $4,%lo(_MainLoop_pMenuScreen)($18)
 7375              	.set noreorder
 7376              	.set nomacro
 7377 2cd8 0000000C 	jal _ZN11CMenuScreen10SetEntriesEPPc
 7378 2cdc 4001A524 	addiu $5,$5,%lo(_MainLoopMenuEntries)
 7379              	.set macro
 7380              	.set reorder
 7381              	
 7382              	.set noreorder
GAS LISTING  			page 140


 7383              	.set nomacro
 7384 2ce0 1005000C 	jal _Z18_MainLoopSetScreenP7CScreen
 7385 2ce4 0000248E 	lw $4,%lo(_MainLoop_pBrowserScreen)($17)
 7386              	.set macro
 7387              	.set reorder
 7388              	
 7389              	
 7390 2ce8 0000043C 	lui $4,%hi($LC124)
 7391 2cec D8098424 	addiu $4,$4,%lo($LC124)
 7392              	.set noreorder
 7393              	.set nomacro
 7394 2cf0 8C03000C 	jal _Z24_MainLoopLoadSnesPalettePKc
 7395 2cf4 280160A2 	sb $0,%lo(_bMenu)($19)
 7396              	.set macro
 7397              	.set reorder
 7398              	
 7399 2cf8 0000023C 	lui $2,%hi(_pRomFile)
 7400 2cfc 2401448C 	lw $4,%lo(_pRomFile)($2)
 7401              	.set noreorder
 7402              	.set nomacro
 7403 2d00 9A03000C 	jal _Z20_MainLoopExecuteFilePKch
 7404 2d04 01000524 	li $5,1
 7405              	.set macro
 7406              	.set reorder
 7407              	
 7408 2d08 0000033C 	lui $3,%hi(_pSystem)
 7409 2d0c 2801628C 	lw $2,%lo(_pSystem)($3)
 7410              	
 7411 2d10 0100422C 	sltu $2,$2,1
 7412              	.set noreorder
 7413              	.set nomacro
 7414 2d14 0000000C 	jal SjPCM_Clearbuff
 7415 2d18 280162A2 	sb $2,%lo(_bMenu)($19)
 7416              	.set macro
 7417              	.set reorder
 7418              	
 7419 2d1c 0000000C 	jal SjPCM_Play
 7419      00000000 
 7420 2d24 0000000C 	jal _Z9InputPollv
 7420      00000000 
 7421 2d2c 0000B0DF 	ld $16,0($sp)
 7422 2d30 6000BFDF 	ld $31,96($sp)
 7423 2d34 01000224 	li $2,1
 7424 2d38 5000B5DF 	ld $21,80($sp)
 7425 2d3c 4000B4DF 	ld $20,64($sp)
 7426 2d40 3000B3DF 	ld $19,48($sp)
 7427 2d44 2000B2DF 	ld $18,32($sp)
 7428 2d48 1000B1DF 	ld $17,16($sp)
 7429              	
 7430              	.set noreorder
 7431              	.set nomacro
 7432 2d4c 0800E003 	j $31
 7433 2d50 7000BD27 	addu $sp,$sp,112
 7434              	.set macro
 7435              	.set reorder
 7436              	
 7437              	.end _Z12MainLoopInitv
GAS LISTING  			page 141


 7438              	$Lfe43:
 7439              	.size _Z12MainLoopInitv,$Lfe43-_Z12MainLoopInitv
 7440              	.align 2
 7441 2d54 00000000 	.p2align 3,,7
 7442              	.ent _Z18_MainLoopSnesInputj
 7443              	_Z18_MainLoopSnesInputj:
 7444              	.frame $sp,0,$31
 7445              	.mask 0x00000000,0
 7446              	.fmask 0x00000000,0
 7447 2d58 00808330 	andi $3,$4,0x8000
 7448 2d5c 00020224 	li $2,512
 7449 2d60 0A100300 	movz $2,$0,$3
 7450 2d64 00208530 	andi $5,$4,0x2000
 7451 2d68 00014334 	ori $3,$2,0x100
 7452 2d6c 00108630 	andi $6,$4,0x1000
 7453 2d70 0B106500 	movn $2,$3,$5
 7454 2d74 00408730 	andi $7,$4,0x4000
 7455 2d78 00084334 	ori $3,$2,0x800
 7456 2d7c 80008830 	andi $8,$4,0x80
 7457 2d80 0B106600 	movn $2,$3,$6
 7458 2d84 10008930 	andi $9,$4,0x10
 7459 2d88 00044334 	ori $3,$2,0x400
 7460 2d8c 40008A30 	andi $10,$4,0x40
 7461 2d90 0B106700 	movn $2,$3,$7
 7462 2d94 20008630 	andi $6,$4,0x20
 7463 2d98 00404334 	ori $3,$2,0x4000
 7464 2d9c 04008B30 	andi $11,$4,0x4
 7465 2da0 0B106800 	movn $2,$3,$8
 7466 2da4 08008730 	andi $7,$4,0x8
 7467 2da8 40004534 	ori $5,$2,0x40
 7468 2dac 00018C30 	andi $12,$4,0x100
 7469 2db0 0B10A900 	movn $2,$5,$9
 7470 2db4 00088430 	andi $4,$4,0x800
 7471 2db8 00804334 	ori $3,$2,0x8000
 7472 2dbc 0B106A00 	movn $2,$3,$10
 7473 2dc0 80004534 	ori $5,$2,0x80
 7474 2dc4 0B10A600 	movn $2,$5,$6
 7475 2dc8 20004334 	ori $3,$2,0x20
 7476 2dcc 0B106B00 	movn $2,$3,$11
 7477 2dd0 10004534 	ori $5,$2,0x10
 7478 2dd4 0B10A700 	movn $2,$5,$7
 7479 2dd8 00204334 	ori $3,$2,0x2000
 7480 2ddc 0B106C00 	movn $2,$3,$12
 7481 2de0 00104534 	ori $5,$2,0x1000
 7482 2de4 0B10A400 	movn $2,$5,$4
 7483              	.set noreorder
 7484              	.set nomacro
 7485 2de8 0800E003 	j $31
 7486 2dec FFFF4230 	andi $2,$2,0xffff
 7487              	.set macro
 7488              	.set reorder
 7489              	
 7490              	.end _Z18_MainLoopSnesInputj
 7491              	$Lfe44:
 7492              	.size _Z18_MainLoopSnesInputj,$Lfe44-_Z18_MainLoopSnesInputj
 7493              	.align 2
 7494              	.p2align 3,,7
GAS LISTING  			page 142


 7495              	.ent _Z17_MainLoopNesInputj
 7496              	_Z17_MainLoopNesInputj:
 7497              	.frame $sp,0,$31
 7498              	.mask 0x00000000,0
 7499              	.fmask 0x00000000,0
 7500 2df0 00808530 	andi $5,$4,0x8000
 7501 2df4 40000224 	li $2,64
 7502 2df8 0A100500 	movz $2,$0,$5
 7503 2dfc 00208330 	andi $3,$4,0x2000
 7504 2e00 00006338 	xori $3,$3,0x0
 7505 2e04 80004634 	ori $6,$2,0x80
 7506 2e08 0B10C300 	movn $2,$6,$3
 7507 2e0c 00108530 	andi $5,$4,0x1000
 7508 2e10 0000A538 	xori $5,$5,0x0
 7509 2e14 10004634 	ori $6,$2,0x10
 7510 2e18 0B10C500 	movn $2,$6,$5
 7511 2e1c 00408330 	andi $3,$4,0x4000
 7512 2e20 00006338 	xori $3,$3,0x0
 7513 2e24 20004634 	ori $6,$2,0x20
 7514 2e28 0B10C300 	movn $2,$6,$3
 7515 2e2c 80008530 	andi $5,$4,0x80
 7516 2e30 0000A538 	xori $5,$5,0x0
 7517 2e34 02004634 	ori $6,$2,0x2
 7518 2e38 0B10C500 	movn $2,$6,$5
 7519 2e3c 40008330 	andi $3,$4,0x40
 7520 2e40 00006338 	xori $3,$3,0x0
 7521 2e44 01004634 	ori $6,$2,0x1
 7522 2e48 0B10C300 	movn $2,$6,$3
 7523 2e4c 10008530 	andi $5,$4,0x10
 7524 2e50 0000A538 	xori $5,$5,0x0
 7525 2e54 02004634 	ori $6,$2,0x2
 7526 2e58 0B10C500 	movn $2,$6,$5
 7527 2e5c 20008330 	andi $3,$4,0x20
 7528 2e60 00006338 	xori $3,$3,0x0
 7529 2e64 01004634 	ori $6,$2,0x1
 7530 2e68 0B10C300 	movn $2,$6,$3
 7531 2e6c 00018530 	andi $5,$4,0x100
 7532 2e70 0000A538 	xori $5,$5,0x0
 7533 2e74 04004334 	ori $3,$2,0x4
 7534 2e78 0B106500 	movn $2,$3,$5
 7535 2e7c 00088430 	andi $4,$4,0x800
 7536 2e80 00008438 	xori $4,$4,0x0
 7537 2e84 08004334 	ori $3,$2,0x8
 7538              	.set noreorder
 7539              	.set nomacro
 7540 2e88 0800E003 	j $31
 7541 2e8c 0B106400 	movn $2,$3,$4
 7542              	.set macro
 7543              	.set reorder
 7544              	
 7545              	.end _Z17_MainLoopNesInputj
 7546              	$Lfe45:
 7547              	.size _Z17_MainLoopNesInputj,$Lfe45-_Z17_MainLoopNesInputj
 7548              	.align 2
 7549              	.p2align 3,,7
 7550              	.ent _Z22_MainLoopSetSampleRatej
 7551              	_Z22_MainLoopSetSampleRatej:
GAS LISTING  			page 143


 7552              	.frame $sp,0,$31
 7553              	.mask 0x00000000,0
 7554              	.fmask 0x00000000,0
 7555 2e90 4C00023C 	lui $2,%hi(_SJPCMMix)
 7556 2e94 006B438C 	lw $3,%lo(_SJPCMMix)($2)
 7557              	.set noreorder
 7558              	.set nomacro
 7559 2e98 0800E003 	j $31
 7560 2e9c 9C3E64AC 	sw $4,16028($3)
 7561              	.set macro
 7562              	.set reorder
 7563              	
 7564              	.end _Z22_MainLoopSetSampleRatej
 7565              	$Lfe46:
 7566              	.size _Z22_MainLoopSetSampleRatej,$Lfe46-_Z22_MainLoopSetSampleRatej
 7567              	.section .bss
 7568              	_uVblankCycle:
 7569              	.align 2
 7570 4c6e08 00000000 	.space 4
 7571              	.previous
 7572              	.section .bss
 7573              	_uInputFrame:
 7574              	.align 2
 7575 4c6e0c 00000000 	.space 4
 7576              	.previous
 7577              	.section .bss
 7578              	_uInputChecksum:
 7579              	.align 3
 7580 4c6e10 00000000 	.space 20
 7580      00000000 
 7580      00000000 
 7580      00000000 
 7580      00000000 
 7581 4c6e24 00000000 	.previous
 7581      00000000 
 7581      00000000 
 7581      00000000 
 7581      00000000 
 7582              	.align 2
 7583              	.p2align 3,,7
 7584              	.ent _Z28_MainLoopResetInputChecksumsv
 7585              	_Z28_MainLoopResetInputChecksumsv:
 7586              	.frame $sp,16,$31
 7587              	.mask 0x80000000,-16
 7588              	.fmask 0x00000000,0
 7589 2ea0 4C00043C 	lui $4,%hi(_uInputChecksum)
 7590 2ea4 F0FFBD27 	subu $sp,$sp,16
 7591 2ea8 2D280000 	move $5,$0
 7592 2eac 106E8424 	addiu $4,$4,%lo(_uInputChecksum)
 7593 2eb0 14000624 	dli $6,0x14
 7594 2eb4 4C00023C 	lui $2,%hi(_uInputFrame)
 7595 2eb8 0000BFFF 	sd $31,0($sp)
 7596              	.set noreorder
 7597              	.set nomacro
 7598 2ebc 0000000C 	jal memset
 7599 2ec0 0C6E40AC 	sw $0,%lo(_uInputFrame)($2)
 7600              	.set macro
GAS LISTING  			page 144


 7601              	.set reorder
 7602              	
 7603 2ec4 0000BFDF 	ld $31,0($sp)
 7604              	
 7605              	.set noreorder
 7606              	.set nomacro
 7607 2ec8 0800E003 	j $31
 7608 2ecc 1000BD27 	addu $sp,$sp,16
 7609              	.set macro
 7610              	.set reorder
 7611              	
 7612              	.end _Z28_MainLoopResetInputChecksumsv
 7613              	$Lfe47:
 7614              	.size _Z28_MainLoopResetInputChecksumsv,$Lfe47-_Z28_MainLoopResetInputChecksumsv
 7615              	.align 2
 7616              	.p2align 3,,7
 7617              	.ent _Z12_ExecuteSnesP14CRenderSurfaceP10CMixBufferP12EmuSysInputT11EmuSysModeE
 7618              	_Z12_ExecuteSnesP14CRenderSurfaceP10CMixBufferP12EmuSysInputT11EmuSysModeE:
 7619              	.frame $sp,80,$31
 7620              	.mask 0x800f0000,-16
 7621              	.fmask 0x00000000,0
 7622 2ed0 B0FFBD27 	subu $sp,$sp,80
 7623 2ed4 2000B2FF 	sd $18,32($sp)
 7624 2ed8 2D908000 	move $18,$4
 7625 2edc 0000043C 	lui $4,%hi(SNCPUExecute_ASM)
 7626 2ee0 4000BFFF 	sd $31,64($sp)
 7627 2ee4 00008424 	addiu $4,$4,%lo(SNCPUExecute_ASM)
 7628 2ee8 3000B3FF 	sd $19,48($sp)
 7629 2eec 1000B1FF 	sd $17,16($sp)
 7630 2ef0 2D98A000 	move $19,$5
 7631 2ef4 2D88C000 	move $17,$6
 7632 2ef8 0000B0FF 	sd $16,0($sp)
 7633              	.set noreorder
 7634              	.set nomacro
 7635 2efc 0000000C 	jal SNCPUSetExecuteFunc
 7636 2f00 2D80E000 	move $16,$7
 7637              	.set macro
 7638              	.set reorder
 7639              	
 7640 2f04 0000043C 	lui $4,%hi(SNSPCExecute_C)
 7641              	.set noreorder
 7642              	.set nomacro
 7643 2f08 0000000C 	jal SNSPCSetExecuteFunc
 7644 2f0c 00008424 	addiu $4,$4,%lo(SNSPCExecute_C)
 7645              	.set macro
 7646              	.set reorder
 7647              	
 7648 2f10 2D386002 	move $7,$19
 7649 2f14 0000023C 	lui $2,%hi(_pSystem)
 7650 2f18 2D400002 	move $8,$16
 7651 2f1c 2801448C 	lw $4,%lo(_pSystem)($2)
 7652 2f20 2D282002 	move $5,$17
 7653 2f24 0000838C 	lw $3,0($4)
 7654              	
 7655 2f28 1400628C 	lw $2,20($3)
 7656              	
 7657              	.set noreorder
GAS LISTING  			page 145


 7658              	.set nomacro
 7659 2f2c 09F84000 	jal $31,$2
 7660 2f30 2D304002 	move $6,$18
 7661              	.set macro
 7662              	.set reorder
 7663              	
 7664 2f34 0000B0DF 	ld $16,0($sp)
 7665 2f38 4000BFDF 	ld $31,64($sp)
 7666 2f3c 01000224 	li $2,1
 7667 2f40 3000B3DF 	ld $19,48($sp)
 7668 2f44 2000B2DF 	ld $18,32($sp)
 7669 2f48 1000B1DF 	ld $17,16($sp)
 7670              	
 7671              	.set noreorder
 7672              	.set nomacro
 7673 2f4c 0800E003 	j $31
 7674 2f50 5000BD27 	addu $sp,$sp,80
 7675              	.set macro
 7676              	.set reorder
 7677              	
 7678              	.end _Z12_ExecuteSnesP14CRenderSurfaceP10CMixBufferP12EmuSysInputT11EmuSysModeE
 7679              	$Lfe48:
 7680              	.size _Z12_ExecuteSnesP14CRenderSurfaceP10CMixBufferP12EmuSysInputT11EmuSysModeE,$Lfe48-_Z12_ExecuteSnesP14CRenderSurfaceP10CMixBufferP12EmuSysInputT11EmuSysModeE
 7681              	.align 2
 7682 2f54 00000000 	.p2align 3,,7
 7683              	.ent _Z11_ExecuteNesP14CRenderSurfaceP10CMixBufferP12EmuSysInputT11EmuSysModeE
 7684              	_Z11_ExecuteNesP14CRenderSurfaceP10CMixBufferP12EmuSysInputT11EmuSysModeE:
 7685              	.frame $sp,80,$31
 7686              	.mask 0x800f0000,-16
 7687              	.fmask 0x00000000,0
 7688 2f58 B0FFBD27 	subu $sp,$sp,80
 7689 2f5c 2000B2FF 	sd $18,32($sp)
 7690 2f60 2D908000 	move $18,$4
 7691 2f64 0000043C 	lui $4,%hi(NCPUExecute_C)
 7692 2f68 4000BFFF 	sd $31,64($sp)
 7693 2f6c 00008424 	addiu $4,$4,%lo(NCPUExecute_C)
 7694 2f70 3000B3FF 	sd $19,48($sp)
 7695 2f74 1000B1FF 	sd $17,16($sp)
 7696 2f78 2D98A000 	move $19,$5
 7697 2f7c 2D88E000 	move $17,$7
 7698 2f80 0000B0FF 	sd $16,0($sp)
 7699              	.set noreorder
 7700              	.set nomacro
 7701 2f84 0000000C 	jal N6502SetExecuteFunc
 7702 2f88 2D80C000 	move $16,$6
 7703              	.set macro
 7704              	.set reorder
 7705              	
 7706 2f8c 0000023C 	lui $2,%hi(_pSystem)
 7707 2f90 2D280002 	move $5,$16
 7708 2f94 2801448C 	lw $4,%lo(_pSystem)($2)
 7709 2f98 2D304002 	move $6,$18
 7710 2f9c 2D386002 	move $7,$19
 7711 2fa0 0000838C 	lw $3,0($4)
 7712              	
 7713 2fa4 1400628C 	lw $2,20($3)
 7714              	
GAS LISTING  			page 146


 7715              	.set noreorder
 7716              	.set nomacro
 7717 2fa8 09F84000 	jal $31,$2
 7718 2fac 2D402002 	move $8,$17
 7719              	.set macro
 7720              	.set reorder
 7721              	
 7722 2fb0 0000B0DF 	ld $16,0($sp)
 7723 2fb4 4000BFDF 	ld $31,64($sp)
 7724 2fb8 01000224 	li $2,1
 7725 2fbc 3000B3DF 	ld $19,48($sp)
 7726 2fc0 2000B2DF 	ld $18,32($sp)
 7727 2fc4 1000B1DF 	ld $17,16($sp)
 7728              	
 7729              	.set noreorder
 7730              	.set nomacro
 7731 2fc8 0800E003 	j $31
 7732 2fcc 5000BD27 	addu $sp,$sp,80
 7733              	.set macro
 7734              	.set reorder
 7735              	
 7736              	.end _Z11_ExecuteNesP14CRenderSurfaceP10CMixBufferP12EmuSysInputT11EmuSysModeE
 7737              	$Lfe49:
 7738              	.size _Z11_ExecuteNesP14CRenderSurfaceP10CMixBufferP12EmuSysInputT11EmuSysModeE,$Lfe49-_Z11_ExecuteNesP14CRenderSurfaceP10CMixBufferP12EmuSysInputT11EmuSysModeE
 7739              	.align 2
 7740              	.p2align 3,,7
 7741              	.globl _Z14_MainLoopInputj
 7742              	.ent _Z14_MainLoopInputj
 7743              	_Z14_MainLoopInputj:
 7744              	.frame $sp,16,$31
 7745              	.mask 0x80000000,-16
 7746              	.fmask 0x00000000,0
 7747 2fd0 F0FFBD27 	subu $sp,$sp,16
 7748 2fd4 03008230 	andi $2,$4,0x3
 7749 2fd8 0000BFFF 	sd $31,0($sp)
 7750              	.set noreorder
 7751              	.set nomacro
 7752 2fdc 0A004014 	bne $2,$0,$L517
 7753 2fe0 2D280000 	move $5,$0
 7754              	.set macro
 7755              	.set reorder
 7756              	
 7757 2fe4 0000023C 	lui $2,%hi(_pSystem)
 7758 2fe8 0000033C 	lui $3,%hi(_pSnes)
 7759 2fec 2801468C 	lw $6,%lo(_pSystem)($2)
 7760 2ff0 1000628C 	lw $2,%lo(_pSnes)($3)
 7761              	
 7762              	.set noreorder
 7763              	.set nomacro
 7764 2ff4 0C00C210 	beq $6,$2,$L523
 7765 2ff8 0000023C 	lui $2,%hi(_pNes)
 7766              	.set macro
 7767              	.set reorder
 7768              	
 7769 2ffc 1800438C 	lw $3,%lo(_pNes)($2)
 7770              	
 7771 3000 0500C310 	beq $6,$3,$L524
GAS LISTING  			page 147


 7771      00000000 
 7772              	$L517:
 7773 3008 0000BFDF 	ld $31,0($sp)
 7774 300c 2D10A000 	move $2,$5
 7775              	.set noreorder
 7776              	.set nomacro
 7777 3010 0800E003 	j $31
 7778 3014 1000BD27 	addu $sp,$sp,16
 7779              	.set macro
 7780              	.set reorder
 7781              	
 7782              	.p2align 3
 7783              	$L524:
 7784 3018 7C0B000C 	jal _Z17_MainLoopNesInputj
 7784      00000000 
 7785              	.set noreorder
 7786              	.set nomacro
 7787 3020 F9FF0010 	b $L517
 7788 3024 2D284000 	move $5,$2
 7789              	.set macro
 7790              	.set reorder
 7791              	
 7792              	.p2align 3
 7793              	$L523:
 7794 3028 560B000C 	jal _Z18_MainLoopSnesInputj
 7794      00000000 
 7795              	.set noreorder
 7796              	.set nomacro
 7797 3030 F5FF0010 	b $L517
 7798 3034 2D284000 	move $5,$2
 7799              	.set macro
 7800              	.set reorder
 7801              	
 7802              	.end _Z14_MainLoopInputj
 7803              	$Lfe50:
 7804              	.size _Z14_MainLoopInputj,$Lfe50-_Z14_MainLoopInputj
 7805              	.data
 7806              	.align 2
 7807              	.type _ZZ14MainLoopRendervE7_iFrame,@object
 7808              	.size _ZZ14MainLoopRendervE7_iFrame,4
 7809              	_ZZ14MainLoopRendervE7_iFrame:
 7810 020c 00000000 	.word 0
 7811              	.align 2
 7812              	.type _ZZ14MainLoopRendervE12whichdrawbuf,@object
 7813              	.size _ZZ14MainLoopRendervE12whichdrawbuf,4
 7814              	_ZZ14MainLoopRendervE12whichdrawbuf:
 7815 0210 00000000 	.word 0
 7816              	.align 2
 7817              	.type _ZZ14MainLoopRendervE6fColor,@object
 7818              	.size _ZZ14MainLoopRendervE6fColor,4
 7819              	_ZZ14MainLoopRendervE6fColor:
 7820 0214 00000000 	.word 0
 7821              	.rdata
 7822 09f5 000000   	.align 3
 7823              	$LC129:
 7824 09f8 2300     	.ascii "#\000"
 7825 09fa 00000000 	.align 3
GAS LISTING  			page 148


 7825      0000
 7826              	$LC128:
 7827 0a00 25386400 	.ascii "%8d\000"
 7828 0a04 00000000 	.align 3
 7829              	$LC127:
 7830 0a08 25303858 	.ascii "%08X\000"
 7830      00
 7831 0a0d 000000   	.align 3
 7832              	$LC126:
 7833 0a10 4F00     	.ascii "O\000"
 7834 0a12 00000000 	.align 3
 7834      0000
 7835              	$LC125:
 7836 0a18 3E00     	.ascii ">\000"
 7837              	.text
 7838              	.align 2
 7839              	.p2align 3,,7
 7840              	.globl _Z14MainLoopRenderv
 7841              	.ent _Z14MainLoopRenderv
 7842              	_Z14MainLoopRenderv:
 7843              	.frame $sp,96,$31
 7844              	.mask 0x800f0000,-32
 7845              	.fmask 0x00100000,-16
 7846 3038 A0FFBD27 	subu $sp,$sp,96
 7847 303c 4000BFFF 	sd $31,64($sp)
 7848 3040 3000B3FF 	sd $19,48($sp)
 7849 3044 2000B2FF 	sd $18,32($sp)
 7850 3048 1000B1FF 	sd $17,16($sp)
 7851 304c 0000B0FF 	sd $16,0($sp)
 7852              	.set noreorder
 7853              	.set nomacro
 7854 3050 0000000C 	jal GPPrimDisableZBuf
 7855 3054 5000B4E7 	s.s $f20,80($sp)
 7856              	.set macro
 7857              	.set reorder
 7858              	
 7859 3058 0000023C 	lui $2,%hi(_MainLoop_BlackScreen)
 7860 305c 34014390 	lbu $3,%lo(_MainLoop_BlackScreen)($2)
 7861              	
 7862              	.set noreorder
 7863              	.set nomacro
 7864 3060 4F016014 	bne $3,$0,$L558
 7865 3064 0000123C 	lui $18,%hi(_bMenu)
 7866              	.set macro
 7867              	.set reorder
 7868              	
 7869 3068 CC3D013C 	li.s $f4,1.00000001490116119385e-1
 7869      CDCC2134 
 7869      00208144 
 7870 3074 28014292 	lbu $2,%lo(_bMenu)($18)
 7871              	
 7872              	.set noreorder
 7873              	.set nomacro
 7874 3078 06004014 	bne $2,$0,$L527
 7875 307c 0000133C 	lui $19,%hi(_MainLoop_ModalCount)
 7876              	.set macro
 7877              	.set reorder
GAS LISTING  			page 149


 7878              	
 7879 3080 2C01628E 	lw $2,%lo(_MainLoop_ModalCount)($19)
 7880              	
 7881              	.set noreorder
 7882              	.set nomacro
 7883 3084 04004014 	bne $2,$0,$L567
 7884 3088 0000023C 	lui $2,%hi(_ZZ14MainLoopRendervE6fColor)
 7885              	.set macro
 7886              	.set reorder
 7887              	
 7888 308c 0000023C 	lui $2,%hi(_MainLoop_fOutputIntensity)
 7889 3090 200144C4 	l.s $f4,%lo(_MainLoop_fOutputIntensity)($2)
 7890              	$L527:
 7891 3094 0000023C 	lui $2,%hi(_ZZ14MainLoopRendervE6fColor)
 7892              	$L567:
 7893 3098 140242C4 	l.s $f2,%lo(_ZZ14MainLoopRendervE6fColor)($2)
 7894              	
 7895 309c 34100446 	c.lt.s $f2,$f4
 7896              	
 7897 30a0 00000000 	.set noreorder
 7898              	.set nomacro
 7899 30a4 0C000245 	bc1fl $L568
 7900 30a8 0000023C 	lui $2,%hi(_ZZ14MainLoopRendervE6fColor)
 7901              	.set macro
 7902              	.set reorder
 7903              	
 7904 30ac 753D013C 	li.s $f0,5.99999986588954925537e-2
 7904      8FC22134 
 7904      00008144 
 7905 30b8 00000000 	
 7906 30bc 00100046 	add.s $f0,$f2,$f0
 7907 30c0 34200046 	c.lt.s $f4,$f0
 7908              	
 7909 30c4 00000000 	.set noreorder
 7910              	.set nomacro
 7911 30c8 02000045 	bc1f $L528
 7912 30cc 140240E4 	s.s $f0,%lo(_ZZ14MainLoopRendervE6fColor)($2)
 7913              	.set macro
 7914              	.set reorder
 7915              	
 7916 30d0 140244E4 	s.s $f4,%lo(_ZZ14MainLoopRendervE6fColor)($2)
 7917              	$L528:
 7918 30d4 0000023C 	lui $2,%hi(_ZZ14MainLoopRendervE6fColor)
 7919              	$L568:
 7920 30d8 140242C4 	l.s $f2,%lo(_ZZ14MainLoopRendervE6fColor)($2)
 7921              	
 7922 30dc 34200246 	c.lt.s $f4,$f2
 7923 30e0 00000000 	
 7924 30e4 0B000045 	bc1f $L532
 7924      00000000 
 7925 30ec 753D013C 	li.s $f0,5.99999986588954925537e-2
 7925      8FC22134 
 7925      00008144 
 7926 30f8 00000000 	
 7927 30fc 01100046 	sub.s $f0,$f2,$f0
 7928 3100 34000446 	c.lt.s $f0,$f4
 7929              	
GAS LISTING  			page 150


 7930 3104 00000000 	.set noreorder
 7931              	.set nomacro
 7932 3108 02000045 	bc1f $L532
 7933 310c 140240E4 	s.s $f0,%lo(_ZZ14MainLoopRendervE6fColor)($2)
 7934              	.set macro
 7935              	.set reorder
 7936              	
 7937 3110 140244E4 	s.s $f4,%lo(_ZZ14MainLoopRendervE6fColor)($2)
 7938              	$L532:
 7939              	.set noreorder
 7940              	.set nomacro
 7941 3114 0000000C 	jal _Z9PolyBlendj
 7942 3118 2D200000 	move $4,$0
 7943              	.set macro
 7944              	.set reorder
 7945              	
 7946 311c 0000043C 	lui $4,%hi(_OutTex)
 7947              	.set noreorder
 7948              	.set nomacro
 7949 3120 0000000C 	jal _Z11PolyTextureP8TextureT
 7950 3124 38018424 	addiu $4,$4,%lo(_OutTex)
 7951              	.set macro
 7952              	.set reorder
 7953              	
 7954 3128 00010624 	li $6,256
 7955 312c F0000724 	li $7,240
 7956 3130 2D200000 	move $4,$0
 7957              	.set noreorder
 7958              	.set nomacro
 7959 3134 0000000C 	jal _Z6PolyUViiii
 7960 3138 2D280000 	move $5,$0
 7961              	.set macro
 7962              	.set reorder
 7963              	
 7964 313c 803F013C 	li.s $f15,1.00000000000000000000e0
 7964      00788144 
 7965 3144 0000023C 	lui $2,%hi(_ZZ14MainLoopRendervE6fColor)
 7966 3148 14024CC4 	l.s $f12,%lo(_ZZ14MainLoopRendervE6fColor)($2)
 7967              	
 7968 314c 46630046 	mov.s $f13,$f12
 7969              	.set noreorder
 7970              	.set nomacro
 7971 3150 0000000C 	jal _Z11PolyColor4fffff
 7972 3154 86630046 	mov.s $f14,$f12
 7973              	.set macro
 7974              	.set reorder
 7975              	
 7976 3158 7043013C 	li.s $f15,2.40000000000000000000e2
 7976      00788144 
 7977 3160 0041013C 	li.s $f13,8.00000000000000000000e0
 7977      00688144 
 7978 3168 00608044 	mtc1 $0,$f12
 7979 316c 8043013C 	li.s $f14,2.56000000000000000000e2
 7979      00708144 
 7980 3174 0000000C 	jal _Z8PolyRectffff
 7980      00000000 
 7981              	.set noreorder
GAS LISTING  			page 151


 7982              	.set nomacro
 7983 317c 0000000C 	jal _Z9PolyBlendj
 7984 3180 01000424 	li $4,1
 7985              	.set macro
 7986              	.set reorder
 7987              	
 7988              	$L526:
 7989 3184 28014292 	lbu $2,%lo(_bMenu)($18)
 7990              	
 7991              	.set noreorder
 7992              	.set nomacro
 7993 3188 1C004014 	bne $2,$0,$L569
 7994 318c 2C01628E 	lw $2,%lo(_MainLoop_ModalCount)($19)
 7995              	.set macro
 7996              	.set reorder
 7997              	
 7998 3190 4800103C 	lui $16,%hi(s_pMovieClip)
 7999 3194 9C6A038E 	lw $3,%lo(s_pMovieClip)($16)
 8000              	
 8001 3198 15006290 	lbu $2,21($3)
 8002              	
 8003 319c EE004014 	bne $2,$0,$L562
 8003      00000000 
 8004              	$L537:
 8005 31a4 14006290 	lbu $2,20($3)
 8006              	
 8007 31a8 D9004014 	bne $2,$0,$L563
 8007      00000000 
 8008 31b0 0000023C 	lui $2,%hi(_MainLoop_uDebugDisplay)
 8009              	$L566:
 8010 31b4 02000324 	li $3,2
 8011 31b8 3801448C 	lw $4,%lo(_MainLoop_uDebugDisplay)($2)
 8012              	
 8013              	.set noreorder
 8014              	.set nomacro
 8015 31bc A1008310 	beq $4,$3,$L544
 8016 31c0 0200822C 	sltu $2,$4,2
 8017              	.set macro
 8018              	.set reorder
 8019              	
 8020              	.set noreorder
 8021              	.set nomacro
 8022 31c4 03004014 	bne $2,$0,$L541
 8023 31c8 03000224 	li $2,3
 8024              	.set macro
 8025              	.set reorder
 8026              	
 8027 31cc 89008210 	beq $4,$2,$L545
 8027      00000000 
 8028              	$L541:
 8029              	.set noreorder
 8030              	.set nomacro
 8031 31d4 0000000C 	jal _Z10FontSelecti
 8032 31d8 02000424 	li $4,2
 8033              	.set macro
 8034              	.set reorder
 8035              	
GAS LISTING  			page 152


 8036 31dc 803F013C 	li.s $f12,1.00000000000000000000e0
 8036      00608144 
 8037 31e4 00000000 	
 8038 31e8 46630046 	mov.s $f13,$f12
 8039 31ec 86630046 	mov.s $f14,$f12
 8040              	.set noreorder
 8041              	.set nomacro
 8042 31f0 0000000C 	jal _Z11FontColor4fffff
 8043 31f4 C6630046 	mov.s $f15,$f12
 8044              	.set macro
 8045              	.set reorder
 8046              	
 8047 31f8 2C01628E 	lw $2,%lo(_MainLoop_ModalCount)($19)
 8048              	$L569:
 8049              	.set noreorder
 8050              	.set nomacro
 8051 31fc 5E004018 	blez $2,$L548
 8052 3200 2D200000 	move $4,$0
 8053              	.set macro
 8054              	.set reorder
 8055              	
 8056              	.set noreorder
 8057              	.set nomacro
 8058 3204 0000000C 	jal _Z10FontSelecti
 8059 3208 4C00103C 	lui $16,%hi(_MainLoop_ModalStr)
 8060              	.set macro
 8061              	.set reorder
 8062              	
 8063 320c 086B1026 	addiu $16,$16,%lo(_MainLoop_ModalStr)
 8064 3210 803F013C 	li.s $f12,1.00000000000000000000e0
 8064      00608144 
 8065 3218 00000000 	
 8066 321c 46630046 	mov.s $f13,$f12
 8067 3220 86630046 	mov.s $f14,$f12
 8068              	.set noreorder
 8069              	.set nomacro
 8070 3224 0000000C 	jal _Z11FontColor4fffff
 8071 3228 C6630046 	mov.s $f15,$f12
 8072              	.set macro
 8073              	.set reorder
 8074              	
 8075              	.set noreorder
 8076              	.set nomacro
 8077 322c 0000000C 	jal _Z15FontGetStrWidthPc
 8078 3230 2D200002 	move $4,$16
 8079              	.set macro
 8080              	.set reorder
 8081              	
 8082 3234 C842013C 	li.s $f13,1.00000000000000000000e2
 8082      00688144 
 8083 323c C21F0200 	srl $3,$2,31
 8084 3240 21104300 	addu $2,$2,$3
 8085 3244 80000324 	li $3,128
 8086 3248 43100200 	sra $2,$2,1
 8087 324c 23186200 	subu $3,$3,$2
 8088 3250 00608344 	mtc1 $3,$f12
 8088      00000000 
GAS LISTING  			page 153


 8089 3258 20638046 	cvt.s.w $f12,$f12
 8090              	.set noreorder
 8091              	.set nomacro
 8092 325c 0000000C 	jal _Z10FontPrintfffPcz
 8093 3260 2D200002 	move $4,$16
 8094              	.set macro
 8095              	.set reorder
 8096              	
 8097 3264 2C01628E 	lw $2,%lo(_MainLoop_ModalCount)($19)
 8098              	
 8099 3268 FFFF4224 	addu $2,$2,-1
 8100 326c 2C0162AE 	sw $2,%lo(_MainLoop_ModalCount)($19)
 8101 3270 2D200000 	move $4,$0
 8102              	$L565:
 8103              	.set noreorder
 8104              	.set nomacro
 8105 3274 0000000C 	jal MCSave_WriteSync
 8106 3278 2D280000 	move $5,$0
 8107              	.set macro
 8108              	.set reorder
 8109              	
 8110              	.set noreorder
 8111              	.set nomacro
 8112 327c 28004014 	bne $2,$0,$L564
 8113 3280 0000113C 	lui $17,%hi(_ZZ14MainLoopRendervE7_iFrame)
 8114              	.set macro
 8115              	.set reorder
 8116              	
 8117              	$L552:
 8118              	.set noreorder
 8119              	.set nomacro
 8120 3284 0000000C 	jal GPFifoFlush
 8121 3288 2D802002 	move $16,$17
 8122              	.set macro
 8123              	.set reorder
 8124              	
 8125 328c 0C02228E 	lw $2,%lo(_ZZ14MainLoopRendervE7_iFrame)($17)
 8126              	
 8127 3290 0F004230 	andi $2,$2,0xf
 8128 3294 04004014 	bne $2,$0,$L554
 8128      00000000 
 8129              	
 8130 329c 00480340 	mfc0 $3,$9
 8131              	
 8132 32a0 4C00023C 	lui $2,%hi(_uVblankCycle)
 8133 32a4 086E43AC 	sw $3,%lo(_uVblankCycle)($2)
 8134              	$L554:
 8135              	.set noreorder
 8136              	.set nomacro
 8137 32a8 0000000C 	jal WaitForNextVRstart
 8138 32ac 01000424 	li $4,1
 8139              	.set macro
 8140              	.set reorder
 8141              	
 8142 32b0 0C02028E 	lw $2,%lo(_ZZ14MainLoopRendervE7_iFrame)($16)
 8143              	
 8144 32b4 0F004230 	andi $2,$2,0xf
GAS LISTING  			page 154


 8145              	.set noreorder
 8146              	.set nomacro
 8147 32b8 05004014 	bne $2,$0,$L556
 8148 32bc 4C00023C 	lui $2,%hi(_uVblankCycle)
 8149              	.set macro
 8150              	.set reorder
 8151              	
 8152              	
 8153 32c0 00480340 	mfc0 $3,$9
 8154              	
 8155 32c4 086E448C 	lw $4,%lo(_uVblankCycle)($2)
 8156              	
 8157 32c8 23186400 	subu $3,$3,$4
 8158 32cc 086E43AC 	sw $3,%lo(_uVblankCycle)($2)
 8159              	$L556:
 8160 32d0 0000103C 	lui $16,%hi(_ZZ14MainLoopRendervE12whichdrawbuf)
 8161              	.set noreorder
 8162              	.set nomacro
 8163 32d4 0000000C 	jal GS_SetCrtFB
 8164 32d8 1002048E 	lw $4,%lo(_ZZ14MainLoopRendervE12whichdrawbuf)($16)
 8165              	.set macro
 8166              	.set reorder
 8167              	
 8168 32dc 1002028E 	lw $2,%lo(_ZZ14MainLoopRendervE12whichdrawbuf)($16)
 8169              	
 8170 32e0 01004238 	xori $2,$2,0x1
 8171 32e4 2D204000 	move $4,$2
 8172              	.set noreorder
 8173              	.set nomacro
 8174 32e8 0000000C 	jal GS_SetDrawFB
 8175 32ec 100202AE 	sw $2,%lo(_ZZ14MainLoopRendervE12whichdrawbuf)($16)
 8176              	.set macro
 8177              	.set reorder
 8178              	
 8179 32f0 5000B4C7 	l.s $f20,80($sp)
 8180 32f4 0C02228E 	lw $2,%lo(_ZZ14MainLoopRendervE7_iFrame)($17)
 8181 32f8 4000BFDF 	ld $31,64($sp)
 8182 32fc 01004224 	addu $2,$2,1
 8183 3300 3000B3DF 	ld $19,48($sp)
 8184 3304 0C0222AE 	sw $2,%lo(_ZZ14MainLoopRendervE7_iFrame)($17)
 8185 3308 2000B2DF 	ld $18,32($sp)
 8186 330c 1000B1DF 	ld $17,16($sp)
 8187 3310 0000B0DF 	ld $16,0($sp)
 8188              	
 8189              	.set noreorder
 8190              	.set nomacro
 8191 3314 0800E003 	j $31
 8192 3318 6000BD27 	addu $sp,$sp,96
 8193              	.set macro
 8194              	.set reorder
 8195              	
 8196 331c 00000000 	.p2align 3
 8197              	$L564:
 8198              	.set noreorder
 8199              	.set nomacro
 8200 3320 0000000C 	jal _Z10FontSelecti
 8201 3324 01000424 	li $4,1
GAS LISTING  			page 155


 8202              	.set macro
 8203              	.set reorder
 8204              	
 8205 3328 803F013C 	li.s $f12,1.00000000000000000000e0
 8205      00608144 
 8206 3330 00688044 	mtc1 $0,$f13
 8206      00000000 
 8207 3338 C6630046 	mov.s $f15,$f12
 8208              	.set noreorder
 8209              	.set nomacro
 8210 333c 0000000C 	jal _Z11FontColor4fffff
 8211 3340 866B0046 	mov.s $f14,$f13
 8212              	.set macro
 8213              	.set reorder
 8214              	
 8215 3344 0C02228E 	lw $2,%lo(_ZZ14MainLoopRendervE7_iFrame)($17)
 8216              	
 8217 3348 04004230 	andi $2,$2,0x4
 8218              	.set noreorder
 8219              	.set nomacro
 8220 334c CDFF4010 	beq $2,$0,$L552
 8221 3350 0000043C 	lui $4,%hi($LC129)
 8222              	.set macro
 8223              	.set reorder
 8224              	
 8225 3354 6B43013C 	li.s $f12,2.35000000000000000000e2
 8225      00608144 
 8226 335c 5843013C 	li.s $f13,2.16000000000000000000e2
 8226      00688144 
 8227              	.set noreorder
 8228              	.set nomacro
 8229 3364 0000000C 	jal _Z10FontPrintfffPcz
 8230 3368 F8098424 	addiu $4,$4,%lo($LC129)
 8231              	.set macro
 8232              	.set reorder
 8233              	
 8234 336c C5FF0010 	b $L552
 8234      00000000 
 8235 3374 00000000 	.p2align 3
 8236              	$L548:
 8237 3378 0000103C 	lui $16,%hi(_MainLoop_StatusCount)
 8238 337c 3001028E 	lw $2,%lo(_MainLoop_StatusCount)($16)
 8239              	
 8240              	.set noreorder
 8241              	.set nomacro
 8242 3380 16004018 	blez $2,$L570
 8243 3384 28014292 	lbu $2,%lo(_bMenu)($18)
 8244              	.set macro
 8245              	.set reorder
 8246              	
 8247              	.set noreorder
 8248              	.set nomacro
 8249 3388 0000000C 	jal _Z10FontSelecti
 8250 338c 2D200000 	move $4,$0
 8251              	.set macro
 8252              	.set reorder
 8253              	
GAS LISTING  			page 156


 8254 3390 00608044 	mtc1 $0,$f12
 8255 3394 4C3F013C 	li.s $f13,8.00000011920928955078e-1
 8255      CDCC2134 
 8255      00688144 
 8256 33a0 803F013C 	li.s $f15,1.00000000000000000000e0
 8256      00788144 
 8257              	.set noreorder
 8258              	.set nomacro
 8259 33a8 0000000C 	jal _Z11FontColor4fffff
 8260 33ac 866B0046 	mov.s $f14,$f13
 8261              	.set macro
 8262              	.set reorder
 8263              	
 8264 33b0 4843013C 	li.s $f13,2.00000000000000000000e2
 8264      00688144 
 8265 33b8 4C00043C 	lui $4,%hi(_MainLoop_StatusStr)
 8266 33bc A041013C 	li.s $f12,2.00000000000000000000e1
 8266      00608144 
 8267              	.set noreorder
 8268              	.set nomacro
 8269 33c4 0000000C 	jal _Z10FontPrintfffPcz
 8270 33c8 086C8424 	addiu $4,$4,%lo(_MainLoop_StatusStr)
 8271              	.set macro
 8272              	.set reorder
 8273              	
 8274 33cc 3001028E 	lw $2,%lo(_MainLoop_StatusCount)($16)
 8275              	
 8276 33d0 FFFF4224 	addu $2,$2,-1
 8277 33d4 300102AE 	sw $2,%lo(_MainLoop_StatusCount)($16)
 8278 33d8 28014292 	lbu $2,%lo(_bMenu)($18)
 8279              	$L570:
 8280              	.set noreorder
 8281              	.set nomacro
 8282 33dc A5FF4050 	beql $2,$0,$L565
 8283 33e0 2D200000 	move $4,$0
 8284              	.set macro
 8285              	.set reorder
 8286              	
 8287 33e4 A00F000C 	jal _Z9_MenuDrawv
 8287      00000000 
 8288              	.set noreorder
 8289              	.set nomacro
 8290 33ec A1FF0010 	b $L565
 8291 33f0 2D200000 	move $4,$0
 8292              	.set macro
 8293              	.set reorder
 8294              	
 8295              	$L545:
 8296 33f4 803F013C 	li.s $f12,1.00000000000000000000e0
 8296      00608144 
 8297 33fc 00688044 	mtc1 $0,$f13
 8297      00000000 
 8298 3404 C6630046 	mov.s $f15,$f12
 8299              	.set noreorder
 8300              	.set nomacro
 8301 3408 0000000C 	jal _Z11FontColor4fffff
 8302 340c 866B0046 	mov.s $f14,$f13
GAS LISTING  			page 157


 8303              	.set macro
 8304              	.set reorder
 8305              	
 8306 3410 5243013C 	li.s $f13,2.10000000000000000000e2
 8306      00688144 
 8307 3418 4C00023C 	lui $2,%hi(_uVblankCycle)
 8308 341c 0000043C 	lui $4,%hi($LC128)
 8309 3420 086E458C 	lw $5,%lo(_uVblankCycle)($2)
 8310 3424 000A8424 	addiu $4,$4,%lo($LC128)
 8311 3428 4343013C 	li.s $f12,1.95000000000000000000e2
 8311      00608144 
 8312 3430 822A0500 	srl $5,$5,10
 8313              	$L561:
 8314 3434 0000000C 	jal _Z10FontPrintfffPcz
 8314      00000000 
 8315 343c 65FF0010 	b $L541
 8315      00000000 
 8316              	$L544:
 8317 3444 2042013C 	li.s $f20,4.00000000000000000000e1
 8317      00A08144 
 8318              	.set noreorder
 8319              	.set nomacro
 8320 344c 0000000C 	jal _Z10FontSelecti
 8321 3450 02000424 	li $4,2
 8322              	.set macro
 8323              	.set reorder
 8324              	
 8325 3454 0000113C 	lui $17,%hi($LC127)
 8326 3458 803F013C 	li.s $f12,1.00000000000000000000e0
 8326      00608144 
 8327 3460 080A3126 	addiu $17,$17,%lo($LC127)
 8328 3464 4C00103C 	lui $16,%hi(_uInputChecksum)
 8329 3468 86630046 	mov.s $f14,$f12
 8330 346c C6630046 	mov.s $f15,$f12
 8331              	.set noreorder
 8332              	.set nomacro
 8333 3470 0000000C 	jal _Z11FontColor4fffff
 8334 3474 46630046 	mov.s $f13,$f12
 8335              	.set macro
 8336              	.set reorder
 8337              	
 8338 3478 2D202002 	move $4,$17
 8339 347c 4C00023C 	lui $2,%hi(_uInputFrame)
 8340 3480 2A43013C 	li.s $f13,1.70000000000000000000e2
 8340      00688144 
 8341 3488 0C6E458C 	lw $5,%lo(_uInputFrame)($2)
 8342              	.set noreorder
 8343              	.set nomacro
 8344 348c 0000000C 	jal _Z10FontPrintfffPcz
 8345 3490 06A30046 	mov.s $f12,$f20
 8346              	.set macro
 8347              	.set reorder
 8348              	
 8349 3494 3443013C 	li.s $f13,1.80000000000000000000e2
 8349      00688144 
 8350 349c 106E058E 	lw $5,%lo(_uInputChecksum)($16)
 8351 34a0 2D202002 	move $4,$17
GAS LISTING  			page 158


 8352 34a4 106E1026 	addiu $16,$16,%lo(_uInputChecksum)
 8353              	.set noreorder
 8354              	.set nomacro
 8355 34a8 0000000C 	jal _Z10FontPrintfffPcz
 8356 34ac 06A30046 	mov.s $f12,$f20
 8357              	.set macro
 8358              	.set reorder
 8359              	
 8360 34b0 3E43013C 	li.s $f13,1.90000000000000000000e2
 8360      00688144 
 8361 34b8 0400058E 	lw $5,4($16)
 8362 34bc 06A30046 	mov.s $f12,$f20
 8363              	.set noreorder
 8364              	.set nomacro
 8365 34c0 0000000C 	jal _Z10FontPrintfffPcz
 8366 34c4 2D202002 	move $4,$17
 8367              	.set macro
 8368              	.set reorder
 8369              	
 8370 34c8 4843013C 	li.s $f13,2.00000000000000000000e2
 8370      00688144 
 8371 34d0 0800058E 	lw $5,8($16)
 8372 34d4 06A30046 	mov.s $f12,$f20
 8373              	.set noreorder
 8374              	.set nomacro
 8375 34d8 0000000C 	jal _Z10FontPrintfffPcz
 8376 34dc 2D202002 	move $4,$17
 8377              	.set macro
 8378              	.set reorder
 8379              	
 8380 34e0 5243013C 	li.s $f13,2.10000000000000000000e2
 8380      00688144 
 8381 34e8 0C00058E 	lw $5,12($16)
 8382 34ec 06A30046 	mov.s $f12,$f20
 8383              	.set noreorder
 8384              	.set nomacro
 8385 34f0 0000000C 	jal _Z10FontPrintfffPcz
 8386 34f4 2D202002 	move $4,$17
 8387              	.set macro
 8388              	.set reorder
 8389              	
 8390 34f8 5C43013C 	li.s $f13,2.20000000000000000000e2
 8390      00688144 
 8391 3500 1000058E 	lw $5,16($16)
 8392 3504 06A30046 	mov.s $f12,$f20
 8393              	.set noreorder
 8394              	.set nomacro
 8395 3508 CAFF0010 	b $L561
 8396 350c 2D202002 	move $4,$17
 8397              	.set macro
 8398              	.set reorder
 8399              	
 8400              	.p2align 3
 8401              	$L563:
 8402              	.set noreorder
 8403              	.set nomacro
 8404 3510 0000000C 	jal _Z10FontSelecti
GAS LISTING  			page 159


 8405 3514 02000424 	li $4,2
 8406              	.set macro
 8407              	.set reorder
 8408              	
 8409 3518 803F013C 	li.s $f12,1.00000000000000000000e0
 8409      00608144 
 8410 3520 00688044 	mtc1 $0,$f13
 8410      00000000 
 8411 3528 C6630046 	mov.s $f15,$f12
 8412              	.set noreorder
 8413              	.set nomacro
 8414 352c 0000000C 	jal _Z11FontColor4fffff
 8415 3530 866B0046 	mov.s $f14,$f13
 8416              	.set macro
 8417              	.set reorder
 8418              	
 8419 3534 5C43013C 	li.s $f13,2.20000000000000000000e2
 8419      00688144 
 8420 353c 0000043C 	lui $4,%hi($LC126)
 8421 3540 7043013C 	li.s $f12,2.40000000000000000000e2
 8421      00608144 
 8422              	.set noreorder
 8423              	.set nomacro
 8424 3548 0000000C 	jal _Z10FontPrintfffPcz
 8425 354c 100A8424 	addiu $4,$4,%lo($LC126)
 8426              	.set macro
 8427              	.set reorder
 8428              	
 8429              	.set noreorder
 8430              	.set nomacro
 8431 3550 18FF0010 	b $L566
 8432 3554 0000023C 	lui $2,%hi(_MainLoop_uDebugDisplay)
 8433              	.set macro
 8434              	.set reorder
 8435              	
 8436              	.p2align 3
 8437              	$L562:
 8438              	.set noreorder
 8439              	.set nomacro
 8440 3558 0000000C 	jal _Z10FontSelecti
 8441 355c 02000424 	li $4,2
 8442              	.set macro
 8443              	.set reorder
 8444              	
 8445 3560 003F013C 	li.s $f12,5.00000000000000000000e-1
 8445      00608144 
 8446 3568 803F013C 	li.s $f15,1.00000000000000000000e0
 8446      00788144 
 8447 3570 46630046 	mov.s $f13,$f12
 8448              	.set noreorder
 8449              	.set nomacro
 8450 3574 0000000C 	jal _Z11FontColor4fffff
 8451 3578 86630046 	mov.s $f14,$f12
 8452              	.set macro
 8453              	.set reorder
 8454              	
 8455 357c 5C43013C 	li.s $f13,2.20000000000000000000e2
GAS LISTING  			page 160


 8455      00688144 
 8456 3584 0000043C 	lui $4,%hi($LC125)
 8457 3588 7043013C 	li.s $f12,2.40000000000000000000e2
 8457      00608144 
 8458              	.set noreorder
 8459              	.set nomacro
 8460 3590 0000000C 	jal _Z10FontPrintfffPcz
 8461 3594 180A8424 	addiu $4,$4,%lo($LC125)
 8462              	.set macro
 8463              	.set reorder
 8464              	
 8465              	.set noreorder
 8466              	.set nomacro
 8467 3598 02FF0010 	b $L537
 8468 359c 9C6A038E 	lw $3,%lo(s_pMovieClip)($16)
 8469              	.set macro
 8470              	.set reorder
 8471              	
 8472              	.p2align 3
 8473              	$L558:
 8474              	.set noreorder
 8475              	.set nomacro
 8476 35a0 F8FE0010 	b $L526
 8477 35a4 0000133C 	lui $19,%hi(_MainLoop_ModalCount)
 8478              	.set macro
 8479              	.set reorder
 8480              	
 8481              	.end _Z14MainLoopRenderv
 8482              	$Lfe51:
 8483              	.size _Z14MainLoopRenderv,$Lfe51-_Z14MainLoopRenderv
 8484              	.rdata
 8485 0a1a 00000000 	.align 3
 8485      0000
 8486              	$LC131:
 8487 0a20 4D6F7669 	.ascii "Movie: Reached end of record buffer!\n\000"
 8487      653A2052 
 8487      65616368 
 8487      65642065 
 8487      6E64206F 
 8488 0a46 0000     	.align 3
 8489              	$LC130:
 8490 0a48 4E6F7420 	.ascii "Not executing frame %d %d\n\000"
 8490      65786563 
 8490      7574696E 
 8490      67206672 
 8490      616D6520 
 8491              	.text
 8492              	.align 2
 8493              	.p2align 3,,7
 8494              	.globl _Z15MainLoopProcessv
 8495              	.ent _Z15MainLoopProcessv
 8496              	_Z15MainLoopProcessv:
 8497              	.frame $sp,176,$31
 8498              	.mask 0x801f0000,-16
 8499              	.fmask 0x00000000,0
 8500 35a8 50FFBD27 	subu $sp,$sp,176
 8501 35ac A000BFFF 	sd $31,160($sp)
GAS LISTING  			page 161


 8502 35b0 5000B0FF 	sd $16,80($sp)
 8503 35b4 9000B4FF 	sd $20,144($sp)
 8504 35b8 8000B3FF 	sd $19,128($sp)
 8505 35bc 7000B2FF 	sd $18,112($sp)
 8506              	.set noreorder
 8507              	.set nomacro
 8508 35c0 0000000C 	jal NetPlayRPCProcess
 8509 35c4 6000B1FF 	sd $17,96($sp)
 8510              	.set macro
 8511              	.set reorder
 8512              	
 8513 35c8 0000000C 	jal _Z9InputPollv
 8513      00000000 
 8514              	.set noreorder
 8515              	.set nomacro
 8516 35d0 0000000C 	jal _Z15InputGetPadDataj
 8517 35d4 2D200000 	move $4,$0
 8518              	.set macro
 8519              	.set reorder
 8520              	
 8521 35d8 01000424 	li $4,1
 8522              	.set noreorder
 8523              	.set nomacro
 8524 35dc 0000000C 	jal _Z15InputGetPadDataj
 8525 35e0 2D804000 	move $16,$2
 8526              	.set macro
 8527              	.set reorder
 8528              	
 8529 35e4 02000424 	li $4,2
 8530              	.set noreorder
 8531              	.set nomacro
 8532 35e8 0000000C 	jal _Z15InputGetPadDataj
 8533 35ec 25800202 	or $16,$16,$2
 8534              	.set macro
 8535              	.set reorder
 8536              	
 8537 35f0 03000424 	li $4,3
 8538              	.set noreorder
 8539              	.set nomacro
 8540 35f4 0000000C 	jal _Z15InputGetPadDataj
 8541 35f8 25800202 	or $16,$16,$2
 8542              	.set macro
 8543              	.set reorder
 8544              	
 8545 35fc 25800202 	or $16,$16,$2
 8546              	.set noreorder
 8547              	.set nomacro
 8548 3600 780E000C 	jal _Z21_MainLoopInputProcessj
 8549 3604 2D200002 	move $4,$16
 8550              	.set macro
 8551              	.set reorder
 8552              	
 8553 3608 0000023C 	lui $2,%hi(_bMenu)
 8554 360c 28014390 	lbu $3,%lo(_bMenu)($2)
 8555              	
 8556              	.set noreorder
 8557              	.set nomacro
GAS LISTING  			page 162


 8558 3610 59006014 	bne $3,$0,$L572
 8559 3614 0000023C 	lui $2,%hi(_pSystem)
 8560              	.set macro
 8561              	.set reorder
 8562              	
 8563 3618 2801438C 	lw $3,%lo(_pSystem)($2)
 8564              	
 8565              	.set noreorder
 8566              	.set nomacro
 8567 361c 56006010 	beq $3,$0,$L572
 8568 3620 0000023C 	lui $2,%hi(_MainLoop_BlackScreen)
 8569              	.set macro
 8570              	.set reorder
 8571              	
 8572 3624 34014390 	lbu $3,%lo(_MainLoop_BlackScreen)($2)
 8573              	
 8574              	.set noreorder
 8575              	.set nomacro
 8576 3628 53006014 	bne $3,$0,$L572
 8577 362c 0000023C 	lui $2,%hi(_iframetex)
 8578              	.set macro
 8579              	.set reorder
 8580              	
 8581 3630 4C00033C 	lui $3,%hi(_SJPCMMix)
 8582 3634 1001448C 	lw $4,%lo(_iframetex)($2)
 8583 3638 2D800000 	move $16,$0
 8584 363c 0000023C 	lui $2,%hi(_fbTexture)
 8585 3640 006B748C 	lw $20,%lo(_SJPCMMix)($3)
 8586 3644 80200400 	sll $4,$4,2
 8587 3648 30014224 	addiu $2,$2,%lo(_fbTexture)
 8588 364c 21208200 	addu $4,$4,$2
 8589 3650 FFFF1224 	li $18,-1
 8590 3654 0000938C 	lw $19,0($4)
 8591 3658 4000B127 	addu $17,$sp,64
 8592              	$L579:
 8593              	.set noreorder
 8594              	.set nomacro
 8595 365c 0000000C 	jal _Z19InputIsPadConnectedj
 8596 3660 2D200002 	move $4,$16
 8597              	.set macro
 8598              	.set reorder
 8599              	
 8600              	.set noreorder
 8601              	.set nomacro
 8602 3664 A0004014 	bne $2,$0,$L600
 8603 3668 2D200002 	move $4,$16
 8604              	.set macro
 8605              	.set reorder
 8606              	
 8607 366c 000032A6 	sh $18,0($17)
 8608 3670 01001026 	addu $16,$16,1
 8609              	$L608:
 8610 3674 0500022A 	slt $2,$16,5
 8611              	.set noreorder
 8612              	.set nomacro
 8613 3678 F8FF4014 	bne $2,$0,$L579
 8614 367c 02003126 	addu $17,$17,2
GAS LISTING  			page 163


 8615              	.set macro
 8616              	.set reorder
 8617              	
 8618 3680 4200A297 	lhu $2,66($sp)
 8619 3684 2D20A003 	move $4,$sp
 8620 3688 4000A397 	lhu $3,64($sp)
 8621 368c 00140200 	sll $2,$2,16
 8622 3690 25186200 	or $3,$3,$2
 8623              	.set noreorder
 8624              	.set nomacro
 8625 3694 0000000C 	jal NetPlayClientInput
 8626 3698 0800A3AF 	sw $3,8($sp)
 8627              	.set macro
 8628              	.set reorder
 8629              	
 8630 369c 0400A98F 	lw $9,4($sp)
 8631 36a0 05000224 	li $2,5
 8632              	.set noreorder
 8633              	.set nomacro
 8634 36a4 70002211 	beq $9,$2,$L601
 8635 36a8 4800103C 	lui $16,%hi(s_pMovieClip)
 8636              	.set macro
 8637              	.set reorder
 8638              	
 8639 36ac 9C6A048E 	lw $4,%lo(s_pMovieClip)($16)
 8640              	
 8641 36b0 15008290 	lbu $2,21($4)
 8642              	
 8643 36b4 5F004014 	bne $2,$0,$L602
 8643      00000000 
 8644              	$L586:
 8645 36bc 06000224 	li $2,6
 8646              	$L611:
 8647              	.set noreorder
 8648              	.set nomacro
 8649 36c0 2B002211 	beq $9,$2,$L590
 8650 36c4 4C000C3C 	lui $12,%hi(_uInputChecksum)
 8651              	.set macro
 8652              	.set reorder
 8653              	
 8654 36c8 4000A397 	lhu $3,64($sp)
 8655 36cc 106E858D 	lw $5,%lo(_uInputChecksum)($12)
 8656 36d0 106E8225 	addiu $2,$12,%lo(_uInputChecksum)
 8657 36d4 0400478C 	lw $7,4($2)
 8658 36d8 0100312D 	sltu $17,$9,1
 8659 36dc 0800488C 	lw $8,8($2)
 8660 36e0 2128A300 	addu $5,$5,$3
 8661 36e4 0C00468C 	lw $6,12($2)
 8662 36e8 4800103C 	lui $16,%hi(s_pMovieClip)
 8663 36ec 1000438C 	lw $3,16($2)
 8664 36f0 4200A497 	lhu $4,66($sp)
 8665 36f4 4400A997 	lhu $9,68($sp)
 8666 36f8 4600AA97 	lhu $10,70($sp)
 8667 36fc 2138E400 	addu $7,$7,$4
 8668 3700 4800AB97 	lhu $11,72($sp)
 8669 3704 21400901 	addu $8,$8,$9
 8670 3708 2130CA00 	addu $6,$6,$10
GAS LISTING  			page 164


 8671 370c 106E85AD 	sw $5,%lo(_uInputChecksum)($12)
 8672 3710 21186B00 	addu $3,$3,$11
 8673 3714 040047AC 	sw $7,4($2)
 8674 3718 100043AC 	sw $3,16($2)
 8675 371c 080048AC 	sw $8,8($2)
 8676 3720 0C0046AC 	sw $6,12($2)
 8677 3724 4C00023C 	lui $2,%hi(_uInputFrame)
 8678 3728 9C6A058E 	lw $5,%lo(s_pMovieClip)($16)
 8679 372c 0000A38F 	lw $3,0($sp)
 8680 3730 1400A490 	lbu $4,20($5)
 8681              	
 8682              	.set noreorder
 8683              	.set nomacro
 8684 3734 33008014 	bne $4,$0,$L603
 8685 3738 0C6E43AC 	sw $3,%lo(_uInputFrame)($2)
 8686              	.set macro
 8687              	.set reorder
 8688              	
 8689 373c 0000023C 	lui $2,%hi(_pSystem)
 8690              	$L610:
 8691 3740 0000033C 	lui $3,%hi(_pSnes)
 8692 3744 2801448C 	lw $4,%lo(_pSystem)($2)
 8693 3748 1000628C 	lw $2,%lo(_pSnes)($3)
 8694              	
 8695              	.set noreorder
 8696              	.set nomacro
 8697 374c 24008210 	beq $4,$2,$L604
 8698 3750 0000023C 	lui $2,%hi(_pNes)
 8699              	.set macro
 8700              	.set reorder
 8701              	
 8702 3754 1800438C 	lw $3,%lo(_pNes)($2)
 8703              	
 8704              	.set noreorder
 8705              	.set nomacro
 8706 3758 14008310 	beq $4,$3,$L605
 8707 375c 2D288002 	move $5,$20
 8708              	.set macro
 8709              	.set reorder
 8710              	
 8711 3760 0000033C 	lui $3,%hi(_iframetex)
 8712              	$L609:
 8713 3764 1001628C 	lw $2,%lo(_iframetex)($3)
 8714              	
 8715 3768 01004238 	xori $2,$2,0x1
 8716 376c 100162AC 	sw $2,%lo(_iframetex)($3)
 8717              	$L590:
 8718 3770 0000000C 	jal SjPCM_BufferedAsyncStart
 8718      00000000 
 8719              	.p2align 3
 8720              	$L572:
 8721 3778 7001000C 	jal _Z18_MainLoopCheckSRAMv
 8721      00000000 
 8722 3780 0000000C 	jal _Z14MainLoopRenderv
 8722      00000000 
 8723 3788 5000B0DF 	ld $16,80($sp)
 8724 378c A000BFDF 	ld $31,160($sp)
GAS LISTING  			page 165


 8725 3790 01000224 	li $2,1
 8726 3794 9000B4DF 	ld $20,144($sp)
 8727 3798 8000B3DF 	ld $19,128($sp)
 8728 379c 7000B2DF 	ld $18,112($sp)
 8729 37a0 6000B1DF 	ld $17,96($sp)
 8730              	
 8731              	.set noreorder
 8732              	.set nomacro
 8733 37a4 0800E003 	j $31
 8734 37a8 B000BD27 	addu $sp,$sp,176
 8735              	.set macro
 8736              	.set reorder
 8737              	
 8738              	$L605:
 8739 37ac 4000A627 	addu $6,$sp,64
 8740 37b0 2D382002 	move $7,$17
 8741              	.set noreorder
 8742              	.set nomacro
 8743 37b4 D60B000C 	jal _Z11_ExecuteNesP14CRenderSurfaceP10CMixBufferP12EmuSysInputT11EmuSysModeE
 8744 37b8 2D206002 	move $4,$19
 8745              	.set macro
 8746              	.set reorder
 8747              	
 8748 37bc 2D280000 	move $5,$0
 8749              	.set noreorder
 8750              	.set nomacro
 8751 37c0 0000000C 	jal _ZN8CSurface10GetLinePtrEi
 8752 37c4 2D206002 	move $4,$19
 8753              	.set macro
 8754              	.set reorder
 8755              	
 8756 37c8 0000043C 	lui $4,%hi(_OutTex)
 8757 37cc 2D284000 	move $5,$2
 8758              	.set noreorder
 8759              	.set nomacro
 8760 37d0 0000000C 	jal _Z13TextureUploadP8TextureTPh
 8761 37d4 38018424 	addiu $4,$4,%lo(_OutTex)
 8762              	.set macro
 8763              	.set reorder
 8764              	
 8765              	.set noreorder
 8766              	.set nomacro
 8767 37d8 E2FF0010 	b $L609
 8768 37dc 0000033C 	lui $3,%hi(_iframetex)
 8769              	.set macro
 8770              	.set reorder
 8771              	
 8772              	$L604:
 8773 37e0 0000000C 	jal GPPrimDisableZBuf
 8773      00000000 
 8774 37e8 4000A627 	addu $6,$sp,64
 8775 37ec 2D382002 	move $7,$17
 8776 37f0 2D206002 	move $4,$19
 8777              	.set noreorder
 8778              	.set nomacro
 8779 37f4 B40B000C 	jal _Z12_ExecuteSnesP14CRenderSurfaceP10CMixBufferP12EmuSysInputT11EmuSysModeE
 8780 37f8 2D288002 	move $5,$20
GAS LISTING  			page 166


 8781              	.set macro
 8782              	.set reorder
 8783              	
 8784              	.set noreorder
 8785              	.set nomacro
 8786 37fc D9FF0010 	b $L609
 8787 3800 0000033C 	lui $3,%hi(_iframetex)
 8788              	.set macro
 8789              	.set reorder
 8790              	
 8791              	$L603:
 8792 3804 2D20A000 	move $4,$5
 8793              	.set noreorder
 8794              	.set nomacro
 8795 3808 0000000C 	jal _ZN13CEmuMovieClip11RecordFrameER12EmuSysInputT
 8796 380c 4000A527 	addu $5,$sp,64
 8797              	.set macro
 8798              	.set reorder
 8799              	
 8800              	.set noreorder
 8801              	.set nomacro
 8802 3810 CBFF4054 	bnel $2,$0,$L610
 8803 3814 0000023C 	lui $2,%hi(_pSystem)
 8804              	.set macro
 8805              	.set reorder
 8806              	
 8807              	.set noreorder
 8808              	.set nomacro
 8809 3818 0000000C 	jal _ZN13CEmuMovieClip9RecordEndEv
 8810 381c 9C6A048E 	lw $4,%lo(s_pMovieClip)($16)
 8811              	.set macro
 8812              	.set reorder
 8813              	
 8814              	
 8815 3820 0000043C 	lui $4,%hi($LC131)
 8816              	.set noreorder
 8817              	.set nomacro
 8818 3824 0000000C 	jal printf
 8819 3828 200A8424 	addiu $4,$4,%lo($LC131)
 8820              	.set macro
 8821              	.set reorder
 8822              	
 8823              	.set noreorder
 8824              	.set nomacro
 8825 382c C4FF0010 	b $L610
 8826 3830 0000023C 	lui $2,%hi(_pSystem)
 8827              	.set macro
 8828              	.set reorder
 8829              	
 8830              	$L602:
 8831              	.set noreorder
 8832              	.set nomacro
 8833 3834 0000000C 	jal _ZN13CEmuMovieClip9PlayFrameER12EmuSysInputT
 8834 3838 4000A527 	addu $5,$sp,64
 8835              	.set macro
 8836              	.set reorder
 8837              	
GAS LISTING  			page 167


 8838 383c 03004010 	beq $2,$0,$L606
 8838      00000000 
 8839              	.set noreorder
 8840              	.set nomacro
 8841 3844 9DFF0010 	b $L586
 8842 3848 0400A98F 	lw $9,4($sp)
 8843              	.set macro
 8844              	.set reorder
 8845              	
 8846              	$L606:
 8847              	.set noreorder
 8848              	.set nomacro
 8849 384c 0000000C 	jal _ZN13CEmuMovieClip7PlayEndEv
 8850 3850 9C6A048E 	lw $4,%lo(s_pMovieClip)($16)
 8851              	.set macro
 8852              	.set reorder
 8853              	
 8854              	
 8855 3854 0000043C 	lui $4,%hi($LC10)
 8856              	.set noreorder
 8857              	.set nomacro
 8858 3858 0000000C 	jal printf
 8859 385c C0008424 	addiu $4,$4,%lo($LC10)
 8860              	.set macro
 8861              	.set reorder
 8862              	
 8863              	.set noreorder
 8864              	.set nomacro
 8865 3860 96FF0010 	b $L586
 8866 3864 0400A98F 	lw $9,4($sp)
 8867              	.set macro
 8868              	.set reorder
 8869              	
 8870              	$L601:
 8871 3868 0000023C 	lui $2,%hi(_pSystem)
 8872 386c 0000A58F 	lw $5,0($sp)
 8873 3870 2801438C 	lw $3,%lo(_pSystem)($2)
 8874              	
 8875 3874 0800668C 	lw $6,8($3)
 8876              	
 8877 3878 0100C224 	addu $2,$6,1
 8878              	.set noreorder
 8879              	.set nomacro
 8880 387c 05004510 	beq $2,$5,$L581
 8881 3880 0000043C 	lui $4,%hi($LC130)
 8882              	.set macro
 8883              	.set reorder
 8884              	
 8885              	.set noreorder
 8886              	.set nomacro
 8887 3884 0000000C 	jal printf
 8888 3888 480A8424 	addiu $4,$4,%lo($LC130)
 8889              	.set macro
 8890              	.set reorder
 8891              	
 8892 388c 06000924 	li $9,6
 8893 3890 0400A9AF 	sw $9,4($sp)
GAS LISTING  			page 168


 8894              	$L581:
 8895 3894 0C00A297 	lhu $2,12($sp)
 8896 3898 FFFF0534 	li $5,65535
 8897 389c 1000A397 	lhu $3,16($sp)
 8898 38a0 1400A497 	lhu $4,20($sp)
 8899 38a4 4000A2A7 	sh $2,64($sp)
 8900 38a8 1800A297 	lhu $2,24($sp)
 8901 38ac 4200A3A7 	sh $3,66($sp)
 8902 38b0 FFFF0324 	li $3,-1
 8903 38b4 4600A2A7 	sh $2,70($sp)
 8904 38b8 4800A3A7 	sh $3,72($sp)
 8905              	.set noreorder
 8906              	.set nomacro
 8907 38bc 0700A410 	beq $5,$4,$L607
 8908 38c0 4400A4A7 	sh $4,68($sp)
 8909              	.set macro
 8910              	.set reorder
 8911              	
 8912              	$L584:
 8913 38c4 4600A297 	lhu $2,70($sp)
 8914              	
 8915              	.set noreorder
 8916              	.set nomacro
 8917 38c8 7DFF4514 	bne $2,$5,$L611
 8918 38cc 06000224 	li $2,6
 8919              	.set macro
 8920              	.set reorder
 8921              	
 8922 38d0 1200A297 	lhu $2,18($sp)
 8923              	.set noreorder
 8924              	.set nomacro
 8925 38d4 79FF0010 	b $L586
 8926 38d8 4600A2A7 	sh $2,70($sp)
 8927              	.set macro
 8928              	.set reorder
 8929              	
 8930              	$L607:
 8931 38dc 0E00A297 	lhu $2,14($sp)
 8932              	.set noreorder
 8933              	.set nomacro
 8934 38e0 F8FF0010 	b $L584
 8935 38e4 4400A2A7 	sh $2,68($sp)
 8936              	.set macro
 8937              	.set reorder
 8938              	
 8939              	.p2align 3
 8940              	$L600:
 8941              	.set noreorder
 8942              	.set nomacro
 8943 38e8 0000000C 	jal _Z15InputGetPadDataj
 8944 38ec 01001026 	addu $16,$16,1
 8945              	.set macro
 8946              	.set reorder
 8947              	
 8948              	.set noreorder
 8949              	.set nomacro
 8950 38f0 0000000C 	jal _Z14_MainLoopInputj
GAS LISTING  			page 169


 8951 38f4 2D204000 	move $4,$2
 8952              	.set macro
 8953              	.set reorder
 8954              	
 8955              	.set noreorder
 8956              	.set nomacro
 8957 38f8 5EFF0010 	b $L608
 8958 38fc 000022A6 	sh $2,0($17)
 8959              	.set macro
 8960              	.set reorder
 8961              	
 8962              	.end _Z15MainLoopProcessv
 8963              	$Lfe52:
 8964              	.size _Z15MainLoopProcessv,$Lfe52-_Z15MainLoopProcessv
 8965              	.align 2
 8966              	.p2align 3,,7
 8967              	.globl _Z16MainLoopShutdownv
 8968              	.ent _Z16MainLoopShutdownv
 8969              	_Z16MainLoopShutdownv:
 8970              	.frame $sp,16,$31
 8971              	.mask 0x80000000,-16
 8972              	.fmask 0x00000000,0
 8973 3900 F0FFBD27 	subu $sp,$sp,16
 8974 3904 0000BFFF 	sd $31,0($sp)
 8975 3908 0000000C 	jal _Z12FontShutdownv
 8975      00000000 
 8976 3910 0000000C 	jal _Z12PolyShutdownv
 8976      00000000 
 8977 3918 0000BFDF 	ld $31,0($sp)
 8978              	
 8979              	.set noreorder
 8980              	.set nomacro
 8981 391c 0800E003 	j $31
 8982 3920 1000BD27 	addu $sp,$sp,16
 8983              	.set macro
 8984              	.set reorder
 8985              	
 8986              	.end _Z16MainLoopShutdownv
 8987              	$Lfe53:
 8988              	.size _Z16MainLoopShutdownv,$Lfe53-_Z16MainLoopShutdownv
 8989              	.rdata
 8990 0a63 00000000 	.align 3
 8990      00
 8991              	$LC132:
 8992 0a68 53617669 	.ascii "Saving SRAM...\000"
 8992      6E672053 
 8992      52414D2E 
 8992      2E2E00
 8993 0a77 00       	.align 3
 8994              	$LC133:
 8995 0a78 5352414D 	.ascii "SRAM saved.\n\000"
 8995      20736176 
 8995      65642E0A 
 8995      00
 8996 0a85 000000   	.align 3
 8997              	$LC134:
 8998 0a88 4572726F 	.ascii "Error Saving SRAM!\n\000"
GAS LISTING  			page 170


 8998      72205361 
 8998      76696E67 
 8998      20535241 
 8998      4D210A00 
 8999              	.text
 9000              	.align 2
 9001 3924 00000000 	.p2align 3,,7
 9002              	.ent _Z11_MenuEnableh
 9003              	_Z11_MenuEnableh:
 9004              	.frame $sp,32,$31
 9005              	.mask 0x80010000,-16
 9006              	.fmask 0x00000000,0
 9007 3928 E0FFBD27 	subu $sp,$sp,32
 9008 392c 0000023C 	lui $2,%hi(_bMenu)
 9009 3930 0000B0FF 	sd $16,0($sp)
 9010 3934 FF009030 	andi $16,$4,0x00ff
 9011 3938 1000BFFF 	sd $31,16($sp)
 9012 393c 28014390 	lbu $3,%lo(_bMenu)($2)
 9013              	
 9014              	.set noreorder
 9015              	.set nomacro
 9016 3940 06007010 	beq $3,$16,$L623
 9017 3944 1000BFDF 	ld $31,16($sp)
 9018              	.set macro
 9019              	.set reorder
 9020              	
 9021 3948 07000016 	bne $16,$0,$L621
 9021      00000000 
 9022              	$L615:
 9023 3950 0000023C 	lui $2,%hi(_bMenu)
 9024              	$L622:
 9025 3954 280150A0 	sb $16,%lo(_bMenu)($2)
 9026 3958 1000BFDF 	ld $31,16($sp)
 9027              	$L623:
 9028 395c 0000B0DF 	ld $16,0($sp)
 9029              	
 9030              	.set noreorder
 9031              	.set nomacro
 9032 3960 0800E003 	j $31
 9033 3964 2000BD27 	addu $sp,$sp,32
 9034              	.set macro
 9035              	.set reorder
 9036              	
 9037              	.p2align 3
 9038              	$L621:
 9039 3968 C000000C 	jal _Z16_MainLoopHasSRAMv
 9039      00000000 
 9040              	.set noreorder
 9041              	.set nomacro
 9042 3970 F8FF4010 	beq $2,$0,$L622
 9043 3974 0000023C 	lui $2,%hi(_bMenu)
 9044              	.set macro
 9045              	.set reorder
 9046              	
 9047 3978 0000023C 	lui $2,%hi(_MainLoop_SRAMUpdated)
 9048 397c 0000053C 	lui $5,%hi($LC132)
 9049 3980 1C014390 	lbu $3,%lo(_MainLoop_SRAMUpdated)($2)
GAS LISTING  			page 171


 9050 3984 0A000424 	li $4,10
 9051              	.set noreorder
 9052              	.set nomacro
 9053 3988 F1FF6010 	beq $3,$0,$L615
 9054 398c 680AA524 	addiu $5,$5,%lo($LC132)
 9055              	.set macro
 9056              	.set reorder
 9057              	
 9058 3990 0000000C 	jal _Z19MainLoopModalPrintfiPcz
 9058      00000000 
 9059 3998 C000000C 	jal _Z16_MainLoopHasSRAMv
 9059      00000000 
 9060              	.set noreorder
 9061              	.set nomacro
 9062 39a0 EBFF4010 	beq $2,$0,$L615
 9063 39a4 01000424 	li $4,1
 9064              	.set macro
 9065              	.set reorder
 9066              	
 9067 39a8 D200000C 	jal _Z17_MainLoopSaveSRAMh
 9067      00000000 
 9068 39b0 3C000424 	li $4,60
 9069 39b4 0000053C 	lui $5,%hi($LC133)
 9070              	.set noreorder
 9071              	.set nomacro
 9072 39b8 04004014 	bne $2,$0,$L620
 9073 39bc 780AA524 	addiu $5,$5,%lo($LC133)
 9074              	.set macro
 9075              	.set reorder
 9076              	
 9077 39c0 0000053C 	lui $5,%hi($LC134)
 9078 39c4 5A000424 	li $4,90
 9079 39c8 880AA524 	addiu $5,$5,%lo($LC134)
 9080              	$L620:
 9081 39cc 0000000C 	jal _Z19MainLoopModalPrintfiPcz
 9081      00000000 
 9082              	.set noreorder
 9083              	.set nomacro
 9084 39d4 DFFF0010 	b $L622
 9085 39d8 0000023C 	lui $2,%hi(_bMenu)
 9086              	.set macro
 9087              	.set reorder
 9088              	
 9089              	.end _Z11_MenuEnableh
 9090              	$Lfe54:
 9091              	.size _Z11_MenuEnableh,$Lfe54-_Z11_MenuEnableh
 9092              	.data
 9093              	.align 2
 9094              	.type _ZZ21_MainLoopInputProcessjE11lastbuttons,@object
 9095              	.size _ZZ21_MainLoopInputProcessjE11lastbuttons,4
 9096              	_ZZ21_MainLoopInputProcessjE11lastbuttons:
 9097 0218 FFFFFFFF 	.word -1
 9098              	.align 2
 9099              	.type _ZZ21_MainLoopInputProcessjE6repeat,@object
 9100              	.size _ZZ21_MainLoopInputProcessjE6repeat,4
 9101              	_ZZ21_MainLoopInputProcessjE6repeat:
 9102 021c 00000000 	.word 0
GAS LISTING  			page 172


 9103              	.align 3
 9104              	.type _ZZ21_MainLoopInputProcessjE19_MenuTriggerTimeout,@object
 9105              	.size _ZZ21_MainLoopInputProcessjE19_MenuTriggerTimeout,8
 9106              	_ZZ21_MainLoopInputProcessjE19_MenuTriggerTimeout:
 9107 0220 00000000 	.word 0
 9108 0224 00000000 	.word 0
 9109              	.rdata
 9110 0a9c 00000000 	.align 3
 9111              	$LC138:
 9112 0aa0 4E455346 	.ascii "NESFDS Disk %d Inserted\000"
 9112      44532044 
 9112      69736B20 
 9112      25642049 
 9112      6E736572 
 9113              	.align 3
 9114              	$LC137:
 9115 0ab8 4E455346 	.ascii "NESFDS Disk Ejected\000"
 9115      44532044 
 9115      69736B20 
 9115      456A6563 
 9115      74656400 
 9116 0acc 00000000 	.align 3
 9117              	$LC136:
 9118 0ad0 4D6F7669 	.ascii "Movie: Play Begin\n\000"
 9118      653A2050 
 9118      6C617920 
 9118      42656769 
 9118      6E0A00
 9119 0ae3 00000000 	.align 3
 9119      00
 9120              	$LC135:
 9121 0ae8 4D6F7669 	.ascii "Movie: Record Begin\n\000"
 9121      653A2052 
 9121      65636F72 
 9121      64204265 
 9121      67696E0A 
 9122              	.text
 9123              	.align 2
 9124 39dc 00000000 	.p2align 3,,7
 9125              	.ent _Z21_MainLoopInputProcessj
 9126              	_Z21_MainLoopInputProcessj:
 9127              	.frame $sp,80,$31
 9128              	.mask 0x800f0000,-16
 9129              	.fmask 0x00000000,0
 9130 39e0 B0FFBD27 	subu $sp,$sp,80
 9131 39e4 F0F08230 	andi $2,$4,0xf0f0
 9132 39e8 1000B1FF 	sd $17,16($sp)
 9133 39ec 2D888000 	move $17,$4
 9134 39f0 4000BFFF 	sd $31,64($sp)
 9135 39f4 3000B3FF 	sd $19,48($sp)
 9136 39f8 2000B2FF 	sd $18,32($sp)
 9137              	.set noreorder
 9138              	.set nomacro
 9139 39fc 1E014014 	bne $2,$0,$L687
 9140 3a00 0000B0FF 	sd $16,0($sp)
 9141              	.set macro
 9142              	.set reorder
GAS LISTING  			page 173


 9143              	
 9144 3a04 0000063C 	lui $6,%hi(_ZZ21_MainLoopInputProcessjE6repeat)
 9145 3a08 1C02C0AC 	sw $0,%lo(_ZZ21_MainLoopInputProcessjE6repeat)($6)
 9146              	$L625:
 9147 3a0c 1C02C48C 	lw $4,%lo(_ZZ21_MainLoopInputProcessjE6repeat)($6)
 9148              	
 9149 3a10 01008224 	addu $2,$4,1
 9150 3a14 1100432C 	sltu $3,$2,17
 9151              	.set noreorder
 9152              	.set nomacro
 9153 3a18 15016014 	bne $3,$0,$L688
 9154 3a1c 1C02C2AC 	sw $2,%lo(_ZZ21_MainLoopInputProcessjE6repeat)($6)
 9155              	.set macro
 9156              	.set reorder
 9157              	
 9158 3a20 0000053C 	lui $5,%hi(_ZZ21_MainLoopInputProcessjE11lastbuttons)
 9159 3a24 FFFF033C 	li $3,-65536
 9160 3a28 1802A28C 	lw $2,%lo(_ZZ21_MainLoopInputProcessjE11lastbuttons)($5)
 9161 3a2c 0F0F6334 	ori $3,$3,0xf0f
 9162 3a30 1C02C4AC 	sw $4,%lo(_ZZ21_MainLoopInputProcessjE6repeat)($6)
 9163 3a34 24104300 	and $2,$2,$3
 9164 3a38 1802A2AC 	sw $2,%lo(_ZZ21_MainLoopInputProcessjE11lastbuttons)($5)
 9165              	$L626:
 9166 3a3c 1802A28C 	lw $2,%lo(_ZZ21_MainLoopInputProcessjE11lastbuttons)($5)
 9167 3a40 01003332 	andi $19,$17,0x1
 9168 3a44 FF006332 	andi $3,$19,0x00ff
 9169 3a48 1802B1AC 	sw $17,%lo(_ZZ21_MainLoopInputProcessjE11lastbuttons)($5)
 9170 3a4c 26102202 	xor $2,$17,$2
 9171              	.set noreorder
 9172              	.set nomacro
 9173 3a50 2D006010 	beq $3,$0,$L628
 9174 3a54 24805100 	and $16,$2,$17
 9175              	.set macro
 9176              	.set reorder
 9177              	
 9178 3a58 40000232 	andi $2,$16,0x40
 9179 3a5c 00014014 	bne $2,$0,$L695
 9179      00000000 
 9180 3a64 20000232 	andi $2,$16,0x20
 9181              	$L715:
 9182 3a68 F9004014 	bne $2,$0,$L696
 9182      00000000 
 9183 3a70 10000232 	andi $2,$16,0x10
 9184              	$L714:
 9185              	.set noreorder
 9186              	.set nomacro
 9187 3a74 07004010 	beq $2,$0,$L716
 9188 3a78 00020232 	andi $2,$16,0x200
 9189              	.set macro
 9190              	.set reorder
 9191              	
 9192 3a7c 0000033C 	lui $3,%hi(_MainLoop_uDebugDisplay)
 9193 3a80 3801628C 	lw $2,%lo(_MainLoop_uDebugDisplay)($3)
 9194              	
 9195 3a84 01004224 	addu $2,$2,1
 9196 3a88 03004230 	andi $2,$2,0x3
 9197 3a8c 380162AC 	sw $2,%lo(_MainLoop_uDebugDisplay)($3)
GAS LISTING  			page 174


 9198 3a90 00020232 	andi $2,$16,0x200
 9199              	$L716:
 9200              	.set noreorder
 9201              	.set nomacro
 9202 3a94 0E004010 	beq $2,$0,$L713
 9203 3a98 00040232 	andi $2,$16,0x400
 9204              	.set macro
 9205              	.set reorder
 9206              	
 9207 3a9c 4800123C 	lui $18,%hi(s_pMovieClip)
 9208 3aa0 9C6A448E 	lw $4,%lo(s_pMovieClip)($18)
 9209              	
 9210 3aa4 14008290 	lbu $2,20($4)
 9211              	
 9212              	.set noreorder
 9213              	.set nomacro
 9214 3aa8 E3004054 	bnel $2,$0,$L697
 9215 3aac 0000043C 	lui $4,%hi($LC9)
 9216              	.set macro
 9217              	.set reorder
 9218              	
 9219 3ab0 15008290 	lbu $2,21($4)
 9220              	
 9221              	.set noreorder
 9222              	.set nomacro
 9223 3ab4 DA004054 	bnel $2,$0,$L698
 9224 3ab8 0000043C 	lui $4,%hi($LC10)
 9225              	.set macro
 9226              	.set reorder
 9227              	
 9228 3abc 0000023C 	lui $2,%hi(_pSystem)
 9229 3ac0 2801458C 	lw $5,%lo(_pSystem)($2)
 9230              	
 9231 3ac4 CF00A014 	bne $5,$0,$L699
 9231      00000000 
 9232 3acc 00040232 	andi $2,$16,0x400
 9233              	$L713:
 9234              	.set noreorder
 9235              	.set nomacro
 9236 3ad0 0E004010 	beq $2,$0,$L711
 9237 3ad4 01000632 	andi $6,$16,0x1
 9238              	.set macro
 9239              	.set reorder
 9240              	
 9241 3ad8 4800123C 	lui $18,%hi(s_pMovieClip)
 9242 3adc 9C6A438E 	lw $3,%lo(s_pMovieClip)($18)
 9243              	
 9244 3ae0 14006290 	lbu $2,20($3)
 9245              	
 9246              	.set noreorder
 9247              	.set nomacro
 9248 3ae4 C1004054 	bnel $2,$0,$L700
 9249 3ae8 0000043C 	lui $4,%hi($LC9)
 9250              	.set macro
 9251              	.set reorder
 9252              	
 9253              	$L641:
GAS LISTING  			page 175


 9254 3aec 15006290 	lbu $2,21($3)
 9255              	
 9256              	.set noreorder
 9257              	.set nomacro
 9258 3af0 B8004054 	bnel $2,$0,$L701
 9259 3af4 0000043C 	lui $4,%hi($LC10)
 9260              	.set macro
 9261              	.set reorder
 9262              	
 9263 3af8 0000023C 	lui $2,%hi(_pSystem)
 9264              	$L712:
 9265 3afc 2801458C 	lw $5,%lo(_pSystem)($2)
 9266              	
 9267 3b00 AD00A014 	bne $5,$0,$L702
 9267      00000000 
 9268              	$L628:
 9269 3b08 01000632 	andi $6,$16,0x1
 9270              	$L711:
 9271 3b0c FF00C230 	andi $2,$6,0x00ff
 9272              	.set noreorder
 9273              	.set nomacro
 9274 3b10 03004010 	beq $2,$0,$L646
 9275 3b14 0000053C 	lui $5,%hi(_ZZ21_MainLoopInputProcessjE19_MenuTriggerTimeout)
 9276              	.set macro
 9277              	.set reorder
 9278              	
 9279 3b18 05000224 	li $2,5
 9280 3b1c 2002A2AC 	sw $2,%lo(_ZZ21_MainLoopInputProcessjE19_MenuTriggerTimeout)($5)
 9281              	$L646:
 9282 3b20 02000432 	andi $4,$16,0x2
 9283              	.set noreorder
 9284              	.set nomacro
 9285 3b24 05008010 	beq $4,$0,$L717
 9286 3b28 2002A28C 	lw $2,%lo(_ZZ21_MainLoopInputProcessjE19_MenuTriggerTimeout)($5)
 9287              	.set macro
 9288              	.set reorder
 9289              	
 9290 3b2c 2002A324 	addiu $3,$5,%lo(_ZZ21_MainLoopInputProcessjE19_MenuTriggerTimeout)
 9291 3b30 05000224 	li $2,5
 9292 3b34 040062AC 	sw $2,4($3)
 9293 3b38 2002A28C 	lw $2,%lo(_ZZ21_MainLoopInputProcessjE19_MenuTriggerTimeout)($5)
 9294              	$L717:
 9295              	.set noreorder
 9296              	.set nomacro
 9297 3b3c 05004018 	blez $2,$L718
 9298 3b40 2002A324 	addiu $3,$5,%lo(_ZZ21_MainLoopInputProcessjE19_MenuTriggerTimeout)
 9299              	.set macro
 9300              	.set reorder
 9301              	
 9302              	.set noreorder
 9303              	.set nomacro
 9304 3b44 9A008014 	bne $4,$0,$L703
 9305 3b48 FFFF4224 	addu $2,$2,-1
 9306              	.set macro
 9307              	.set reorder
 9308              	
 9309 3b4c 2002A2AC 	sw $2,%lo(_ZZ21_MainLoopInputProcessjE19_MenuTriggerTimeout)($5)
GAS LISTING  			page 176


 9310 3b50 2002A324 	addiu $3,$5,%lo(_ZZ21_MainLoopInputProcessjE19_MenuTriggerTimeout)
 9311              	$L718:
 9312 3b54 0400648C 	lw $4,4($3)
 9313              	
 9314              	.set noreorder
 9315              	.set nomacro
 9316 3b58 04008018 	blez $4,$L650
 9317 3b5c FF00C230 	andi $2,$6,0x00ff
 9318              	.set macro
 9319              	.set reorder
 9320              	
 9321              	.set noreorder
 9322              	.set nomacro
 9323 3b60 8B004014 	bne $2,$0,$L704
 9324 3b64 FFFF8224 	addu $2,$4,-1
 9325              	.set macro
 9326              	.set reorder
 9327              	
 9328 3b68 040062AC 	sw $2,4($3)
 9329              	$L650:
 9330 3b6c 0000023C 	lui $2,%hi(_bMenu)
 9331 3b70 28014390 	lbu $3,%lo(_bMenu)($2)
 9332              	
 9333              	.set noreorder
 9334              	.set nomacro
 9335 3b74 3C006010 	beq $3,$0,$L652
 9336 3b78 FF006232 	andi $2,$19,0x00ff
 9337              	.set macro
 9338              	.set reorder
 9339              	
 9340 3b7c 0000023C 	lui $2,%hi(_MainLoop_pScreen)
 9341 3b80 0000448C 	lw $4,%lo(_MainLoop_pScreen)($2)
 9342              	
 9343              	.set noreorder
 9344              	.set nomacro
 9345 3b84 10008010 	beq $4,$0,$L624
 9346 3b88 08000232 	andi $2,$16,0x8
 9347              	.set macro
 9348              	.set reorder
 9349              	
 9350              	.set noreorder
 9351              	.set nomacro
 9352 3b8c 1C004010 	beq $2,$0,$L654
 9353 3b90 04000232 	andi $2,$16,0x4
 9354              	.set macro
 9355              	.set reorder
 9356              	
 9357 3b94 0000023C 	lui $2,%hi(_MainLoop_pBrowserScreen)
 9358 3b98 0000458C 	lw $5,%lo(_MainLoop_pBrowserScreen)($2)
 9359              	
 9360              	.set noreorder
 9361              	.set nomacro
 9362 3b9c 16008510 	beq $4,$5,$L705
 9363 3ba0 0000023C 	lui $2,%hi(_MainLoop_pNetworkScreen)
 9364              	.set macro
 9365              	.set reorder
 9366              	
GAS LISTING  			page 177


 9367 3ba4 0400438C 	lw $3,%lo(_MainLoop_pNetworkScreen)($2)
 9368              	
 9369              	.set noreorder
 9370              	.set nomacro
 9371 3ba8 11008310 	beq $4,$3,$L706
 9372 3bac 0000023C 	lui $2,%hi(_MainLoop_pMenuScreen)
 9373              	.set macro
 9374              	.set reorder
 9375              	
 9376 3bb0 0800438C 	lw $3,%lo(_MainLoop_pMenuScreen)($2)
 9377              	
 9378              	.set noreorder
 9379              	.set nomacro
 9380 3bb4 0C008310 	beq $4,$3,$L719
 9381 3bb8 0000023C 	lui $2,%hi(_MainLoop_pLogScreen)
 9382              	.set macro
 9383              	.set reorder
 9384              	
 9385              	$L694:
 9386 3bbc 2D20A000 	move $4,$5
 9387              	$L691:
 9388 3bc0 1005000C 	jal _Z18_MainLoopSetScreenP7CScreen
 9388      00000000 
 9389              	.p2align 3
 9390              	$L624:
 9391 3bc8 4000BFDF 	ld $31,64($sp)
 9392              	$L710:
 9393 3bcc 3000B3DF 	ld $19,48($sp)
 9394 3bd0 2000B2DF 	ld $18,32($sp)
 9395 3bd4 1000B1DF 	ld $17,16($sp)
 9396 3bd8 0000B0DF 	ld $16,0($sp)
 9397              	
 9398              	.set noreorder
 9399              	.set nomacro
 9400 3bdc 0800E003 	j $31
 9401 3be0 5000BD27 	addu $sp,$sp,80
 9402              	.set macro
 9403              	.set reorder
 9404              	
 9405              	$L693:
 9406 3be4 0000023C 	lui $2,%hi(_MainLoop_pLogScreen)
 9407              	$L719:
 9408              	.set noreorder
 9409              	.set nomacro
 9410 3be8 F5FF0010 	b $L691
 9411 3bec 0C00448C 	lw $4,%lo(_MainLoop_pLogScreen)($2)
 9412              	.set macro
 9413              	.set reorder
 9414              	
 9415              	$L706:
 9416              	.set noreorder
 9417              	.set nomacro
 9418 3bf0 F3FF0010 	b $L691
 9419 3bf4 0800448C 	lw $4,%lo(_MainLoop_pMenuScreen)($2)
 9420              	.set macro
 9421              	.set reorder
 9422              	
GAS LISTING  			page 178


 9423              	$L705:
 9424              	.set noreorder
 9425              	.set nomacro
 9426 3bf8 F1FF0010 	b $L691
 9427 3bfc 0400448C 	lw $4,%lo(_MainLoop_pNetworkScreen)($2)
 9428              	.set macro
 9429              	.set reorder
 9430              	
 9431              	$L654:
 9432              	.set noreorder
 9433              	.set nomacro
 9434 3c00 11004010 	beq $2,$0,$L662
 9435 3c04 0000023C 	lui $2,%hi(_MainLoop_pBrowserScreen)
 9436              	.set macro
 9437              	.set reorder
 9438              	
 9439 3c08 0000438C 	lw $3,%lo(_MainLoop_pBrowserScreen)($2)
 9440              	
 9441              	.set noreorder
 9442              	.set nomacro
 9443 3c0c F5FF8310 	beq $4,$3,$L693
 9444 3c10 0000023C 	lui $2,%hi(_MainLoop_pNetworkScreen)
 9445              	.set macro
 9446              	.set reorder
 9447              	
 9448 3c14 0400458C 	lw $5,%lo(_MainLoop_pNetworkScreen)($2)
 9449              	
 9450              	.set noreorder
 9451              	.set nomacro
 9452 3c18 09008510 	beq $4,$5,$L707
 9453 3c1c 0000023C 	lui $2,%hi(_MainLoop_pMenuScreen)
 9454              	.set macro
 9455              	.set reorder
 9456              	
 9457 3c20 0800468C 	lw $6,%lo(_MainLoop_pMenuScreen)($2)
 9458              	
 9459              	.set noreorder
 9460              	.set nomacro
 9461 3c24 E5FF8610 	beq $4,$6,$L694
 9462 3c28 0000023C 	lui $2,%hi(_MainLoop_pLogScreen)
 9463              	.set macro
 9464              	.set reorder
 9465              	
 9466 3c2c 0C00438C 	lw $3,%lo(_MainLoop_pLogScreen)($2)
 9467              	
 9468              	.set noreorder
 9469              	.set nomacro
 9470 3c30 E6FF8314 	bne $4,$3,$L710
 9471 3c34 4000BFDF 	ld $31,64($sp)
 9472              	.set macro
 9473              	.set reorder
 9474              	
 9475              	.set noreorder
 9476              	.set nomacro
 9477 3c38 E1FF0010 	b $L691
 9478 3c3c 2D20C000 	move $4,$6
 9479              	.set macro
GAS LISTING  			page 179


 9480              	.set reorder
 9481              	
 9482              	$L707:
 9483              	.set noreorder
 9484              	.set nomacro
 9485 3c40 DFFF0010 	b $L691
 9486 3c44 2D206000 	move $4,$3
 9487              	.set macro
 9488              	.set reorder
 9489              	
 9490              	$L662:
 9491 3c48 0000838C 	lw $3,0($4)
 9492 3c4c 2D282002 	move $5,$17
 9493 3c50 1800628C 	lw $2,24($3)
 9494              	
 9495              	.set noreorder
 9496              	.set nomacro
 9497 3c54 09F84000 	jal $31,$2
 9498 3c58 2D300002 	move $6,$16
 9499              	.set macro
 9500              	.set reorder
 9501              	
 9502              	.set noreorder
 9503              	.set nomacro
 9504 3c5c DBFF0010 	b $L710
 9505 3c60 4000BFDF 	ld $31,64($sp)
 9506              	.set macro
 9507              	.set reorder
 9508              	
 9509 3c64 00000000 	.p2align 3
 9510              	$L652:
 9511              	.set noreorder
 9512              	.set nomacro
 9513 3c68 09004010 	beq $2,$0,$L720
 9514 3c6c 0C000232 	andi $2,$16,0xc
 9515              	.set macro
 9516              	.set reorder
 9517              	
 9518 3c70 00010232 	andi $2,$16,0x100
 9519              	.set noreorder
 9520              	.set nomacro
 9521 3c74 06004010 	beq $2,$0,$L720
 9522 3c78 0C000232 	andi $2,$16,0xc
 9523              	.set macro
 9524              	.set reorder
 9525              	
 9526 3c7c 0000033C 	lui $3,%hi(_MainLoop_BlackScreen)
 9527 3c80 34016290 	lbu $2,%lo(_MainLoop_BlackScreen)($3)
 9528              	
 9529 3c84 01004238 	xori $2,$2,0x1
 9530 3c88 340162A0 	sb $2,%lo(_MainLoop_BlackScreen)($3)
 9531 3c8c 0C000232 	andi $2,$16,0xc
 9532              	$L720:
 9533              	.set noreorder
 9534              	.set nomacro
 9535 3c90 CDFF4010 	beq $2,$0,$L624
 9536 3c94 0000023C 	lui $2,%hi(_pNesFDSDisk)
GAS LISTING  			page 180


 9537              	.set macro
 9538              	.set reorder
 9539              	
 9540 3c98 2400448C 	lw $4,%lo(_pNesFDSDisk)($2)
 9541              	
 9542 3c9c 04008390 	lbu $3,4($4)
 9543              	
 9544              	.set noreorder
 9545              	.set nomacro
 9546 3ca0 C9FF6010 	beq $3,$0,$L624
 9547 3ca4 0000113C 	lui $17,%hi(_MainLoop_bDiskInserted)
 9548              	.set macro
 9549              	.set reorder
 9550              	
 9551 3ca8 08002292 	lbu $2,%lo(_MainLoop_bDiskInserted)($17)
 9552              	
 9553              	.set noreorder
 9554              	.set nomacro
 9555 3cac 20004014 	bne $2,$0,$L708
 9556 3cb0 0000023C 	lui $2,%hi(_pNes)
 9557              	.set macro
 9558              	.set reorder
 9559              	
 9560 3cb4 0000103C 	lui $16,%hi(_MainLoop_iDisk)
 9561 3cb8 0400078E 	lw $7,%lo(_MainLoop_iDisk)($16)
 9562              	
 9563              	.set noreorder
 9564              	.set nomacro
 9565 3cbc 1800E204 	bltzl $7,$L709
 9566 3cc0 0800828C 	lw $2,8($4)
 9567              	.set macro
 9568              	.set reorder
 9569              	
 9570              	$L682:
 9571 3cc4 0000023C 	lui $2,%hi(_pNes)
 9572 3cc8 0800868C 	lw $6,8($4)
 9573 3ccc 1800438C 	lw $3,%lo(_pNes)($2)
 9574 3cd0 00800234 	li $2,32768
 9575 3cd4 0400058E 	lw $5,%lo(_MainLoop_iDisk)($16)
 9576 3cd8 2A30E600 	slt $6,$7,$6
 9577 3cdc 21186200 	addu $3,$3,$2
 9578 3ce0 A443648C 	lw $4,17316($3)
 9579 3ce4 0A280600 	movz $5,$0,$6
 9580 3ce8 0000838C 	lw $3,0($4)
 9581 3cec 040005AE 	sw $5,%lo(_MainLoop_iDisk)($16)
 9582 3cf0 2400628C 	lw $2,36($3)
 9583              	
 9584 3cf4 09F84000 	jal $31,$2
 9584      00000000 
 9585 3cfc 01000224 	li $2,1
 9586 3d00 0000053C 	lui $5,%hi($LC138)
 9587 3d04 0400068E 	lw $6,%lo(_MainLoop_iDisk)($16)
 9588 3d08 3C000424 	li $4,60
 9589 3d0c A00AA524 	addiu $5,$5,%lo($LC138)
 9590              	.set noreorder
 9591              	.set nomacro
 9592 3d10 0000000C 	jal _Z20MainLoopStatusPrintfiPcz
GAS LISTING  			page 181


 9593 3d14 080022A2 	sb $2,%lo(_MainLoop_bDiskInserted)($17)
 9594              	.set macro
 9595              	.set reorder
 9596              	
 9597              	.set noreorder
 9598              	.set nomacro
 9599 3d18 ACFF0010 	b $L710
 9600 3d1c 4000BFDF 	ld $31,64($sp)
 9601              	.set macro
 9602              	.set reorder
 9603              	
 9604              	$L709:
 9605 3d20 FFFF4224 	addu $2,$2,-1
 9606 3d24 040002AE 	sw $2,%lo(_MainLoop_iDisk)($16)
 9607              	.set noreorder
 9608              	.set nomacro
 9609 3d28 E6FF0010 	b $L682
 9610 3d2c 2D384000 	move $7,$2
 9611              	.set macro
 9612              	.set reorder
 9613              	
 9614              	$L708:
 9615 3d30 080020A2 	sb $0,%lo(_MainLoop_bDiskInserted)($17)
 9616 3d34 1800438C 	lw $3,%lo(_pNes)($2)
 9617 3d38 00800234 	li $2,32768
 9618 3d3c 21186200 	addu $3,$3,$2
 9619 3d40 A443648C 	lw $4,17316($3)
 9620              	
 9621 3d44 0000868C 	lw $6,0($4)
 9622              	
 9623 3d48 2400C28C 	lw $2,36($6)
 9624              	
 9625              	.set noreorder
 9626              	.set nomacro
 9627 3d4c 09F84000 	jal $31,$2
 9628 3d50 FFFF0524 	li $5,-1
 9629              	.set macro
 9630              	.set reorder
 9631              	
 9632 3d54 0000053C 	lui $5,%hi($LC137)
 9633 3d58 3C000424 	li $4,60
 9634              	.set noreorder
 9635              	.set nomacro
 9636 3d5c 0000000C 	jal _Z20MainLoopStatusPrintfiPcz
 9637 3d60 B80AA524 	addiu $5,$5,%lo($LC137)
 9638              	.set macro
 9639              	.set reorder
 9640              	
 9641 3d64 08000232 	andi $2,$16,0x8
 9642              	.set noreorder
 9643              	.set nomacro
 9644 3d68 05004010 	beq $2,$0,$L679
 9645 3d6c 0000033C 	lui $3,%hi(_MainLoop_iDisk)
 9646              	.set macro
 9647              	.set reorder
 9648              	
 9649 3d70 0400628C 	lw $2,%lo(_MainLoop_iDisk)($3)
GAS LISTING  			page 182


 9650              	
 9651 3d74 01004224 	addu $2,$2,1
 9652              	$L690:
 9653              	.set noreorder
 9654              	.set nomacro
 9655 3d78 93FF0010 	b $L624
 9656 3d7c 040062AC 	sw $2,%lo(_MainLoop_iDisk)($3)
 9657              	.set macro
 9658              	.set reorder
 9659              	
 9660              	$L679:
 9661 3d80 0400628C 	lw $2,%lo(_MainLoop_iDisk)($3)
 9662              	.set noreorder
 9663              	.set nomacro
 9664 3d84 FCFF0010 	b $L690
 9665 3d88 FFFF4224 	addu $2,$2,-1
 9666              	.set macro
 9667              	.set reorder
 9668              	
 9669 3d8c 00000000 	.p2align 3
 9670              	$L704:
 9671 3d90 040060AC 	sw $0,4($3)
 9672              	$L692:
 9673 3d94 0000023C 	lui $2,%hi(_bMenu)
 9674 3d98 28014490 	lbu $4,%lo(_bMenu)($2)
 9675              	.set noreorder
 9676              	.set nomacro
 9677 3d9c 4A0E000C 	jal _Z11_MenuEnableh
 9678 3da0 0100842C 	sltu $4,$4,1
 9679              	.set macro
 9680              	.set reorder
 9681              	
 9682              	.set noreorder
 9683              	.set nomacro
 9684 3da4 89FF0010 	b $L710
 9685 3da8 4000BFDF 	ld $31,64($sp)
 9686              	.set macro
 9687              	.set reorder
 9688              	
 9689 3dac 00000000 	.p2align 3
 9690              	$L703:
 9691              	.set noreorder
 9692              	.set nomacro
 9693 3db0 F8FF0010 	b $L692
 9694 3db4 2002A0AC 	sw $0,%lo(_ZZ21_MainLoopInputProcessjE19_MenuTriggerTimeout)($5)
 9695              	.set macro
 9696              	.set reorder
 9697              	
 9698              	$L702:
 9699              	.set noreorder
 9700              	.set nomacro
 9701 3db8 0000000C 	jal _ZN13CEmuMovieClip9PlayBeginEP10CEmuSystem
 9702 3dbc 9C6A448E 	lw $4,%lo(s_pMovieClip)($18)
 9703              	.set macro
 9704              	.set reorder
 9705              	
 9706              	
GAS LISTING  			page 183


 9707 3dc0 0000043C 	lui $4,%hi($LC136)
 9708              	.set noreorder
 9709              	.set nomacro
 9710 3dc4 0000000C 	jal printf
 9711 3dc8 D00A8424 	addiu $4,$4,%lo($LC136)
 9712              	.set macro
 9713              	.set reorder
 9714              	
 9715              	.set noreorder
 9716              	.set nomacro
 9717 3dcc 4FFF0010 	b $L711
 9718 3dd0 01000632 	andi $6,$16,0x1
 9719              	.set macro
 9720              	.set reorder
 9721              	
 9722              	$L701:
 9723              	.set noreorder
 9724              	.set nomacro
 9725 3dd4 0000000C 	jal printf
 9726 3dd8 C0008424 	addiu $4,$4,%lo($LC10)
 9727              	.set macro
 9728              	.set reorder
 9729              	
 9730              	.set noreorder
 9731              	.set nomacro
 9732 3ddc 0000000C 	jal _ZN13CEmuMovieClip7PlayEndEv
 9733 3de0 9C6A448E 	lw $4,%lo(s_pMovieClip)($18)
 9734              	.set macro
 9735              	.set reorder
 9736              	
 9737              	.set noreorder
 9738              	.set nomacro
 9739 3de4 45FF0010 	b $L712
 9740 3de8 0000023C 	lui $2,%hi(_pSystem)
 9741              	.set macro
 9742              	.set reorder
 9743              	
 9744              	$L700:
 9745              	.set noreorder
 9746              	.set nomacro
 9747 3dec 0000000C 	jal printf
 9748 3df0 A8008424 	addiu $4,$4,%lo($LC9)
 9749              	.set macro
 9750              	.set reorder
 9751              	
 9752              	.set noreorder
 9753              	.set nomacro
 9754 3df4 0000000C 	jal _ZN13CEmuMovieClip9RecordEndEv
 9755 3df8 9C6A448E 	lw $4,%lo(s_pMovieClip)($18)
 9756              	.set macro
 9757              	.set reorder
 9758              	
 9759              	.set noreorder
 9760              	.set nomacro
 9761 3dfc 3BFF0010 	b $L641
 9762 3e00 9C6A438E 	lw $3,%lo(s_pMovieClip)($18)
 9763              	.set macro
GAS LISTING  			page 184


 9764              	.set reorder
 9765              	
 9766              	$L699:
 9767 3e04 0000000C 	jal _ZN13CEmuMovieClip11RecordBeginEP10CEmuSystem
 9767      00000000 
 9768 3e0c 0000043C 	lui $4,%hi($LC135)
 9769              	.set noreorder
 9770              	.set nomacro
 9771 3e10 0000000C 	jal printf
 9772 3e14 E80A8424 	addiu $4,$4,%lo($LC135)
 9773              	.set macro
 9774              	.set reorder
 9775              	
 9776              	.set noreorder
 9777              	.set nomacro
 9778 3e18 2DFF0010 	b $L713
 9779 3e1c 00040232 	andi $2,$16,0x400
 9780              	.set macro
 9781              	.set reorder
 9782              	
 9783              	$L698:
 9784              	.set noreorder
 9785              	.set nomacro
 9786 3e20 0000000C 	jal printf
 9787 3e24 C0008424 	addiu $4,$4,%lo($LC10)
 9788              	.set macro
 9789              	.set reorder
 9790              	
 9791              	.set noreorder
 9792              	.set nomacro
 9793 3e28 0000000C 	jal _ZN13CEmuMovieClip7PlayEndEv
 9794 3e2c 9C6A448E 	lw $4,%lo(s_pMovieClip)($18)
 9795              	.set macro
 9796              	.set reorder
 9797              	
 9798              	.set noreorder
 9799              	.set nomacro
 9800 3e30 27FF0010 	b $L713
 9801 3e34 00040232 	andi $2,$16,0x400
 9802              	.set macro
 9803              	.set reorder
 9804              	
 9805              	$L697:
 9806              	.set noreorder
 9807              	.set nomacro
 9808 3e38 0000000C 	jal printf
 9809 3e3c A8008424 	addiu $4,$4,%lo($LC9)
 9810              	.set macro
 9811              	.set reorder
 9812              	
 9813              	.set noreorder
 9814              	.set nomacro
 9815 3e40 0000000C 	jal _ZN13CEmuMovieClip9RecordEndEv
 9816 3e44 9C6A448E 	lw $4,%lo(s_pMovieClip)($18)
 9817              	.set macro
 9818              	.set reorder
 9819              	
GAS LISTING  			page 185


 9820              	.set noreorder
 9821              	.set nomacro
 9822 3e48 21FF0010 	b $L713
 9823 3e4c 00040232 	andi $2,$16,0x400
 9824              	.set macro
 9825              	.set reorder
 9826              	
 9827              	.p2align 3
 9828              	$L696:
 9829 3e50 0000000C 	jal _Z18_MainLoopLoadStatev
 9829      00000000 
 9830              	.set noreorder
 9831              	.set nomacro
 9832 3e58 06FF0010 	b $L714
 9833 3e5c 10000232 	andi $2,$16,0x10
 9834              	.set macro
 9835              	.set reorder
 9836              	
 9837              	.p2align 3
 9838              	$L695:
 9839 3e60 0000000C 	jal _Z18_MainLoopSaveStatev
 9839      00000000 
 9840              	.set noreorder
 9841              	.set nomacro
 9842 3e68 FFFE0010 	b $L715
 9843 3e6c 20000232 	andi $2,$16,0x20
 9844              	.set macro
 9845              	.set reorder
 9846              	
 9847              	.p2align 3
 9848              	$L688:
 9849              	.set noreorder
 9850              	.set nomacro
 9851 3e70 F2FE0010 	b $L626
 9852 3e74 0000053C 	lui $5,%hi(_ZZ21_MainLoopInputProcessjE11lastbuttons)
 9853              	.set macro
 9854              	.set reorder
 9855              	
 9856              	.p2align 3
 9857              	$L687:
 9858              	.set noreorder
 9859              	.set nomacro
 9860 3e78 E4FE0010 	b $L625
 9861 3e7c 0000063C 	lui $6,%hi(_ZZ21_MainLoopInputProcessjE6repeat)
 9862              	.set macro
 9863              	.set reorder
 9864              	
 9865              	.end _Z21_MainLoopInputProcessj
 9866              	$Lfe55:
 9867              	.size _Z21_MainLoopInputProcessj,$Lfe55-_Z21_MainLoopInputProcessj
 9868              	.rdata
 9869 0afd 000000   	.align 3
 9870              	$LC139:
 9871 0b00 25732076 	.ascii "%s v%d.%d.%d %s\000"
 9871      25642E25 
 9871      642E2564 
 9871      20257300 
GAS LISTING  			page 186


 9872              	.align 3
 9873              	$LC140:
 9874 0b10 25732564 	.ascii "%s%d.%d\000"
 9874      2E256400 
 9875              	.align 3
 9876              	$LC141:
 9877 0b18 49503A20 	.ascii "IP: %d.%d.%d.%d\000"
 9877      25642E25 
 9877      642E2564 
 9877      2E256400 
 9878              	.text
 9879              	.align 2
 9880              	.p2align 3,,7
 9881              	.ent _Z9_MenuDrawv
 9882              	_Z9_MenuDrawv:
 9883              	.frame $sp,352,$31
 9884              	.mask 0x80030000,-32
 9885              	.fmask 0x00100000,-16
 9886 3e80 A0FEBD27 	subu $sp,$sp,352
 9887 3e84 2D200000 	move $4,$0
 9888 3e88 4001BFFF 	sd $31,320($sp)
 9889 3e8c 3001B1FF 	sd $17,304($sp)
 9890 3e90 2000B127 	addu $17,$sp,32
 9891 3e94 5001B4E7 	s.s $f20,336($sp)
 9892              	.set noreorder
 9893              	.set nomacro
 9894 3e98 0000000C 	jal _Z10FontSelecti
 9895 3e9c 2001B0FF 	sd $16,288($sp)
 9896              	.set macro
 9897              	.set reorder
 9898              	
 9899 3ea0 5743013C 	li.s $f20,2.15000000000000000000e2
 9899      00A08144 
 9900              	.set noreorder
 9901              	.set nomacro
 9902 3ea8 0000000C 	jal _Z11PolyTextureP8TextureT
 9903 3eac 2D200000 	move $4,$0
 9904              	.set macro
 9905              	.set reorder
 9906              	
 9907              	.set noreorder
 9908              	.set nomacro
 9909 3eb0 0000000C 	jal _Z9PolyBlendj
 9910 3eb4 01000424 	li $4,1
 9911              	.set macro
 9912              	.set reorder
 9913              	
 9914 3eb8 2D280000 	move $5,$0
 9915 3ebc 2D20A003 	move $4,$sp
 9916              	.set noreorder
 9917              	.set nomacro
 9918 3ec0 0000000C 	jal memset
 9919 3ec4 20000624 	dli $6,0x20
 9920              	.set macro
 9921              	.set reorder
 9922              	
 9923 3ec8 0000043C 	lui $4,%hi($LC88)
GAS LISTING  			page 187


 9924 3ecc 88078424 	addiu $4,$4,%lo($LC88)
 9925              	.set noreorder
 9926              	.set nomacro
 9927 3ed0 0000000C 	jal ps2ip_getconfig
 9928 3ed4 2D28A003 	move $5,$sp
 9929              	.set macro
 9930              	.set reorder
 9931              	
 9932 3ed8 0000033C 	lui $3,%hi(_MainLoop_pScreen)
 9933 3edc 0000628C 	lw $2,%lo(_MainLoop_pScreen)($3)
 9934              	
 9935              	.set noreorder
 9936              	.set nomacro
 9937 3ee0 41004014 	bne $2,$0,$L723
 9938 3ee4 2D204000 	move $4,$2
 9939              	.set macro
 9940              	.set reorder
 9941              	
 9942              	$L722:
 9943              	.set noreorder
 9944              	.set nomacro
 9945 3ee8 0000000C 	jal _Z10FontSelecti
 9946 3eec 02000424 	li $4,2
 9947              	.set macro
 9948              	.set reorder
 9949              	
 9950 3ef0 193F013C 	li.s $f13,6.00000023841857910156e-1
 9950      9A992134 
 9950      00688144 
 9951 3efc 4C3E013C 	li.s $f12,2.00000002980232238770e-1
 9951      CDCC2134 
 9951      00608144 
 9952 3f08 803F013C 	li.s $f15,1.00000000000000000000e0
 9952      00788144 
 9953              	.set noreorder
 9954              	.set nomacro
 9955 3f10 0000000C 	jal _Z11FontColor4fffff
 9956 3f14 86630046 	mov.s $f14,$f12
 9957              	.set macro
 9958              	.set reorder
 9959              	
 9960 3f18 0000000C 	jal _Z14VersionGetInfov
 9960      00000000 
 9961 3f20 2D202002 	move $4,$17
 9962 3f24 0C00498C 	lw $9,12($2)
 9963 3f28 0000053C 	lui $5,%hi($LC139)
 9964 3f2c 10004A8C 	lw $10,16($2)
 9965 3f30 000BA524 	addiu $5,$5,%lo($LC139)
 9966 3f34 0800488C 	lw $8,8($2)
 9967 3f38 2D804000 	move $16,$2
 9968 3f3c 0000468C 	lw $6,0($2)
 9969              	.set noreorder
 9970              	.set nomacro
 9971 3f40 0000000C 	jal sprintf
 9972 3f44 0400478C 	lw $7,4($2)
 9973              	.set macro
 9974              	.set reorder
GAS LISTING  			page 188


 9975              	
 9976              	.set noreorder
 9977              	.set nomacro
 9978 3f48 0000000C 	jal _Z15FontGetStrWidthPc
 9979 3f4c 2D202002 	move $4,$17
 9980              	.set macro
 9981              	.set reorder
 9982              	
 9983 3f50 F0000324 	li $3,240
 9984 3f54 23186200 	subu $3,$3,$2
 9985 3f58 2D202002 	move $4,$17
 9986 3f5c 00608344 	mtc1 $3,$f12
 9986      00000000 
 9987 3f64 20638046 	cvt.s.w $f12,$f12
 9988              	.set noreorder
 9989              	.set nomacro
 9990 3f68 0000000C 	jal _Z8FontPutsffPc
 9991 3f6c 46A30046 	mov.s $f13,$f20
 9992              	.set macro
 9993              	.set reorder
 9994              	
 9995 3f70 46A30046 	mov.s $f13,$f20
 9996 3f74 2C00078E 	lw $7,44($16)
 9997 3f78 0000043C 	lui $4,%hi($LC140)
 9998 3f7c 2400058E 	lw $5,36($16)
 9999 3f80 100B8424 	addiu $4,$4,%lo($LC140)
 10000 3f84 0041013C 	li.s $f12,8.00000000000000000000e0
 10000      00608144 
 10001              	.set noreorder
 10002              	.set nomacro
 10003 3f8c 0000000C 	jal _Z10FontPrintfffPcz
 10004 3f90 2800068E 	lw $6,40($16)
 10005              	.set macro
 10006              	.set reorder
 10007              	
 10008 3f94 4042013C 	li.s $f12,4.80000000000000000000e1
 10008      00608144 
 10009 3f9c 0400A58F 	lw $5,4($sp)
 10010 3fa0 0000043C 	lui $4,%hi($LC141)
 10011 3fa4 46A30046 	mov.s $f13,$f20
 10012 3fa8 180B8424 	addiu $4,$4,%lo($LC141)
 10013 3fac 02320500 	srl $6,$5,8
 10014 3fb0 023C0500 	srl $7,$5,16
 10015 3fb4 02460500 	srl $8,$5,24
 10016 3fb8 FF00C630 	andi $6,$6,0xff
 10017 3fbc FF00E730 	andi $7,$7,0xff
 10018              	.set noreorder
 10019              	.set nomacro
 10020 3fc0 0000000C 	jal _Z10FontPrintfffPcz
 10021 3fc4 FF00A530 	andi $5,$5,0xff
 10022              	.set macro
 10023              	.set reorder
 10024              	
 10025              	.set noreorder
 10026              	.set nomacro
 10027 3fc8 0000000C 	jal _Z10FontSelecti
 10028 3fcc 2D200000 	move $4,$0
GAS LISTING  			page 189


 10029              	.set macro
 10030              	.set reorder
 10031              	
 10032 3fd0 5001B4C7 	l.s $f20,336($sp)
 10033 3fd4 4001BFDF 	ld $31,320($sp)
 10034 3fd8 3001B1DF 	ld $17,304($sp)
 10035 3fdc 2001B0DF 	ld $16,288($sp)
 10036              	
 10037              	.set noreorder
 10038              	.set nomacro
 10039 3fe0 0800E003 	j $31
 10040 3fe4 6001BD27 	addu $sp,$sp,352
 10041              	.set macro
 10042              	.set reorder
 10043              	
 10044              	.p2align 3
 10045              	$L723:
 10046 3fe8 0000428C 	lw $2,0($2)
 10047              	
 10048 3fec 1000438C 	lw $3,16($2)
 10049              	
 10050 3ff0 09F86000 	jal $31,$3
 10050      00000000 
 10051 3ff8 BBFF0010 	b $L722
 10051      00000000 
 10052              	.end _Z9_MenuDrawv
 10053              	$Lfe56:
 10054              	.size _Z9_MenuDrawv,$Lfe56-_Z9_MenuDrawv
 10055              	.rdata
 10056              	.align 3
 10057              	$LC142:
 10058 0b28 6E657720 	.ascii "new %d %08X\n\000"
 10058      25642025 
 10058      3038580A 
 10058      00
 10059              	.text
 10060              	.align 2
 10061              	.p2align 3,,7
 10062              	.globl _Znwj
 10063              	.ent _Znwj
 10064              	_Znwj:
 10065              	.frame $sp,48,$31
 10066              	.mask 0x80030000,-16
 10067              	.fmask 0x00000000,0
 10068 4000 D0FFBD27 	subu $sp,$sp,48
 10069 4004 0000B0FF 	sd $16,0($sp)
 10070 4008 2D808000 	move $16,$4
 10071 400c 3C201000 	dsll $4,$16,32
 10072 4010 2000BFFF 	sd $31,32($sp)
 10073 4014 3E200400 	dsrl $4,$4,32
 10074              	.set noreorder
 10075              	.set nomacro
 10076 4018 0000000C 	jal malloc
 10077 401c 1000B1FF 	sd $17,16($sp)
 10078              	.set macro
 10079              	.set reorder
 10080              	
GAS LISTING  			page 190


 10081 4020 0000043C 	lui $4,%hi($LC142)
 10082 4024 2D884000 	move $17,$2
 10083 4028 2D280002 	move $5,$16
 10084 402c 2D304000 	move $6,$2
 10085              	.set noreorder
 10086              	.set nomacro
 10087 4030 0000000C 	jal printf
 10088 4034 280B8424 	addiu $4,$4,%lo($LC142)
 10089              	.set macro
 10090              	.set reorder
 10091              	
 10092 4038 0000B0DF 	ld $16,0($sp)
 10093 403c 2D102002 	move $2,$17
 10094 4040 2000BFDF 	ld $31,32($sp)
 10095 4044 1000B1DF 	ld $17,16($sp)
 10096              	
 10097              	.set noreorder
 10098              	.set nomacro
 10099 4048 0800E003 	j $31
 10100 404c 3000BD27 	addu $sp,$sp,48
 10101              	.set macro
 10102              	.set reorder
 10103              	
 10104              	.end _Znwj
 10105              	$Lfe57:
 10106              	.size _Znwj,$Lfe57-_Znwj
 10107              	.rdata
 10108 0b35 000000   	.align 3
 10109              	$LC143:
 10110 0b38 64656C65 	.ascii "delete %08X\n\000"
 10110      74652025 
 10110      3038580A 
 10110      00
 10111 0b45 000000   	.text
 10112              	.align 2
 10113              	.p2align 3,,7
 10114              	.globl _ZdlPv
 10115              	.ent _ZdlPv
 10116              	_ZdlPv:
 10117              	.frame $sp,32,$31
 10118              	.mask 0x80010000,-16
 10119              	.fmask 0x00000000,0
 10120 4050 E0FFBD27 	subu $sp,$sp,32
 10121 4054 2D288000 	move $5,$4
 10122 4058 0000B0FF 	sd $16,0($sp)
 10123 405c 2D808000 	move $16,$4
 10124 4060 0000043C 	lui $4,%hi($LC143)
 10125 4064 1000BFFF 	sd $31,16($sp)
 10126              	.set noreorder
 10127              	.set nomacro
 10128 4068 0000000C 	jal printf
 10129 406c 380B8424 	addiu $4,$4,%lo($LC143)
 10130              	.set macro
 10131              	.set reorder
 10132              	
 10133              	.set noreorder
 10134              	.set nomacro
GAS LISTING  			page 191


 10135 4070 0000000C 	jal free
 10136 4074 2D200002 	move $4,$16
 10137              	.set macro
 10138              	.set reorder
 10139              	
 10140 4078 0000B0DF 	ld $16,0($sp)
 10141 407c 1000BFDF 	ld $31,16($sp)
 10142              	
 10143              	.set noreorder
 10144              	.set nomacro
 10145 4080 0800E003 	j $31
 10146 4084 2000BD27 	addu $sp,$sp,32
 10147              	.set macro
 10148              	.set reorder
 10149              	
 10150              	.end _ZdlPv
 10151              	$Lfe58:
 10152              	.size _ZdlPv,$Lfe58-_ZdlPv
 10153              	.align 2
 10154              	.p2align 3,,7
 10155              	.globl _Znaj
 10156              	.ent _Znaj
 10157              	_Znaj:
 10158              	.frame $sp,16,$31
 10159              	.mask 0x80000000,-16
 10160              	.fmask 0x00000000,0
 10161 4088 3C200400 	dsll $4,$4,32
 10162 408c F0FFBD27 	subu $sp,$sp,16
 10163 4090 0000BFFF 	sd $31,0($sp)
 10164              	.set noreorder
 10165              	.set nomacro
 10166 4094 0000000C 	jal malloc
 10167 4098 3E200400 	dsrl $4,$4,32
 10168              	.set macro
 10169              	.set reorder
 10170              	
 10171 409c 0000BFDF 	ld $31,0($sp)
 10172              	
 10173              	.set noreorder
 10174              	.set nomacro
 10175 40a0 0800E003 	j $31
 10176 40a4 1000BD27 	addu $sp,$sp,16
 10177              	.set macro
 10178              	.set reorder
 10179              	
 10180              	.end _Znaj
 10181              	$Lfe59:
 10182              	.size _Znaj,$Lfe59-_Znaj
 10183              	.align 2
 10184              	.p2align 3,,7
 10185              	.globl _ZdaPv
 10186              	.ent _ZdaPv
 10187              	_ZdaPv:
 10188              	.frame $sp,16,$31
 10189              	.mask 0x80000000,-16
 10190              	.fmask 0x00000000,0
 10191 40a8 F0FFBD27 	subu $sp,$sp,16
GAS LISTING  			page 192


 10192 40ac 0000BFFF 	sd $31,0($sp)
 10193 40b0 0000000C 	jal free
 10193      00000000 
 10194 40b8 0000BFDF 	ld $31,0($sp)
 10195              	
 10196              	.set noreorder
 10197              	.set nomacro
 10198 40bc 0800E003 	j $31
 10199 40c0 1000BD27 	addu $sp,$sp,16
 10200              	.set macro
 10201              	.set reorder
 10202              	
 10203              	.end _ZdaPv
 10204              	$Lfe60:
 10205              	.size _ZdaPv,$Lfe60-_ZdaPv
 10206              	.align 2
 10207 40c4 00000000 	.p2align 3,,7
 10208              	.ent _Z41__static_initialization_and_destruction_0ii
 10209              	_Z41__static_initialization_and_destruction_0ii:
 10210              	.frame $sp,64,$31
 10211              	.mask 0x80070000,-16
 10212              	.fmask 0x00000000,0
 10213 40c8 C0FFBD27 	subu $sp,$sp,64
 10214 40cc FFFF0234 	li $2,65535
 10215 40d0 2000B2FF 	sd $18,32($sp)
 10216 40d4 2D908000 	move $18,$4
 10217 40d8 1000B1FF 	sd $17,16($sp)
 10218 40dc 2D88A000 	move $17,$5
 10219 40e0 3000BFFF 	sd $31,48($sp)
 10220              	.set noreorder
 10221              	.set nomacro
 10222 40e4 2800A210 	beq $5,$2,$L742
 10223 40e8 0000B0FF 	sd $16,0($sp)
 10224              	.set macro
 10225              	.set reorder
 10226              	
 10227 40ec FFFF0234 	li $2,65535
 10228              	$L747:
 10229              	.set noreorder
 10230              	.set nomacro
 10231 40f0 11002212 	beq $17,$2,$L743
 10232 40f4 01000224 	li $2,1
 10233              	.set macro
 10234              	.set reorder
 10235              	
 10236 40f8 FFFF0234 	li $2,65535
 10237              	$L746:
 10238              	.set noreorder
 10239              	.set nomacro
 10240 40fc 06002212 	beq $17,$2,$L744
 10241 4100 3000BFDF 	ld $31,48($sp)
 10242              	.set macro
 10243              	.set reorder
 10244              	
 10245              	$L745:
 10246 4104 2000B2DF 	ld $18,32($sp)
 10247 4108 1000B1DF 	ld $17,16($sp)
GAS LISTING  			page 193


 10248 410c 0000B0DF 	ld $16,0($sp)
 10249              	
 10250              	.set noreorder
 10251              	.set nomacro
 10252 4110 0800E003 	j $31
 10253 4114 4000BD27 	addu $sp,$sp,64
 10254              	.set macro
 10255              	.set reorder
 10256              	
 10257              	.p2align 3
 10258              	$L744:
 10259              	.set noreorder
 10260              	.set nomacro
 10261 4118 FAFF4056 	bnel $18,$0,$L745
 10262 411c 3000BFDF 	ld $31,48($sp)
 10263              	.set macro
 10264              	.set reorder
 10265              	
 10266 4120 0000043C 	lui $4,%hi(_WavFile)
 10267              	.set noreorder
 10268              	.set nomacro
 10269 4124 0000000C 	jal _ZN8CWavFileD1Ev
 10270 4128 68018424 	addiu $4,$4,%lo(_WavFile)
 10271              	.set macro
 10272              	.set reorder
 10273              	
 10274              	.set noreorder
 10275              	.set nomacro
 10276 412c F5FF0010 	b $L745
 10277 4130 3000BFDF 	ld $31,48($sp)
 10278              	.set macro
 10279              	.set reorder
 10280              	
 10281 4134 00000000 	.p2align 3
 10282              	$L743:
 10283              	.set noreorder
 10284              	.set nomacro
 10285 4138 F0FF4256 	bnel $18,$2,$L746
 10286 413c FFFF0234 	li $2,65535
 10287              	.set macro
 10288              	.set reorder
 10289              	
 10290 4140 4800103C 	lui $16,%hi(_NesState)
 10291 4144 B00E1026 	addiu $16,$16,%lo(_NesState)
 10292              	.set noreorder
 10293              	.set nomacro
 10294 4148 0000000C 	jal _ZN13NesSPUChannelC2Ev
 10295 414c B4320426 	addu $4,$16,12980
 10296              	.set macro
 10297              	.set reorder
 10298              	
 10299 4150 E43200AE 	sw $0,13028($16)
 10300 4154 E83200AE 	sw $0,13032($16)
 10301              	.set noreorder
 10302              	.set nomacro
 10303 4158 0000000C 	jal _ZN13NesSPUChannelC2Ev
 10304 415c FC320426 	addu $4,$16,13052
GAS LISTING  			page 194


 10305              	.set macro
 10306              	.set reorder
 10307              	
 10308 4160 2C3300AE 	sw $0,13100($16)
 10309 4164 303300AE 	sw $0,13104($16)
 10310 4168 44330426 	addu $4,$16,13124
 10311              	.set noreorder
 10312              	.set nomacro
 10313 416c 0000000C 	jal _ZN13NesSPUChannelC2Ev
 10314 4170 84331026 	addu $16,$16,13188
 10315              	.set macro
 10316              	.set reorder
 10317              	
 10318              	.set noreorder
 10319              	.set nomacro
 10320 4174 0000000C 	jal _ZN13NesSPUChannelC2Ev
 10321 4178 2D200002 	move $4,$16
 10322              	.set macro
 10323              	.set reorder
 10324              	
 10325              	.set noreorder
 10326              	.set nomacro
 10327 417c DFFF0010 	b $L746
 10328 4180 FFFF0234 	li $2,65535
 10329              	.set macro
 10330              	.set reorder
 10331              	
 10332 4184 00000000 	.p2align 3
 10333              	$L742:
 10334 4188 01000224 	li $2,1
 10335              	.set noreorder
 10336              	.set nomacro
 10337 418c D8FF8254 	bnel $4,$2,$L747
 10338 4190 FFFF0234 	li $2,65535
 10339              	.set macro
 10340              	.set reorder
 10341              	
 10342 4194 0000043C 	lui $4,%hi(_WavFile)
 10343              	.set noreorder
 10344              	.set nomacro
 10345 4198 0000000C 	jal _ZN8CWavFileC1Ev
 10346 419c 68018424 	addiu $4,$4,%lo(_WavFile)
 10347              	.set macro
 10348              	.set reorder
 10349              	
 10350              	.set noreorder
 10351              	.set nomacro
 10352 41a0 D3FF0010 	b $L747
 10353 41a4 FFFF0234 	li $2,65535
 10354              	.set macro
 10355              	.set reorder
 10356              	
 10357              	.end _Z41__static_initialization_and_destruction_0ii
 10358              	$Lfe61:
 10359              	.size _Z41__static_initialization_and_destruction_0ii,$Lfe61-_Z41__static_initialization_and_destruction_0ii
 10360              	.align 2
 10361              	.p2align 3,,7
GAS LISTING  			page 195


 10362              	.ent _GLOBAL__I__Z19MainLoopModalPrintfiPcz
 10363              	_GLOBAL__I__Z19MainLoopModalPrintfiPcz:
 10364              	.frame $sp,16,$31
 10365              	.mask 0x80000000,-16
 10366              	.fmask 0x00000000,0
 10367 41a8 F0FFBD27 	subu $sp,$sp,16
 10368 41ac 01000424 	li $4,1
 10369 41b0 0000BFFF 	sd $31,0($sp)
 10370              	.set noreorder
 10371              	.set nomacro
 10372 41b4 3210000C 	jal _Z41__static_initialization_and_destruction_0ii
 10373 41b8 FFFF0534 	li $5,65535
 10374              	.set macro
 10375              	.set reorder
 10376              	
 10377 41bc 0000BFDF 	ld $31,0($sp)
 10378              	
 10379              	.set noreorder
 10380              	.set nomacro
 10381 41c0 0800E003 	j $31
 10382 41c4 1000BD27 	addu $sp,$sp,16
 10383              	.set macro
 10384              	.set reorder
 10385              	
 10386              	.end _GLOBAL__I__Z19MainLoopModalPrintfiPcz
 10387              	$Lfe62:
 10388              	.size _GLOBAL__I__Z19MainLoopModalPrintfiPcz,$Lfe62-_GLOBAL__I__Z19MainLoopModalPrintfiPcz
 10389              	.section .ctors,"aw",@progbits
 10390              	.align 2
 10391 0000 A8410000 	.word _GLOBAL__I__Z19MainLoopModalPrintfiPcz
 10392              	.text
 10393              	.align 2
 10394              	.p2align 3,,7
 10395              	.ent _GLOBAL__D__Z19MainLoopModalPrintfiPcz
 10396              	_GLOBAL__D__Z19MainLoopModalPrintfiPcz:
 10397              	.frame $sp,16,$31
 10398              	.mask 0x80000000,-16
 10399              	.fmask 0x00000000,0
 10400 41c8 F0FFBD27 	subu $sp,$sp,16
 10401 41cc 2D200000 	move $4,$0
 10402 41d0 0000BFFF 	sd $31,0($sp)
 10403              	.set noreorder
 10404              	.set nomacro
 10405 41d4 3210000C 	jal _Z41__static_initialization_and_destruction_0ii
 10406 41d8 FFFF0534 	li $5,65535
 10407              	.set macro
 10408              	.set reorder
 10409              	
 10410 41dc 0000BFDF 	ld $31,0($sp)
 10411              	
 10412              	.set noreorder
 10413              	.set nomacro
 10414 41e0 0800E003 	j $31
 10415 41e4 1000BD27 	addu $sp,$sp,16
 10416              	.set macro
 10417              	.set reorder
 10418              	
GAS LISTING  			page 196


 10419              	.end _GLOBAL__D__Z19MainLoopModalPrintfiPcz
 10420              	$Lfe63:
 10421              	.size _GLOBAL__D__Z19MainLoopModalPrintfiPcz,$Lfe63-_GLOBAL__D__Z19MainLoopModalPrintfiPcz
 10422              	.section .dtors,"aw",@progbits
 10423              	.align 2
 10424 0000 C8410000 	.word _GLOBAL__D__Z19MainLoopModalPrintfiPcz
 10425              	.ident "GCC: (GNU) 3.2.2"
