GAS LISTING  			page 1


   1              	.file 1 "../../Source/common/sncpu_c.c"
   2              	.section .mdebug.eabi64
   3              	.previous
   4              	.text
   5              	.align 2
   6              	.p2align 3,,7
   7              	.ent _SNCpuDecimalADC8
   8              	_SNCpuDecimalADC8:
   9              	.frame $sp,0,$31
  10              	.mask 0x00000000,0
  11              	.fmask 0x00000000,0
  12 0000 F000C230 	andi $2,$6,0xf0
  13 0004 F000A330 	andi $3,$5,0xf0
  14 0008 0F00C630 	andi $6,$6,0xf
  15 000c 0F00A530 	andi $5,$5,0xf
  16 0010 2128A600 	addu $5,$5,$6
  17 0014 21186200 	addu $3,$3,$2
  18 0018 21208500 	addu $4,$4,$5
  19 001c 0A00822C 	sltu $2,$4,10
  20              	.set noreorder
  21              	.set nomacro
  22 0020 05004054 	bnel $2,$0,$L4
  23 0024 21208300 	addu $4,$4,$3
  24              	.set macro
  25              	.set reorder
  26              	
  27 0028 F6FF8424 	addu $4,$4,-10
  28 002c 0F008430 	andi $4,$4,0xf
  29 0030 10008424 	addu $4,$4,16
  30 0034 21208300 	addu $4,$4,$3
  31              	$L4:
  32 0038 A000822C 	sltu $2,$4,160
  33 003c 04004014 	bne $2,$0,$L3
  33      00000000 
  34 0044 60FF8424 	addu $4,$4,-160
  35 0048 FF008430 	andi $4,$4,0xff
  36 004c 00018424 	addu $4,$4,256
  37              	$L3:
  38              	.set noreorder
  39              	.set nomacro
  40 0050 0800E003 	j $31
  41 0054 2D108000 	move $2,$4
  42              	.set macro
  43              	.set reorder
  44              	
  45              	.end _SNCpuDecimalADC8
  46              	$Lfe1:
  47              	.size _SNCpuDecimalADC8,$Lfe1-_SNCpuDecimalADC8
  48              	.align 2
  49              	.p2align 3,,7
  50              	.ent _SNCpuDecimalADC16
  51              	_SNCpuDecimalADC16:
  52              	.frame $sp,0,$31
  53              	.mask 0x00000000,0
  54              	.fmask 0x00000000,0
  55 0058 00F0A330 	andi $3,$5,0xf000
  56 005c 00F0C230 	andi $2,$6,0xf000
GAS LISTING  			page 2


  57 0060 21506200 	addu $10,$3,$2
  58 0064 0F00A730 	andi $7,$5,0xf
  59 0068 0F00C330 	andi $3,$6,0xf
  60 006c F000C230 	andi $2,$6,0xf0
  61 0070 2138E300 	addu $7,$7,$3
  62 0074 F000A830 	andi $8,$5,0xf0
  63 0078 21208700 	addu $4,$4,$7
  64 007c 000FC630 	andi $6,$6,0xf00
  65 0080 000FA530 	andi $5,$5,0xf00
  66 0084 FFFF093C 	li $9,-65536
  67 0088 21400201 	addu $8,$8,$2
  68 008c 2128A600 	addu $5,$5,$6
  69 0090 0A00822C 	sltu $2,$4,10
  70              	.set noreorder
  71              	.set nomacro
  72 0094 04004014 	bne $2,$0,$L6
  73 0098 00602935 	ori $9,$9,0x6000
  74              	.set macro
  75              	.set reorder
  76              	
  77 009c F6FF8424 	addu $4,$4,-10
  78 00a0 0F008430 	andi $4,$4,0xf
  79 00a4 10008424 	addu $4,$4,16
  80              	$L6:
  81 00a8 21208800 	addu $4,$4,$8
  82 00ac A000822C 	sltu $2,$4,160
  83              	.set noreorder
  84              	.set nomacro
  85 00b0 05004054 	bnel $2,$0,$L10
  86 00b4 21208500 	addu $4,$4,$5
  87              	.set macro
  88              	.set reorder
  89              	
  90 00b8 60FF8424 	addu $4,$4,-160
  91 00bc FF008430 	andi $4,$4,0xff
  92 00c0 00018424 	addu $4,$4,256
  93 00c4 21208500 	addu $4,$4,$5
  94              	$L10:
  95 00c8 000A822C 	sltu $2,$4,2560
  96              	.set noreorder
  97              	.set nomacro
  98 00cc 05004054 	bnel $2,$0,$L11
  99 00d0 21208A00 	addu $4,$4,$10
 100              	.set macro
 101              	.set reorder
 102              	
 103 00d4 00F68424 	addu $4,$4,-2560
 104 00d8 FF0F8430 	andi $4,$4,0xfff
 105 00dc 00108424 	addu $4,$4,4096
 106 00e0 21208A00 	addu $4,$4,$10
 107              	$L11:
 108 00e4 FF9F0234 	li $2,40959
 109 00e8 2B104400 	sltu $2,$2,$4
 110 00ec 05004010 	beq $2,$0,$L9
 110      00000000 
 111 00f4 21208900 	addu $4,$4,$9
 112 00f8 0100023C 	li $2,65536
GAS LISTING  			page 3


 113 00fc FFFF8430 	andi $4,$4,0xffff
 114 0100 21208200 	addu $4,$4,$2
 115              	$L9:
 116              	.set noreorder
 117              	.set nomacro
 118 0104 0800E003 	j $31
 119 0108 2D108000 	move $2,$4
 120              	.set macro
 121              	.set reorder
 122              	
 123              	.end _SNCpuDecimalADC16
 124              	$Lfe2:
 125              	.size _SNCpuDecimalADC16,$Lfe2-_SNCpuDecimalADC16
 126              	.align 2
 127 010c 00000000 	.p2align 3,,7
 128              	.ent _SNCpuDecimalSBC8
 129              	_SNCpuDecimalSBC8:
 130              	.frame $sp,0,$31
 131              	.mask 0x00000000,0
 132              	.fmask 0x00000000,0
 133 0110 FF00C638 	xori $6,$6,0xff
 134 0114 F000A330 	andi $3,$5,0xf0
 135 0118 F000C230 	andi $2,$6,0xf0
 136 011c 0F00A530 	andi $5,$5,0xf
 137 0120 0F00C630 	andi $6,$6,0xf
 138 0124 FFFF8424 	addu $4,$4,-1
 139 0128 2328A600 	subu $5,$5,$6
 140 012c 23186200 	subu $3,$3,$2
 141 0130 21208500 	addu $4,$4,$5
 142 0134 0A00822C 	sltu $2,$4,10
 143              	.set noreorder
 144              	.set nomacro
 145 0138 05004054 	bnel $2,$0,$L15
 146 013c 21208300 	addu $4,$4,$3
 147              	.set macro
 148              	.set reorder
 149              	
 150 0140 0A008424 	addu $4,$4,10
 151 0144 0F008430 	andi $4,$4,0xf
 152 0148 F0FF8424 	addu $4,$4,-16
 153 014c 21208300 	addu $4,$4,$3
 154              	$L15:
 155 0150 A000822C 	sltu $2,$4,160
 156              	.set noreorder
 157              	.set nomacro
 158 0154 05004054 	bnel $2,$0,$L16
 159 0158 00018438 	xori $4,$4,0x100
 160              	.set macro
 161              	.set reorder
 162              	
 163 015c A0008424 	addu $4,$4,160
 164 0160 FF008430 	andi $4,$4,0xff
 165 0164 00FF8424 	addu $4,$4,-256
 166 0168 00018438 	xori $4,$4,0x100
 167              	$L16:
 168              	.set noreorder
 169              	.set nomacro
GAS LISTING  			page 4


 170 016c 0800E003 	j $31
 171 0170 2D108000 	move $2,$4
 172              	.set macro
 173              	.set reorder
 174              	
 175              	.end _SNCpuDecimalSBC8
 176              	$Lfe3:
 177              	.size _SNCpuDecimalSBC8,$Lfe3-_SNCpuDecimalSBC8
 178              	.align 2
 179 0174 00000000 	.p2align 3,,7
 180              	.ent _SNCpuDecimalSBC16
 181              	_SNCpuDecimalSBC16:
 182              	.frame $sp,0,$31
 183              	.mask 0x00000000,0
 184              	.fmask 0x00000000,0
 185 0178 FFFFC638 	xori $6,$6,0xffff
 186 017c 2D408000 	move $8,$4
 187 0180 0F00A330 	andi $3,$5,0xf
 188 0184 0F00C430 	andi $4,$6,0xf
 189 0188 00F0A730 	andi $7,$5,0xf000
 190 018c 00F0C230 	andi $2,$6,0xf000
 191 0190 23186400 	subu $3,$3,$4
 192 0194 FFFF0825 	addu $8,$8,-1
 193 0198 2348E200 	subu $9,$7,$2
 194 019c 21400301 	addu $8,$8,$3
 195 01a0 F000C230 	andi $2,$6,0xf0
 196 01a4 F000A730 	andi $7,$5,0xf0
 197 01a8 000FC630 	andi $6,$6,0xf00
 198 01ac 2338E200 	subu $7,$7,$2
 199 01b0 000FA530 	andi $5,$5,0xf00
 200 01b4 0A00022D 	sltu $2,$8,10
 201              	.set noreorder
 202              	.set nomacro
 203 01b8 04004014 	bne $2,$0,$L18
 204 01bc 2328A600 	subu $5,$5,$6
 205              	.set macro
 206              	.set reorder
 207              	
 208 01c0 0A000825 	addu $8,$8,10
 209 01c4 0F000831 	andi $8,$8,0xf
 210 01c8 F0FF0825 	addu $8,$8,-16
 211              	$L18:
 212 01cc 21400701 	addu $8,$8,$7
 213 01d0 A000022D 	sltu $2,$8,160
 214              	.set noreorder
 215              	.set nomacro
 216 01d4 05004054 	bnel $2,$0,$L22
 217 01d8 21400501 	addu $8,$8,$5
 218              	.set macro
 219              	.set reorder
 220              	
 221 01dc A0000825 	addu $8,$8,160
 222 01e0 FF000831 	andi $8,$8,0xff
 223 01e4 00FF0825 	addu $8,$8,-256
 224 01e8 21400501 	addu $8,$8,$5
 225              	$L22:
 226 01ec 000A022D 	sltu $2,$8,2560
GAS LISTING  			page 5


 227              	.set noreorder
 228              	.set nomacro
 229 01f0 05004054 	bnel $2,$0,$L23
 230 01f4 21400901 	addu $8,$8,$9
 231              	.set macro
 232              	.set reorder
 233              	
 234 01f8 000A0825 	addu $8,$8,2560
 235 01fc FF0F0831 	andi $8,$8,0xfff
 236 0200 00F00825 	addu $8,$8,-4096
 237 0204 21400901 	addu $8,$8,$9
 238              	$L23:
 239 0208 FF9F0234 	li $2,40959
 240 020c 2B104800 	sltu $2,$2,$8
 241              	.set noreorder
 242              	.set nomacro
 243 0210 04004010 	beq $2,$0,$L21
 244 0214 FFFF033C 	li $3,-65536
 245              	.set macro
 246              	.set reorder
 247              	
 248 0218 00A00234 	li $2,40960
 249 021c 21400201 	addu $8,$8,$2
 250 0220 25400301 	or $8,$8,$3
 251              	$L21:
 252 0224 0100023C 	li $2,65536
 253 0228 26400201 	xor $8,$8,$2
 254              	.set noreorder
 255              	.set nomacro
 256 022c 0800E003 	j $31
 257 0230 2D100001 	move $2,$8
 258              	.set macro
 259              	.set reorder
 260              	
 261              	.end _SNCpuDecimalSBC16
 262              	$Lfe4:
 263              	.size _SNCpuDecimalSBC16,$Lfe4-_SNCpuDecimalSBC16
 264              	.align 2
 265 0234 00000000 	.p2align 3,,7
 266              	.ent _SNCPURead8
 267              	_SNCPURead8:
 268              	.frame $sp,16,$31
 269              	.mask 0x80000000,-16
 270              	.fmask 0x00000000,0
 271 0238 F0FFBD27 	subu $sp,$sp,16
 272 023c 42130500 	srl $2,$5,13
 273 0240 0000BFFF 	sd $31,0($sp)
 274 0244 00110200 	sll $2,$2,4
 275 0248 21484400 	addu $9,$2,$4
 276 024c 40002691 	lbu $6,64($9)
 277 0250 1400838C 	lw $3,20($4)
 278 0254 3400228D 	lw $2,52($9)
 279 0258 23186600 	subu $3,$3,$6
 280 025c 140083AC 	sw $3,20($4)
 281              	.set noreorder
 282              	.set nomacro
 283 0260 06004010 	beq $2,$0,$L25
GAS LISTING  			page 6


 284 0264 21304500 	addu $6,$2,$5
 285              	.set macro
 286              	.set reorder
 287              	
 288 0268 0000C290 	lbu $2,0($6)
 289 026c 0000BFDF 	ld $31,0($sp)
 290              	$L28:
 291 0270 FF004230 	andi $2,$2,0x00ff
 292              	.set noreorder
 293              	.set nomacro
 294 0274 0800E003 	j $31
 295 0278 1000BD27 	addu $sp,$sp,16
 296              	.set macro
 297              	.set reorder
 298              	
 299              	$L25:
 300 027c 3800228D 	lw $2,56($9)
 301              	
 302 0280 09F84000 	jal $31,$2
 302      00000000 
 303              	.set noreorder
 304              	.set nomacro
 305 0288 F9FF0010 	b $L28
 306 028c 0000BFDF 	ld $31,0($sp)
 307              	.set macro
 308              	.set reorder
 309              	
 310              	.end _SNCPURead8
 311              	$Lfe5:
 312              	.size _SNCPURead8,$Lfe5-_SNCPURead8
 313              	.align 2
 314              	.p2align 3,,7
 315              	.ent _SNCPURead16
 316              	_SNCPURead16:
 317              	.frame $sp,48,$31
 318              	.mask 0x80030000,-16
 319              	.fmask 0x00000000,0
 320 0290 D0FFBD27 	subu $sp,$sp,48
 321 0294 42130500 	srl $2,$5,13
 322 0298 1000B1FF 	sd $17,16($sp)
 323 029c 00110200 	sll $2,$2,4
 324 02a0 0000B0FF 	sd $16,0($sp)
 325 02a4 21384400 	addu $7,$2,$4
 326 02a8 2000BFFF 	sd $31,32($sp)
 327 02ac 2D88A000 	move $17,$5
 328 02b0 2D808000 	move $16,$4
 329 02b4 4000E390 	lbu $3,64($7)
 330 02b8 1400868C 	lw $6,20($4)
 331 02bc 3400E28C 	lw $2,52($7)
 332 02c0 40180300 	sll $3,$3,1
 333 02c4 2330C300 	subu $6,$6,$3
 334 02c8 21404500 	addu $8,$2,$5
 335              	.set noreorder
 336              	.set nomacro
 337 02cc 1B004010 	beq $2,$0,$L30
 338 02d0 140086AC 	sw $6,20($4)
 339              	.set macro
GAS LISTING  			page 7


 340              	.set reorder
 341              	
 342 02d4 00000391 	lbu $3,0($8)
 343              	$L31:
 344 02d8 01002226 	addu $2,$17,1
 345 02dc 2D200002 	move $4,$16
 346 02e0 FF007130 	andi $17,$3,0x00ff
 347 02e4 2D284000 	move $5,$2
 348 02e8 421B0200 	srl $3,$2,13
 349 02ec 00190300 	sll $3,$3,4
 350 02f0 21187000 	addu $3,$3,$16
 351 02f4 3400668C 	lw $6,52($3)
 352              	
 353              	.set noreorder
 354              	.set nomacro
 355 02f8 0B00C010 	beq $6,$0,$L33
 356 02fc 2110C200 	addu $2,$6,$2
 357              	.set macro
 358              	.set reorder
 359              	
 360 0300 00004290 	lbu $2,0($2)
 361              	
 362 0304 FF004230 	andi $2,$2,0x00ff
 363              	$L36:
 364 0308 2000BFDF 	ld $31,32($sp)
 365 030c 00120200 	sll $2,$2,8
 366 0310 0000B0DF 	ld $16,0($sp)
 367 0314 25882202 	or $17,$17,$2
 368 0318 FFFF2232 	andi $2,$17,0xffff
 369 031c 1000B1DF 	ld $17,16($sp)
 370              	
 371              	.set noreorder
 372              	.set nomacro
 373 0320 0800E003 	j $31
 374 0324 3000BD27 	addu $sp,$sp,48
 375              	.set macro
 376              	.set reorder
 377              	
 378              	$L33:
 379 0328 3800628C 	lw $2,56($3)
 380              	
 381 032c 09F84000 	jal $31,$2
 381      00000000 
 382              	.set noreorder
 383              	.set nomacro
 384 0334 F4FF0010 	b $L36
 385 0338 FF004230 	andi $2,$2,0x00ff
 386              	.set macro
 387              	.set reorder
 388              	
 389              	$L30:
 390 033c 3800E28C 	lw $2,56($7)
 391              	
 392 0340 09F84000 	jal $31,$2
 392      00000000 
 393              	.set noreorder
 394              	.set nomacro
GAS LISTING  			page 8


 395 0348 E3FF0010 	b $L31
 396 034c 2D184000 	move $3,$2
 397              	.set macro
 398              	.set reorder
 399              	
 400              	.end _SNCPURead16
 401              	$Lfe6:
 402              	.size _SNCPURead16,$Lfe6-_SNCPURead16
 403              	.align 2
 404              	.p2align 3,,7
 405              	.ent _SNCPURead24
 406              	_SNCPURead24:
 407              	.frame $sp,64,$31
 408              	.mask 0x80070000,-16
 409              	.fmask 0x00000000,0
 410 0350 C0FFBD27 	subu $sp,$sp,64
 411 0354 42130500 	srl $2,$5,13
 412 0358 2000B2FF 	sd $18,32($sp)
 413 035c 00110200 	sll $2,$2,4
 414 0360 0000B0FF 	sd $16,0($sp)
 415 0364 21404400 	addu $8,$2,$4
 416 0368 3000BFFF 	sd $31,48($sp)
 417 036c 2D90A000 	move $18,$5
 418 0370 1000B1FF 	sd $17,16($sp)
 419 0374 2D808000 	move $16,$4
 420 0378 40000691 	lbu $6,64($8)
 421 037c 1400838C 	lw $3,20($4)
 422 0380 40100600 	sll $2,$6,1
 423 0384 3400078D 	lw $7,52($8)
 424 0388 21104600 	addu $2,$2,$6
 425 038c 23186200 	subu $3,$3,$2
 426 0390 2148E500 	addu $9,$7,$5
 427              	.set noreorder
 428              	.set nomacro
 429 0394 2E00E010 	beq $7,$0,$L38
 430 0398 140083AC 	sw $3,20($4)
 431              	.set macro
 432              	.set reorder
 433              	
 434 039c 00002791 	lbu $7,0($9)
 435              	$L39:
 436 03a0 01004226 	addu $2,$18,1
 437 03a4 2D200002 	move $4,$16
 438 03a8 421B0200 	srl $3,$2,13
 439 03ac 2D284000 	move $5,$2
 440 03b0 00190300 	sll $3,$3,4
 441 03b4 FF00F130 	andi $17,$7,0x00ff
 442 03b8 21187000 	addu $3,$3,$16
 443 03bc 3400668C 	lw $6,52($3)
 444              	
 445              	.set noreorder
 446              	.set nomacro
 447 03c0 1E00C010 	beq $6,$0,$L41
 448 03c4 2110C200 	addu $2,$6,$2
 449              	.set macro
 450              	.set reorder
 451              	
GAS LISTING  			page 9


 452 03c8 00004290 	lbu $2,0($2)
 453 03cc 02004626 	addu $6,$18,2
 454              	$L48:
 455 03d0 FF004330 	andi $3,$2,0x00ff
 456 03d4 42130600 	srl $2,$6,13
 457 03d8 001A0300 	sll $3,$3,8
 458 03dc 00110200 	sll $2,$2,4
 459 03e0 2D28C000 	move $5,$6
 460 03e4 21385000 	addu $7,$2,$16
 461 03e8 2D200002 	move $4,$16
 462 03ec 3400E28C 	lw $2,52($7)
 463 03f0 25882302 	or $17,$17,$3
 464              	.set noreorder
 465              	.set nomacro
 466 03f4 0C004010 	beq $2,$0,$L44
 467 03f8 21304600 	addu $6,$2,$6
 468              	.set macro
 469              	.set reorder
 470              	
 471 03fc 0000C290 	lbu $2,0($6)
 472              	
 473 0400 FF004230 	andi $2,$2,0x00ff
 474              	$L47:
 475 0404 3000BFDF 	ld $31,48($sp)
 476 0408 00140200 	sll $2,$2,16
 477 040c 2000B2DF 	ld $18,32($sp)
 478 0410 25882202 	or $17,$17,$2
 479 0414 0000B0DF 	ld $16,0($sp)
 480 0418 2D102002 	move $2,$17
 481 041c 1000B1DF 	ld $17,16($sp)
 482              	
 483              	.set noreorder
 484              	.set nomacro
 485 0420 0800E003 	j $31
 486 0424 4000BD27 	addu $sp,$sp,64
 487              	.set macro
 488              	.set reorder
 489              	
 490              	$L44:
 491 0428 3800E28C 	lw $2,56($7)
 492              	
 493 042c 09F84000 	jal $31,$2
 493      00000000 
 494              	.set noreorder
 495              	.set nomacro
 496 0434 F3FF0010 	b $L47
 497 0438 FF004230 	andi $2,$2,0x00ff
 498              	.set macro
 499              	.set reorder
 500              	
 501              	$L41:
 502 043c 3800628C 	lw $2,56($3)
 503              	
 504 0440 09F84000 	jal $31,$2
 504      00000000 
 505              	.set noreorder
 506              	.set nomacro
GAS LISTING  			page 10


 507 0448 E1FF0010 	b $L48
 508 044c 02004626 	addu $6,$18,2
 509              	.set macro
 510              	.set reorder
 511              	
 512              	$L38:
 513 0450 3800028D 	lw $2,56($8)
 514              	
 515 0454 09F84000 	jal $31,$2
 515      00000000 
 516              	.set noreorder
 517              	.set nomacro
 518 045c D0FF0010 	b $L39
 519 0460 2D384000 	move $7,$2
 520              	.set macro
 521              	.set reorder
 522              	
 523              	.end _SNCPURead24
 524              	$Lfe7:
 525              	.size _SNCPURead24,$Lfe7-_SNCPURead24
 526              	.align 2
 527 0464 00000000 	.p2align 3,,7
 528              	.ent _SNCPUFetch8
 529              	_SNCPUFetch8:
 530              	.frame $sp,16,$31
 531              	.mask 0x80000000,-16
 532              	.fmask 0x00000000,0
 533 0468 F0FFBD27 	subu $sp,$sp,16
 534 046c 42130500 	srl $2,$5,13
 535 0470 0000BFFF 	sd $31,0($sp)
 536 0474 00110200 	sll $2,$2,4
 537 0478 21484400 	addu $9,$2,$4
 538 047c 40002691 	lbu $6,64($9)
 539 0480 1400838C 	lw $3,20($4)
 540 0484 3400228D 	lw $2,52($9)
 541 0488 23186600 	subu $3,$3,$6
 542 048c 140083AC 	sw $3,20($4)
 543              	.set noreorder
 544              	.set nomacro
 545 0490 06004010 	beq $2,$0,$L50
 546 0494 21304500 	addu $6,$2,$5
 547              	.set macro
 548              	.set reorder
 549              	
 550 0498 0000C290 	lbu $2,0($6)
 551 049c 0000BFDF 	ld $31,0($sp)
 552              	$L53:
 553 04a0 FF004230 	andi $2,$2,0x00ff
 554              	.set noreorder
 555              	.set nomacro
 556 04a4 0800E003 	j $31
 557 04a8 1000BD27 	addu $sp,$sp,16
 558              	.set macro
 559              	.set reorder
 560              	
 561              	$L50:
 562 04ac 3800228D 	lw $2,56($9)
GAS LISTING  			page 11


 563              	
 564 04b0 09F84000 	jal $31,$2
 564      00000000 
 565              	.set noreorder
 566              	.set nomacro
 567 04b8 F9FF0010 	b $L53
 568 04bc 0000BFDF 	ld $31,0($sp)
 569              	.set macro
 570              	.set reorder
 571              	
 572              	.end _SNCPUFetch8
 573              	$Lfe8:
 574              	.size _SNCPUFetch8,$Lfe8-_SNCPUFetch8
 575              	.align 2
 576              	.p2align 3,,7
 577              	.ent _SNCPUFetch16
 578              	_SNCPUFetch16:
 579              	.frame $sp,48,$31
 580              	.mask 0x80030000,-16
 581              	.fmask 0x00000000,0
 582 04c0 D0FFBD27 	subu $sp,$sp,48
 583 04c4 42130500 	srl $2,$5,13
 584 04c8 1000B1FF 	sd $17,16($sp)
 585 04cc 00110200 	sll $2,$2,4
 586 04d0 0000B0FF 	sd $16,0($sp)
 587 04d4 21384400 	addu $7,$2,$4
 588 04d8 2000BFFF 	sd $31,32($sp)
 589 04dc 2D88A000 	move $17,$5
 590 04e0 2D808000 	move $16,$4
 591 04e4 4000E390 	lbu $3,64($7)
 592 04e8 1400868C 	lw $6,20($4)
 593 04ec 3400E28C 	lw $2,52($7)
 594 04f0 40180300 	sll $3,$3,1
 595 04f4 2330C300 	subu $6,$6,$3
 596 04f8 21404500 	addu $8,$2,$5
 597              	.set noreorder
 598              	.set nomacro
 599 04fc 1B004010 	beq $2,$0,$L55
 600 0500 140086AC 	sw $6,20($4)
 601              	.set macro
 602              	.set reorder
 603              	
 604 0504 00000391 	lbu $3,0($8)
 605              	$L56:
 606 0508 01002226 	addu $2,$17,1
 607 050c 2D200002 	move $4,$16
 608 0510 FF007130 	andi $17,$3,0x00ff
 609 0514 2D284000 	move $5,$2
 610 0518 421B0200 	srl $3,$2,13
 611 051c 00190300 	sll $3,$3,4
 612 0520 21187000 	addu $3,$3,$16
 613 0524 3400668C 	lw $6,52($3)
 614              	
 615              	.set noreorder
 616              	.set nomacro
 617 0528 0B00C010 	beq $6,$0,$L58
 618 052c 2110C200 	addu $2,$6,$2
GAS LISTING  			page 12


 619              	.set macro
 620              	.set reorder
 621              	
 622 0530 00004290 	lbu $2,0($2)
 623              	
 624 0534 FF004230 	andi $2,$2,0x00ff
 625              	$L61:
 626 0538 2000BFDF 	ld $31,32($sp)
 627 053c 00120200 	sll $2,$2,8
 628 0540 0000B0DF 	ld $16,0($sp)
 629 0544 25882202 	or $17,$17,$2
 630 0548 FFFF2232 	andi $2,$17,0xffff
 631 054c 1000B1DF 	ld $17,16($sp)
 632              	
 633              	.set noreorder
 634              	.set nomacro
 635 0550 0800E003 	j $31
 636 0554 3000BD27 	addu $sp,$sp,48
 637              	.set macro
 638              	.set reorder
 639              	
 640              	$L58:
 641 0558 3800628C 	lw $2,56($3)
 642              	
 643 055c 09F84000 	jal $31,$2
 643      00000000 
 644              	.set noreorder
 645              	.set nomacro
 646 0564 F4FF0010 	b $L61
 647 0568 FF004230 	andi $2,$2,0x00ff
 648              	.set macro
 649              	.set reorder
 650              	
 651              	$L55:
 652 056c 3800E28C 	lw $2,56($7)
 653              	
 654 0570 09F84000 	jal $31,$2
 654      00000000 
 655              	.set noreorder
 656              	.set nomacro
 657 0578 E3FF0010 	b $L56
 658 057c 2D184000 	move $3,$2
 659              	.set macro
 660              	.set reorder
 661              	
 662              	.end _SNCPUFetch16
 663              	$Lfe9:
 664              	.size _SNCPUFetch16,$Lfe9-_SNCPUFetch16
 665              	.align 2
 666              	.p2align 3,,7
 667              	.ent _SNCPUFetch24
 668              	_SNCPUFetch24:
 669              	.frame $sp,64,$31
 670              	.mask 0x80070000,-16
 671              	.fmask 0x00000000,0
 672 0580 C0FFBD27 	subu $sp,$sp,64
 673 0584 42130500 	srl $2,$5,13
GAS LISTING  			page 13


 674 0588 2000B2FF 	sd $18,32($sp)
 675 058c 00110200 	sll $2,$2,4
 676 0590 0000B0FF 	sd $16,0($sp)
 677 0594 21404400 	addu $8,$2,$4
 678 0598 3000BFFF 	sd $31,48($sp)
 679 059c 2D90A000 	move $18,$5
 680 05a0 1000B1FF 	sd $17,16($sp)
 681 05a4 2D808000 	move $16,$4
 682 05a8 40000691 	lbu $6,64($8)
 683 05ac 1400838C 	lw $3,20($4)
 684 05b0 40100600 	sll $2,$6,1
 685 05b4 3400078D 	lw $7,52($8)
 686 05b8 21104600 	addu $2,$2,$6
 687 05bc 23186200 	subu $3,$3,$2
 688 05c0 2148E500 	addu $9,$7,$5
 689              	.set noreorder
 690              	.set nomacro
 691 05c4 2E00E010 	beq $7,$0,$L63
 692 05c8 140083AC 	sw $3,20($4)
 693              	.set macro
 694              	.set reorder
 695              	
 696 05cc 00002791 	lbu $7,0($9)
 697              	$L64:
 698 05d0 01004226 	addu $2,$18,1
 699 05d4 2D200002 	move $4,$16
 700 05d8 421B0200 	srl $3,$2,13
 701 05dc 2D284000 	move $5,$2
 702 05e0 00190300 	sll $3,$3,4
 703 05e4 FF00F130 	andi $17,$7,0x00ff
 704 05e8 21187000 	addu $3,$3,$16
 705 05ec 3400668C 	lw $6,52($3)
 706              	
 707              	.set noreorder
 708              	.set nomacro
 709 05f0 1E00C010 	beq $6,$0,$L66
 710 05f4 2110C200 	addu $2,$6,$2
 711              	.set macro
 712              	.set reorder
 713              	
 714 05f8 00004290 	lbu $2,0($2)
 715 05fc 02004626 	addu $6,$18,2
 716              	$L73:
 717 0600 FF004330 	andi $3,$2,0x00ff
 718 0604 42130600 	srl $2,$6,13
 719 0608 001A0300 	sll $3,$3,8
 720 060c 00110200 	sll $2,$2,4
 721 0610 2D28C000 	move $5,$6
 722 0614 21385000 	addu $7,$2,$16
 723 0618 2D200002 	move $4,$16
 724 061c 3400E28C 	lw $2,52($7)
 725 0620 25882302 	or $17,$17,$3
 726              	.set noreorder
 727              	.set nomacro
 728 0624 0C004010 	beq $2,$0,$L69
 729 0628 21304600 	addu $6,$2,$6
 730              	.set macro
GAS LISTING  			page 14


 731              	.set reorder
 732              	
 733 062c 0000C290 	lbu $2,0($6)
 734              	
 735 0630 FF004230 	andi $2,$2,0x00ff
 736              	$L72:
 737 0634 3000BFDF 	ld $31,48($sp)
 738 0638 00140200 	sll $2,$2,16
 739 063c 2000B2DF 	ld $18,32($sp)
 740 0640 25882202 	or $17,$17,$2
 741 0644 0000B0DF 	ld $16,0($sp)
 742 0648 2D102002 	move $2,$17
 743 064c 1000B1DF 	ld $17,16($sp)
 744              	
 745              	.set noreorder
 746              	.set nomacro
 747 0650 0800E003 	j $31
 748 0654 4000BD27 	addu $sp,$sp,64
 749              	.set macro
 750              	.set reorder
 751              	
 752              	$L69:
 753 0658 3800E28C 	lw $2,56($7)
 754              	
 755 065c 09F84000 	jal $31,$2
 755      00000000 
 756              	.set noreorder
 757              	.set nomacro
 758 0664 F3FF0010 	b $L72
 759 0668 FF004230 	andi $2,$2,0x00ff
 760              	.set macro
 761              	.set reorder
 762              	
 763              	$L66:
 764 066c 3800628C 	lw $2,56($3)
 765              	
 766 0670 09F84000 	jal $31,$2
 766      00000000 
 767              	.set noreorder
 768              	.set nomacro
 769 0678 E1FF0010 	b $L73
 770 067c 02004626 	addu $6,$18,2
 771              	.set macro
 772              	.set reorder
 773              	
 774              	$L63:
 775 0680 3800028D 	lw $2,56($8)
 776              	
 777 0684 09F84000 	jal $31,$2
 777      00000000 
 778              	.set noreorder
 779              	.set nomacro
 780 068c D0FF0010 	b $L64
 781 0690 2D384000 	move $7,$2
 782              	.set macro
 783              	.set reorder
 784              	
GAS LISTING  			page 15


 785              	.end _SNCPUFetch24
 786              	$Lfe10:
 787              	.size _SNCPUFetch24,$Lfe10-_SNCPUFetch24
 788              	.align 2
 789 0694 00000000 	.p2align 3,,7
 790              	.ent _SNCPUWrite8
 791              	_SNCPUWrite8:
 792              	.frame $sp,16,$31
 793              	.mask 0x80000000,-16
 794              	.fmask 0x00000000,0
 795 0698 42130500 	srl $2,$5,13
 796 069c F0FFBD27 	subu $sp,$sp,16
 797 06a0 00110200 	sll $2,$2,4
 798 06a4 0000BFFF 	sd $31,0($sp)
 799 06a8 21484400 	addu $9,$2,$4
 800 06ac FF00CA30 	andi $10,$6,0x00ff
 801 06b0 30002825 	addu $8,$9,48
 802 06b4 1400838C 	lw $3,20($4)
 803 06b8 10000291 	lbu $2,16($8)
 804              	
 805 06bc 23186200 	subu $3,$3,$2
 806 06c0 140083AC 	sw $3,20($4)
 807 06c4 11000291 	lbu $2,17($8)
 808              	
 809              	.set noreorder
 810              	.set nomacro
 811 06c8 07004010 	beq $2,$0,$L75
 812 06cc 2D304001 	move $6,$10
 813              	.set macro
 814              	.set reorder
 815              	
 816 06d0 3400228D 	lw $2,52($9)
 817              	
 818 06d4 21104500 	addu $2,$2,$5
 819 06d8 00004AA0 	sb $10,0($2)
 820 06dc 0000BFDF 	ld $31,0($sp)
 821              	$L78:
 822              	.set noreorder
 823              	.set nomacro
 824 06e0 0800E003 	j $31
 825 06e4 1000BD27 	addu $sp,$sp,16
 826              	.set macro
 827              	.set reorder
 828              	
 829              	.p2align 3
 830              	$L75:
 831 06e8 3C00228D 	lw $2,60($9)
 832              	
 833 06ec 09F84000 	jal $31,$2
 833      00000000 
 834              	.set noreorder
 835              	.set nomacro
 836 06f4 FAFF0010 	b $L78
 837 06f8 0000BFDF 	ld $31,0($sp)
 838              	.set macro
 839              	.set reorder
 840              	
GAS LISTING  			page 16


 841              	.end _SNCPUWrite8
 842              	$Lfe11:
 843              	.size _SNCPUWrite8,$Lfe11-_SNCPUWrite8
 844              	.align 2
 845 06fc 00000000 	.p2align 3,,7
 846              	.ent _SNCPUWrite16
 847              	_SNCPUWrite16:
 848              	.frame $sp,64,$31
 849              	.mask 0x80070000,-16
 850              	.fmask 0x00000000,0
 851 0700 42130500 	srl $2,$5,13
 852 0704 C0FFBD27 	subu $sp,$sp,64
 853 0708 00110200 	sll $2,$2,4
 854 070c 2000B2FF 	sd $18,32($sp)
 855 0710 1000B1FF 	sd $17,16($sp)
 856 0714 21404400 	addu $8,$2,$4
 857 0718 0000B0FF 	sd $16,0($sp)
 858 071c 30000725 	addu $7,$8,48
 859 0720 3000BFFF 	sd $31,48($sp)
 860 0724 FFFFD230 	andi $18,$6,0xffff
 861 0728 FF004932 	andi $9,$18,0x00ff
 862 072c 2D88A000 	move $17,$5
 863 0730 1000E290 	lbu $2,16($7)
 864 0734 2D808000 	move $16,$4
 865 0738 1400838C 	lw $3,20($4)
 866 073c 40100200 	sll $2,$2,1
 867 0740 23186200 	subu $3,$3,$2
 868 0744 140083AC 	sw $3,20($4)
 869 0748 1100E290 	lbu $2,17($7)
 870              	
 871              	.set noreorder
 872              	.set nomacro
 873 074c 1E004010 	beq $2,$0,$L80
 874 0750 2D302001 	move $6,$9
 875              	.set macro
 876              	.set reorder
 877              	
 878 0754 3400028D 	lw $2,52($8)
 879              	
 880 0758 21104500 	addu $2,$2,$5
 881 075c 000049A0 	sb $9,0($2)
 882 0760 01002726 	addu $7,$17,1
 883              	$L87:
 884 0764 02421200 	srl $8,$18,8
 885 0768 42130700 	srl $2,$7,13
 886 076c 2D200002 	move $4,$16
 887 0770 00110200 	sll $2,$2,4
 888 0774 2D28E000 	move $5,$7
 889 0778 21105000 	addu $2,$2,$16
 890 077c 41004390 	lbu $3,65($2)
 891              	
 892              	.set noreorder
 893              	.set nomacro
 894 0780 0B006010 	beq $3,$0,$L83
 895 0784 2D300001 	move $6,$8
 896              	.set macro
 897              	.set reorder
GAS LISTING  			page 17


 898              	
 899 0788 3400428C 	lw $2,52($2)
 900              	
 901 078c 21104700 	addu $2,$2,$7
 902 0790 000048A0 	sb $8,0($2)
 903 0794 3000BFDF 	ld $31,48($sp)
 904              	$L86:
 905 0798 2000B2DF 	ld $18,32($sp)
 906 079c 1000B1DF 	ld $17,16($sp)
 907 07a0 0000B0DF 	ld $16,0($sp)
 908              	
 909              	.set noreorder
 910              	.set nomacro
 911 07a4 0800E003 	j $31
 912 07a8 4000BD27 	addu $sp,$sp,64
 913              	.set macro
 914              	.set reorder
 915              	
 916 07ac 00000000 	.p2align 3
 917              	$L83:
 918 07b0 3C00428C 	lw $2,60($2)
 919              	
 920 07b4 09F84000 	jal $31,$2
 920      00000000 
 921              	.set noreorder
 922              	.set nomacro
 923 07bc F6FF0010 	b $L86
 924 07c0 3000BFDF 	ld $31,48($sp)
 925              	.set macro
 926              	.set reorder
 927              	
 928 07c4 00000000 	.p2align 3
 929              	$L80:
 930 07c8 3C00028D 	lw $2,60($8)
 931              	
 932 07cc 09F84000 	jal $31,$2
 932      00000000 
 933              	.set noreorder
 934              	.set nomacro
 935 07d4 E3FF0010 	b $L87
 936 07d8 01002726 	addu $7,$17,1
 937              	.set macro
 938              	.set reorder
 939              	
 940              	.end _SNCPUWrite16
 941              	$Lfe12:
 942              	.size _SNCPUWrite16,$Lfe12-_SNCPUWrite16
 943              	.align 2
 944 07dc 00000000 	.p2align 3,,7
 945              	.ent _SNCPUPush8
 946              	_SNCPUPush8:
 947              	.frame $sp,32,$31
 948              	.mask 0x80010000,-16
 949              	.fmask 0x00000000,0
 950 07e0 E0FFBD27 	subu $sp,$sp,32
 951 07e4 FF00A830 	andi $8,$5,0x00ff
 952 07e8 0000B0FF 	sd $16,0($sp)
GAS LISTING  			page 18


 953 07ec 2D300001 	move $6,$8
 954 07f0 1000BFFF 	sd $31,16($sp)
 955 07f4 2D808000 	move $16,$4
 956 07f8 06008794 	lhu $7,6($4)
 957 07fc 1400828C 	lw $2,20($4)
 958 0800 421B0700 	srl $3,$7,13
 959 0804 F8FF4224 	addu $2,$2,-8
 960 0808 00190300 	sll $3,$3,4
 961 080c 140082AC 	sw $2,20($4)
 962 0810 21186400 	addu $3,$3,$4
 963 0814 41006290 	lbu $2,65($3)
 964              	
 965              	.set noreorder
 966              	.set nomacro
 967 0818 13004010 	beq $2,$0,$L89
 968 081c 2D28E000 	move $5,$7
 969              	.set macro
 970              	.set reorder
 971              	
 972 0820 3400628C 	lw $2,52($3)
 973              	
 974 0824 21104700 	addu $2,$2,$7
 975 0828 000048A0 	sb $8,0($2)
 976 082c 09000292 	lbu $2,9($16)
 977              	$L94:
 978              	.set noreorder
 979              	.set nomacro
 980 0830 09004050 	beql $2,$0,$L92
 981 0834 06000296 	lhu $2,6($16)
 982              	.set macro
 983              	.set reorder
 984              	
 985              	
 986 0838 06000292 	lbu $2,6($16)
 987              	
 988 083c FFFF4224 	addu $2,$2,-1
 989 0840 060002A2 	sb $2,6($16)
 990              	$L88:
 991 0844 1000BFDF 	ld $31,16($sp)
 992 0848 0000B0DF 	ld $16,0($sp)
 993              	
 994              	.set noreorder
 995              	.set nomacro
 996 084c 0800E003 	j $31
 997 0850 2000BD27 	addu $sp,$sp,32
 998              	.set macro
 999              	.set reorder
 1000              	
 1001 0854 00000000 	.p2align 3
 1002              	$L92:
 1003 0858 FFFF4224 	addu $2,$2,-1
 1004              	.set noreorder
 1005              	.set nomacro
 1006 085c F9FF0010 	b $L88
 1007 0860 060002A6 	sh $2,6($16)
 1008              	.set macro
 1009              	.set reorder
GAS LISTING  			page 19


 1010              	
 1011 0864 00000000 	.p2align 3
 1012              	$L89:
 1013 0868 3C00628C 	lw $2,60($3)
 1014              	
 1015 086c 09F84000 	jal $31,$2
 1015      00000000 
 1016              	.set noreorder
 1017              	.set nomacro
 1018 0874 EEFF0010 	b $L94
 1019 0878 09000292 	lbu $2,9($16)
 1020              	.set macro
 1021              	.set reorder
 1022              	
 1023              	.end _SNCPUPush8
 1024              	$Lfe13:
 1025              	.size _SNCPUPush8,$Lfe13-_SNCPUPush8
 1026              	.align 2
 1027 087c 00000000 	.p2align 3,,7
 1028              	.ent _SNCPUPush16
 1029              	_SNCPUPush16:
 1030              	.frame $sp,48,$31
 1031              	.mask 0x80030000,-16
 1032              	.fmask 0x00000000,0
 1033 0880 D0FFBD27 	subu $sp,$sp,48
 1034 0884 0000B0FF 	sd $16,0($sp)
 1035 0888 FFFFB030 	andi $16,$5,0xffff
 1036 088c 1000B1FF 	sd $17,16($sp)
 1037 0890 022A1000 	srl $5,$16,8
 1038 0894 2D888000 	move $17,$4
 1039 0898 2000BFFF 	sd $31,32($sp)
 1040              	.set noreorder
 1041              	.set nomacro
 1042 089c F801000C 	jal _SNCPUPush8
 1043 08a0 FF001032 	andi $16,$16,0x00ff
 1044              	.set macro
 1045              	.set reorder
 1046              	
 1047 08a4 2D202002 	move $4,$17
 1048              	.set noreorder
 1049              	.set nomacro
 1050 08a8 F801000C 	jal _SNCPUPush8
 1051 08ac 2D280002 	move $5,$16
 1052              	.set macro
 1053              	.set reorder
 1054              	
 1055 08b0 0000B0DF 	ld $16,0($sp)
 1056 08b4 2000BFDF 	ld $31,32($sp)
 1057 08b8 1000B1DF 	ld $17,16($sp)
 1058              	
 1059              	.set noreorder
 1060              	.set nomacro
 1061 08bc 0800E003 	j $31
 1062 08c0 3000BD27 	addu $sp,$sp,48
 1063              	.set macro
 1064              	.set reorder
 1065              	
GAS LISTING  			page 20


 1066              	.end _SNCPUPush16
 1067              	$Lfe14:
 1068              	.size _SNCPUPush16,$Lfe14-_SNCPUPush16
 1069              	.align 2
 1070 08c4 00000000 	.p2align 3,,7
 1071              	.ent _SNCPUPush24
 1072              	_SNCPUPush24:
 1073              	.frame $sp,48,$31
 1074              	.mask 0x80030000,-16
 1075              	.fmask 0x00000000,0
 1076 08c8 D0FFBD27 	subu $sp,$sp,48
 1077 08cc 0000B0FF 	sd $16,0($sp)
 1078 08d0 2D80A000 	move $16,$5
 1079 08d4 022C0500 	srl $5,$5,16
 1080 08d8 2000BFFF 	sd $31,32($sp)
 1081 08dc FF00A530 	andi $5,$5,0x00ff
 1082 08e0 1000B1FF 	sd $17,16($sp)
 1083              	.set noreorder
 1084              	.set nomacro
 1085 08e4 F801000C 	jal _SNCPUPush8
 1086 08e8 2D888000 	move $17,$4
 1087              	.set macro
 1088              	.set reorder
 1089              	
 1090 08ec 022A1000 	srl $5,$16,8
 1091 08f0 2D202002 	move $4,$17
 1092 08f4 FF00A530 	andi $5,$5,0x00ff
 1093              	.set noreorder
 1094              	.set nomacro
 1095 08f8 F801000C 	jal _SNCPUPush8
 1096 08fc FF001032 	andi $16,$16,0x00ff
 1097              	.set macro
 1098              	.set reorder
 1099              	
 1100 0900 2D280002 	move $5,$16
 1101              	.set noreorder
 1102              	.set nomacro
 1103 0904 F801000C 	jal _SNCPUPush8
 1104 0908 2D202002 	move $4,$17
 1105              	.set macro
 1106              	.set reorder
 1107              	
 1108 090c 0000B0DF 	ld $16,0($sp)
 1109 0910 2000BFDF 	ld $31,32($sp)
 1110 0914 1000B1DF 	ld $17,16($sp)
 1111              	
 1112              	.set noreorder
 1113              	.set nomacro
 1114 0918 0800E003 	j $31
 1115 091c 3000BD27 	addu $sp,$sp,48
 1116              	.set macro
 1117              	.set reorder
 1118              	
 1119              	.end _SNCPUPush24
 1120              	$Lfe15:
 1121              	.size _SNCPUPush24,$Lfe15-_SNCPUPush24
 1122              	.align 2
GAS LISTING  			page 21


 1123              	.p2align 3,,7
 1124              	.ent _SNCPUPop8
 1125              	_SNCPUPop8:
 1126              	.frame $sp,16,$31
 1127              	.mask 0x80000000,-16
 1128              	.fmask 0x00000000,0
 1129 0920 F0FFBD27 	subu $sp,$sp,16
 1130 0924 0000BFFF 	sd $31,0($sp)
 1131 0928 09008290 	lbu $2,9($4)
 1132              	
 1133              	.set noreorder
 1134              	.set nomacro
 1135 092c 1A004010 	beq $2,$0,$L98
 1136 0930 2D388000 	move $7,$4
 1137              	.set macro
 1138              	.set reorder
 1139              	
 1140 0934 06008290 	lbu $2,6($4)
 1141              	
 1142 0938 01004224 	addu $2,$2,1
 1143 093c 060082A0 	sb $2,6($4)
 1144              	$L99:
 1145 0940 0600E694 	lhu $6,6($7)
 1146 0944 2D20E000 	move $4,$7
 1147 0948 1400E38C 	lw $3,20($7)
 1148 094c 42130600 	srl $2,$6,13
 1149 0950 2D28C000 	move $5,$6
 1150 0954 00110200 	sll $2,$2,4
 1151 0958 F8FF6324 	addu $3,$3,-8
 1152 095c 21404700 	addu $8,$2,$7
 1153 0960 1400E3AC 	sw $3,20($7)
 1154 0964 3400028D 	lw $2,52($8)
 1155              	
 1156              	.set noreorder
 1157              	.set nomacro
 1158 0968 06004010 	beq $2,$0,$L100
 1159 096c 21184600 	addu $3,$2,$6
 1160              	.set macro
 1161              	.set reorder
 1162              	
 1163 0970 00006290 	lbu $2,0($3)
 1164 0974 0000BFDF 	ld $31,0($sp)
 1165              	$L103:
 1166 0978 FF004230 	andi $2,$2,0x00ff
 1167              	.set noreorder
 1168              	.set nomacro
 1169 097c 0800E003 	j $31
 1170 0980 1000BD27 	addu $sp,$sp,16
 1171              	.set macro
 1172              	.set reorder
 1173              	
 1174              	$L100:
 1175 0984 3800028D 	lw $2,56($8)
 1176              	
 1177 0988 09F84000 	jal $31,$2
 1177      00000000 
 1178              	.set noreorder
GAS LISTING  			page 22


 1179              	.set nomacro
 1180 0990 F9FF0010 	b $L103
 1181 0994 0000BFDF 	ld $31,0($sp)
 1182              	.set macro
 1183              	.set reorder
 1184              	
 1185              	.p2align 3
 1186              	$L98:
 1187 0998 06008294 	lhu $2,6($4)
 1188              	
 1189 099c 01004224 	addu $2,$2,1
 1190              	.set noreorder
 1191              	.set nomacro
 1192 09a0 E7FF0010 	b $L99
 1193 09a4 060082A4 	sh $2,6($4)
 1194              	.set macro
 1195              	.set reorder
 1196              	
 1197              	.end _SNCPUPop8
 1198              	$Lfe16:
 1199              	.size _SNCPUPop8,$Lfe16-_SNCPUPop8
 1200              	.align 2
 1201              	.p2align 3,,7
 1202              	.ent _SNCPUPop16
 1203              	_SNCPUPop16:
 1204              	.frame $sp,48,$31
 1205              	.mask 0x80030000,-16
 1206              	.fmask 0x00000000,0
 1207 09a8 D0FFBD27 	subu $sp,$sp,48
 1208 09ac 1000B1FF 	sd $17,16($sp)
 1209 09b0 2D888000 	move $17,$4
 1210 09b4 2000BFFF 	sd $31,32($sp)
 1211              	.set noreorder
 1212              	.set nomacro
 1213 09b8 4802000C 	jal _SNCPUPop8
 1214 09bc 0000B0FF 	sd $16,0($sp)
 1215              	.set macro
 1216              	.set reorder
 1217              	
 1218 09c0 2D202002 	move $4,$17
 1219              	.set noreorder
 1220              	.set nomacro
 1221 09c4 4802000C 	jal _SNCPUPop8
 1222 09c8 2D804000 	move $16,$2
 1223              	.set macro
 1224              	.set reorder
 1225              	
 1226 09cc 1000B1DF 	ld $17,16($sp)
 1227 09d0 00120200 	sll $2,$2,8
 1228 09d4 2000BFDF 	ld $31,32($sp)
 1229 09d8 25800202 	or $16,$16,$2
 1230 09dc FFFF1032 	andi $16,$16,0xffff
 1231 09e0 2D100002 	move $2,$16
 1232 09e4 0000B0DF 	ld $16,0($sp)
 1233              	
 1234              	.set noreorder
 1235              	.set nomacro
GAS LISTING  			page 23


 1236 09e8 0800E003 	j $31
 1237 09ec 3000BD27 	addu $sp,$sp,48
 1238              	.set macro
 1239              	.set reorder
 1240              	
 1241              	.end _SNCPUPop16
 1242              	$Lfe17:
 1243              	.size _SNCPUPop16,$Lfe17-_SNCPUPop16
 1244              	.align 2
 1245              	.p2align 3,,7
 1246              	.ent _SNCPUPop24
 1247              	_SNCPUPop24:
 1248              	.frame $sp,48,$31
 1249              	.mask 0x80030000,-16
 1250              	.fmask 0x00000000,0
 1251 09f0 D0FFBD27 	subu $sp,$sp,48
 1252 09f4 1000B1FF 	sd $17,16($sp)
 1253 09f8 2D888000 	move $17,$4
 1254 09fc 2000BFFF 	sd $31,32($sp)
 1255              	.set noreorder
 1256              	.set nomacro
 1257 0a00 4802000C 	jal _SNCPUPop8
 1258 0a04 0000B0FF 	sd $16,0($sp)
 1259              	.set macro
 1260              	.set reorder
 1261              	
 1262 0a08 2D202002 	move $4,$17
 1263              	.set noreorder
 1264              	.set nomacro
 1265 0a0c 4802000C 	jal _SNCPUPop8
 1266 0a10 2D804000 	move $16,$2
 1267              	.set macro
 1268              	.set reorder
 1269              	
 1270 0a14 2D202002 	move $4,$17
 1271 0a18 00120200 	sll $2,$2,8
 1272              	.set noreorder
 1273              	.set nomacro
 1274 0a1c 4802000C 	jal _SNCPUPop8
 1275 0a20 25800202 	or $16,$16,$2
 1276              	.set macro
 1277              	.set reorder
 1278              	
 1279 0a24 00140200 	sll $2,$2,16
 1280 0a28 2000BFDF 	ld $31,32($sp)
 1281 0a2c 25800202 	or $16,$16,$2
 1282 0a30 1000B1DF 	ld $17,16($sp)
 1283 0a34 2D100002 	move $2,$16
 1284 0a38 0000B0DF 	ld $16,0($sp)
 1285              	
 1286              	.set noreorder
 1287              	.set nomacro
 1288 0a3c 0800E003 	j $31
 1289 0a40 3000BD27 	addu $sp,$sp,48
 1290              	.set macro
 1291              	.set reorder
 1292              	
GAS LISTING  			page 24


 1293              	.end _SNCPUPop24
 1294              	$Lfe18:
 1295              	.size _SNCPUPop24,$Lfe18-_SNCPUPop24
 1296              	.align 2
 1297 0a44 00000000 	.p2align 3,,7
 1298              	.globl SNCPUExecute_C
 1299              	.ent SNCPUExecute_C
 1300              	SNCPUExecute_C:
 1301              	.frame $sp,176,$31
 1302              	.mask 0xc0ff0000,-16
 1303              	.fmask 0x00000000,0
 1304 0a48 50FFBD27 	subu $sp,$sp,176
 1305 0a4c 8000B7FF 	sd $23,128($sp)
 1306 0a50 7000B6FF 	sd $22,112($sp)
 1307 0a54 6000B5FF 	sd $21,96($sp)
 1308 0a58 2000B1FF 	sd $17,32($sp)
 1309 0a5c 2D888000 	move $17,$4
 1310 0a60 A000BFFF 	sd $31,160($sp)
 1311 0a64 9000BEFF 	sd $fp,144($sp)
 1312 0a68 5000B4FF 	sd $20,80($sp)
 1313 0a6c 4000B3FF 	sd $19,64($sp)
 1314 0a70 3000B2FF 	sd $18,48($sp)
 1315 0a74 1000B0FF 	sd $16,16($sp)
 1316 0a78 08008490 	lbu $4,8($4)
 1317 0a7c 0C00348E 	lw $20,12($17)
 1318 0a80 02008230 	andi $2,$4,0x2
 1319 0a84 FF008530 	andi $5,$4,0x00ff
 1320 0a88 02004238 	xori $2,$2,0x2
 1321 0a8c 10008330 	andi $3,$4,0x10
 1322 0a90 FF005530 	andi $21,$2,0x00ff
 1323 0a94 01009730 	andi $23,$4,0x1
 1324              	.set noreorder
 1325              	.set nomacro
 1326 0a98 03006010 	beq $3,$0,$L107
 1327 0a9c 00B20500 	sll $22,$5,8
 1328              	.set macro
 1329              	.set reorder
 1330              	
 1331 0aa0 030020A2 	sb $0,3($17)
 1332 0aa4 050020A2 	sb $0,5($17)
 1333              	$L107:
 1334 0aa8 09002292 	lbu $2,9($17)
 1335              	
 1336              	.set noreorder
 1337              	.set nomacro
 1338 0aac 70174010 	beq $2,$0,$L108
 1339 0ab0 FFFF0334 	li $3,65535
 1340              	.set macro
 1341              	.set reorder
 1342              	
 1343 0ab4 FF000224 	li $2,255
 1344 0ab8 30008334 	ori $3,$4,0x30
 1345 0abc 0000A2AF 	sw $2,0($sp)
 1346 0ac0 00041E24 	li $fp,1024
 1347 0ac4 01000224 	li $2,1
 1348 0ac8 080023A2 	sb $3,8($17)
 1349 0acc 070022A2 	sb $2,7($17)
GAS LISTING  			page 25


 1350 0ad0 0A0020A6 	sh $0,10($17)
 1351              	$L109:
 1352 0ad4 1400228E 	lw $2,20($17)
 1353              	
 1354              	.set noreorder
 1355              	.set nomacro
 1356 0ad8 1B004058 	blezl $2,$L2158
 1357 0adc 08002392 	lbu $3,8($17)
 1358              	.set macro
 1359              	.set reorder
 1360              	
 1361 0ae0 2D288002 	move $5,$20
 1362              	$L2159:
 1363              	.set noreorder
 1364              	.set nomacro
 1365 0ae4 1A01000C 	jal _SNCPUFetch8
 1366 0ae8 2D202002 	move $4,$17
 1367              	.set macro
 1368              	.set reorder
 1369              	
 1370 0aec 25185E00 	or $3,$2,$fp
 1371 0af0 FF076330 	andi $3,$3,0x7ff
 1372 0af4 0005622C 	sltu $2,$3,1280
 1373              	.set noreorder
 1374              	.set nomacro
 1375 0af8 6D004010 	beq $2,$0,$L1605
 1376 0afc 01009426 	addu $20,$20,1
 1377              	.set macro
 1378              	.set reorder
 1379              	
 1380 0b00 80100300 	sll $2,$3,2
 1381 0b04 0000033C 	lui $3,%hi($L1606)
 1382 0b08 00006324 	addiu $3,$3,%lo($L1606)
 1383 0b0c 21104300 	addu $2,$2,$3
 1384 0b10 0000448C 	lw $4,0($2)
 1385              	
 1386 0b14 08008000 	j $4
 1386      00000000 
 1387              	.rdata
 1388              	.align 2
 1389              	$L1606:
 1390 0000 40350000 	.word $L1494
 1391 0004 AC0B0000 	.word $L1022
 1392 0008 6C370000 	.word $L1500
 1393 000c 2C0C0000 	.word $L967
 1394 0010 600C0000 	.word $L1393
 1395 0014 C00C0000 	.word $L972
 1396 0018 E40C0000 	.word $L1278
 1397 001c 3C0D0000 	.word $L977
 1398 0020 FC380000 	.word $L1426
 1399 0024 740D0000 	.word $L982
 1400 0028 8C0D0000 	.word $L1218
 1401 002c 80390000 	.word $L1470
 1402 0030 B40D0000 	.word $L1398
 1403 0034 D80D0000 	.word $L987
 1404 0038 F80D0000 	.word $L1283
 1405 003c 1C0E0000 	.word $L992
GAS LISTING  			page 26


 1406 0040 0C3A0000 	.word $L1529
 1407 0044 380E0000 	.word $L997
 1408 0048 800E0000 	.word $L1002
 1409 004c A80E0000 	.word $L1007
 1410 0050 080F0000 	.word $L1383
 1411 0054 540F0000 	.word $L1012
 1412 0058 980F0000 	.word $L1288
 1413 005c DC0F0000 	.word $L1017
 1414 0060 303C0000 	.word $L138
 1415 0064 1C100000 	.word $L1027
 1416 0068 44100000 	.word $L1213
 1417 006c C4350000 	.word $L179
 1418 0070 60100000 	.word $L1388
 1419 0074 84100000 	.word $L1032
 1420 0078 A8100000 	.word $L1293
 1421 007c 08110000 	.word $L1037
 1422 0080 583D0000 	.word $L1150
 1423 0084 28110000 	.word $L817
 1424 0088 083E0000 	.word $L1160
 1425 008c 9C110000 	.word $L822
 1426 0090 D0110000 	.word $L1358
 1427 0094 28120000 	.word $L827
 1428 0098 4C120000 	.word $L1318
 1429 009c 90120000 	.word $L832
 1430 00a0 5C3F0000 	.word $L1432
 1431 00a4 C8120000 	.word $L837
 1432 00a8 E0120000 	.word $L1228
 1433 00ac 24400000 	.word $L1475
 1434 00b0 0C130000 	.word $L1363
 1435 00b4 30130000 	.word $L842
 1436 00b8 50130000 	.word $L1323
 1437 00bc 78130000 	.word $L847
 1438 00c0 C8400000 	.word $L1535
 1439 00c4 94130000 	.word $L852
 1440 00c8 DC130000 	.word $L857
 1441 00cc 04140000 	.word $L862
 1442 00d0 64140000 	.word $L1368
 1443 00d4 A8140000 	.word $L867
 1444 00d8 EC140000 	.word $L1328
 1445 00dc 34150000 	.word $L872
 1446 00e0 D0420000 	.word $L143
 1447 00e4 74150000 	.word $L877
 1448 00e8 9C150000 	.word $L1208
 1449 00ec 14430000 	.word $L175
 1450 00f0 AC150000 	.word $L1373
 1451 00f4 D8150000 	.word $L882
 1452 00f8 FC150000 	.word $L1333
 1453 00fc 44160000 	.word $L887
 1454 0100 D8350000 	.word $L1199
 1455 0104 64160000 	.word $L892
 1456 0108 B00C0000 	.word $L1605
 1457 010c D8160000 	.word $L897
 1458 0110 702F0000 	.word $L1592
 1459 0114 0C170000 	.word $L902
 1460 0118 30170000 	.word $L1298
 1461 011c 80170000 	.word $L907
 1462 0120 B8170000 	.word $L1437
GAS LISTING  			page 27


 1463 0124 D0170000 	.word $L912
 1464 0128 E8170000 	.word $L1223
 1465 012c 8C460000 	.word $L1421
 1466 0130 9C460000 	.word $L1155
 1467 0134 FC170000 	.word $L917
 1468 0138 1C180000 	.word $L1303
 1469 013c 40180000 	.word $L922
 1470 0140 20470000 	.word $L1565
 1471 0144 5C180000 	.word $L927
 1472 0148 A4180000 	.word $L932
 1473 014c CC180000 	.word $L937
 1474 0150 08300000 	.word $L1585
 1475 0154 2C190000 	.word $L942
 1476 0158 70190000 	.word $L1308
 1477 015c B4190000 	.word $L947
 1478 0160 60490000 	.word $L128
 1479 0164 F4190000 	.word $L952
 1480 0168 90300000 	.word $L1457
 1481 016c A0490000 	.word $L165
 1482 0170 B4490000 	.word $L1165
 1483 0174 1C1A0000 	.word $L957
 1484 0178 401A0000 	.word $L1313
 1485 017c 9C1A0000 	.word $L962
 1486 0180 744A0000 	.word $L1190
 1487 0184 BC1A0000 	.word $L242
 1488 0188 684B0000 	.word $L1406
 1489 018c 941B0000 	.word $L253
 1490 0190 C81B0000 	.word $L747
 1491 0194 041C0000 	.word $L264
 1492 0198 281C0000 	.word $L1338
 1493 019c 701C0000 	.word $L275
 1494 01a0 A81C0000 	.word $L1442
 1495 01a4 CC1C0000 	.word $L286
 1496 01a8 181D0000 	.word $L1233
 1497 01ac 344D0000 	.word $L1195
 1498 01b0 504D0000 	.word $L1170
 1499 01b4 481D0000 	.word $L297
 1500 01b8 681D0000 	.word $L1343
 1501 01bc 941D0000 	.word $L308
 1502 01c0 F04D0000 	.word $L1571
 1503 01c4 C01D0000 	.word $L319
 1504 01c8 081E0000 	.word $L330
 1505 01cc 301E0000 	.word $L341
 1506 01d0 901E0000 	.word $L752
 1507 01d4 D81E0000 	.word $L352
 1508 01d8 1C1F0000 	.word $L1348
 1509 01dc 681F0000 	.word $L363
 1510 01e0 1C0B0000 	.word $L123
 1511 01e4 A81F0000 	.word $L374
 1512 01e8 98300000 	.word $L1462
 1513 01ec 3C500000 	.word $L170
 1514 01f0 44500000 	.word $L1185
 1515 01f4 D01F0000 	.word $L385
 1516 01f8 F41F0000 	.word $L1353
 1517 01fc 40200000 	.word $L396
 1518 0200 24510000 	.word $L1577
 1519 0204 60200000 	.word $L662
GAS LISTING  			page 28


 1520 0208 9C510000 	.word $L1583
 1521 020c C0200000 	.word $L667
 1522 0210 B4300000 	.word $L732
 1523 0214 F4200000 	.word $L672
 1524 0218 D8300000 	.word $L717
 1525 021c 18210000 	.word $L677
 1526 0220 FC300000 	.word $L227
 1527 0224 54210000 	.word $L1378
 1528 0228 70210000 	.word $L182
 1529 022c 08530000 	.word $L1480
 1530 0230 20310000 	.word $L737
 1531 0234 88210000 	.word $L647
 1532 0238 44310000 	.word $L722
 1533 023c A8210000 	.word $L652
 1534 0240 98530000 	.word $L1553
 1535 0244 C8210000 	.word $L682
 1536 0248 20220000 	.word $L687
 1537 024c 48220000 	.word $L692
 1538 0250 68310000 	.word $L742
 1539 0254 78220000 	.word $L697
 1540 0258 A4310000 	.word $L727
 1541 025c B8220000 	.word $L702
 1542 0260 FC220000 	.word $L187
 1543 0264 04230000 	.word $L707
 1544 0268 74360000 	.word $L214
 1545 026c E0310000 	.word $L202
 1546 0270 24230000 	.word $L757
 1547 0274 48230000 	.word $L712
 1548 0278 70230000 	.word $L762
 1549 027c A4230000 	.word $L657
 1550 0280 F4310000 	.word $L792
 1551 0284 C4230000 	.word $L592
 1552 0288 14320000 	.word $L767
 1553 028c 38240000 	.word $L597
 1554 0290 34320000 	.word $L797
 1555 0294 6C240000 	.word $L602
 1556 0298 68320000 	.word $L772
 1557 029c 90240000 	.word $L607
 1558 02a0 9C320000 	.word $L192
 1559 02a4 C8240000 	.word $L572
 1560 02a8 A4320000 	.word $L197
 1561 02ac 30580000 	.word $L1485
 1562 02b0 B8320000 	.word $L802
 1563 02b4 E0240000 	.word $L577
 1564 02b8 DC320000 	.word $L777
 1565 02bc 00250000 	.word $L582
 1566 02c0 DC580000 	.word $L1559
 1567 02c4 1C250000 	.word $L612
 1568 02c8 64250000 	.word $L617
 1569 02cc 8C250000 	.word $L622
 1570 02d0 00330000 	.word $L807
 1571 02d4 EC250000 	.word $L627
 1572 02d8 44330000 	.word $L782
 1573 02dc 30260000 	.word $L632
 1574 02e0 D45A0000 	.word $L133
 1575 02e4 70260000 	.word $L637
 1576 02e8 88330000 	.word $L217
GAS LISTING  			page 29


 1577 02ec 90330000 	.word $L207
 1578 02f0 98330000 	.word $L812
 1579 02f4 98260000 	.word $L642
 1580 02f8 C4330000 	.word $L787
 1581 02fc BC260000 	.word $L587
 1582 0300 F0330000 	.word $L1132
 1583 0304 DC260000 	.word $L1042
 1584 0308 5C5C0000 	.word $L1519
 1585 030c 5C270000 	.word $L1047
 1586 0310 0C340000 	.word $L1137
 1587 0314 90270000 	.word $L1052
 1588 0318 B4270000 	.word $L1238
 1589 031c F0270000 	.word $L1057
 1590 0320 40340000 	.word $L237
 1591 0324 28280000 	.word $L1062
 1592 0328 50340000 	.word $L222
 1593 032c 245E0000 	.word $L1602
 1594 0330 74340000 	.word $L1142
 1595 0334 40280000 	.word $L1067
 1596 0338 60280000 	.word $L1243
 1597 033c 84280000 	.word $L1072
 1598 0340 D45E0000 	.word $L1547
 1599 0344 A0280000 	.word $L1077
 1600 0348 E8280000 	.word $L1082
 1601 034c 10290000 	.word $L1087
 1602 0350 C05F0000 	.word $L1416
 1603 0354 70290000 	.word $L1092
 1604 0358 B4290000 	.word $L1248
 1605 035c F8290000 	.word $L1097
 1606 0360 D8600000 	.word $L148
 1607 0364 382A0000 	.word $L1102
 1608 0368 98340000 	.word $L1447
 1609 036c B00C0000 	.word $L1605
 1610 0370 18610000 	.word $L1175
 1611 0374 602A0000 	.word $L1107
 1612 0378 842A0000 	.word $L1253
 1613 037c C42A0000 	.word $L1112
 1614 0380 A0340000 	.word $L1117
 1615 0384 E42A0000 	.word $L407
 1616 0388 9C620000 	.word $L1508
 1617 038c A82B0000 	.word $L418
 1618 0390 BC340000 	.word $L1122
 1619 0394 DC2B0000 	.word $L429
 1620 0398 002C0000 	.word $L1258
 1621 039c 382C0000 	.word $L440
 1622 03a0 F0340000 	.word $L232
 1623 03a4 702C0000 	.word $L451
 1624 03a8 B00C0000 	.word $L1605
 1625 03ac 88640000 	.word $L1490
 1626 03b0 00350000 	.word $L1127
 1627 03b4 C02C0000 	.word $L462
 1628 03b8 E02C0000 	.word $L1263
 1629 03bc 042D0000 	.word $L473
 1630 03c0 44650000 	.word $L1541
 1631 03c4 302D0000 	.word $L484
 1632 03c8 782D0000 	.word $L495
 1633 03cc A02D0000 	.word $L506
GAS LISTING  			page 30


 1634 03d0 30660000 	.word $L1411
 1635 03d4 002E0000 	.word $L517
 1636 03d8 442E0000 	.word $L1268
 1637 03dc 882E0000 	.word $L528
 1638 03e0 14670000 	.word $L153
 1639 03e4 C82E0000 	.word $L539
 1640 03e8 24350000 	.word $L1452
 1641 03ec 68670000 	.word $L158
 1642 03f0 A0670000 	.word $L1180
 1643 03f4 F02E0000 	.word $L550
 1644 03f8 142F0000 	.word $L1273
 1645 03fc 502F0000 	.word $L561
 1646 0400 40350000 	.word $L1494
 1647 0404 AC0B0000 	.word $L1022
 1648 0408 6C370000 	.word $L1500
 1649 040c 2C0C0000 	.word $L967
 1650 0410 600C0000 	.word $L1393
 1651 0414 C00C0000 	.word $L972
 1652 0418 E40C0000 	.word $L1278
 1653 041c 3C0D0000 	.word $L977
 1654 0420 FC380000 	.word $L1426
 1655 0424 740D0000 	.word $L982
 1656 0428 8C0D0000 	.word $L1218
 1657 042c 80390000 	.word $L1470
 1658 0430 B40D0000 	.word $L1398
 1659 0434 D80D0000 	.word $L987
 1660 0438 F80D0000 	.word $L1283
 1661 043c 1C0E0000 	.word $L992
 1662 0440 0C3A0000 	.word $L1529
 1663 0444 380E0000 	.word $L997
 1664 0448 800E0000 	.word $L1002
 1665 044c A80E0000 	.word $L1007
 1666 0450 080F0000 	.word $L1383
 1667 0454 540F0000 	.word $L1012
 1668 0458 980F0000 	.word $L1288
 1669 045c DC0F0000 	.word $L1017
 1670 0460 303C0000 	.word $L138
 1671 0464 1C100000 	.word $L1027
 1672 0468 44100000 	.word $L1213
 1673 046c C4350000 	.word $L179
 1674 0470 60100000 	.word $L1388
 1675 0474 84100000 	.word $L1032
 1676 0478 A8100000 	.word $L1293
 1677 047c 08110000 	.word $L1037
 1678 0480 583D0000 	.word $L1150
 1679 0484 28110000 	.word $L817
 1680 0488 083E0000 	.word $L1160
 1681 048c 9C110000 	.word $L822
 1682 0490 D0110000 	.word $L1358
 1683 0494 28120000 	.word $L827
 1684 0498 4C120000 	.word $L1318
 1685 049c 90120000 	.word $L832
 1686 04a0 5C3F0000 	.word $L1432
 1687 04a4 C8120000 	.word $L837
 1688 04a8 E0120000 	.word $L1228
 1689 04ac 24400000 	.word $L1475
 1690 04b0 0C130000 	.word $L1363
GAS LISTING  			page 31


 1691 04b4 30130000 	.word $L842
 1692 04b8 50130000 	.word $L1323
 1693 04bc 78130000 	.word $L847
 1694 04c0 C8400000 	.word $L1535
 1695 04c4 94130000 	.word $L852
 1696 04c8 DC130000 	.word $L857
 1697 04cc 04140000 	.word $L862
 1698 04d0 64140000 	.word $L1368
 1699 04d4 A8140000 	.word $L867
 1700 04d8 EC140000 	.word $L1328
 1701 04dc 34150000 	.word $L872
 1702 04e0 D0420000 	.word $L143
 1703 04e4 74150000 	.word $L877
 1704 04e8 9C150000 	.word $L1208
 1705 04ec 14430000 	.word $L175
 1706 04f0 AC150000 	.word $L1373
 1707 04f4 D8150000 	.word $L882
 1708 04f8 FC150000 	.word $L1333
 1709 04fc 44160000 	.word $L887
 1710 0500 D8350000 	.word $L1199
 1711 0504 64160000 	.word $L892
 1712 0508 B00C0000 	.word $L1605
 1713 050c D8160000 	.word $L897
 1714 0510 1C450000 	.word $L1596
 1715 0514 0C170000 	.word $L902
 1716 0518 30170000 	.word $L1298
 1717 051c 80170000 	.word $L907
 1718 0520 B8170000 	.word $L1437
 1719 0524 D0170000 	.word $L912
 1720 0528 E8170000 	.word $L1223
 1721 052c 8C460000 	.word $L1421
 1722 0530 9C460000 	.word $L1155
 1723 0534 FC170000 	.word $L917
 1724 0538 1C180000 	.word $L1303
 1725 053c 40180000 	.word $L922
 1726 0540 20470000 	.word $L1565
 1727 0544 5C180000 	.word $L927
 1728 0548 A4180000 	.word $L932
 1729 054c CC180000 	.word $L937
 1730 0550 10480000 	.word $L1589
 1731 0554 2C190000 	.word $L942
 1732 0558 70190000 	.word $L1308
 1733 055c B4190000 	.word $L947
 1734 0560 60490000 	.word $L128
 1735 0564 F4190000 	.word $L952
 1736 0568 98490000 	.word $L1460
 1737 056c A0490000 	.word $L165
 1738 0570 B4490000 	.word $L1165
 1739 0574 1C1A0000 	.word $L957
 1740 0578 401A0000 	.word $L1313
 1741 057c 9C1A0000 	.word $L962
 1742 0580 744A0000 	.word $L1190
 1743 0584 BC1A0000 	.word $L242
 1744 0588 684B0000 	.word $L1406
 1745 058c 941B0000 	.word $L253
 1746 0590 C81B0000 	.word $L747
 1747 0594 041C0000 	.word $L264
GAS LISTING  			page 32


 1748 0598 281C0000 	.word $L1338
 1749 059c 701C0000 	.word $L275
 1750 05a0 A81C0000 	.word $L1442
 1751 05a4 CC1C0000 	.word $L286
 1752 05a8 181D0000 	.word $L1233
 1753 05ac 344D0000 	.word $L1195
 1754 05b0 504D0000 	.word $L1170
 1755 05b4 481D0000 	.word $L297
 1756 05b8 681D0000 	.word $L1343
 1757 05bc 941D0000 	.word $L308
 1758 05c0 F04D0000 	.word $L1571
 1759 05c4 C01D0000 	.word $L319
 1760 05c8 081E0000 	.word $L330
 1761 05cc 301E0000 	.word $L341
 1762 05d0 901E0000 	.word $L752
 1763 05d4 D81E0000 	.word $L352
 1764 05d8 1C1F0000 	.word $L1348
 1765 05dc 681F0000 	.word $L363
 1766 05e0 1C0B0000 	.word $L123
 1767 05e4 A81F0000 	.word $L374
 1768 05e8 20500000 	.word $L1465
 1769 05ec 3C500000 	.word $L170
 1770 05f0 44500000 	.word $L1185
 1771 05f4 D01F0000 	.word $L385
 1772 05f8 F41F0000 	.word $L1353
 1773 05fc 40200000 	.word $L396
 1774 0600 24510000 	.word $L1577
 1775 0604 60200000 	.word $L662
 1776 0608 9C510000 	.word $L1583
 1777 060c C0200000 	.word $L667
 1778 0610 08520000 	.word $L735
 1779 0614 F4200000 	.word $L672
 1780 0618 50520000 	.word $L720
 1781 061c 18210000 	.word $L677
 1782 0620 B0520000 	.word $L230
 1783 0624 54210000 	.word $L1378
 1784 0628 70210000 	.word $L182
 1785 062c 08530000 	.word $L1480
 1786 0630 10530000 	.word $L740
 1787 0634 88210000 	.word $L647
 1788 0638 54530000 	.word $L725
 1789 063c A8210000 	.word $L652
 1790 0640 98530000 	.word $L1553
 1791 0644 C8210000 	.word $L682
 1792 0648 20220000 	.word $L687
 1793 064c 48220000 	.word $L692
 1794 0650 64540000 	.word $L745
 1795 0654 78220000 	.word $L697
 1796 0658 E0540000 	.word $L730
 1797 065c B8220000 	.word $L702
 1798 0660 FC220000 	.word $L187
 1799 0664 04230000 	.word $L707
 1800 0668 74360000 	.word $L214
 1801 066c 94550000 	.word $L205
 1802 0670 24230000 	.word $L757
 1803 0674 48230000 	.word $L712
 1804 0678 70230000 	.word $L762
GAS LISTING  			page 33


 1805 067c A4230000 	.word $L657
 1806 0680 44560000 	.word $L795
 1807 0684 C4230000 	.word $L592
 1808 0688 D8560000 	.word $L770
 1809 068c 38240000 	.word $L597
 1810 0690 2C570000 	.word $L800
 1811 0694 6C240000 	.word $L602
 1812 0698 84570000 	.word $L775
 1813 069c 90240000 	.word $L607
 1814 06a0 F0570000 	.word $L195
 1815 06a4 C8240000 	.word $L572
 1816 06a8 1C580000 	.word $L200
 1817 06ac 30580000 	.word $L1485
 1818 06b0 58580000 	.word $L805
 1819 06b4 E0240000 	.word $L577
 1820 06b8 9C580000 	.word $L780
 1821 06bc 00250000 	.word $L582
 1822 06c0 DC580000 	.word $L1559
 1823 06c4 1C250000 	.word $L612
 1824 06c8 64250000 	.word $L617
 1825 06cc 8C250000 	.word $L622
 1826 06d0 C8590000 	.word $L810
 1827 06d4 EC250000 	.word $L627
 1828 06d8 505A0000 	.word $L785
 1829 06dc 30260000 	.word $L632
 1830 06e0 D45A0000 	.word $L133
 1831 06e4 70260000 	.word $L637
 1832 06e8 0C5B0000 	.word $L220
 1833 06ec 145B0000 	.word $L210
 1834 06f0 245B0000 	.word $L815
 1835 06f4 98260000 	.word $L642
 1836 06f8 745B0000 	.word $L790
 1837 06fc BC260000 	.word $L587
 1838 0700 C05B0000 	.word $L1135
 1839 0704 DC260000 	.word $L1042
 1840 0708 5C5C0000 	.word $L1519
 1841 070c 5C270000 	.word $L1047
 1842 0710 0C5D0000 	.word $L1140
 1843 0714 90270000 	.word $L1052
 1844 0718 B4270000 	.word $L1238
 1845 071c F0270000 	.word $L1057
 1846 0720 D85D0000 	.word $L240
 1847 0724 28280000 	.word $L1062
 1848 0728 005E0000 	.word $L225
 1849 072c 245E0000 	.word $L1602
 1850 0730 505E0000 	.word $L1145
 1851 0734 40280000 	.word $L1067
 1852 0738 60280000 	.word $L1243
 1853 073c 84280000 	.word $L1072
 1854 0740 D45E0000 	.word $L1547
 1855 0744 A0280000 	.word $L1077
 1856 0748 E8280000 	.word $L1082
 1857 074c 10290000 	.word $L1087
 1858 0750 C05F0000 	.word $L1416
 1859 0754 70290000 	.word $L1092
 1860 0758 B4290000 	.word $L1248
 1861 075c F8290000 	.word $L1097
GAS LISTING  			page 34


 1862 0760 D8600000 	.word $L148
 1863 0764 382A0000 	.word $L1102
 1864 0768 10610000 	.word $L1450
 1865 076c B00C0000 	.word $L1605
 1866 0770 18610000 	.word $L1175
 1867 0774 602A0000 	.word $L1107
 1868 0778 842A0000 	.word $L1253
 1869 077c C42A0000 	.word $L1112
 1870 0780 BC610000 	.word $L1120
 1871 0784 E42A0000 	.word $L407
 1872 0788 9C620000 	.word $L1508
 1873 078c A82B0000 	.word $L418
 1874 0790 60630000 	.word $L1125
 1875 0794 DC2B0000 	.word $L429
 1876 0798 002C0000 	.word $L1258
 1877 079c 382C0000 	.word $L440
 1878 07a0 28640000 	.word $L235
 1879 07a4 702C0000 	.word $L451
 1880 07a8 B00C0000 	.word $L1605
 1881 07ac 88640000 	.word $L1490
 1882 07b0 B0640000 	.word $L1130
 1883 07b4 C02C0000 	.word $L462
 1884 07b8 E02C0000 	.word $L1263
 1885 07bc 042D0000 	.word $L473
 1886 07c0 44650000 	.word $L1541
 1887 07c4 302D0000 	.word $L484
 1888 07c8 782D0000 	.word $L495
 1889 07cc A02D0000 	.word $L506
 1890 07d0 30660000 	.word $L1411
 1891 07d4 002E0000 	.word $L517
 1892 07d8 442E0000 	.word $L1268
 1893 07dc 882E0000 	.word $L528
 1894 07e0 14670000 	.word $L153
 1895 07e4 C82E0000 	.word $L539
 1896 07e8 4C670000 	.word $L1455
 1897 07ec 68670000 	.word $L158
 1898 07f0 A0670000 	.word $L1180
 1899 07f4 F02E0000 	.word $L550
 1900 07f8 142F0000 	.word $L1273
 1901 07fc 502F0000 	.word $L561
 1902 0800 40350000 	.word $L1494
 1903 0804 F0360000 	.word $L1025
 1904 0808 6C370000 	.word $L1500
 1905 080c C0370000 	.word $L970
 1906 0810 F4370000 	.word $L1396
 1907 0814 50380000 	.word $L975
 1908 0818 74380000 	.word $L1281
 1909 081c C4380000 	.word $L980
 1910 0820 FC380000 	.word $L1426
 1911 0824 44390000 	.word $L985
 1912 0828 5C390000 	.word $L1221
 1913 082c 80390000 	.word $L1470
 1914 0830 88390000 	.word $L1401
 1915 0834 AC390000 	.word $L990
 1916 0838 CC390000 	.word $L1286
 1917 083c F0390000 	.word $L995
 1918 0840 0C3A0000 	.word $L1529
GAS LISTING  			page 35


 1919 0844 443A0000 	.word $L1000
 1920 0848 8C3A0000 	.word $L1005
 1921 084c B43A0000 	.word $L1010
 1922 0850 143B0000 	.word $L1386
 1923 0854 683B0000 	.word $L1015
 1924 0858 AC3B0000 	.word $L1291
 1925 085c F03B0000 	.word $L1020
 1926 0860 303C0000 	.word $L138
 1927 0864 3C3C0000 	.word $L1030
 1928 0868 643C0000 	.word $L1216
 1929 086c C4350000 	.word $L179
 1930 0870 9C3C0000 	.word $L1391
 1931 0874 C03C0000 	.word $L1035
 1932 0878 E43C0000 	.word $L1296
 1933 087c 383D0000 	.word $L1040
 1934 0880 583D0000 	.word $L1150
 1935 0884 943D0000 	.word $L820
 1936 0888 083E0000 	.word $L1160
 1937 088c 303E0000 	.word $L825
 1938 0890 643E0000 	.word $L1361
 1939 0894 BC3E0000 	.word $L830
 1940 0898 E03E0000 	.word $L1321
 1941 089c 243F0000 	.word $L835
 1942 08a0 5C3F0000 	.word $L1432
 1943 08a4 DC3F0000 	.word $L840
 1944 08a8 F43F0000 	.word $L1231
 1945 08ac 24400000 	.word $L1475
 1946 08b0 40400000 	.word $L1366
 1947 08b4 64400000 	.word $L845
 1948 08b8 84400000 	.word $L1326
 1949 08bc AC400000 	.word $L850
 1950 08c0 C8400000 	.word $L1535
 1951 08c4 F0400000 	.word $L855
 1952 08c8 38410000 	.word $L860
 1953 08cc 60410000 	.word $L865
 1954 08d0 C0410000 	.word $L1371
 1955 08d4 04420000 	.word $L870
 1956 08d8 48420000 	.word $L1331
 1957 08dc 90420000 	.word $L875
 1958 08e0 D0420000 	.word $L143
 1959 08e4 DC420000 	.word $L880
 1960 08e8 04430000 	.word $L1211
 1961 08ec 14430000 	.word $L175
 1962 08f0 1C430000 	.word $L1376
 1963 08f4 48430000 	.word $L885
 1964 08f8 6C430000 	.word $L1336
 1965 08fc B4430000 	.word $L890
 1966 0900 D8350000 	.word $L1199
 1967 0904 74440000 	.word $L895
 1968 0908 B00C0000 	.word $L1605
 1969 090c E8440000 	.word $L900
 1970 0910 702F0000 	.word $L1592
 1971 0914 AC450000 	.word $L905
 1972 0918 D0450000 	.word $L1301
 1973 091c 20460000 	.word $L910
 1974 0920 58460000 	.word $L1440
 1975 0924 60460000 	.word $L915
GAS LISTING  			page 36


 1976 0928 78460000 	.word $L1226
 1977 092c 8C460000 	.word $L1421
 1978 0930 9C460000 	.word $L1155
 1979 0934 C0460000 	.word $L920
 1980 0938 E0460000 	.word $L1306
 1981 093c 04470000 	.word $L925
 1982 0940 20470000 	.word $L1565
 1983 0944 40470000 	.word $L930
 1984 0948 88470000 	.word $L935
 1985 094c B0470000 	.word $L940
 1986 0950 08300000 	.word $L1585
 1987 0954 98480000 	.word $L945
 1988 0958 DC480000 	.word $L1311
 1989 095c 20490000 	.word $L950
 1990 0960 60490000 	.word $L128
 1991 0964 70490000 	.word $L955
 1992 0968 90300000 	.word $L1457
 1993 096c A0490000 	.word $L165
 1994 0970 B4490000 	.word $L1165
 1995 0974 D4490000 	.word $L960
 1996 0978 F8490000 	.word $L1316
 1997 097c 544A0000 	.word $L965
 1998 0980 744A0000 	.word $L1190
 1999 0984 984A0000 	.word $L248
 2000 0988 684B0000 	.word $L1406
 2001 098c 884B0000 	.word $L259
 2002 0990 BC4B0000 	.word $L750
 2003 0994 F84B0000 	.word $L270
 2004 0998 1C4C0000 	.word $L1341
 2005 099c 644C0000 	.word $L281
 2006 09a0 9C4C0000 	.word $L1445
 2007 09a4 B84C0000 	.word $L292
 2008 09a8 044D0000 	.word $L1236
 2009 09ac 344D0000 	.word $L1195
 2010 09b0 504D0000 	.word $L1170
 2011 09b4 784D0000 	.word $L303
 2012 09b8 984D0000 	.word $L1346
 2013 09bc C44D0000 	.word $L314
 2014 09c0 F04D0000 	.word $L1571
 2015 09c4 104E0000 	.word $L325
 2016 09c8 584E0000 	.word $L336
 2017 09cc 804E0000 	.word $L347
 2018 09d0 E04E0000 	.word $L755
 2019 09d4 284F0000 	.word $L358
 2020 09d8 6C4F0000 	.word $L1351
 2021 09dc B84F0000 	.word $L369
 2022 09e0 1C0B0000 	.word $L123
 2023 09e4 F84F0000 	.word $L380
 2024 09e8 98300000 	.word $L1462
 2025 09ec 3C500000 	.word $L170
 2026 09f0 44500000 	.word $L1185
 2027 09f4 94500000 	.word $L391
 2028 09f8 B8500000 	.word $L1356
 2029 09fc 04510000 	.word $L402
 2030 0a00 24510000 	.word $L1577
 2031 0a04 3C510000 	.word $L665
 2032 0a08 9C510000 	.word $L1583
GAS LISTING  			page 37


 2033 0a0c D4510000 	.word $L670
 2034 0a10 B4300000 	.word $L732
 2035 0a14 2C520000 	.word $L675
 2036 0a18 D8300000 	.word $L717
 2037 0a1c 74520000 	.word $L680
 2038 0a20 FC300000 	.word $L227
 2039 0a24 D4520000 	.word $L1381
 2040 0a28 F4520000 	.word $L185
 2041 0a2c 08530000 	.word $L1480
 2042 0a30 20310000 	.word $L737
 2043 0a34 34530000 	.word $L650
 2044 0a38 44310000 	.word $L722
 2045 0a3c 78530000 	.word $L655
 2046 0a40 98530000 	.word $L1553
 2047 0a44 B4530000 	.word $L685
 2048 0a48 0C540000 	.word $L690
 2049 0a4c 34540000 	.word $L695
 2050 0a50 68310000 	.word $L742
 2051 0a54 A4540000 	.word $L700
 2052 0a58 A4310000 	.word $L727
 2053 0a5c 1C550000 	.word $L705
 2054 0a60 60550000 	.word $L190
 2055 0a64 68550000 	.word $L710
 2056 0a68 74360000 	.word $L214
 2057 0a6c E0310000 	.word $L202
 2058 0a70 A4550000 	.word $L760
 2059 0a74 C8550000 	.word $L715
 2060 0a78 F0550000 	.word $L765
 2061 0a7c 24560000 	.word $L660
 2062 0a80 F4310000 	.word $L792
 2063 0a84 64560000 	.word $L595
 2064 0a88 14320000 	.word $L767
 2065 0a8c F8560000 	.word $L600
 2066 0a90 34320000 	.word $L797
 2067 0a94 60570000 	.word $L605
 2068 0a98 68320000 	.word $L772
 2069 0a9c B8570000 	.word $L610
 2070 0aa0 9C320000 	.word $L192
 2071 0aa4 04580000 	.word $L575
 2072 0aa8 A4320000 	.word $L197
 2073 0aac 30580000 	.word $L1485
 2074 0ab0 B8320000 	.word $L802
 2075 0ab4 7C580000 	.word $L580
 2076 0ab8 DC320000 	.word $L777
 2077 0abc C0580000 	.word $L585
 2078 0ac0 DC580000 	.word $L1559
 2079 0ac4 F8580000 	.word $L615
 2080 0ac8 40590000 	.word $L620
 2081 0acc 68590000 	.word $L625
 2082 0ad0 00330000 	.word $L807
 2083 0ad4 0C5A0000 	.word $L630
 2084 0ad8 44330000 	.word $L782
 2085 0adc 945A0000 	.word $L635
 2086 0ae0 D45A0000 	.word $L133
 2087 0ae4 E45A0000 	.word $L640
 2088 0ae8 88330000 	.word $L217
 2089 0aec 90330000 	.word $L207
GAS LISTING  			page 38


 2090 0af0 98330000 	.word $L812
 2091 0af4 505B0000 	.word $L645
 2092 0af8 C4330000 	.word $L787
 2093 0afc A05B0000 	.word $L590
 2094 0b00 F0330000 	.word $L1132
 2095 0b04 EC5B0000 	.word $L1045
 2096 0b08 5C5C0000 	.word $L1519
 2097 0b0c D85C0000 	.word $L1050
 2098 0b10 0C340000 	.word $L1137
 2099 0b14 405D0000 	.word $L1055
 2100 0b18 645D0000 	.word $L1241
 2101 0b1c A05D0000 	.word $L1060
 2102 0b20 40340000 	.word $L237
 2103 0b24 E85D0000 	.word $L1065
 2104 0b28 50340000 	.word $L222
 2105 0b2c 245E0000 	.word $L1602
 2106 0b30 74340000 	.word $L1142
 2107 0b34 745E0000 	.word $L1070
 2108 0b38 945E0000 	.word $L1246
 2109 0b3c B85E0000 	.word $L1075
 2110 0b40 D45E0000 	.word $L1547
 2111 0b44 F05E0000 	.word $L1080
 2112 0b48 385F0000 	.word $L1085
 2113 0b4c 605F0000 	.word $L1090
 2114 0b50 C05F0000 	.word $L1416
 2115 0b54 10600000 	.word $L1095
 2116 0b58 54600000 	.word $L1251
 2117 0b5c 98600000 	.word $L1100
 2118 0b60 D8600000 	.word $L148
 2119 0b64 E8600000 	.word $L1105
 2120 0b68 98340000 	.word $L1447
 2121 0b6c B00C0000 	.word $L1605
 2122 0b70 18610000 	.word $L1175
 2123 0b74 38610000 	.word $L1110
 2124 0b78 5C610000 	.word $L1256
 2125 0b7c 9C610000 	.word $L1115
 2126 0b80 A0340000 	.word $L1117
 2127 0b84 D8610000 	.word $L413
 2128 0b88 9C620000 	.word $L1508
 2129 0b8c 2C630000 	.word $L424
 2130 0b90 BC340000 	.word $L1122
 2131 0b94 94630000 	.word $L435
 2132 0b98 B8630000 	.word $L1261
 2133 0b9c F0630000 	.word $L446
 2134 0ba0 F0340000 	.word $L232
 2135 0ba4 38640000 	.word $L457
 2136 0ba8 B00C0000 	.word $L1605
 2137 0bac 88640000 	.word $L1490
 2138 0bb0 00350000 	.word $L1127
 2139 0bb4 D4640000 	.word $L468
 2140 0bb8 F4640000 	.word $L1266
 2141 0bbc 18650000 	.word $L479
 2142 0bc0 44650000 	.word $L1541
 2143 0bc4 60650000 	.word $L490
 2144 0bc8 A8650000 	.word $L501
 2145 0bcc D0650000 	.word $L512
 2146 0bd0 30660000 	.word $L1411
GAS LISTING  			page 39


 2147 0bd4 4C660000 	.word $L523
 2148 0bd8 90660000 	.word $L1271
 2149 0bdc D4660000 	.word $L534
 2150 0be0 14670000 	.word $L153
 2151 0be4 24670000 	.word $L545
 2152 0be8 24350000 	.word $L1452
 2153 0bec 68670000 	.word $L158
 2154 0bf0 A0670000 	.word $L1180
 2155 0bf4 EC670000 	.word $L556
 2156 0bf8 10680000 	.word $L1276
 2157 0bfc 4C680000 	.word $L567
 2158 0c00 40350000 	.word $L1494
 2159 0c04 F0360000 	.word $L1025
 2160 0c08 6C370000 	.word $L1500
 2161 0c0c C0370000 	.word $L970
 2162 0c10 F4370000 	.word $L1396
 2163 0c14 50380000 	.word $L975
 2164 0c18 74380000 	.word $L1281
 2165 0c1c C4380000 	.word $L980
 2166 0c20 FC380000 	.word $L1426
 2167 0c24 44390000 	.word $L985
 2168 0c28 5C390000 	.word $L1221
 2169 0c2c 80390000 	.word $L1470
 2170 0c30 88390000 	.word $L1401
 2171 0c34 AC390000 	.word $L990
 2172 0c38 CC390000 	.word $L1286
 2173 0c3c F0390000 	.word $L995
 2174 0c40 0C3A0000 	.word $L1529
 2175 0c44 443A0000 	.word $L1000
 2176 0c48 8C3A0000 	.word $L1005
 2177 0c4c B43A0000 	.word $L1010
 2178 0c50 143B0000 	.word $L1386
 2179 0c54 683B0000 	.word $L1015
 2180 0c58 AC3B0000 	.word $L1291
 2181 0c5c F03B0000 	.word $L1020
 2182 0c60 303C0000 	.word $L138
 2183 0c64 3C3C0000 	.word $L1030
 2184 0c68 643C0000 	.word $L1216
 2185 0c6c C4350000 	.word $L179
 2186 0c70 9C3C0000 	.word $L1391
 2187 0c74 C03C0000 	.word $L1035
 2188 0c78 E43C0000 	.word $L1296
 2189 0c7c 383D0000 	.word $L1040
 2190 0c80 583D0000 	.word $L1150
 2191 0c84 943D0000 	.word $L820
 2192 0c88 083E0000 	.word $L1160
 2193 0c8c 303E0000 	.word $L825
 2194 0c90 643E0000 	.word $L1361
 2195 0c94 BC3E0000 	.word $L830
 2196 0c98 E03E0000 	.word $L1321
 2197 0c9c 243F0000 	.word $L835
 2198 0ca0 5C3F0000 	.word $L1432
 2199 0ca4 DC3F0000 	.word $L840
 2200 0ca8 F43F0000 	.word $L1231
 2201 0cac 24400000 	.word $L1475
 2202 0cb0 40400000 	.word $L1366
 2203 0cb4 64400000 	.word $L845
GAS LISTING  			page 40


 2204 0cb8 84400000 	.word $L1326
 2205 0cbc AC400000 	.word $L850
 2206 0cc0 C8400000 	.word $L1535
 2207 0cc4 F0400000 	.word $L855
 2208 0cc8 38410000 	.word $L860
 2209 0ccc 60410000 	.word $L865
 2210 0cd0 C0410000 	.word $L1371
 2211 0cd4 04420000 	.word $L870
 2212 0cd8 48420000 	.word $L1331
 2213 0cdc 90420000 	.word $L875
 2214 0ce0 D0420000 	.word $L143
 2215 0ce4 DC420000 	.word $L880
 2216 0ce8 04430000 	.word $L1211
 2217 0cec 14430000 	.word $L175
 2218 0cf0 1C430000 	.word $L1376
 2219 0cf4 48430000 	.word $L885
 2220 0cf8 6C430000 	.word $L1336
 2221 0cfc B4430000 	.word $L890
 2222 0d00 D8350000 	.word $L1199
 2223 0d04 74440000 	.word $L895
 2224 0d08 B00C0000 	.word $L1605
 2225 0d0c E8440000 	.word $L900
 2226 0d10 1C450000 	.word $L1596
 2227 0d14 AC450000 	.word $L905
 2228 0d18 D0450000 	.word $L1301
 2229 0d1c 20460000 	.word $L910
 2230 0d20 58460000 	.word $L1440
 2231 0d24 60460000 	.word $L915
 2232 0d28 78460000 	.word $L1226
 2233 0d2c 8C460000 	.word $L1421
 2234 0d30 9C460000 	.word $L1155
 2235 0d34 C0460000 	.word $L920
 2236 0d38 E0460000 	.word $L1306
 2237 0d3c 04470000 	.word $L925
 2238 0d40 20470000 	.word $L1565
 2239 0d44 40470000 	.word $L930
 2240 0d48 88470000 	.word $L935
 2241 0d4c B0470000 	.word $L940
 2242 0d50 10480000 	.word $L1589
 2243 0d54 98480000 	.word $L945
 2244 0d58 DC480000 	.word $L1311
 2245 0d5c 20490000 	.word $L950
 2246 0d60 60490000 	.word $L128
 2247 0d64 70490000 	.word $L955
 2248 0d68 98490000 	.word $L1460
 2249 0d6c A0490000 	.word $L165
 2250 0d70 B4490000 	.word $L1165
 2251 0d74 D4490000 	.word $L960
 2252 0d78 F8490000 	.word $L1316
 2253 0d7c 544A0000 	.word $L965
 2254 0d80 744A0000 	.word $L1190
 2255 0d84 984A0000 	.word $L248
 2256 0d88 684B0000 	.word $L1406
 2257 0d8c 884B0000 	.word $L259
 2258 0d90 BC4B0000 	.word $L750
 2259 0d94 F84B0000 	.word $L270
 2260 0d98 1C4C0000 	.word $L1341
GAS LISTING  			page 41


 2261 0d9c 644C0000 	.word $L281
 2262 0da0 9C4C0000 	.word $L1445
 2263 0da4 B84C0000 	.word $L292
 2264 0da8 044D0000 	.word $L1236
 2265 0dac 344D0000 	.word $L1195
 2266 0db0 504D0000 	.word $L1170
 2267 0db4 784D0000 	.word $L303
 2268 0db8 984D0000 	.word $L1346
 2269 0dbc C44D0000 	.word $L314
 2270 0dc0 F04D0000 	.word $L1571
 2271 0dc4 104E0000 	.word $L325
 2272 0dc8 584E0000 	.word $L336
 2273 0dcc 804E0000 	.word $L347
 2274 0dd0 E04E0000 	.word $L755
 2275 0dd4 284F0000 	.word $L358
 2276 0dd8 6C4F0000 	.word $L1351
 2277 0ddc B84F0000 	.word $L369
 2278 0de0 1C0B0000 	.word $L123
 2279 0de4 F84F0000 	.word $L380
 2280 0de8 20500000 	.word $L1465
 2281 0dec 3C500000 	.word $L170
 2282 0df0 44500000 	.word $L1185
 2283 0df4 94500000 	.word $L391
 2284 0df8 B8500000 	.word $L1356
 2285 0dfc 04510000 	.word $L402
 2286 0e00 24510000 	.word $L1577
 2287 0e04 3C510000 	.word $L665
 2288 0e08 9C510000 	.word $L1583
 2289 0e0c D4510000 	.word $L670
 2290 0e10 08520000 	.word $L735
 2291 0e14 2C520000 	.word $L675
 2292 0e18 50520000 	.word $L720
 2293 0e1c 74520000 	.word $L680
 2294 0e20 B0520000 	.word $L230
 2295 0e24 D4520000 	.word $L1381
 2296 0e28 F4520000 	.word $L185
 2297 0e2c 08530000 	.word $L1480
 2298 0e30 10530000 	.word $L740
 2299 0e34 34530000 	.word $L650
 2300 0e38 54530000 	.word $L725
 2301 0e3c 78530000 	.word $L655
 2302 0e40 98530000 	.word $L1553
 2303 0e44 B4530000 	.word $L685
 2304 0e48 0C540000 	.word $L690
 2305 0e4c 34540000 	.word $L695
 2306 0e50 64540000 	.word $L745
 2307 0e54 A4540000 	.word $L700
 2308 0e58 E0540000 	.word $L730
 2309 0e5c 1C550000 	.word $L705
 2310 0e60 60550000 	.word $L190
 2311 0e64 68550000 	.word $L710
 2312 0e68 74360000 	.word $L214
 2313 0e6c 94550000 	.word $L205
 2314 0e70 A4550000 	.word $L760
 2315 0e74 C8550000 	.word $L715
 2316 0e78 F0550000 	.word $L765
 2317 0e7c 24560000 	.word $L660
GAS LISTING  			page 42


 2318 0e80 44560000 	.word $L795
 2319 0e84 64560000 	.word $L595
 2320 0e88 D8560000 	.word $L770
 2321 0e8c F8560000 	.word $L600
 2322 0e90 2C570000 	.word $L800
 2323 0e94 60570000 	.word $L605
 2324 0e98 84570000 	.word $L775
 2325 0e9c B8570000 	.word $L610
 2326 0ea0 F0570000 	.word $L195
 2327 0ea4 04580000 	.word $L575
 2328 0ea8 1C580000 	.word $L200
 2329 0eac 30580000 	.word $L1485
 2330 0eb0 58580000 	.word $L805
 2331 0eb4 7C580000 	.word $L580
 2332 0eb8 9C580000 	.word $L780
 2333 0ebc C0580000 	.word $L585
 2334 0ec0 DC580000 	.word $L1559
 2335 0ec4 F8580000 	.word $L615
 2336 0ec8 40590000 	.word $L620
 2337 0ecc 68590000 	.word $L625
 2338 0ed0 C8590000 	.word $L810
 2339 0ed4 0C5A0000 	.word $L630
 2340 0ed8 505A0000 	.word $L785
 2341 0edc 945A0000 	.word $L635
 2342 0ee0 D45A0000 	.word $L133
 2343 0ee4 E45A0000 	.word $L640
 2344 0ee8 0C5B0000 	.word $L220
 2345 0eec 145B0000 	.word $L210
 2346 0ef0 245B0000 	.word $L815
 2347 0ef4 505B0000 	.word $L645
 2348 0ef8 745B0000 	.word $L790
 2349 0efc A05B0000 	.word $L590
 2350 0f00 C05B0000 	.word $L1135
 2351 0f04 EC5B0000 	.word $L1045
 2352 0f08 5C5C0000 	.word $L1519
 2353 0f0c D85C0000 	.word $L1050
 2354 0f10 0C5D0000 	.word $L1140
 2355 0f14 405D0000 	.word $L1055
 2356 0f18 645D0000 	.word $L1241
 2357 0f1c A05D0000 	.word $L1060
 2358 0f20 D85D0000 	.word $L240
 2359 0f24 E85D0000 	.word $L1065
 2360 0f28 005E0000 	.word $L225
 2361 0f2c 245E0000 	.word $L1602
 2362 0f30 505E0000 	.word $L1145
 2363 0f34 745E0000 	.word $L1070
 2364 0f38 945E0000 	.word $L1246
 2365 0f3c B85E0000 	.word $L1075
 2366 0f40 D45E0000 	.word $L1547
 2367 0f44 F05E0000 	.word $L1080
 2368 0f48 385F0000 	.word $L1085
 2369 0f4c 605F0000 	.word $L1090
 2370 0f50 C05F0000 	.word $L1416
 2371 0f54 10600000 	.word $L1095
 2372 0f58 54600000 	.word $L1251
 2373 0f5c 98600000 	.word $L1100
 2374 0f60 D8600000 	.word $L148
GAS LISTING  			page 43


 2375 0f64 E8600000 	.word $L1105
 2376 0f68 10610000 	.word $L1450
 2377 0f6c B00C0000 	.word $L1605
 2378 0f70 18610000 	.word $L1175
 2379 0f74 38610000 	.word $L1110
 2380 0f78 5C610000 	.word $L1256
 2381 0f7c 9C610000 	.word $L1115
 2382 0f80 BC610000 	.word $L1120
 2383 0f84 D8610000 	.word $L413
 2384 0f88 9C620000 	.word $L1508
 2385 0f8c 2C630000 	.word $L424
 2386 0f90 60630000 	.word $L1125
 2387 0f94 94630000 	.word $L435
 2388 0f98 B8630000 	.word $L1261
 2389 0f9c F0630000 	.word $L446
 2390 0fa0 28640000 	.word $L235
 2391 0fa4 38640000 	.word $L457
 2392 0fa8 B00C0000 	.word $L1605
 2393 0fac 88640000 	.word $L1490
 2394 0fb0 B0640000 	.word $L1130
 2395 0fb4 D4640000 	.word $L468
 2396 0fb8 F4640000 	.word $L1266
 2397 0fbc 18650000 	.word $L479
 2398 0fc0 44650000 	.word $L1541
 2399 0fc4 60650000 	.word $L490
 2400 0fc8 A8650000 	.word $L501
 2401 0fcc D0650000 	.word $L512
 2402 0fd0 30660000 	.word $L1411
 2403 0fd4 4C660000 	.word $L523
 2404 0fd8 90660000 	.word $L1271
 2405 0fdc D4660000 	.word $L534
 2406 0fe0 14670000 	.word $L153
 2407 0fe4 24670000 	.word $L545
 2408 0fe8 4C670000 	.word $L1455
 2409 0fec 68670000 	.word $L158
 2410 0ff0 A0670000 	.word $L1180
 2411 0ff4 EC670000 	.word $L556
 2412 0ff8 10680000 	.word $L1276
 2413 0ffc 4C680000 	.word $L567
 2414 1000 80360000 	.word $L1502
 2415 1004 F0360000 	.word $L1025
 2416 1008 6C370000 	.word $L1500
 2417 100c C0370000 	.word $L970
 2418 1010 F4370000 	.word $L1396
 2419 1014 50380000 	.word $L975
 2420 1018 74380000 	.word $L1281
 2421 101c C4380000 	.word $L980
 2422 1020 FC380000 	.word $L1426
 2423 1024 44390000 	.word $L985
 2424 1028 5C390000 	.word $L1221
 2425 102c 80390000 	.word $L1470
 2426 1030 88390000 	.word $L1401
 2427 1034 AC390000 	.word $L990
 2428 1038 CC390000 	.word $L1286
 2429 103c F0390000 	.word $L995
 2430 1040 0C3A0000 	.word $L1529
 2431 1044 443A0000 	.word $L1000
GAS LISTING  			page 44


 2432 1048 8C3A0000 	.word $L1005
 2433 104c B43A0000 	.word $L1010
 2434 1050 143B0000 	.word $L1386
 2435 1054 683B0000 	.word $L1015
 2436 1058 AC3B0000 	.word $L1291
 2437 105c F03B0000 	.word $L1020
 2438 1060 303C0000 	.word $L138
 2439 1064 3C3C0000 	.word $L1030
 2440 1068 643C0000 	.word $L1216
 2441 106c 883C0000 	.word $L180
 2442 1070 9C3C0000 	.word $L1391
 2443 1074 C03C0000 	.word $L1035
 2444 1078 E43C0000 	.word $L1296
 2445 107c 383D0000 	.word $L1040
 2446 1080 583D0000 	.word $L1150
 2447 1084 943D0000 	.word $L820
 2448 1088 083E0000 	.word $L1160
 2449 108c 303E0000 	.word $L825
 2450 1090 643E0000 	.word $L1361
 2451 1094 BC3E0000 	.word $L830
 2452 1098 E03E0000 	.word $L1321
 2453 109c 243F0000 	.word $L835
 2454 10a0 5C3F0000 	.word $L1432
 2455 10a4 DC3F0000 	.word $L840
 2456 10a8 F43F0000 	.word $L1231
 2457 10ac 24400000 	.word $L1475
 2458 10b0 40400000 	.word $L1366
 2459 10b4 64400000 	.word $L845
 2460 10b8 84400000 	.word $L1326
 2461 10bc AC400000 	.word $L850
 2462 10c0 C8400000 	.word $L1535
 2463 10c4 F0400000 	.word $L855
 2464 10c8 38410000 	.word $L860
 2465 10cc 60410000 	.word $L865
 2466 10d0 C0410000 	.word $L1371
 2467 10d4 04420000 	.word $L870
 2468 10d8 48420000 	.word $L1331
 2469 10dc 90420000 	.word $L875
 2470 10e0 D0420000 	.word $L143
 2471 10e4 DC420000 	.word $L880
 2472 10e8 04430000 	.word $L1211
 2473 10ec 14430000 	.word $L175
 2474 10f0 1C430000 	.word $L1376
 2475 10f4 48430000 	.word $L885
 2476 10f8 6C430000 	.word $L1336
 2477 10fc B4430000 	.word $L890
 2478 1100 D4430000 	.word $L1203
 2479 1104 74440000 	.word $L895
 2480 1108 B00C0000 	.word $L1605
 2481 110c E8440000 	.word $L900
 2482 1110 1C450000 	.word $L1596
 2483 1114 AC450000 	.word $L905
 2484 1118 D0450000 	.word $L1301
 2485 111c 20460000 	.word $L910
 2486 1120 58460000 	.word $L1440
 2487 1124 60460000 	.word $L915
 2488 1128 78460000 	.word $L1226
GAS LISTING  			page 45


 2489 112c 8C460000 	.word $L1421
 2490 1130 9C460000 	.word $L1155
 2491 1134 C0460000 	.word $L920
 2492 1138 E0460000 	.word $L1306
 2493 113c 04470000 	.word $L925
 2494 1140 20470000 	.word $L1565
 2495 1144 40470000 	.word $L930
 2496 1148 88470000 	.word $L935
 2497 114c B0470000 	.word $L940
 2498 1150 10480000 	.word $L1589
 2499 1154 98480000 	.word $L945
 2500 1158 DC480000 	.word $L1311
 2501 115c 20490000 	.word $L950
 2502 1160 60490000 	.word $L128
 2503 1164 70490000 	.word $L955
 2504 1168 98490000 	.word $L1460
 2505 116c A0490000 	.word $L165
 2506 1170 B4490000 	.word $L1165
 2507 1174 D4490000 	.word $L960
 2508 1178 F8490000 	.word $L1316
 2509 117c 544A0000 	.word $L965
 2510 1180 744A0000 	.word $L1190
 2511 1184 984A0000 	.word $L248
 2512 1188 684B0000 	.word $L1406
 2513 118c 884B0000 	.word $L259
 2514 1190 BC4B0000 	.word $L750
 2515 1194 F84B0000 	.word $L270
 2516 1198 1C4C0000 	.word $L1341
 2517 119c 644C0000 	.word $L281
 2518 11a0 9C4C0000 	.word $L1445
 2519 11a4 B84C0000 	.word $L292
 2520 11a8 044D0000 	.word $L1236
 2521 11ac 344D0000 	.word $L1195
 2522 11b0 504D0000 	.word $L1170
 2523 11b4 784D0000 	.word $L303
 2524 11b8 984D0000 	.word $L1346
 2525 11bc C44D0000 	.word $L314
 2526 11c0 F04D0000 	.word $L1571
 2527 11c4 104E0000 	.word $L325
 2528 11c8 584E0000 	.word $L336
 2529 11cc 804E0000 	.word $L347
 2530 11d0 E04E0000 	.word $L755
 2531 11d4 284F0000 	.word $L358
 2532 11d8 6C4F0000 	.word $L1351
 2533 11dc B84F0000 	.word $L369
 2534 11e0 1C0B0000 	.word $L123
 2535 11e4 F84F0000 	.word $L380
 2536 11e8 20500000 	.word $L1465
 2537 11ec 3C500000 	.word $L170
 2538 11f0 44500000 	.word $L1185
 2539 11f4 94500000 	.word $L391
 2540 11f8 B8500000 	.word $L1356
 2541 11fc 04510000 	.word $L402
 2542 1200 24510000 	.word $L1577
 2543 1204 3C510000 	.word $L665
 2544 1208 9C510000 	.word $L1583
 2545 120c D4510000 	.word $L670
GAS LISTING  			page 46


 2546 1210 08520000 	.word $L735
 2547 1214 2C520000 	.word $L675
 2548 1218 50520000 	.word $L720
 2549 121c 74520000 	.word $L680
 2550 1220 B0520000 	.word $L230
 2551 1224 D4520000 	.word $L1381
 2552 1228 F4520000 	.word $L185
 2553 122c 08530000 	.word $L1480
 2554 1230 10530000 	.word $L740
 2555 1234 34530000 	.word $L650
 2556 1238 54530000 	.word $L725
 2557 123c 78530000 	.word $L655
 2558 1240 98530000 	.word $L1553
 2559 1244 B4530000 	.word $L685
 2560 1248 0C540000 	.word $L690
 2561 124c 34540000 	.word $L695
 2562 1250 64540000 	.word $L745
 2563 1254 A4540000 	.word $L700
 2564 1258 E0540000 	.word $L730
 2565 125c 1C550000 	.word $L705
 2566 1260 60550000 	.word $L190
 2567 1264 68550000 	.word $L710
 2568 1268 88550000 	.word $L215
 2569 126c 94550000 	.word $L205
 2570 1270 A4550000 	.word $L760
 2571 1274 C8550000 	.word $L715
 2572 1278 F0550000 	.word $L765
 2573 127c 24560000 	.word $L660
 2574 1280 44560000 	.word $L795
 2575 1284 64560000 	.word $L595
 2576 1288 D8560000 	.word $L770
 2577 128c F8560000 	.word $L600
 2578 1290 2C570000 	.word $L800
 2579 1294 60570000 	.word $L605
 2580 1298 84570000 	.word $L775
 2581 129c B8570000 	.word $L610
 2582 12a0 F0570000 	.word $L195
 2583 12a4 04580000 	.word $L575
 2584 12a8 1C580000 	.word $L200
 2585 12ac 30580000 	.word $L1485
 2586 12b0 58580000 	.word $L805
 2587 12b4 7C580000 	.word $L580
 2588 12b8 9C580000 	.word $L780
 2589 12bc C0580000 	.word $L585
 2590 12c0 DC580000 	.word $L1559
 2591 12c4 F8580000 	.word $L615
 2592 12c8 40590000 	.word $L620
 2593 12cc 68590000 	.word $L625
 2594 12d0 C8590000 	.word $L810
 2595 12d4 0C5A0000 	.word $L630
 2596 12d8 505A0000 	.word $L785
 2597 12dc 945A0000 	.word $L635
 2598 12e0 D45A0000 	.word $L133
 2599 12e4 E45A0000 	.word $L640
 2600 12e8 0C5B0000 	.word $L220
 2601 12ec 145B0000 	.word $L210
 2602 12f0 245B0000 	.word $L815
GAS LISTING  			page 47


 2603 12f4 505B0000 	.word $L645
 2604 12f8 745B0000 	.word $L790
 2605 12fc A05B0000 	.word $L590
 2606 1300 C05B0000 	.word $L1135
 2607 1304 EC5B0000 	.word $L1045
 2608 1308 5C5C0000 	.word $L1519
 2609 130c D85C0000 	.word $L1050
 2610 1310 0C5D0000 	.word $L1140
 2611 1314 405D0000 	.word $L1055
 2612 1318 645D0000 	.word $L1241
 2613 131c A05D0000 	.word $L1060
 2614 1320 D85D0000 	.word $L240
 2615 1324 E85D0000 	.word $L1065
 2616 1328 005E0000 	.word $L225
 2617 132c 245E0000 	.word $L1602
 2618 1330 505E0000 	.word $L1145
 2619 1334 745E0000 	.word $L1070
 2620 1338 945E0000 	.word $L1246
 2621 133c B85E0000 	.word $L1075
 2622 1340 D45E0000 	.word $L1547
 2623 1344 F05E0000 	.word $L1080
 2624 1348 385F0000 	.word $L1085
 2625 134c 605F0000 	.word $L1090
 2626 1350 C05F0000 	.word $L1416
 2627 1354 10600000 	.word $L1095
 2628 1358 54600000 	.word $L1251
 2629 135c 98600000 	.word $L1100
 2630 1360 D8600000 	.word $L148
 2631 1364 E8600000 	.word $L1105
 2632 1368 10610000 	.word $L1450
 2633 136c B00C0000 	.word $L1605
 2634 1370 18610000 	.word $L1175
 2635 1374 38610000 	.word $L1110
 2636 1378 5C610000 	.word $L1256
 2637 137c 9C610000 	.word $L1115
 2638 1380 BC610000 	.word $L1120
 2639 1384 D8610000 	.word $L413
 2640 1388 9C620000 	.word $L1508
 2641 138c 2C630000 	.word $L424
 2642 1390 60630000 	.word $L1125
 2643 1394 94630000 	.word $L435
 2644 1398 B8630000 	.word $L1261
 2645 139c F0630000 	.word $L446
 2646 13a0 28640000 	.word $L235
 2647 13a4 38640000 	.word $L457
 2648 13a8 B00C0000 	.word $L1605
 2649 13ac 88640000 	.word $L1490
 2650 13b0 B0640000 	.word $L1130
 2651 13b4 D4640000 	.word $L468
 2652 13b8 F4640000 	.word $L1266
 2653 13bc 18650000 	.word $L479
 2654 13c0 44650000 	.word $L1541
 2655 13c4 60650000 	.word $L490
 2656 13c8 A8650000 	.word $L501
 2657 13cc D0650000 	.word $L512
 2658 13d0 30660000 	.word $L1411
 2659 13d4 4C660000 	.word $L523
GAS LISTING  			page 48


 2660 13d8 90660000 	.word $L1271
 2661 13dc D4660000 	.word $L534
 2662 13e0 14670000 	.word $L153
 2663 13e4 24670000 	.word $L545
 2664 13e8 4C670000 	.word $L1455
 2665 13ec 68670000 	.word $L158
 2666 13f0 A0670000 	.word $L1180
 2667 13f4 EC670000 	.word $L556
 2668 13f8 10680000 	.word $L1276
 2669 13fc 4C680000 	.word $L567
 2670              	.text
 2671              	$L123:
 2672 0b1c 08002292 	lbu $2,8($17)
 2673 0b20 1400238E 	lw $3,20($17)
 2674 0b24 04004234 	ori $2,$2,0x4
 2675              	$L1702:
 2676 0b28 FAFF6324 	addu $3,$3,-6
 2677 0b2c 080022A2 	sb $2,8($17)
 2678              	$L1675:
 2679 0b30 140023AE 	sw $3,20($17)
 2680 0b34 00000000 	.p2align 3
 2681              	$L110:
 2682 0b38 1400228E 	lw $2,20($17)
 2683              	$L2147:
 2684              	.set noreorder
 2685              	.set nomacro
 2686 0b3c E9FF401C 	bgtz $2,$L2159
 2687 0b40 2D288002 	move $5,$20
 2688              	.set macro
 2689              	.set reorder
 2690              	
 2691 0b44 08002392 	lbu $3,8($17)
 2692              	$L2158:
 2693 0b48 80FF0224 	li $2,-128
 2694 0b4c 02221600 	srl $4,$22,8
 2695 0b50 FFFFA532 	andi $5,$21,0xffff
 2696 0b54 7C006330 	andi $3,$3,0x7c
 2697 0b58 24208200 	and $4,$4,$2
 2698 0b5c 25187700 	or $3,$3,$23
 2699 0b60 25106400 	or $2,$3,$4
 2700              	.set noreorder
 2701              	.set nomacro
 2702 0b64 0300A014 	bne $5,$0,$L1608
 2703 0b68 080022A2 	sb $2,8($17)
 2704              	.set macro
 2705              	.set reorder
 2706              	
 2707 0b6c 02004234 	ori $2,$2,0x2
 2708 0b70 080022A2 	sb $2,8($17)
 2709              	$L1608:
 2710 0b74 0C0034AE 	sw $20,12($17)
 2711 0b78 2D100000 	move $2,$0
 2712 0b7c A000BFDF 	ld $31,160($sp)
 2713 0b80 9000BEDF 	ld $fp,144($sp)
 2714 0b84 8000B7DF 	ld $23,128($sp)
 2715 0b88 7000B6DF 	ld $22,112($sp)
 2716 0b8c 6000B5DF 	ld $21,96($sp)
GAS LISTING  			page 49


 2717 0b90 5000B4DF 	ld $20,80($sp)
 2718 0b94 4000B3DF 	ld $19,64($sp)
 2719 0b98 3000B2DF 	ld $18,48($sp)
 2720 0b9c 2000B1DF 	ld $17,32($sp)
 2721 0ba0 1000B0DF 	ld $16,16($sp)
 2722              	
 2723              	.set noreorder
 2724              	.set nomacro
 2725 0ba4 0800E003 	j $31
 2726 0ba8 B000BD27 	addu $sp,$sp,176
 2727              	.set macro
 2728              	.set reorder
 2729              	
 2730              	$L1022:
 2731 0bac 2D288002 	move $5,$20
 2732              	.set noreorder
 2733              	.set nomacro
 2734 0bb0 1A01000C 	jal _SNCPUFetch8
 2735 0bb4 2D202002 	move $4,$17
 2736              	.set macro
 2737              	.set reorder
 2738              	
 2739 0bb8 01009426 	addu $20,$20,1
 2740 0bbc 2D804000 	move $16,$2
 2741 0bc0 0A002396 	lhu $3,10($17)
 2742 0bc4 1400228E 	lw $2,20($17)
 2743 0bc8 2D202002 	move $4,$17
 2744 0bcc 21800302 	addu $16,$16,$3
 2745 0bd0 02002596 	lhu $5,2($17)
 2746 0bd4 FAFF4224 	addu $2,$2,-6
 2747 0bd8 FFFF1032 	andi $16,$16,0xffff
 2748 0bdc 140022AE 	sw $2,20($17)
 2749 0be0 21800502 	addu $16,$16,$5
 2750 0be4 0000A28F 	lw $2,0($sp)
 2751              	
 2752 0be8 24800202 	and $16,$16,$2
 2753              	$L1929:
 2754              	.set noreorder
 2755              	.set nomacro
 2756 0bec A400000C 	jal _SNCPURead16
 2757 0bf0 2D280002 	move $5,$16
 2758              	.set macro
 2759              	.set reorder
 2760              	
 2761 0bf4 2D202002 	move $4,$17
 2762 0bf8 2D804000 	move $16,$2
 2763 0bfc 1000228E 	lw $2,16($17)
 2764              	$L1942:
 2765 0c00 25800202 	or $16,$16,$2
 2766              	$L1922:
 2767 0c04 2D280002 	move $5,$16
 2768              	$L1923:
 2769 0c08 A400000C 	jal _SNCPURead16
 2769      00000000 
 2770 0c10 2D984000 	move $19,$2
 2771              	$L1924:
 2772 0c14 00003296 	lhu $18,0($17)
GAS LISTING  			page 50


 2773              	
 2774 0c18 25905302 	or $18,$18,$19
 2775              	$L1920:
 2776 0c1c 2DA84002 	move $21,$18
 2777 0c20 000032A6 	sh $18,0($17)
 2778              	$L1684:
 2779              	.set noreorder
 2780              	.set nomacro
 2781 0c24 C4FF0010 	b $L110
 2782 0c28 2DB0A002 	move $22,$21
 2783              	.set macro
 2784              	.set reorder
 2785              	
 2786              	$L967:
 2787 0c2c 2D288002 	move $5,$20
 2788              	.set noreorder
 2789              	.set nomacro
 2790 0c30 1A01000C 	jal _SNCPUFetch8
 2791 0c34 2D202002 	move $4,$17
 2792              	.set macro
 2793              	.set reorder
 2794              	
 2795 0c38 01009426 	addu $20,$20,1
 2796 0c3c 2D804000 	move $16,$2
 2797 0c40 06002396 	lhu $3,6($17)
 2798 0c44 1400228E 	lw $2,20($17)
 2799 0c48 2D202002 	move $4,$17
 2800 0c4c 21800302 	addu $16,$16,$3
 2801 0c50 FAFF4224 	addu $2,$2,-6
 2802 0c54 140022AE 	sw $2,20($17)
 2803              	$L2066:
 2804              	.set noreorder
 2805              	.set nomacro
 2806 0c58 EAFF0010 	b $L1922
 2807 0c5c FFFF1032 	andi $16,$16,0xffff
 2808              	.set macro
 2809              	.set reorder
 2810              	
 2811              	$L1393:
 2812 0c60 2D288002 	move $5,$20
 2813              	.set noreorder
 2814              	.set nomacro
 2815 0c64 1A01000C 	jal _SNCPUFetch8
 2816 0c68 2D202002 	move $4,$17
 2817              	.set macro
 2818              	.set reorder
 2819              	
 2820 0c6c 01009426 	addu $20,$20,1
 2821 0c70 2D804000 	move $16,$2
 2822 0c74 2D202002 	move $4,$17
 2823 0c78 0A002296 	lhu $2,10($17)
 2824              	
 2825 0c7c 21800202 	addu $16,$16,$2
 2826 0c80 FFFF1032 	andi $16,$16,0xffff
 2827              	$L2015:
 2828              	.set noreorder
 2829              	.set nomacro
GAS LISTING  			page 51


 2830 0c84 A400000C 	jal _SNCPURead16
 2831 0c88 2D280002 	move $5,$16
 2832              	.set macro
 2833              	.set reorder
 2834              	
 2835 0c8c 2D202002 	move $4,$17
 2836 0c90 2D984000 	move $19,$2
 2837 0c94 2D280002 	move $5,$16
 2838 0c98 00002296 	lhu $2,0($17)
 2839              	
 2840 0c9c 24A86202 	and $21,$19,$2
 2841 0ca0 25986202 	or $19,$19,$2
 2842              	$L2014:
 2843 0ca4 FFFF6632 	andi $6,$19,0xffff
 2844              	$L1785:
 2845 0ca8 C001000C 	jal _SNCPUWrite16
 2845      00000000 
 2846              	.p2align 3
 2847              	$L1605:
 2848 0cb0 1400228E 	lw $2,20($17)
 2849              	$L1714:
 2850 0cb4 FAFF4224 	addu $2,$2,-6
 2851              	$L1671:
 2852              	.set noreorder
 2853              	.set nomacro
 2854 0cb8 9FFF0010 	b $L110
 2855 0cbc 140022AE 	sw $2,20($17)
 2856              	.set macro
 2857              	.set reorder
 2858              	
 2859              	$L972:
 2860 0cc0 2D288002 	move $5,$20
 2861              	.set noreorder
 2862              	.set nomacro
 2863 0cc4 1A01000C 	jal _SNCPUFetch8
 2864 0cc8 2D202002 	move $4,$17
 2865              	.set macro
 2866              	.set reorder
 2867              	
 2868 0ccc 01009426 	addu $20,$20,1
 2869 0cd0 2D804000 	move $16,$2
 2870 0cd4 2D202002 	move $4,$17
 2871 0cd8 0A002296 	lhu $2,10($17)
 2872              	.set noreorder
 2873              	.set nomacro
 2874 0cdc DEFF0010 	b $L2066
 2875 0ce0 21800202 	addu $16,$16,$2
 2876              	.set macro
 2877              	.set reorder
 2878              	
 2879              	$L1278:
 2880 0ce4 2D288002 	move $5,$20
 2881              	.set noreorder
 2882              	.set nomacro
 2883 0ce8 1A01000C 	jal _SNCPUFetch8
 2884 0cec 2D202002 	move $4,$17
 2885              	.set macro
GAS LISTING  			page 52


 2886              	.set reorder
 2887              	
 2888 0cf0 01009426 	addu $20,$20,1
 2889 0cf4 2D804000 	move $16,$2
 2890 0cf8 2D202002 	move $4,$17
 2891 0cfc 0A002296 	lhu $2,10($17)
 2892              	
 2893 0d00 21800202 	addu $16,$16,$2
 2894 0d04 FFFF1032 	andi $16,$16,0xffff
 2895              	$L2000:
 2896              	.set noreorder
 2897              	.set nomacro
 2898 0d08 A400000C 	jal _SNCPURead16
 2899 0d0c 2D280002 	move $5,$16
 2900              	.set macro
 2901              	.set reorder
 2902              	
 2903 0d10 2D202002 	move $4,$17
 2904 0d14 2D280002 	move $5,$16
 2905 0d18 40980200 	sll $19,$2,1
 2906              	$L2003:
 2907 0d1c FFFF6632 	andi $6,$19,0xffff
 2908 0d20 2DA86002 	move $21,$19
 2909              	.set noreorder
 2910              	.set nomacro
 2911 0d24 C001000C 	jal _SNCPUWrite16
 2912 0d28 029C1300 	srl $19,$19,16
 2913              	.set macro
 2914              	.set reorder
 2915              	
 2916 0d2c 1400228E 	lw $2,20($17)
 2917              	$L2151:
 2918 0d30 01007732 	andi $23,$19,0x1
 2919              	.set noreorder
 2920              	.set nomacro
 2921 0d34 DFFF0010 	b $L1714
 2922 0d38 2DB0A002 	move $22,$21
 2923              	.set macro
 2924              	.set reorder
 2925              	
 2926              	$L977:
 2927 0d3c 2D288002 	move $5,$20
 2928              	.set noreorder
 2929              	.set nomacro
 2930 0d40 1A01000C 	jal _SNCPUFetch8
 2931 0d44 2D202002 	move $4,$17
 2932              	.set macro
 2933              	.set reorder
 2934              	
 2935 0d48 01009426 	addu $20,$20,1
 2936 0d4c 2D804000 	move $16,$2
 2937 0d50 2D202002 	move $4,$17
 2938 0d54 0A002296 	lhu $2,10($17)
 2939              	
 2940 0d58 21800202 	addu $16,$16,$2
 2941 0d5c FFFF1032 	andi $16,$16,0xffff
 2942              	.set noreorder
GAS LISTING  			page 53


 2943              	.set nomacro
 2944 0d60 D400000C 	jal _SNCPURead24
 2945 0d64 2D280002 	move $5,$16
 2946              	.set macro
 2947              	.set reorder
 2948              	
 2949 0d68 2D202002 	move $4,$17
 2950              	.set noreorder
 2951              	.set nomacro
 2952 0d6c A5FF0010 	b $L1922
 2953 0d70 2D804000 	move $16,$2
 2954              	.set macro
 2955              	.set reorder
 2956              	
 2957              	$L982:
 2958 0d74 2D288002 	move $5,$20
 2959              	.set noreorder
 2960              	.set nomacro
 2961 0d78 3001000C 	jal _SNCPUFetch16
 2962 0d7c 2D202002 	move $4,$17
 2963              	.set macro
 2964              	.set reorder
 2965              	
 2966 0d80 02009426 	addu $20,$20,2
 2967              	.set noreorder
 2968              	.set nomacro
 2969 0d84 A3FF0010 	b $L1924
 2970 0d88 2D984000 	move $19,$2
 2971              	.set macro
 2972              	.set reorder
 2973              	
 2974              	$L1218:
 2975 0d8c 00003396 	lhu $19,0($17)
 2976 0d90 1400228E 	lw $2,20($17)
 2977 0d94 40981300 	sll $19,$19,1
 2978 0d98 2DA86002 	move $21,$19
 2979 0d9c FAFF4224 	addu $2,$2,-6
 2980 0da0 2DB06002 	move $22,$19
 2981 0da4 02BC1300 	srl $23,$19,16
 2982              	$L1991:
 2983 0da8 140022AE 	sw $2,20($17)
 2984              	$L1679:
 2985              	.set noreorder
 2986              	.set nomacro
 2987 0dac 62FF0010 	b $L110
 2988 0db0 000033A6 	sh $19,0($17)
 2989              	.set macro
 2990              	.set reorder
 2991              	
 2992              	$L1398:
 2993 0db4 2D288002 	move $5,$20
 2994              	.set noreorder
 2995              	.set nomacro
 2996 0db8 3001000C 	jal _SNCPUFetch16
 2997 0dbc 2D202002 	move $4,$17
 2998              	.set macro
 2999              	.set reorder
GAS LISTING  			page 54


 3000              	
 3001 0dc0 02009426 	addu $20,$20,2
 3002 0dc4 2D804000 	move $16,$2
 3003 0dc8 2D202002 	move $4,$17
 3004 0dcc 1000228E 	lw $2,16($17)
 3005              	.set noreorder
 3006              	.set nomacro
 3007 0dd0 ACFF0010 	b $L2015
 3008 0dd4 25800202 	or $16,$16,$2
 3009              	.set macro
 3010              	.set reorder
 3011              	
 3012              	$L987:
 3013 0dd8 2D288002 	move $5,$20
 3014              	.set noreorder
 3015              	.set nomacro
 3016 0ddc 3001000C 	jal _SNCPUFetch16
 3017 0de0 2D202002 	move $4,$17
 3018              	.set macro
 3019              	.set reorder
 3020              	
 3021 0de4 02009426 	addu $20,$20,2
 3022 0de8 2D804000 	move $16,$2
 3023 0dec 2D202002 	move $4,$17
 3024              	.set noreorder
 3025              	.set nomacro
 3026 0df0 83FF0010 	b $L1942
 3027 0df4 1000228E 	lw $2,16($17)
 3028              	.set macro
 3029              	.set reorder
 3030              	
 3031              	$L1283:
 3032 0df8 2D288002 	move $5,$20
 3033              	.set noreorder
 3034              	.set nomacro
 3035 0dfc 3001000C 	jal _SNCPUFetch16
 3036 0e00 2D202002 	move $4,$17
 3037              	.set macro
 3038              	.set reorder
 3039              	
 3040 0e04 02009426 	addu $20,$20,2
 3041 0e08 2D804000 	move $16,$2
 3042 0e0c 2D202002 	move $4,$17
 3043 0e10 1000228E 	lw $2,16($17)
 3044              	.set noreorder
 3045              	.set nomacro
 3046 0e14 BCFF0010 	b $L2000
 3047 0e18 25800202 	or $16,$16,$2
 3048              	.set macro
 3049              	.set reorder
 3050              	
 3051              	$L992:
 3052 0e1c 2D288002 	move $5,$20
 3053              	.set noreorder
 3054              	.set nomacro
 3055 0e20 6001000C 	jal _SNCPUFetch24
 3056 0e24 2D202002 	move $4,$17
GAS LISTING  			page 55


 3057              	.set macro
 3058              	.set reorder
 3059              	
 3060 0e28 03009426 	addu $20,$20,3
 3061 0e2c 2D284000 	move $5,$2
 3062              	.set noreorder
 3063              	.set nomacro
 3064 0e30 75FF0010 	b $L1923
 3065 0e34 2D202002 	move $4,$17
 3066              	.set macro
 3067              	.set reorder
 3068              	
 3069              	$L997:
 3070 0e38 2D288002 	move $5,$20
 3071              	.set noreorder
 3072              	.set nomacro
 3073 0e3c 1A01000C 	jal _SNCPUFetch8
 3074 0e40 2D202002 	move $4,$17
 3075              	.set macro
 3076              	.set reorder
 3077              	
 3078 0e44 01009426 	addu $20,$20,1
 3079 0e48 2D804000 	move $16,$2
 3080 0e4c 2D202002 	move $4,$17
 3081 0e50 0A002296 	lhu $2,10($17)
 3082              	
 3083 0e54 21800202 	addu $16,$16,$2
 3084 0e58 FFFF1032 	andi $16,$16,0xffff
 3085              	.set noreorder
 3086              	.set nomacro
 3087 0e5c A400000C 	jal _SNCPURead16
 3088 0e60 2D280002 	move $5,$16
 3089              	.set macro
 3090              	.set reorder
 3091              	
 3092 0e64 04002396 	lhu $3,4($17)
 3093 0e68 2D804000 	move $16,$2
 3094 0e6c 2D202002 	move $4,$17
 3095 0e70 1000228E 	lw $2,16($17)
 3096              	
 3097 0e74 25800202 	or $16,$16,$2
 3098              	.set noreorder
 3099              	.set nomacro
 3100 0e78 62FF0010 	b $L1922
 3101 0e7c 21800302 	addu $16,$16,$3
 3102              	.set macro
 3103              	.set reorder
 3104              	
 3105              	$L1002:
 3106 0e80 2D288002 	move $5,$20
 3107              	.set noreorder
 3108              	.set nomacro
 3109 0e84 1A01000C 	jal _SNCPUFetch8
 3110 0e88 2D202002 	move $4,$17
 3111              	.set macro
 3112              	.set reorder
 3113              	
GAS LISTING  			page 56


 3114 0e8c 01009426 	addu $20,$20,1
 3115 0e90 2D804000 	move $16,$2
 3116 0e94 2D202002 	move $4,$17
 3117 0e98 0A002296 	lhu $2,10($17)
 3118              	
 3119 0e9c 21800202 	addu $16,$16,$2
 3120              	.set noreorder
 3121              	.set nomacro
 3122 0ea0 52FF0010 	b $L1929
 3123 0ea4 FFFF1032 	andi $16,$16,0xffff
 3124              	.set macro
 3125              	.set reorder
 3126              	
 3127              	$L1007:
 3128 0ea8 2D288002 	move $5,$20
 3129              	.set noreorder
 3130              	.set nomacro
 3131 0eac 1A01000C 	jal _SNCPUFetch8
 3132 0eb0 2D202002 	move $4,$17
 3133              	.set macro
 3134              	.set reorder
 3135              	
 3136 0eb4 01009426 	addu $20,$20,1
 3137 0eb8 06002396 	lhu $3,6($17)
 3138 0ebc 2D804000 	move $16,$2
 3139 0ec0 1400228E 	lw $2,20($17)
 3140 0ec4 2D202002 	move $4,$17
 3141 0ec8 21800302 	addu $16,$16,$3
 3142 0ecc FAFF4224 	addu $2,$2,-6
 3143 0ed0 FFFF1032 	andi $16,$16,0xffff
 3144 0ed4 140022AE 	sw $2,20($17)
 3145              	.set noreorder
 3146              	.set nomacro
 3147 0ed8 A400000C 	jal _SNCPURead16
 3148 0edc 2D280002 	move $5,$16
 3149              	.set macro
 3150              	.set reorder
 3151              	
 3152 0ee0 04002596 	lhu $5,4($17)
 3153 0ee4 1000238E 	lw $3,16($17)
 3154 0ee8 2D804000 	move $16,$2
 3155 0eec 1400228E 	lw $2,20($17)
 3156 0ef0 2D202002 	move $4,$17
 3157 0ef4 25800302 	or $16,$16,$3
 3158 0ef8 FAFF4224 	addu $2,$2,-6
 3159 0efc 21800502 	addu $16,$16,$5
 3160              	.set noreorder
 3161              	.set nomacro
 3162 0f00 40FF0010 	b $L1922
 3163 0f04 140022AE 	sw $2,20($17)
 3164              	.set macro
 3165              	.set reorder
 3166              	
 3167              	$L1383:
 3168 0f08 2D288002 	move $5,$20
 3169              	.set noreorder
 3170              	.set nomacro
GAS LISTING  			page 57


 3171 0f0c 1A01000C 	jal _SNCPUFetch8
 3172 0f10 2D202002 	move $4,$17
 3173              	.set macro
 3174              	.set reorder
 3175              	
 3176 0f14 01009426 	addu $20,$20,1
 3177 0f18 2D804000 	move $16,$2
 3178 0f1c 2D202002 	move $4,$17
 3179 0f20 0A002296 	lhu $2,10($17)
 3180              	
 3181 0f24 21800202 	addu $16,$16,$2
 3182 0f28 FFFF1032 	andi $16,$16,0xffff
 3183              	$L2016:
 3184              	.set noreorder
 3185              	.set nomacro
 3186 0f2c A400000C 	jal _SNCPURead16
 3187 0f30 2D280002 	move $5,$16
 3188              	.set macro
 3189              	.set reorder
 3190              	
 3191 0f34 2D202002 	move $4,$17
 3192 0f38 2D984000 	move $19,$2
 3193 0f3c 2D280002 	move $5,$16
 3194 0f40 00002296 	lhu $2,0($17)
 3195              	
 3196 0f44 24A86202 	and $21,$19,$2
 3197 0f48 25986202 	or $19,$19,$2
 3198              	.set noreorder
 3199              	.set nomacro
 3200 0f4c 55FF0010 	b $L2014
 3201 0f50 26986202 	xor $19,$19,$2
 3202              	.set macro
 3203              	.set reorder
 3204              	
 3205              	$L1012:
 3206 0f54 2D288002 	move $5,$20
 3207              	.set noreorder
 3208              	.set nomacro
 3209 0f58 1A01000C 	jal _SNCPUFetch8
 3210 0f5c 2D202002 	move $4,$17
 3211              	.set macro
 3212              	.set reorder
 3213              	
 3214 0f60 01009426 	addu $20,$20,1
 3215 0f64 2D804000 	move $16,$2
 3216 0f68 02002596 	lhu $5,2($17)
 3217 0f6c 0A002296 	lhu $2,10($17)
 3218 0f70 2D202002 	move $4,$17
 3219 0f74 1400238E 	lw $3,20($17)
 3220 0f78 21800202 	addu $16,$16,$2
 3221 0f7c 0000A28F 	lw $2,0($sp)
 3222 0f80 FFFF1032 	andi $16,$16,0xffff
 3223 0f84 FAFF6324 	addu $3,$3,-6
 3224 0f88 21800502 	addu $16,$16,$5
 3225 0f8c 140023AE 	sw $3,20($17)
 3226              	.set noreorder
 3227              	.set nomacro
GAS LISTING  			page 58


 3228 0f90 1CFF0010 	b $L1922
 3229 0f94 24800202 	and $16,$16,$2
 3230              	.set macro
 3231              	.set reorder
 3232              	
 3233              	$L1288:
 3234 0f98 2D288002 	move $5,$20
 3235              	.set noreorder
 3236              	.set nomacro
 3237 0f9c 1A01000C 	jal _SNCPUFetch8
 3238 0fa0 2D202002 	move $4,$17
 3239              	.set macro
 3240              	.set reorder
 3241              	
 3242 0fa4 01009426 	addu $20,$20,1
 3243 0fa8 2D804000 	move $16,$2
 3244 0fac 0A002396 	lhu $3,10($17)
 3245 0fb0 1400228E 	lw $2,20($17)
 3246 0fb4 2D202002 	move $4,$17
 3247 0fb8 21800302 	addu $16,$16,$3
 3248 0fbc 02002596 	lhu $5,2($17)
 3249 0fc0 FAFF4224 	addu $2,$2,-6
 3250 0fc4 FFFF1032 	andi $16,$16,0xffff
 3251 0fc8 140022AE 	sw $2,20($17)
 3252 0fcc 21800502 	addu $16,$16,$5
 3253 0fd0 0000A28F 	lw $2,0($sp)
 3254              	.set noreorder
 3255              	.set nomacro
 3256 0fd4 4CFF0010 	b $L2000
 3257 0fd8 24800202 	and $16,$16,$2
 3258              	.set macro
 3259              	.set reorder
 3260              	
 3261              	$L1017:
 3262 0fdc 2D288002 	move $5,$20
 3263              	.set noreorder
 3264              	.set nomacro
 3265 0fe0 1A01000C 	jal _SNCPUFetch8
 3266 0fe4 2D202002 	move $4,$17
 3267              	.set macro
 3268              	.set reorder
 3269              	
 3270 0fe8 01009426 	addu $20,$20,1
 3271 0fec 2D804000 	move $16,$2
 3272 0ff0 2D202002 	move $4,$17
 3273 0ff4 0A002296 	lhu $2,10($17)
 3274              	
 3275 0ff8 21800202 	addu $16,$16,$2
 3276 0ffc FFFF1032 	andi $16,$16,0xffff
 3277              	.set noreorder
 3278              	.set nomacro
 3279 1000 D400000C 	jal _SNCPURead24
 3280 1004 2D280002 	move $5,$16
 3281              	.set macro
 3282              	.set reorder
 3283              	
 3284 1008 2D202002 	move $4,$17
GAS LISTING  			page 59


 3285 100c 2D804000 	move $16,$2
 3286 1010 04002296 	lhu $2,4($17)
 3287              	$L1921:
 3288              	.set noreorder
 3289              	.set nomacro
 3290 1014 FBFE0010 	b $L1922
 3291 1018 21800202 	addu $16,$16,$2
 3292              	.set macro
 3293              	.set reorder
 3294              	
 3295              	$L1027:
 3296 101c 2D288002 	move $5,$20
 3297              	.set noreorder
 3298              	.set nomacro
 3299 1020 3001000C 	jal _SNCPUFetch16
 3300 1024 2D202002 	move $4,$17
 3301              	.set macro
 3302              	.set reorder
 3303              	
 3304 1028 02009426 	addu $20,$20,2
 3305 102c 2D804000 	move $16,$2
 3306 1030 1000238E 	lw $3,16($17)
 3307 1034 04002296 	lhu $2,4($17)
 3308 1038 2D202002 	move $4,$17
 3309              	$L2067:
 3310              	.set noreorder
 3311              	.set nomacro
 3312 103c F5FF0010 	b $L1921
 3313 1040 25800302 	or $16,$16,$3
 3314              	.set macro
 3315              	.set reorder
 3316              	
 3317              	$L1213:
 3318 1044 00003396 	lhu $19,0($17)
 3319 1048 1400228E 	lw $2,20($17)
 3320 104c 01007326 	addu $19,$19,1
 3321              	$L2078:
 3322 1050 2DA86002 	move $21,$19
 3323 1054 FAFF4224 	addu $2,$2,-6
 3324              	.set noreorder
 3325              	.set nomacro
 3326 1058 53FF0010 	b $L1991
 3327 105c 2DB06002 	move $22,$19
 3328              	.set macro
 3329              	.set reorder
 3330              	
 3331              	$L1388:
 3332 1060 2D288002 	move $5,$20
 3333              	.set noreorder
 3334              	.set nomacro
 3335 1064 3001000C 	jal _SNCPUFetch16
 3336 1068 2D202002 	move $4,$17
 3337              	.set macro
 3338              	.set reorder
 3339              	
 3340 106c 02009426 	addu $20,$20,2
 3341 1070 2D804000 	move $16,$2
GAS LISTING  			page 60


 3342 1074 2D202002 	move $4,$17
 3343 1078 1000228E 	lw $2,16($17)
 3344              	.set noreorder
 3345              	.set nomacro
 3346 107c ABFF0010 	b $L2016
 3347 1080 25800202 	or $16,$16,$2
 3348              	.set macro
 3349              	.set reorder
 3350              	
 3351              	$L1032:
 3352 1084 2D288002 	move $5,$20
 3353              	.set noreorder
 3354              	.set nomacro
 3355 1088 3001000C 	jal _SNCPUFetch16
 3356 108c 2D202002 	move $4,$17
 3357              	.set macro
 3358              	.set reorder
 3359              	
 3360 1090 02009426 	addu $20,$20,2
 3361 1094 2D804000 	move $16,$2
 3362 1098 1000238E 	lw $3,16($17)
 3363 109c 02002296 	lhu $2,2($17)
 3364              	.set noreorder
 3365              	.set nomacro
 3366 10a0 E6FF0010 	b $L2067
 3367 10a4 2D202002 	move $4,$17
 3368              	.set macro
 3369              	.set reorder
 3370              	
 3371              	$L1293:
 3372 10a8 2D288002 	move $5,$20
 3373              	.set noreorder
 3374              	.set nomacro
 3375 10ac 3001000C 	jal _SNCPUFetch16
 3376 10b0 2D202002 	move $4,$17
 3377              	.set macro
 3378              	.set reorder
 3379              	
 3380 10b4 02009426 	addu $20,$20,2
 3381 10b8 1000238E 	lw $3,16($17)
 3382 10bc 2D804000 	move $16,$2
 3383 10c0 02002296 	lhu $2,2($17)
 3384 10c4 2D202002 	move $4,$17
 3385 10c8 25800302 	or $16,$16,$3
 3386 10cc 21800202 	addu $16,$16,$2
 3387              	.set noreorder
 3388              	.set nomacro
 3389 10d0 A400000C 	jal _SNCPURead16
 3390 10d4 2D280002 	move $5,$16
 3391              	.set macro
 3392              	.set reorder
 3393              	
 3394 10d8 2D202002 	move $4,$17
 3395 10dc 2D280002 	move $5,$16
 3396 10e0 40980200 	sll $19,$2,1
 3397              	$L2080:
 3398 10e4 FFFF6632 	andi $6,$19,0xffff
GAS LISTING  			page 61


 3399 10e8 2DA86002 	move $21,$19
 3400              	.set noreorder
 3401              	.set nomacro
 3402 10ec C001000C 	jal _SNCPUWrite16
 3403 10f0 029C1300 	srl $19,$19,16
 3404              	.set macro
 3405              	.set reorder
 3406              	
 3407 10f4 1400228E 	lw $2,20($17)
 3408              	$L2152:
 3409 10f8 01007732 	andi $23,$19,0x1
 3410 10fc 2DB0A002 	move $22,$21
 3411              	$L1747:
 3412              	$L2154:
 3413              	.set noreorder
 3414              	.set nomacro
 3415 1100 EDFE0010 	b $L1671
 3416 1104 F4FF4224 	addu $2,$2,-12
 3417              	.set macro
 3418              	.set reorder
 3419              	
 3420              	$L1037:
 3421 1108 2D288002 	move $5,$20
 3422              	.set noreorder
 3423              	.set nomacro
 3424 110c 6001000C 	jal _SNCPUFetch24
 3425 1110 2D202002 	move $4,$17
 3426              	.set macro
 3427              	.set reorder
 3428              	
 3429 1114 03009426 	addu $20,$20,3
 3430 1118 2D804000 	move $16,$2
 3431 111c 2D202002 	move $4,$17
 3432              	.set noreorder
 3433              	.set nomacro
 3434 1120 BCFF0010 	b $L1921
 3435 1124 02002296 	lhu $2,2($17)
 3436              	.set macro
 3437              	.set reorder
 3438              	
 3439              	$L817:
 3440 1128 2D288002 	move $5,$20
 3441              	.set noreorder
 3442              	.set nomacro
 3443 112c 1A01000C 	jal _SNCPUFetch8
 3444 1130 2D202002 	move $4,$17
 3445              	.set macro
 3446              	.set reorder
 3447              	
 3448 1134 01009426 	addu $20,$20,1
 3449 1138 2D804000 	move $16,$2
 3450 113c 0A002396 	lhu $3,10($17)
 3451 1140 1400228E 	lw $2,20($17)
 3452 1144 2D202002 	move $4,$17
 3453 1148 21800302 	addu $16,$16,$3
 3454 114c 02002596 	lhu $5,2($17)
 3455 1150 FAFF4224 	addu $2,$2,-6
GAS LISTING  			page 62


 3456 1154 FFFF1032 	andi $16,$16,0xffff
 3457 1158 140022AE 	sw $2,20($17)
 3458 115c 21800502 	addu $16,$16,$5
 3459 1160 0000A28F 	lw $2,0($sp)
 3460              	
 3461 1164 24800202 	and $16,$16,$2
 3462              	$L2106:
 3463              	.set noreorder
 3464              	.set nomacro
 3465 1168 A400000C 	jal _SNCPURead16
 3466 116c 2D280002 	move $5,$16
 3467              	.set macro
 3468              	.set reorder
 3469              	
 3470 1170 2D202002 	move $4,$17
 3471 1174 2D804000 	move $16,$2
 3472 1178 1000228E 	lw $2,16($17)
 3473              	$L2090:
 3474 117c 25800202 	or $16,$16,$2
 3475              	$L2061:
 3476 1180 2D280002 	move $5,$16
 3477              	$L2062:
 3478 1184 A400000C 	jal _SNCPURead16
 3478      00000000 
 3479 118c 2D984000 	move $19,$2
 3480              	$L1890:
 3481 1190 00003296 	lhu $18,0($17)
 3482              	.set noreorder
 3483              	.set nomacro
 3484 1194 A1FE0010 	b $L1920
 3485 1198 24905302 	and $18,$18,$19
 3486              	.set macro
 3487              	.set reorder
 3488              	
 3489              	$L822:
 3490 119c 2D288002 	move $5,$20
 3491              	.set noreorder
 3492              	.set nomacro
 3493 11a0 1A01000C 	jal _SNCPUFetch8
 3494 11a4 2D202002 	move $4,$17
 3495              	.set macro
 3496              	.set reorder
 3497              	
 3498 11a8 01009426 	addu $20,$20,1
 3499 11ac 2D804000 	move $16,$2
 3500 11b0 06002396 	lhu $3,6($17)
 3501 11b4 1400228E 	lw $2,20($17)
 3502 11b8 2D202002 	move $4,$17
 3503 11bc 21800302 	addu $16,$16,$3
 3504 11c0 FAFF4224 	addu $2,$2,-6
 3505 11c4 140022AE 	sw $2,20($17)
 3506              	$L2059:
 3507              	.set noreorder
 3508              	.set nomacro
 3509 11c8 EDFF0010 	b $L2061
 3510 11cc FFFF1032 	andi $16,$16,0xffff
 3511              	.set macro
GAS LISTING  			page 63


 3512              	.set reorder
 3513              	
 3514              	$L1358:
 3515 11d0 2D288002 	move $5,$20
 3516              	.set noreorder
 3517              	.set nomacro
 3518 11d4 1A01000C 	jal _SNCPUFetch8
 3519 11d8 2D202002 	move $4,$17
 3520              	.set macro
 3521              	.set reorder
 3522              	
 3523 11dc 01009426 	addu $20,$20,1
 3524 11e0 2D804000 	move $16,$2
 3525 11e4 2D202002 	move $4,$17
 3526 11e8 0A002296 	lhu $2,10($17)
 3527              	
 3528 11ec 21800202 	addu $16,$16,$2
 3529 11f0 FFFF1032 	andi $16,$16,0xffff
 3530              	$L1678:
 3531              	.set noreorder
 3532              	.set nomacro
 3533 11f4 A400000C 	jal _SNCPURead16
 3534 11f8 2D280002 	move $5,$16
 3535              	.set macro
 3536              	.set reorder
 3537              	
 3538 11fc 00003296 	lhu $18,0($17)
 3539 1200 08002392 	lbu $3,8($17)
 3540 1204 2D984000 	move $19,$2
 3541 1208 2DB04000 	move $22,$2
 3542 120c 24A85302 	and $21,$18,$19
 3543 1210 02120200 	srl $2,$2,8
 3544 1214 BF006330 	andi $3,$3,0xbf
 3545 1218 40004230 	andi $2,$2,0x40
 3546 121c 25186200 	or $3,$3,$2
 3547              	.set noreorder
 3548              	.set nomacro
 3549 1220 45FE0010 	b $L110
 3550 1224 080023A2 	sb $3,8($17)
 3551              	.set macro
 3552              	.set reorder
 3553              	
 3554              	$L827:
 3555 1228 2D288002 	move $5,$20
 3556              	.set noreorder
 3557              	.set nomacro
 3558 122c 1A01000C 	jal _SNCPUFetch8
 3559 1230 2D202002 	move $4,$17
 3560              	.set macro
 3561              	.set reorder
 3562              	
 3563 1234 01009426 	addu $20,$20,1
 3564 1238 2D804000 	move $16,$2
 3565 123c 2D202002 	move $4,$17
 3566 1240 0A002296 	lhu $2,10($17)
 3567              	.set noreorder
 3568              	.set nomacro
GAS LISTING  			page 64


 3569 1244 E0FF0010 	b $L2059
 3570 1248 21800202 	addu $16,$16,$2
 3571              	.set macro
 3572              	.set reorder
 3573              	
 3574              	$L1318:
 3575 124c 2D288002 	move $5,$20
 3576              	.set noreorder
 3577              	.set nomacro
 3578 1250 1A01000C 	jal _SNCPUFetch8
 3579 1254 2D202002 	move $4,$17
 3580              	.set macro
 3581              	.set reorder
 3582              	
 3583 1258 0100F232 	andi $18,$23,0x1
 3584 125c 2D804000 	move $16,$2
 3585 1260 2D202002 	move $4,$17
 3586 1264 0A002296 	lhu $2,10($17)
 3587 1268 01009426 	addu $20,$20,1
 3588 126c 21800202 	addu $16,$16,$2
 3589 1270 FFFF1032 	andi $16,$16,0xffff
 3590              	$L2079:
 3591              	.set noreorder
 3592              	.set nomacro
 3593 1274 A400000C 	jal _SNCPURead16
 3594 1278 2D280002 	move $5,$16
 3595              	.set macro
 3596              	.set reorder
 3597              	
 3598 127c 2D202002 	move $4,$17
 3599 1280 40980200 	sll $19,$2,1
 3600 1284 2D280002 	move $5,$16
 3601              	.set noreorder
 3602              	.set nomacro
 3603 1288 A4FE0010 	b $L2003
 3604 128c 25987202 	or $19,$19,$18
 3605              	.set macro
 3606              	.set reorder
 3607              	
 3608              	$L832:
 3609 1290 2D288002 	move $5,$20
 3610              	.set noreorder
 3611              	.set nomacro
 3612 1294 1A01000C 	jal _SNCPUFetch8
 3613 1298 2D202002 	move $4,$17
 3614              	.set macro
 3615              	.set reorder
 3616              	
 3617 129c 01009426 	addu $20,$20,1
 3618 12a0 2D804000 	move $16,$2
 3619 12a4 2D202002 	move $4,$17
 3620 12a8 0A002296 	lhu $2,10($17)
 3621              	
 3622 12ac 21800202 	addu $16,$16,$2
 3623 12b0 FFFF1032 	andi $16,$16,0xffff
 3624              	.set noreorder
 3625              	.set nomacro
GAS LISTING  			page 65


 3626 12b4 D400000C 	jal _SNCPURead24
 3627 12b8 2D280002 	move $5,$16
 3628              	.set macro
 3629              	.set reorder
 3630              	
 3631 12bc 2D202002 	move $4,$17
 3632              	.set noreorder
 3633              	.set nomacro
 3634 12c0 AFFF0010 	b $L2061
 3635 12c4 2D804000 	move $16,$2
 3636              	.set macro
 3637              	.set reorder
 3638              	
 3639              	$L837:
 3640 12c8 2D288002 	move $5,$20
 3641              	.set noreorder
 3642              	.set nomacro
 3643 12cc 3001000C 	jal _SNCPUFetch16
 3644 12d0 2D202002 	move $4,$17
 3645              	.set macro
 3646              	.set reorder
 3647              	
 3648 12d4 02009426 	addu $20,$20,2
 3649              	.set noreorder
 3650              	.set nomacro
 3651 12d8 ADFF0010 	b $L1890
 3652 12dc 2D984000 	move $19,$2
 3653              	.set macro
 3654              	.set reorder
 3655              	
 3656              	$L1228:
 3657 12e0 00003396 	lhu $19,0($17)
 3658 12e4 0100F232 	andi $18,$23,0x1
 3659 12e8 1400228E 	lw $2,20($17)
 3660 12ec 40981300 	sll $19,$19,1
 3661 12f0 25987202 	or $19,$19,$18
 3662 12f4 FAFF4224 	addu $2,$2,-6
 3663 12f8 2DA86002 	move $21,$19
 3664 12fc 2DB06002 	move $22,$19
 3665 1300 02BC1300 	srl $23,$19,16
 3666              	.set noreorder
 3667              	.set nomacro
 3668 1304 A9FE0010 	b $L1679
 3669 1308 140022AE 	sw $2,20($17)
 3670              	.set macro
 3671              	.set reorder
 3672              	
 3673              	$L1363:
 3674 130c 2D288002 	move $5,$20
 3675              	.set noreorder
 3676              	.set nomacro
 3677 1310 3001000C 	jal _SNCPUFetch16
 3678 1314 2D202002 	move $4,$17
 3679              	.set macro
 3680              	.set reorder
 3681              	
 3682 1318 02009426 	addu $20,$20,2
GAS LISTING  			page 66


 3683 131c 2D804000 	move $16,$2
 3684 1320 2D202002 	move $4,$17
 3685 1324 1000228E 	lw $2,16($17)
 3686              	.set noreorder
 3687              	.set nomacro
 3688 1328 B2FF0010 	b $L1678
 3689 132c 25800202 	or $16,$16,$2
 3690              	.set macro
 3691              	.set reorder
 3692              	
 3693              	$L842:
 3694 1330 2D288002 	move $5,$20
 3695              	.set noreorder
 3696              	.set nomacro
 3697 1334 3001000C 	jal _SNCPUFetch16
 3698 1338 2D202002 	move $4,$17
 3699              	.set macro
 3700              	.set reorder
 3701              	
 3702 133c 02009426 	addu $20,$20,2
 3703 1340 2D804000 	move $16,$2
 3704 1344 2D202002 	move $4,$17
 3705              	.set noreorder
 3706              	.set nomacro
 3707 1348 8CFF0010 	b $L2090
 3708 134c 1000228E 	lw $2,16($17)
 3709              	.set macro
 3710              	.set reorder
 3711              	
 3712              	$L1323:
 3713 1350 2D288002 	move $5,$20
 3714              	.set noreorder
 3715              	.set nomacro
 3716 1354 3001000C 	jal _SNCPUFetch16
 3717 1358 2D202002 	move $4,$17
 3718              	.set macro
 3719              	.set reorder
 3720              	
 3721 135c 0100F232 	andi $18,$23,0x1
 3722 1360 2D804000 	move $16,$2
 3723 1364 2D202002 	move $4,$17
 3724 1368 1000228E 	lw $2,16($17)
 3725 136c 02009426 	addu $20,$20,2
 3726              	.set noreorder
 3727              	.set nomacro
 3728 1370 C0FF0010 	b $L2079
 3729 1374 25800202 	or $16,$16,$2
 3730              	.set macro
 3731              	.set reorder
 3732              	
 3733              	$L847:
 3734 1378 2D288002 	move $5,$20
 3735              	.set noreorder
 3736              	.set nomacro
 3737 137c 6001000C 	jal _SNCPUFetch24
 3738 1380 2D202002 	move $4,$17
 3739              	.set macro
GAS LISTING  			page 67


 3740              	.set reorder
 3741              	
 3742 1384 03009426 	addu $20,$20,3
 3743 1388 2D284000 	move $5,$2
 3744              	.set noreorder
 3745              	.set nomacro
 3746 138c 7DFF0010 	b $L2062
 3747 1390 2D202002 	move $4,$17
 3748              	.set macro
 3749              	.set reorder
 3750              	
 3751              	$L852:
 3752 1394 2D288002 	move $5,$20
 3753              	.set noreorder
 3754              	.set nomacro
 3755 1398 1A01000C 	jal _SNCPUFetch8
 3756 139c 2D202002 	move $4,$17
 3757              	.set macro
 3758              	.set reorder
 3759              	
 3760 13a0 01009426 	addu $20,$20,1
 3761 13a4 2D804000 	move $16,$2
 3762 13a8 2D202002 	move $4,$17
 3763 13ac 0A002296 	lhu $2,10($17)
 3764              	
 3765 13b0 21800202 	addu $16,$16,$2
 3766 13b4 FFFF1032 	andi $16,$16,0xffff
 3767              	.set noreorder
 3768              	.set nomacro
 3769 13b8 A400000C 	jal _SNCPURead16
 3770 13bc 2D280002 	move $5,$16
 3771              	.set macro
 3772              	.set reorder
 3773              	
 3774 13c0 04002396 	lhu $3,4($17)
 3775 13c4 2D804000 	move $16,$2
 3776 13c8 2D202002 	move $4,$17
 3777 13cc 1000228E 	lw $2,16($17)
 3778              	
 3779 13d0 25800202 	or $16,$16,$2
 3780              	.set noreorder
 3781              	.set nomacro
 3782 13d4 6AFF0010 	b $L2061
 3783 13d8 21800302 	addu $16,$16,$3
 3784              	.set macro
 3785              	.set reorder
 3786              	
 3787              	$L857:
 3788 13dc 2D288002 	move $5,$20
 3789              	.set noreorder
 3790              	.set nomacro
 3791 13e0 1A01000C 	jal _SNCPUFetch8
 3792 13e4 2D202002 	move $4,$17
 3793              	.set macro
 3794              	.set reorder
 3795              	
 3796 13e8 01009426 	addu $20,$20,1
GAS LISTING  			page 68


 3797 13ec 2D804000 	move $16,$2
 3798 13f0 2D202002 	move $4,$17
 3799 13f4 0A002296 	lhu $2,10($17)
 3800              	
 3801 13f8 21800202 	addu $16,$16,$2
 3802              	.set noreorder
 3803              	.set nomacro
 3804 13fc 5AFF0010 	b $L2106
 3805 1400 FFFF1032 	andi $16,$16,0xffff
 3806              	.set macro
 3807              	.set reorder
 3808              	
 3809              	$L862:
 3810 1404 2D288002 	move $5,$20
 3811              	.set noreorder
 3812              	.set nomacro
 3813 1408 1A01000C 	jal _SNCPUFetch8
 3814 140c 2D202002 	move $4,$17
 3815              	.set macro
 3816              	.set reorder
 3817              	
 3818 1410 01009426 	addu $20,$20,1
 3819 1414 06002396 	lhu $3,6($17)
 3820 1418 2D804000 	move $16,$2
 3821 141c 1400228E 	lw $2,20($17)
 3822 1420 2D202002 	move $4,$17
 3823 1424 21800302 	addu $16,$16,$3
 3824 1428 FAFF4224 	addu $2,$2,-6
 3825 142c FFFF1032 	andi $16,$16,0xffff
 3826 1430 140022AE 	sw $2,20($17)
 3827              	.set noreorder
 3828              	.set nomacro
 3829 1434 A400000C 	jal _SNCPURead16
 3830 1438 2D280002 	move $5,$16
 3831              	.set macro
 3832              	.set reorder
 3833              	
 3834 143c 04002596 	lhu $5,4($17)
 3835 1440 1000238E 	lw $3,16($17)
 3836 1444 2D804000 	move $16,$2
 3837 1448 1400228E 	lw $2,20($17)
 3838 144c 2D202002 	move $4,$17
 3839 1450 25800302 	or $16,$16,$3
 3840 1454 FAFF4224 	addu $2,$2,-6
 3841 1458 21800502 	addu $16,$16,$5
 3842              	.set noreorder
 3843              	.set nomacro
 3844 145c 48FF0010 	b $L2061
 3845 1460 140022AE 	sw $2,20($17)
 3846              	.set macro
 3847              	.set reorder
 3848              	
 3849              	$L1368:
 3850 1464 2D288002 	move $5,$20
 3851              	.set noreorder
 3852              	.set nomacro
 3853 1468 1A01000C 	jal _SNCPUFetch8
GAS LISTING  			page 69


 3854 146c 2D202002 	move $4,$17
 3855              	.set macro
 3856              	.set reorder
 3857              	
 3858 1470 01009426 	addu $20,$20,1
 3859 1474 2D804000 	move $16,$2
 3860 1478 0A002396 	lhu $3,10($17)
 3861 147c 1400228E 	lw $2,20($17)
 3862 1480 2D202002 	move $4,$17
 3863 1484 21800302 	addu $16,$16,$3
 3864 1488 02002596 	lhu $5,2($17)
 3865 148c FAFF4224 	addu $2,$2,-6
 3866 1490 FFFF1032 	andi $16,$16,0xffff
 3867 1494 140022AE 	sw $2,20($17)
 3868 1498 21800502 	addu $16,$16,$5
 3869 149c 0000A28F 	lw $2,0($sp)
 3870              	.set noreorder
 3871              	.set nomacro
 3872 14a0 54FF0010 	b $L1678
 3873 14a4 24800202 	and $16,$16,$2
 3874              	.set macro
 3875              	.set reorder
 3876              	
 3877              	$L867:
 3878 14a8 2D288002 	move $5,$20
 3879              	.set noreorder
 3880              	.set nomacro
 3881 14ac 1A01000C 	jal _SNCPUFetch8
 3882 14b0 2D202002 	move $4,$17
 3883              	.set macro
 3884              	.set reorder
 3885              	
 3886 14b4 01009426 	addu $20,$20,1
 3887 14b8 2D804000 	move $16,$2
 3888 14bc 02002596 	lhu $5,2($17)
 3889 14c0 0A002296 	lhu $2,10($17)
 3890 14c4 2D202002 	move $4,$17
 3891 14c8 1400238E 	lw $3,20($17)
 3892 14cc 21800202 	addu $16,$16,$2
 3893 14d0 0000A28F 	lw $2,0($sp)
 3894 14d4 FFFF1032 	andi $16,$16,0xffff
 3895 14d8 FAFF6324 	addu $3,$3,-6
 3896 14dc 21800502 	addu $16,$16,$5
 3897 14e0 140023AE 	sw $3,20($17)
 3898              	.set noreorder
 3899              	.set nomacro
 3900 14e4 26FF0010 	b $L2061
 3901 14e8 24800202 	and $16,$16,$2
 3902              	.set macro
 3903              	.set reorder
 3904              	
 3905              	$L1328:
 3906 14ec 2D288002 	move $5,$20
 3907              	.set noreorder
 3908              	.set nomacro
 3909 14f0 1A01000C 	jal _SNCPUFetch8
 3910 14f4 2D202002 	move $4,$17
GAS LISTING  			page 70


 3911              	.set macro
 3912              	.set reorder
 3913              	
 3914 14f8 0100F232 	andi $18,$23,0x1
 3915 14fc 2D804000 	move $16,$2
 3916 1500 0A002596 	lhu $5,10($17)
 3917 1504 1400228E 	lw $2,20($17)
 3918 1508 2D202002 	move $4,$17
 3919 150c 21800502 	addu $16,$16,$5
 3920 1510 02002396 	lhu $3,2($17)
 3921 1514 FAFF4224 	addu $2,$2,-6
 3922 1518 FFFF1032 	andi $16,$16,0xffff
 3923 151c 140022AE 	sw $2,20($17)
 3924 1520 21800302 	addu $16,$16,$3
 3925 1524 0000A28F 	lw $2,0($sp)
 3926 1528 01009426 	addu $20,$20,1
 3927              	.set noreorder
 3928              	.set nomacro
 3929 152c 51FF0010 	b $L2079
 3930 1530 24800202 	and $16,$16,$2
 3931              	.set macro
 3932              	.set reorder
 3933              	
 3934              	$L872:
 3935 1534 2D288002 	move $5,$20
 3936              	.set noreorder
 3937              	.set nomacro
 3938 1538 1A01000C 	jal _SNCPUFetch8
 3939 153c 2D202002 	move $4,$17
 3940              	.set macro
 3941              	.set reorder
 3942              	
 3943 1540 01009426 	addu $20,$20,1
 3944 1544 2D804000 	move $16,$2
 3945 1548 2D202002 	move $4,$17
 3946 154c 0A002296 	lhu $2,10($17)
 3947              	
 3948 1550 21800202 	addu $16,$16,$2
 3949 1554 FFFF1032 	andi $16,$16,0xffff
 3950              	.set noreorder
 3951              	.set nomacro
 3952 1558 D400000C 	jal _SNCPURead24
 3953 155c 2D280002 	move $5,$16
 3954              	.set macro
 3955              	.set reorder
 3956              	
 3957 1560 2D202002 	move $4,$17
 3958 1564 2D804000 	move $16,$2
 3959 1568 04002296 	lhu $2,4($17)
 3960              	$L2060:
 3961              	.set noreorder
 3962              	.set nomacro
 3963 156c 04FF0010 	b $L2061
 3964 1570 21800202 	addu $16,$16,$2
 3965              	.set macro
 3966              	.set reorder
 3967              	
GAS LISTING  			page 71


 3968              	$L877:
 3969 1574 2D288002 	move $5,$20
 3970              	.set noreorder
 3971              	.set nomacro
 3972 1578 3001000C 	jal _SNCPUFetch16
 3973 157c 2D202002 	move $4,$17
 3974              	.set macro
 3975              	.set reorder
 3976              	
 3977 1580 02009426 	addu $20,$20,2
 3978 1584 2D804000 	move $16,$2
 3979 1588 1000238E 	lw $3,16($17)
 3980 158c 04002296 	lhu $2,4($17)
 3981 1590 2D202002 	move $4,$17
 3982              	$L2091:
 3983              	.set noreorder
 3984              	.set nomacro
 3985 1594 F5FF0010 	b $L2060
 3986 1598 25800302 	or $16,$16,$3
 3987              	.set macro
 3988              	.set reorder
 3989              	
 3990              	$L1208:
 3991 159c 00003396 	lhu $19,0($17)
 3992 15a0 1400228E 	lw $2,20($17)
 3993              	.set noreorder
 3994              	.set nomacro
 3995 15a4 AAFE0010 	b $L2078
 3996 15a8 FFFF7326 	addu $19,$19,-1
 3997              	.set macro
 3998              	.set reorder
 3999              	
 4000              	$L1373:
 4001 15ac 2D288002 	move $5,$20
 4002              	.set noreorder
 4003              	.set nomacro
 4004 15b0 3001000C 	jal _SNCPUFetch16
 4005 15b4 2D202002 	move $4,$17
 4006              	.set macro
 4007              	.set reorder
 4008              	
 4009 15b8 02009426 	addu $20,$20,2
 4010 15bc 1000238E 	lw $3,16($17)
 4011 15c0 2D804000 	move $16,$2
 4012 15c4 02002296 	lhu $2,2($17)
 4013 15c8 2D202002 	move $4,$17
 4014 15cc 25800302 	or $16,$16,$3
 4015              	.set noreorder
 4016              	.set nomacro
 4017 15d0 08FF0010 	b $L1678
 4018 15d4 21800202 	addu $16,$16,$2
 4019              	.set macro
 4020              	.set reorder
 4021              	
 4022              	$L882:
 4023 15d8 2D288002 	move $5,$20
 4024              	.set noreorder
GAS LISTING  			page 72


 4025              	.set nomacro
 4026 15dc 3001000C 	jal _SNCPUFetch16
 4027 15e0 2D202002 	move $4,$17
 4028              	.set macro
 4029              	.set reorder
 4030              	
 4031 15e4 02009426 	addu $20,$20,2
 4032 15e8 2D804000 	move $16,$2
 4033 15ec 1000238E 	lw $3,16($17)
 4034 15f0 02002296 	lhu $2,2($17)
 4035              	.set noreorder
 4036              	.set nomacro
 4037 15f4 E7FF0010 	b $L2091
 4038 15f8 2D202002 	move $4,$17
 4039              	.set macro
 4040              	.set reorder
 4041              	
 4042              	$L1333:
 4043 15fc 2D288002 	move $5,$20
 4044              	.set noreorder
 4045              	.set nomacro
 4046 1600 3001000C 	jal _SNCPUFetch16
 4047 1604 2D202002 	move $4,$17
 4048              	.set macro
 4049              	.set reorder
 4050              	
 4051 1608 0100F232 	andi $18,$23,0x1
 4052 160c 1000238E 	lw $3,16($17)
 4053 1610 2D804000 	move $16,$2
 4054 1614 02002296 	lhu $2,2($17)
 4055 1618 2D202002 	move $4,$17
 4056 161c 25800302 	or $16,$16,$3
 4057 1620 02009426 	addu $20,$20,2
 4058 1624 21800202 	addu $16,$16,$2
 4059              	.set noreorder
 4060              	.set nomacro
 4061 1628 A400000C 	jal _SNCPURead16
 4062 162c 2D280002 	move $5,$16
 4063              	.set macro
 4064              	.set reorder
 4065              	
 4066 1630 2D202002 	move $4,$17
 4067 1634 40980200 	sll $19,$2,1
 4068 1638 2D280002 	move $5,$16
 4069              	.set noreorder
 4070              	.set nomacro
 4071 163c A9FE0010 	b $L2080
 4072 1640 25987202 	or $19,$19,$18
 4073              	.set macro
 4074              	.set reorder
 4075              	
 4076              	$L887:
 4077 1644 2D288002 	move $5,$20
 4078              	.set noreorder
 4079              	.set nomacro
 4080 1648 6001000C 	jal _SNCPUFetch24
 4081 164c 2D202002 	move $4,$17
GAS LISTING  			page 73


 4082              	.set macro
 4083              	.set reorder
 4084              	
 4085 1650 03009426 	addu $20,$20,3
 4086 1654 2D804000 	move $16,$2
 4087 1658 2D202002 	move $4,$17
 4088              	.set noreorder
 4089              	.set nomacro
 4090 165c C3FF0010 	b $L2060
 4091 1660 02002296 	lhu $2,2($17)
 4092              	.set macro
 4093              	.set reorder
 4094              	
 4095              	$L892:
 4096 1664 2D288002 	move $5,$20
 4097              	.set noreorder
 4098              	.set nomacro
 4099 1668 1A01000C 	jal _SNCPUFetch8
 4100 166c 2D202002 	move $4,$17
 4101              	.set macro
 4102              	.set reorder
 4103              	
 4104 1670 01009426 	addu $20,$20,1
 4105 1674 2D804000 	move $16,$2
 4106 1678 0A002396 	lhu $3,10($17)
 4107 167c 1400228E 	lw $2,20($17)
 4108 1680 2D202002 	move $4,$17
 4109 1684 21800302 	addu $16,$16,$3
 4110 1688 02002596 	lhu $5,2($17)
 4111 168c FAFF4224 	addu $2,$2,-6
 4112 1690 FFFF1032 	andi $16,$16,0xffff
 4113 1694 140022AE 	sw $2,20($17)
 4114 1698 21800502 	addu $16,$16,$5
 4115 169c 0000A28F 	lw $2,0($sp)
 4116              	
 4117 16a0 24800202 	and $16,$16,$2
 4118              	$L2146:
 4119              	.set noreorder
 4120              	.set nomacro
 4121 16a4 A400000C 	jal _SNCPURead16
 4122 16a8 2D280002 	move $5,$16
 4123              	.set macro
 4124              	.set reorder
 4125              	
 4126 16ac 2D202002 	move $4,$17
 4127 16b0 2D804000 	move $16,$2
 4128 16b4 1000228E 	lw $2,16($17)
 4129              	$L2093:
 4130 16b8 25800202 	or $16,$16,$2
 4131              	$L1926:
 4132 16bc 2D280002 	move $5,$16
 4133              	$L1927:
 4134 16c0 A400000C 	jal _SNCPURead16
 4134      00000000 
 4135 16c8 2D984000 	move $19,$2
 4136              	$L1928:
 4137 16cc 00003296 	lhu $18,0($17)
GAS LISTING  			page 74


 4138              	.set noreorder
 4139              	.set nomacro
 4140 16d0 52FD0010 	b $L1920
 4141 16d4 26905302 	xor $18,$18,$19
 4142              	.set macro
 4143              	.set reorder
 4144              	
 4145              	$L897:
 4146 16d8 2D288002 	move $5,$20
 4147              	.set noreorder
 4148              	.set nomacro
 4149 16dc 1A01000C 	jal _SNCPUFetch8
 4150 16e0 2D202002 	move $4,$17
 4151              	.set macro
 4152              	.set reorder
 4153              	
 4154 16e4 01009426 	addu $20,$20,1
 4155 16e8 2D804000 	move $16,$2
 4156 16ec 06002396 	lhu $3,6($17)
 4157 16f0 1400228E 	lw $2,20($17)
 4158 16f4 2D202002 	move $4,$17
 4159 16f8 21800302 	addu $16,$16,$3
 4160 16fc FAFF4224 	addu $2,$2,-6
 4161 1700 140022AE 	sw $2,20($17)
 4162              	$L2141:
 4163              	.set noreorder
 4164              	.set nomacro
 4165 1704 EDFF0010 	b $L1926
 4166 1708 FFFF1032 	andi $16,$16,0xffff
 4167              	.set macro
 4168              	.set reorder
 4169              	
 4170              	$L902:
 4171 170c 2D288002 	move $5,$20
 4172              	.set noreorder
 4173              	.set nomacro
 4174 1710 1A01000C 	jal _SNCPUFetch8
 4175 1714 2D202002 	move $4,$17
 4176              	.set macro
 4177              	.set reorder
 4178              	
 4179 1718 01009426 	addu $20,$20,1
 4180 171c 2D804000 	move $16,$2
 4181 1720 2D202002 	move $4,$17
 4182 1724 0A002296 	lhu $2,10($17)
 4183              	.set noreorder
 4184              	.set nomacro
 4185 1728 F6FF0010 	b $L2141
 4186 172c 21800202 	addu $16,$16,$2
 4187              	.set macro
 4188              	.set reorder
 4189              	
 4190              	$L1298:
 4191 1730 2D288002 	move $5,$20
 4192              	.set noreorder
 4193              	.set nomacro
 4194 1734 1A01000C 	jal _SNCPUFetch8
GAS LISTING  			page 75


 4195 1738 2D202002 	move $4,$17
 4196              	.set macro
 4197              	.set reorder
 4198              	
 4199 173c 01009426 	addu $20,$20,1
 4200 1740 2D804000 	move $16,$2
 4201 1744 2D202002 	move $4,$17
 4202 1748 0A002296 	lhu $2,10($17)
 4203              	
 4204 174c 21800202 	addu $16,$16,$2
 4205 1750 FFFF1032 	andi $16,$16,0xffff
 4206              	$L2009:
 4207              	.set noreorder
 4208              	.set nomacro
 4209 1754 A400000C 	jal _SNCPURead16
 4210 1758 2D280002 	move $5,$16
 4211              	.set macro
 4212              	.set reorder
 4213              	
 4214 175c 2D202002 	move $4,$17
 4215 1760 2D984000 	move $19,$2
 4216 1764 2D280002 	move $5,$16
 4217 1768 01005730 	andi $23,$2,0x1
 4218              	$L2007:
 4219 176c 42981300 	srl $19,$19,1
 4220              	$L1777:
 4221 1770 FFFF6632 	andi $6,$19,0xffff
 4222 1774 2DA86002 	move $21,$19
 4223              	.set noreorder
 4224              	.set nomacro
 4225 1778 4BFD0010 	b $L1785
 4226 177c 2DB06002 	move $22,$19
 4227              	.set macro
 4228              	.set reorder
 4229              	
 4230              	$L907:
 4231 1780 2D288002 	move $5,$20
 4232              	.set noreorder
 4233              	.set nomacro
 4234 1784 1A01000C 	jal _SNCPUFetch8
 4235 1788 2D202002 	move $4,$17
 4236              	.set macro
 4237              	.set reorder
 4238              	
 4239 178c 01009426 	addu $20,$20,1
 4240 1790 2D804000 	move $16,$2
 4241 1794 2D202002 	move $4,$17
 4242 1798 0A002296 	lhu $2,10($17)
 4243              	
 4244 179c 21800202 	addu $16,$16,$2
 4245 17a0 FFFF1032 	andi $16,$16,0xffff
 4246              	.set noreorder
 4247              	.set nomacro
 4248 17a4 D400000C 	jal _SNCPURead24
 4249 17a8 2D280002 	move $5,$16
 4250              	.set macro
 4251              	.set reorder
GAS LISTING  			page 76


 4252              	
 4253 17ac 2D202002 	move $4,$17
 4254              	.set noreorder
 4255              	.set nomacro
 4256 17b0 C2FF0010 	b $L1926
 4257 17b4 2D804000 	move $16,$2
 4258              	.set macro
 4259              	.set reorder
 4260              	
 4261              	$L1437:
 4262 17b8 00002596 	lhu $5,0($17)
 4263              	$L2019:
 4264 17bc 2D202002 	move $4,$17
 4265              	$L1794:
 4266 17c0 2002000C 	jal _SNCPUPush16
 4266      00000000 
 4267              	.set noreorder
 4268              	.set nomacro
 4269 17c8 3AFD0010 	b $L1714
 4270 17cc 1400228E 	lw $2,20($17)
 4271              	.set macro
 4272              	.set reorder
 4273              	
 4274              	$L912:
 4275 17d0 2D288002 	move $5,$20
 4276              	.set noreorder
 4277              	.set nomacro
 4278 17d4 3001000C 	jal _SNCPUFetch16
 4279 17d8 2D202002 	move $4,$17
 4280              	.set macro
 4281              	.set reorder
 4282              	
 4283 17dc 02009426 	addu $20,$20,2
 4284              	.set noreorder
 4285              	.set nomacro
 4286 17e0 BAFF0010 	b $L1928
 4287 17e4 2D984000 	move $19,$2
 4288              	.set macro
 4289              	.set reorder
 4290              	
 4291              	$L1223:
 4292 17e8 00003396 	lhu $19,0($17)
 4293 17ec 1400228E 	lw $2,20($17)
 4294 17f0 01007732 	andi $23,$19,0x1
 4295              	.set noreorder
 4296              	.set nomacro
 4297 17f4 16FE0010 	b $L2078
 4298 17f8 42981300 	srl $19,$19,1
 4299              	.set macro
 4300              	.set reorder
 4301              	
 4302              	$L917:
 4303 17fc 2D288002 	move $5,$20
 4304              	.set noreorder
 4305              	.set nomacro
 4306 1800 3001000C 	jal _SNCPUFetch16
 4307 1804 2D202002 	move $4,$17
GAS LISTING  			page 77


 4308              	.set macro
 4309              	.set reorder
 4310              	
 4311 1808 02009426 	addu $20,$20,2
 4312 180c 2D804000 	move $16,$2
 4313 1810 2D202002 	move $4,$17
 4314              	.set noreorder
 4315              	.set nomacro
 4316 1814 A8FF0010 	b $L2093
 4317 1818 1000228E 	lw $2,16($17)
 4318              	.set macro
 4319              	.set reorder
 4320              	
 4321              	$L1303:
 4322 181c 2D288002 	move $5,$20
 4323              	.set noreorder
 4324              	.set nomacro
 4325 1820 3001000C 	jal _SNCPUFetch16
 4326 1824 2D202002 	move $4,$17
 4327              	.set macro
 4328              	.set reorder
 4329              	
 4330 1828 02009426 	addu $20,$20,2
 4331 182c 2D804000 	move $16,$2
 4332 1830 2D202002 	move $4,$17
 4333 1834 1000228E 	lw $2,16($17)
 4334              	.set noreorder
 4335              	.set nomacro
 4336 1838 C6FF0010 	b $L2009
 4337 183c 25800202 	or $16,$16,$2
 4338              	.set macro
 4339              	.set reorder
 4340              	
 4341              	$L922:
 4342 1840 2D288002 	move $5,$20
 4343              	.set noreorder
 4344              	.set nomacro
 4345 1844 6001000C 	jal _SNCPUFetch24
 4346 1848 2D202002 	move $4,$17
 4347              	.set macro
 4348              	.set reorder
 4349              	
 4350 184c 03009426 	addu $20,$20,3
 4351 1850 2D284000 	move $5,$2
 4352              	.set noreorder
 4353              	.set nomacro
 4354 1854 9AFF0010 	b $L1927
 4355 1858 2D202002 	move $4,$17
 4356              	.set macro
 4357              	.set reorder
 4358              	
 4359              	$L927:
 4360 185c 2D288002 	move $5,$20
 4361              	.set noreorder
 4362              	.set nomacro
 4363 1860 1A01000C 	jal _SNCPUFetch8
 4364 1864 2D202002 	move $4,$17
GAS LISTING  			page 78


 4365              	.set macro
 4366              	.set reorder
 4367              	
 4368 1868 01009426 	addu $20,$20,1
 4369 186c 2D804000 	move $16,$2
 4370 1870 2D202002 	move $4,$17
 4371 1874 0A002296 	lhu $2,10($17)
 4372              	
 4373 1878 21800202 	addu $16,$16,$2
 4374 187c FFFF1032 	andi $16,$16,0xffff
 4375              	.set noreorder
 4376              	.set nomacro
 4377 1880 A400000C 	jal _SNCPURead16
 4378 1884 2D280002 	move $5,$16
 4379              	.set macro
 4380              	.set reorder
 4381              	
 4382 1888 04002396 	lhu $3,4($17)
 4383 188c 2D804000 	move $16,$2
 4384 1890 2D202002 	move $4,$17
 4385 1894 1000228E 	lw $2,16($17)
 4386              	
 4387 1898 25800202 	or $16,$16,$2
 4388              	.set noreorder
 4389              	.set nomacro
 4390 189c 87FF0010 	b $L1926
 4391 18a0 21800302 	addu $16,$16,$3
 4392              	.set macro
 4393              	.set reorder
 4394              	
 4395              	$L932:
 4396 18a4 2D288002 	move $5,$20
 4397              	.set noreorder
 4398              	.set nomacro
 4399 18a8 1A01000C 	jal _SNCPUFetch8
 4400 18ac 2D202002 	move $4,$17
 4401              	.set macro
 4402              	.set reorder
 4403              	
 4404 18b0 01009426 	addu $20,$20,1
 4405 18b4 2D804000 	move $16,$2
 4406 18b8 2D202002 	move $4,$17
 4407 18bc 0A002296 	lhu $2,10($17)
 4408              	
 4409 18c0 21800202 	addu $16,$16,$2
 4410              	.set noreorder
 4411              	.set nomacro
 4412 18c4 77FF0010 	b $L2146
 4413 18c8 FFFF1032 	andi $16,$16,0xffff
 4414              	.set macro
 4415              	.set reorder
 4416              	
 4417              	$L937:
 4418 18cc 2D288002 	move $5,$20
 4419              	.set noreorder
 4420              	.set nomacro
 4421 18d0 1A01000C 	jal _SNCPUFetch8
GAS LISTING  			page 79


 4422 18d4 2D202002 	move $4,$17
 4423              	.set macro
 4424              	.set reorder
 4425              	
 4426 18d8 01009426 	addu $20,$20,1
 4427 18dc 06002396 	lhu $3,6($17)
 4428 18e0 2D804000 	move $16,$2
 4429 18e4 1400228E 	lw $2,20($17)
 4430 18e8 2D202002 	move $4,$17
 4431 18ec 21800302 	addu $16,$16,$3
 4432 18f0 FAFF4224 	addu $2,$2,-6
 4433 18f4 FFFF1032 	andi $16,$16,0xffff
 4434 18f8 140022AE 	sw $2,20($17)
 4435              	.set noreorder
 4436              	.set nomacro
 4437 18fc A400000C 	jal _SNCPURead16
 4438 1900 2D280002 	move $5,$16
 4439              	.set macro
 4440              	.set reorder
 4441              	
 4442 1904 04002596 	lhu $5,4($17)
 4443 1908 1000238E 	lw $3,16($17)
 4444 190c 2D804000 	move $16,$2
 4445 1910 1400228E 	lw $2,20($17)
 4446 1914 2D202002 	move $4,$17
 4447 1918 25800302 	or $16,$16,$3
 4448 191c FAFF4224 	addu $2,$2,-6
 4449 1920 21800502 	addu $16,$16,$5
 4450              	.set noreorder
 4451              	.set nomacro
 4452 1924 65FF0010 	b $L1926
 4453 1928 140022AE 	sw $2,20($17)
 4454              	.set macro
 4455              	.set reorder
 4456              	
 4457              	$L942:
 4458 192c 2D288002 	move $5,$20
 4459              	.set noreorder
 4460              	.set nomacro
 4461 1930 1A01000C 	jal _SNCPUFetch8
 4462 1934 2D202002 	move $4,$17
 4463              	.set macro
 4464              	.set reorder
 4465              	
 4466 1938 01009426 	addu $20,$20,1
 4467 193c 2D804000 	move $16,$2
 4468 1940 02002596 	lhu $5,2($17)
 4469 1944 0A002296 	lhu $2,10($17)
 4470 1948 2D202002 	move $4,$17
 4471 194c 1400238E 	lw $3,20($17)
 4472 1950 21800202 	addu $16,$16,$2
 4473 1954 0000A28F 	lw $2,0($sp)
 4474 1958 FFFF1032 	andi $16,$16,0xffff
 4475 195c FAFF6324 	addu $3,$3,-6
 4476 1960 21800502 	addu $16,$16,$5
 4477 1964 140023AE 	sw $3,20($17)
 4478              	.set noreorder
GAS LISTING  			page 80


 4479              	.set nomacro
 4480 1968 54FF0010 	b $L1926
 4481 196c 24800202 	and $16,$16,$2
 4482              	.set macro
 4483              	.set reorder
 4484              	
 4485              	$L1308:
 4486 1970 2D288002 	move $5,$20
 4487              	.set noreorder
 4488              	.set nomacro
 4489 1974 1A01000C 	jal _SNCPUFetch8
 4490 1978 2D202002 	move $4,$17
 4491              	.set macro
 4492              	.set reorder
 4493              	
 4494 197c 01009426 	addu $20,$20,1
 4495 1980 2D804000 	move $16,$2
 4496 1984 0A002396 	lhu $3,10($17)
 4497 1988 1400228E 	lw $2,20($17)
 4498 198c 2D202002 	move $4,$17
 4499 1990 21800302 	addu $16,$16,$3
 4500 1994 02002596 	lhu $5,2($17)
 4501 1998 FAFF4224 	addu $2,$2,-6
 4502 199c FFFF1032 	andi $16,$16,0xffff
 4503 19a0 140022AE 	sw $2,20($17)
 4504 19a4 21800502 	addu $16,$16,$5
 4505 19a8 0000A28F 	lw $2,0($sp)
 4506              	.set noreorder
 4507              	.set nomacro
 4508 19ac 69FF0010 	b $L2009
 4509 19b0 24800202 	and $16,$16,$2
 4510              	.set macro
 4511              	.set reorder
 4512              	
 4513              	$L947:
 4514 19b4 2D288002 	move $5,$20
 4515              	.set noreorder
 4516              	.set nomacro
 4517 19b8 1A01000C 	jal _SNCPUFetch8
 4518 19bc 2D202002 	move $4,$17
 4519              	.set macro
 4520              	.set reorder
 4521              	
 4522 19c0 01009426 	addu $20,$20,1
 4523 19c4 2D804000 	move $16,$2
 4524 19c8 2D202002 	move $4,$17
 4525 19cc 0A002296 	lhu $2,10($17)
 4526              	
 4527 19d0 21800202 	addu $16,$16,$2
 4528 19d4 FFFF1032 	andi $16,$16,0xffff
 4529              	.set noreorder
 4530              	.set nomacro
 4531 19d8 D400000C 	jal _SNCPURead24
 4532 19dc 2D280002 	move $5,$16
 4533              	.set macro
 4534              	.set reorder
 4535              	
GAS LISTING  			page 81


 4536 19e0 2D202002 	move $4,$17
 4537 19e4 2D804000 	move $16,$2
 4538 19e8 04002296 	lhu $2,4($17)
 4539              	$L1925:
 4540              	.set noreorder
 4541              	.set nomacro
 4542 19ec 33FF0010 	b $L1926
 4543 19f0 21800202 	addu $16,$16,$2
 4544              	.set macro
 4545              	.set reorder
 4546              	
 4547              	$L952:
 4548 19f4 2D288002 	move $5,$20
 4549              	.set noreorder
 4550              	.set nomacro
 4551 19f8 3001000C 	jal _SNCPUFetch16
 4552 19fc 2D202002 	move $4,$17
 4553              	.set macro
 4554              	.set reorder
 4555              	
 4556 1a00 02009426 	addu $20,$20,2
 4557 1a04 2D804000 	move $16,$2
 4558 1a08 1000238E 	lw $3,16($17)
 4559 1a0c 04002296 	lhu $2,4($17)
 4560 1a10 2D202002 	move $4,$17
 4561              	$L2064:
 4562              	.set noreorder
 4563              	.set nomacro
 4564 1a14 F5FF0010 	b $L1925
 4565 1a18 25800302 	or $16,$16,$3
 4566              	.set macro
 4567              	.set reorder
 4568              	
 4569              	$L957:
 4570 1a1c 2D288002 	move $5,$20
 4571              	.set noreorder
 4572              	.set nomacro
 4573 1a20 3001000C 	jal _SNCPUFetch16
 4574 1a24 2D202002 	move $4,$17
 4575              	.set macro
 4576              	.set reorder
 4577              	
 4578 1a28 02009426 	addu $20,$20,2
 4579 1a2c 2D804000 	move $16,$2
 4580 1a30 1000238E 	lw $3,16($17)
 4581 1a34 02002296 	lhu $2,2($17)
 4582              	.set noreorder
 4583              	.set nomacro
 4584 1a38 F6FF0010 	b $L2064
 4585 1a3c 2D202002 	move $4,$17
 4586              	.set macro
 4587              	.set reorder
 4588              	
 4589              	$L1313:
 4590 1a40 2D288002 	move $5,$20
 4591              	.set noreorder
 4592              	.set nomacro
GAS LISTING  			page 82


 4593 1a44 3001000C 	jal _SNCPUFetch16
 4594 1a48 2D202002 	move $4,$17
 4595              	.set macro
 4596              	.set reorder
 4597              	
 4598 1a4c 02009426 	addu $20,$20,2
 4599 1a50 1000238E 	lw $3,16($17)
 4600 1a54 2D804000 	move $16,$2
 4601 1a58 02002296 	lhu $2,2($17)
 4602 1a5c 2D202002 	move $4,$17
 4603 1a60 25800302 	or $16,$16,$3
 4604 1a64 21800202 	addu $16,$16,$2
 4605              	.set noreorder
 4606              	.set nomacro
 4607 1a68 A400000C 	jal _SNCPURead16
 4608 1a6c 2D280002 	move $5,$16
 4609              	.set macro
 4610              	.set reorder
 4611              	
 4612 1a70 2D202002 	move $4,$17
 4613 1a74 2D984000 	move $19,$2
 4614 1a78 2D280002 	move $5,$16
 4615 1a7c 01005730 	andi $23,$2,0x1
 4616              	$L2082:
 4617 1a80 42981300 	srl $19,$19,1
 4618              	$L2029:
 4619 1a84 FFFF6632 	andi $6,$19,0xffff
 4620 1a88 2DA86002 	move $21,$19
 4621              	.set noreorder
 4622              	.set nomacro
 4623 1a8c C001000C 	jal _SNCPUWrite16
 4624 1a90 2DB06002 	move $22,$19
 4625              	.set macro
 4626              	.set reorder
 4627              	
 4628              	$L1604:
 4629              	.set noreorder
 4630              	.set nomacro
 4631 1a94 9AFD0010 	b $L1747
 4632 1a98 1400228E 	lw $2,20($17)
 4633              	.set macro
 4634              	.set reorder
 4635              	
 4636              	$L962:
 4637 1a9c 2D288002 	move $5,$20
 4638              	.set noreorder
 4639              	.set nomacro
 4640 1aa0 6001000C 	jal _SNCPUFetch24
 4641 1aa4 2D202002 	move $4,$17
 4642              	.set macro
 4643              	.set reorder
 4644              	
 4645 1aa8 03009426 	addu $20,$20,3
 4646 1aac 2D804000 	move $16,$2
 4647 1ab0 2D202002 	move $4,$17
 4648              	.set noreorder
 4649              	.set nomacro
GAS LISTING  			page 83


 4650 1ab4 CDFF0010 	b $L1925
 4651 1ab8 02002296 	lhu $2,2($17)
 4652              	.set macro
 4653              	.set reorder
 4654              	
 4655              	$L242:
 4656 1abc 2D288002 	move $5,$20
 4657              	.set noreorder
 4658              	.set nomacro
 4659 1ac0 1A01000C 	jal _SNCPUFetch8
 4660 1ac4 2D202002 	move $4,$17
 4661              	.set macro
 4662              	.set reorder
 4663              	
 4664 1ac8 01009426 	addu $20,$20,1
 4665 1acc 2D804000 	move $16,$2
 4666 1ad0 0A002396 	lhu $3,10($17)
 4667 1ad4 1400228E 	lw $2,20($17)
 4668 1ad8 2D202002 	move $4,$17
 4669 1adc 21800302 	addu $16,$16,$3
 4670 1ae0 02002596 	lhu $5,2($17)
 4671 1ae4 FAFF4224 	addu $2,$2,-6
 4672 1ae8 FFFF1032 	andi $16,$16,0xffff
 4673 1aec 140022AE 	sw $2,20($17)
 4674 1af0 21800502 	addu $16,$16,$5
 4675 1af4 0000A28F 	lw $2,0($sp)
 4676              	
 4677 1af8 24800202 	and $16,$16,$2
 4678              	$L2142:
 4679              	.set noreorder
 4680              	.set nomacro
 4681 1afc A400000C 	jal _SNCPURead16
 4682 1b00 2D280002 	move $5,$16
 4683              	.set macro
 4684              	.set reorder
 4685              	
 4686 1b04 2D202002 	move $4,$17
 4687 1b08 2D804000 	move $16,$2
 4688 1b0c 1000228E 	lw $2,16($17)
 4689              	$L2117:
 4690 1b10 25800202 	or $16,$16,$2
 4691              	$L2112:
 4692              	.set noreorder
 4693              	.set nomacro
 4694 1b14 A400000C 	jal _SNCPURead16
 4695 1b18 2D280002 	move $5,$16
 4696              	.set macro
 4697              	.set reorder
 4698              	
 4699 1b1c 00003296 	lhu $18,0($17)
 4700 1b20 0100E432 	andi $4,$23,0x1
 4701 1b24 2D984000 	move $19,$2
 4702 1b28 21184202 	addu $3,$18,$2
 4703 1b2c 2D284002 	move $5,$18
 4704 1b30 26104202 	xor $2,$18,$2
 4705 1b34 21906400 	addu $18,$3,$4
 4706 1b38 27100200 	nor $2,$0,$2
GAS LISTING  			page 84


 4707 1b3c 2618B200 	xor $3,$5,$18
 4708 1b40 24104300 	and $2,$2,$3
 4709 1b44 00804230 	andi $2,$2,0x8000
 4710              	.set noreorder
 4711              	.set nomacro
 4712 1b48 10004010 	beq $2,$0,$L397
 4713 1b4c 08002292 	lbu $2,8($17)
 4714              	.set macro
 4715              	.set reorder
 4716              	
 4717              	$L2161:
 4718 1b50 40004234 	ori $2,$2,0x40
 4719              	$L1639:
 4720 1b54 080022A2 	sb $2,8($17)
 4721 1b58 08002292 	lbu $2,8($17)
 4722              	
 4723 1b5c 08004230 	andi $2,$2,0x8
 4724              	.set noreorder
 4725              	.set nomacro
 4726 1b60 05004050 	beql $2,$0,$L2160
 4727 1b64 2DA84002 	move $21,$18
 4728              	.set macro
 4729              	.set reorder
 4730              	
 4731              	.set noreorder
 4732              	.set nomacro
 4733 1b68 1600000C 	jal _SNCpuDecimalADC16
 4734 1b6c 2D306002 	move $6,$19
 4735              	.set macro
 4736              	.set reorder
 4737              	
 4738 1b70 2D904000 	move $18,$2
 4739              	$L564:
 4740 1b74 2DA84002 	move $21,$18
 4741              	$L2160:
 4742 1b78 000032A6 	sh $18,0($17)
 4743 1b7c 02941200 	srl $18,$18,16
 4744              	$L1945:
 4745 1b80 2DB0A002 	move $22,$21
 4746              	$L1683:
 4747              	.set noreorder
 4748              	.set nomacro
 4749 1b84 ECFB0010 	b $L110
 4750 1b88 01005732 	andi $23,$18,0x1
 4751              	.set macro
 4752              	.set reorder
 4753              	
 4754              	$L397:
 4755              	.set noreorder
 4756              	.set nomacro
 4757 1b8c F1FF0010 	b $L1639
 4758 1b90 BF004230 	andi $2,$2,0xbf
 4759              	.set macro
 4760              	.set reorder
 4761              	
 4762              	$L253:
 4763 1b94 2D288002 	move $5,$20
GAS LISTING  			page 85


 4764              	.set noreorder
 4765              	.set nomacro
 4766 1b98 1A01000C 	jal _SNCPUFetch8
 4767 1b9c 2D202002 	move $4,$17
 4768              	.set macro
 4769              	.set reorder
 4770              	
 4771 1ba0 01009426 	addu $20,$20,1
 4772 1ba4 2D804000 	move $16,$2
 4773 1ba8 06002396 	lhu $3,6($17)
 4774 1bac 1400228E 	lw $2,20($17)
 4775 1bb0 2D202002 	move $4,$17
 4776 1bb4 21800302 	addu $16,$16,$3
 4777 1bb8 FAFF4224 	addu $2,$2,-6
 4778 1bbc 140022AE 	sw $2,20($17)
 4779              	$L2116:
 4780              	.set noreorder
 4781              	.set nomacro
 4782 1bc0 D4FF0010 	b $L2112
 4783 1bc4 FFFF1032 	andi $16,$16,0xffff
 4784              	.set macro
 4785              	.set reorder
 4786              	
 4787              	$L747:
 4788 1bc8 2D202002 	move $4,$17
 4789              	.set noreorder
 4790              	.set nomacro
 4791 1bcc 1A01000C 	jal _SNCPUFetch8
 4792 1bd0 2D288002 	move $5,$20
 4793              	.set macro
 4794              	.set reorder
 4795              	
 4796 1bd4 01009426 	addu $20,$20,1
 4797 1bd8 2D804000 	move $16,$2
 4798 1bdc 2D202002 	move $4,$17
 4799 1be0 0A002296 	lhu $2,10($17)
 4800 1be4 2D300000 	move $6,$0
 4801              	$L2052:
 4802 1be8 21800202 	addu $16,$16,$2
 4803              	$L1814:
 4804 1bec FFFF1032 	andi $16,$16,0xffff
 4805              	$L1686:
 4806 1bf0 2D280002 	move $5,$16
 4807              	$L1688:
 4808 1bf4 C001000C 	jal _SNCPUWrite16
 4808      00000000 
 4809              	.set noreorder
 4810              	.set nomacro
 4811 1bfc CFFB0010 	b $L2147
 4812 1c00 1400228E 	lw $2,20($17)
 4813              	.set macro
 4814              	.set reorder
 4815              	
 4816              	$L264:
 4817 1c04 2D288002 	move $5,$20
 4818              	.set noreorder
 4819              	.set nomacro
GAS LISTING  			page 86


 4820 1c08 1A01000C 	jal _SNCPUFetch8
 4821 1c0c 2D202002 	move $4,$17
 4822              	.set macro
 4823              	.set reorder
 4824              	
 4825 1c10 01009426 	addu $20,$20,1
 4826 1c14 2D804000 	move $16,$2
 4827 1c18 2D202002 	move $4,$17
 4828 1c1c 0A002296 	lhu $2,10($17)
 4829              	.set noreorder
 4830              	.set nomacro
 4831 1c20 E7FF0010 	b $L2116
 4832 1c24 21800202 	addu $16,$16,$2
 4833              	.set macro
 4834              	.set reorder
 4835              	
 4836              	$L1338:
 4837 1c28 2D288002 	move $5,$20
 4838              	.set noreorder
 4839              	.set nomacro
 4840 1c2c 1A01000C 	jal _SNCPUFetch8
 4841 1c30 2D202002 	move $4,$17
 4842              	.set macro
 4843              	.set reorder
 4844              	
 4845 1c34 0100F232 	andi $18,$23,0x1
 4846 1c38 2D804000 	move $16,$2
 4847 1c3c 2D202002 	move $4,$17
 4848 1c40 0A002296 	lhu $2,10($17)
 4849 1c44 00941200 	sll $18,$18,16
 4850 1c48 01009426 	addu $20,$20,1
 4851 1c4c 21800202 	addu $16,$16,$2
 4852 1c50 FFFF1032 	andi $16,$16,0xffff
 4853              	$L2006:
 4854              	.set noreorder
 4855              	.set nomacro
 4856 1c54 A400000C 	jal _SNCPURead16
 4857 1c58 2D280002 	move $5,$16
 4858              	.set macro
 4859              	.set reorder
 4860              	
 4861 1c5c 2D202002 	move $4,$17
 4862 1c60 2D280002 	move $5,$16
 4863 1c64 01005730 	andi $23,$2,0x1
 4864              	.set noreorder
 4865              	.set nomacro
 4866 1c68 C0FE0010 	b $L2007
 4867 1c6c 25985200 	or $19,$2,$18
 4868              	.set macro
 4869              	.set reorder
 4870              	
 4871              	$L275:
 4872 1c70 2D288002 	move $5,$20
 4873              	.set noreorder
 4874              	.set nomacro
 4875 1c74 1A01000C 	jal _SNCPUFetch8
 4876 1c78 2D202002 	move $4,$17
GAS LISTING  			page 87


 4877              	.set macro
 4878              	.set reorder
 4879              	
 4880 1c7c 01009426 	addu $20,$20,1
 4881 1c80 2D804000 	move $16,$2
 4882 1c84 2D202002 	move $4,$17
 4883 1c88 0A002296 	lhu $2,10($17)
 4884              	
 4885 1c8c 21800202 	addu $16,$16,$2
 4886 1c90 FFFF1032 	andi $16,$16,0xffff
 4887              	.set noreorder
 4888              	.set nomacro
 4889 1c94 D400000C 	jal _SNCPURead24
 4890 1c98 2D280002 	move $5,$16
 4891              	.set macro
 4892              	.set reorder
 4893              	
 4894 1c9c 2D202002 	move $4,$17
 4895              	.set noreorder
 4896              	.set nomacro
 4897 1ca0 9CFF0010 	b $L2112
 4898 1ca4 2D804000 	move $16,$2
 4899              	.set macro
 4900              	.set reorder
 4901              	
 4902              	$L1442:
 4903              	.set noreorder
 4904              	.set nomacro
 4905 1ca8 6A02000C 	jal _SNCPUPop16
 4906 1cac 2D202002 	move $4,$17
 4907              	.set macro
 4908              	.set reorder
 4909              	
 4910 1cb0 2D804000 	move $16,$2
 4911 1cb4 1400228E 	lw $2,20($17)
 4912 1cb8 2DA80002 	move $21,$16
 4913 1cbc 000030A6 	sh $16,0($17)
 4914              	$L2020:
 4915 1cc0 F4FF4224 	addu $2,$2,-12
 4916              	$L1753:
 4917              	.set noreorder
 4918              	.set nomacro
 4919 1cc4 FCFB0010 	b $L1671
 4920 1cc8 2DB0A002 	move $22,$21
 4921              	.set macro
 4922              	.set reorder
 4923              	
 4924              	$L286:
 4925 1ccc 2D288002 	move $5,$20
 4926              	.set noreorder
 4927              	.set nomacro
 4928 1cd0 3001000C 	jal _SNCPUFetch16
 4929 1cd4 2D202002 	move $4,$17
 4930              	.set macro
 4931              	.set reorder
 4932              	
 4933 1cd8 02009426 	addu $20,$20,2
GAS LISTING  			page 88


 4934 1cdc 00003296 	lhu $18,0($17)
 4935 1ce0 2D984000 	move $19,$2
 4936 1ce4 0100E432 	andi $4,$23,0x1
 4937              	$L2113:
 4938 1ce8 21105302 	addu $2,$18,$19
 4939 1cec 2D284002 	move $5,$18
 4940 1cf0 26185302 	xor $3,$18,$19
 4941 1cf4 21904400 	addu $18,$2,$4
 4942 1cf8 27180300 	nor $3,$0,$3
 4943 1cfc 2610B200 	xor $2,$5,$18
 4944 1d00 24186200 	and $3,$3,$2
 4945 1d04 00806330 	andi $3,$3,0x8000
 4946              	.set noreorder
 4947              	.set nomacro
 4948 1d08 91FF6014 	bne $3,$0,$L2161
 4949 1d0c 08002292 	lbu $2,8($17)
 4950              	.set macro
 4951              	.set reorder
 4952              	
 4953              	.set noreorder
 4954              	.set nomacro
 4955 1d10 90FF0010 	b $L1639
 4956 1d14 BF004230 	andi $2,$2,0xbf
 4957              	.set macro
 4958              	.set reorder
 4959              	
 4960              	$L1233:
 4961 1d18 0100F232 	andi $18,$23,0x1
 4962 1d1c 00003396 	lhu $19,0($17)
 4963 1d20 1400228E 	lw $2,20($17)
 4964 1d24 00941200 	sll $18,$18,16
 4965 1d28 01007732 	andi $23,$19,0x1
 4966 1d2c 25987202 	or $19,$19,$18
 4967 1d30 FAFF4224 	addu $2,$2,-6
 4968 1d34 42981300 	srl $19,$19,1
 4969 1d38 140022AE 	sw $2,20($17)
 4970 1d3c 2DA86002 	move $21,$19
 4971              	.set noreorder
 4972              	.set nomacro
 4973 1d40 1AFC0010 	b $L1679
 4974 1d44 2DB06002 	move $22,$19
 4975              	.set macro
 4976              	.set reorder
 4977              	
 4978              	$L297:
 4979 1d48 2D288002 	move $5,$20
 4980              	.set noreorder
 4981              	.set nomacro
 4982 1d4c 3001000C 	jal _SNCPUFetch16
 4983 1d50 2D202002 	move $4,$17
 4984              	.set macro
 4985              	.set reorder
 4986              	
 4987 1d54 02009426 	addu $20,$20,2
 4988 1d58 2D804000 	move $16,$2
 4989 1d5c 2D202002 	move $4,$17
 4990              	.set noreorder
GAS LISTING  			page 89


 4991              	.set nomacro
 4992 1d60 6BFF0010 	b $L2117
 4993 1d64 1000228E 	lw $2,16($17)
 4994              	.set macro
 4995              	.set reorder
 4996              	
 4997              	$L1343:
 4998 1d68 2D288002 	move $5,$20
 4999              	.set noreorder
 5000              	.set nomacro
 5001 1d6c 3001000C 	jal _SNCPUFetch16
 5002 1d70 2D202002 	move $4,$17
 5003              	.set macro
 5004              	.set reorder
 5005              	
 5006 1d74 0100F232 	andi $18,$23,0x1
 5007 1d78 2D804000 	move $16,$2
 5008 1d7c 2D202002 	move $4,$17
 5009 1d80 1000228E 	lw $2,16($17)
 5010 1d84 00941200 	sll $18,$18,16
 5011 1d88 02009426 	addu $20,$20,2
 5012              	.set noreorder
 5013              	.set nomacro
 5014 1d8c B1FF0010 	b $L2006
 5015 1d90 25800202 	or $16,$16,$2
 5016              	.set macro
 5017              	.set reorder
 5018              	
 5019              	$L308:
 5020 1d94 2D288002 	move $5,$20
 5021              	.set noreorder
 5022              	.set nomacro
 5023 1d98 6001000C 	jal _SNCPUFetch24
 5024 1d9c 2D202002 	move $4,$17
 5025              	.set macro
 5026              	.set reorder
 5027              	
 5028 1da0 03009426 	addu $20,$20,3
 5029 1da4 2D202002 	move $4,$17
 5030              	.set noreorder
 5031              	.set nomacro
 5032 1da8 A400000C 	jal _SNCPURead16
 5033 1dac 2D284000 	move $5,$2
 5034              	.set macro
 5035              	.set reorder
 5036              	
 5037 1db0 00003296 	lhu $18,0($17)
 5038 1db4 2D984000 	move $19,$2
 5039              	.set noreorder
 5040              	.set nomacro
 5041 1db8 CBFF0010 	b $L2113
 5042 1dbc 0100E432 	andi $4,$23,0x1
 5043              	.set macro
 5044              	.set reorder
 5045              	
 5046              	$L319:
 5047 1dc0 2D288002 	move $5,$20
GAS LISTING  			page 90


 5048              	.set noreorder
 5049              	.set nomacro
 5050 1dc4 1A01000C 	jal _SNCPUFetch8
 5051 1dc8 2D202002 	move $4,$17
 5052              	.set macro
 5053              	.set reorder
 5054              	
 5055 1dcc 01009426 	addu $20,$20,1
 5056 1dd0 2D804000 	move $16,$2
 5057 1dd4 2D202002 	move $4,$17
 5058 1dd8 0A002296 	lhu $2,10($17)
 5059              	
 5060 1ddc 21800202 	addu $16,$16,$2
 5061 1de0 FFFF1032 	andi $16,$16,0xffff
 5062              	.set noreorder
 5063              	.set nomacro
 5064 1de4 A400000C 	jal _SNCPURead16
 5065 1de8 2D280002 	move $5,$16
 5066              	.set macro
 5067              	.set reorder
 5068              	
 5069 1dec 04002396 	lhu $3,4($17)
 5070 1df0 2D804000 	move $16,$2
 5071 1df4 2D202002 	move $4,$17
 5072 1df8 1000228E 	lw $2,16($17)
 5073              	
 5074 1dfc 25800202 	or $16,$16,$2
 5075              	.set noreorder
 5076              	.set nomacro
 5077 1e00 44FF0010 	b $L2112
 5078 1e04 21800302 	addu $16,$16,$3
 5079              	.set macro
 5080              	.set reorder
 5081              	
 5082              	$L330:
 5083 1e08 2D288002 	move $5,$20
 5084              	.set noreorder
 5085              	.set nomacro
 5086 1e0c 1A01000C 	jal _SNCPUFetch8
 5087 1e10 2D202002 	move $4,$17
 5088              	.set macro
 5089              	.set reorder
 5090              	
 5091 1e14 01009426 	addu $20,$20,1
 5092 1e18 2D804000 	move $16,$2
 5093 1e1c 2D202002 	move $4,$17
 5094 1e20 0A002296 	lhu $2,10($17)
 5095              	
 5096 1e24 21800202 	addu $16,$16,$2
 5097              	.set noreorder
 5098              	.set nomacro
 5099 1e28 34FF0010 	b $L2142
 5100 1e2c FFFF1032 	andi $16,$16,0xffff
 5101              	.set macro
 5102              	.set reorder
 5103              	
 5104              	$L341:
GAS LISTING  			page 91


 5105 1e30 2D288002 	move $5,$20
 5106              	.set noreorder
 5107              	.set nomacro
 5108 1e34 1A01000C 	jal _SNCPUFetch8
 5109 1e38 2D202002 	move $4,$17
 5110              	.set macro
 5111              	.set reorder
 5112              	
 5113 1e3c 01009426 	addu $20,$20,1
 5114 1e40 06002396 	lhu $3,6($17)
 5115 1e44 2D804000 	move $16,$2
 5116 1e48 1400228E 	lw $2,20($17)
 5117 1e4c 2D202002 	move $4,$17
 5118 1e50 21800302 	addu $16,$16,$3
 5119 1e54 FAFF4224 	addu $2,$2,-6
 5120 1e58 FFFF1032 	andi $16,$16,0xffff
 5121 1e5c 140022AE 	sw $2,20($17)
 5122              	.set noreorder
 5123              	.set nomacro
 5124 1e60 A400000C 	jal _SNCPURead16
 5125 1e64 2D280002 	move $5,$16
 5126              	.set macro
 5127              	.set reorder
 5128              	
 5129 1e68 04002596 	lhu $5,4($17)
 5130 1e6c 1000238E 	lw $3,16($17)
 5131 1e70 2D804000 	move $16,$2
 5132 1e74 1400228E 	lw $2,20($17)
 5133 1e78 2D202002 	move $4,$17
 5134 1e7c 25800302 	or $16,$16,$3
 5135 1e80 FAFF4224 	addu $2,$2,-6
 5136 1e84 21800502 	addu $16,$16,$5
 5137              	.set noreorder
 5138              	.set nomacro
 5139 1e88 22FF0010 	b $L2112
 5140 1e8c 140022AE 	sw $2,20($17)
 5141              	.set macro
 5142              	.set reorder
 5143              	
 5144              	$L752:
 5145 1e90 2D288002 	move $5,$20
 5146              	.set noreorder
 5147              	.set nomacro
 5148 1e94 1A01000C 	jal _SNCPUFetch8
 5149 1e98 2D202002 	move $4,$17
 5150              	.set macro
 5151              	.set reorder
 5152              	
 5153 1e9c 01009426 	addu $20,$20,1
 5154 1ea0 2D804000 	move $16,$2
 5155 1ea4 1400238E 	lw $3,20($17)
 5156 1ea8 0A002296 	lhu $2,10($17)
 5157 1eac 2D202002 	move $4,$17
 5158 1eb0 02002596 	lhu $5,2($17)
 5159 1eb4 FAFF6324 	addu $3,$3,-6
 5160 1eb8 21800202 	addu $16,$16,$2
 5161 1ebc 140023AE 	sw $3,20($17)
GAS LISTING  			page 92


 5162 1ec0 FFFF1032 	andi $16,$16,0xffff
 5163 1ec4 2D300000 	move $6,$0
 5164 1ec8 21800502 	addu $16,$16,$5
 5165              	$L1816:
 5166 1ecc 0000A28F 	lw $2,0($sp)
 5167              	.set noreorder
 5168              	.set nomacro
 5169 1ed0 47FF0010 	b $L1686
 5170 1ed4 24800202 	and $16,$16,$2
 5171              	.set macro
 5172              	.set reorder
 5173              	
 5174              	$L352:
 5175 1ed8 2D288002 	move $5,$20
 5176              	.set noreorder
 5177              	.set nomacro
 5178 1edc 1A01000C 	jal _SNCPUFetch8
 5179 1ee0 2D202002 	move $4,$17
 5180              	.set macro
 5181              	.set reorder
 5182              	
 5183 1ee4 01009426 	addu $20,$20,1
 5184 1ee8 2D804000 	move $16,$2
 5185 1eec 0A002396 	lhu $3,10($17)
 5186 1ef0 1400228E 	lw $2,20($17)
 5187 1ef4 2D202002 	move $4,$17
 5188 1ef8 21800302 	addu $16,$16,$3
 5189 1efc 02002596 	lhu $5,2($17)
 5190 1f00 FAFF4224 	addu $2,$2,-6
 5191 1f04 FFFF1032 	andi $16,$16,0xffff
 5192 1f08 140022AE 	sw $2,20($17)
 5193 1f0c 21800502 	addu $16,$16,$5
 5194 1f10 0000A28F 	lw $2,0($sp)
 5195              	.set noreorder
 5196              	.set nomacro
 5197 1f14 FFFE0010 	b $L2112
 5198 1f18 24800202 	and $16,$16,$2
 5199              	.set macro
 5200              	.set reorder
 5201              	
 5202              	$L1348:
 5203 1f1c 2D288002 	move $5,$20
 5204              	.set noreorder
 5205              	.set nomacro
 5206 1f20 1A01000C 	jal _SNCPUFetch8
 5207 1f24 2D202002 	move $4,$17
 5208              	.set macro
 5209              	.set reorder
 5210              	
 5211 1f28 0100F232 	andi $18,$23,0x1
 5212 1f2c 2D804000 	move $16,$2
 5213 1f30 0A002596 	lhu $5,10($17)
 5214 1f34 1400228E 	lw $2,20($17)
 5215 1f38 2D202002 	move $4,$17
 5216 1f3c 21800502 	addu $16,$16,$5
 5217 1f40 02002396 	lhu $3,2($17)
 5218 1f44 FAFF4224 	addu $2,$2,-6
GAS LISTING  			page 93


 5219 1f48 FFFF1032 	andi $16,$16,0xffff
 5220 1f4c 140022AE 	sw $2,20($17)
 5221 1f50 21800302 	addu $16,$16,$3
 5222 1f54 0000A28F 	lw $2,0($sp)
 5223 1f58 00941200 	sll $18,$18,16
 5224 1f5c 01009426 	addu $20,$20,1
 5225              	.set noreorder
 5226              	.set nomacro
 5227 1f60 3CFF0010 	b $L2006
 5228 1f64 24800202 	and $16,$16,$2
 5229              	.set macro
 5230              	.set reorder
 5231              	
 5232              	$L363:
 5233 1f68 2D288002 	move $5,$20
 5234              	.set noreorder
 5235              	.set nomacro
 5236 1f6c 1A01000C 	jal _SNCPUFetch8
 5237 1f70 2D202002 	move $4,$17
 5238              	.set macro
 5239              	.set reorder
 5240              	
 5241 1f74 01009426 	addu $20,$20,1
 5242 1f78 2D804000 	move $16,$2
 5243 1f7c 2D202002 	move $4,$17
 5244 1f80 0A002296 	lhu $2,10($17)
 5245              	
 5246 1f84 21800202 	addu $16,$16,$2
 5247 1f88 FFFF1032 	andi $16,$16,0xffff
 5248              	.set noreorder
 5249              	.set nomacro
 5250 1f8c D400000C 	jal _SNCPURead24
 5251 1f90 2D280002 	move $5,$16
 5252              	.set macro
 5253              	.set reorder
 5254              	
 5255 1f94 2D202002 	move $4,$17
 5256 1f98 2D804000 	move $16,$2
 5257 1f9c 04002296 	lhu $2,4($17)
 5258              	$L2111:
 5259              	.set noreorder
 5260              	.set nomacro
 5261 1fa0 DCFE0010 	b $L2112
 5262 1fa4 21800202 	addu $16,$16,$2
 5263              	.set macro
 5264              	.set reorder
 5265              	
 5266              	$L374:
 5267 1fa8 2D288002 	move $5,$20
 5268              	.set noreorder
 5269              	.set nomacro
 5270 1fac 3001000C 	jal _SNCPUFetch16
 5271 1fb0 2D202002 	move $4,$17
 5272              	.set macro
 5273              	.set reorder
 5274              	
 5275 1fb4 02009426 	addu $20,$20,2
GAS LISTING  			page 94


 5276 1fb8 2D804000 	move $16,$2
 5277 1fbc 1000238E 	lw $3,16($17)
 5278 1fc0 04002296 	lhu $2,4($17)
 5279 1fc4 2D202002 	move $4,$17
 5280              	$L2114:
 5281              	.set noreorder
 5282              	.set nomacro
 5283 1fc8 F5FF0010 	b $L2111
 5284 1fcc 25800302 	or $16,$16,$3
 5285              	.set macro
 5286              	.set reorder
 5287              	
 5288              	$L385:
 5289 1fd0 2D288002 	move $5,$20
 5290              	.set noreorder
 5291              	.set nomacro
 5292 1fd4 3001000C 	jal _SNCPUFetch16
 5293 1fd8 2D202002 	move $4,$17
 5294              	.set macro
 5295              	.set reorder
 5296              	
 5297 1fdc 02009426 	addu $20,$20,2
 5298 1fe0 2D804000 	move $16,$2
 5299 1fe4 1000238E 	lw $3,16($17)
 5300 1fe8 02002296 	lhu $2,2($17)
 5301              	.set noreorder
 5302              	.set nomacro
 5303 1fec F6FF0010 	b $L2114
 5304 1ff0 2D202002 	move $4,$17
 5305              	.set macro
 5306              	.set reorder
 5307              	
 5308              	$L1353:
 5309 1ff4 2D288002 	move $5,$20
 5310              	.set noreorder
 5311              	.set nomacro
 5312 1ff8 3001000C 	jal _SNCPUFetch16
 5313 1ffc 2D202002 	move $4,$17
 5314              	.set macro
 5315              	.set reorder
 5316              	
 5317 2000 0100F232 	andi $18,$23,0x1
 5318 2004 2D804000 	move $16,$2
 5319 2008 02002396 	lhu $3,2($17)
 5320 200c 1000228E 	lw $2,16($17)
 5321 2010 2D202002 	move $4,$17
 5322 2014 00941200 	sll $18,$18,16
 5323 2018 02009426 	addu $20,$20,2
 5324 201c 25800202 	or $16,$16,$2
 5325 2020 21800302 	addu $16,$16,$3
 5326              	.set noreorder
 5327              	.set nomacro
 5328 2024 A400000C 	jal _SNCPURead16
 5329 2028 2D280002 	move $5,$16
 5330              	.set macro
 5331              	.set reorder
 5332              	
GAS LISTING  			page 95


 5333 202c 2D202002 	move $4,$17
 5334 2030 2D280002 	move $5,$16
 5335 2034 01005730 	andi $23,$2,0x1
 5336              	.set noreorder
 5337              	.set nomacro
 5338 2038 91FE0010 	b $L2082
 5339 203c 25985200 	or $19,$2,$18
 5340              	.set macro
 5341              	.set reorder
 5342              	
 5343              	$L396:
 5344 2040 2D288002 	move $5,$20
 5345              	.set noreorder
 5346              	.set nomacro
 5347 2044 6001000C 	jal _SNCPUFetch24
 5348 2048 2D202002 	move $4,$17
 5349              	.set macro
 5350              	.set reorder
 5351              	
 5352 204c 03009426 	addu $20,$20,3
 5353 2050 2D804000 	move $16,$2
 5354 2054 2D202002 	move $4,$17
 5355              	.set noreorder
 5356              	.set nomacro
 5357 2058 D1FF0010 	b $L2111
 5358 205c 02002296 	lhu $2,2($17)
 5359              	.set macro
 5360              	.set reorder
 5361              	
 5362              	$L662:
 5363 2060 2D288002 	move $5,$20
 5364              	.set noreorder
 5365              	.set nomacro
 5366 2064 1A01000C 	jal _SNCPUFetch8
 5367 2068 2D202002 	move $4,$17
 5368              	.set macro
 5369              	.set reorder
 5370              	
 5371 206c 01009426 	addu $20,$20,1
 5372 2070 2D804000 	move $16,$2
 5373 2074 0A002396 	lhu $3,10($17)
 5374 2078 1400228E 	lw $2,20($17)
 5375 207c 2D202002 	move $4,$17
 5376 2080 21800302 	addu $16,$16,$3
 5377 2084 02002596 	lhu $5,2($17)
 5378 2088 FAFF4224 	addu $2,$2,-6
 5379 208c FFFF1032 	andi $16,$16,0xffff
 5380 2090 140022AE 	sw $2,20($17)
 5381 2094 21800502 	addu $16,$16,$5
 5382 2098 0000A28F 	lw $2,0($sp)
 5383              	
 5384 209c 24800202 	and $16,$16,$2
 5385              	$L1805:
 5386              	.set noreorder
 5387              	.set nomacro
 5388 20a0 A400000C 	jal _SNCPURead16
 5389 20a4 2D280002 	move $5,$16
GAS LISTING  			page 96


 5390              	.set macro
 5391              	.set reorder
 5392              	
 5393 20a8 2D202002 	move $4,$17
 5394 20ac 2D804000 	move $16,$2
 5395 20b0 1000228E 	lw $2,16($17)
 5396              	$L2054:
 5397 20b4 00002696 	lhu $6,0($17)
 5398              	$L1815:
 5399              	.set noreorder
 5400              	.set nomacro
 5401 20b8 CDFE0010 	b $L1686
 5402 20bc 25800202 	or $16,$16,$2
 5403              	.set macro
 5404              	.set reorder
 5405              	
 5406              	$L667:
 5407 20c0 2D202002 	move $4,$17
 5408              	.set noreorder
 5409              	.set nomacro
 5410 20c4 1A01000C 	jal _SNCPUFetch8
 5411 20c8 2D288002 	move $5,$20
 5412              	.set macro
 5413              	.set reorder
 5414              	
 5415 20cc 01009426 	addu $20,$20,1
 5416 20d0 2D804000 	move $16,$2
 5417 20d4 06002396 	lhu $3,6($17)
 5418 20d8 1400228E 	lw $2,20($17)
 5419 20dc 2D202002 	move $4,$17
 5420 20e0 00002696 	lhu $6,0($17)
 5421 20e4 21800302 	addu $16,$16,$3
 5422 20e8 FAFF4224 	addu $2,$2,-6
 5423              	.set noreorder
 5424              	.set nomacro
 5425 20ec BFFE0010 	b $L1814
 5426 20f0 140022AE 	sw $2,20($17)
 5427              	.set macro
 5428              	.set reorder
 5429              	
 5430              	$L672:
 5431 20f4 2D202002 	move $4,$17
 5432              	.set noreorder
 5433              	.set nomacro
 5434 20f8 1A01000C 	jal _SNCPUFetch8
 5435 20fc 2D288002 	move $5,$20
 5436              	.set macro
 5437              	.set reorder
 5438              	
 5439 2100 01009426 	addu $20,$20,1
 5440 2104 2D804000 	move $16,$2
 5441 2108 00002696 	lhu $6,0($17)
 5442 210c 0A002296 	lhu $2,10($17)
 5443              	.set noreorder
 5444              	.set nomacro
 5445 2110 B5FE0010 	b $L2052
 5446 2114 2D202002 	move $4,$17
GAS LISTING  			page 97


 5447              	.set macro
 5448              	.set reorder
 5449              	
 5450              	$L677:
 5451 2118 2D288002 	move $5,$20
 5452              	.set noreorder
 5453              	.set nomacro
 5454 211c 1A01000C 	jal _SNCPUFetch8
 5455 2120 2D202002 	move $4,$17
 5456              	.set macro
 5457              	.set reorder
 5458              	
 5459 2124 01009426 	addu $20,$20,1
 5460 2128 2D804000 	move $16,$2
 5461 212c 2D202002 	move $4,$17
 5462 2130 0A002296 	lhu $2,10($17)
 5463              	
 5464 2134 21800202 	addu $16,$16,$2
 5465 2138 FFFF1032 	andi $16,$16,0xffff
 5466              	.set noreorder
 5467              	.set nomacro
 5468 213c D400000C 	jal _SNCPURead24
 5469 2140 2D280002 	move $5,$16
 5470              	.set macro
 5471              	.set reorder
 5472              	
 5473 2144 00002696 	lhu $6,0($17)
 5474 2148 2D804000 	move $16,$2
 5475              	.set noreorder
 5476              	.set nomacro
 5477 214c A8FE0010 	b $L1686
 5478 2150 2D202002 	move $4,$17
 5479              	.set macro
 5480              	.set reorder
 5481              	
 5482              	$L1378:
 5483 2154 2D288002 	move $5,$20
 5484              	.set noreorder
 5485              	.set nomacro
 5486 2158 3001000C 	jal _SNCPUFetch16
 5487 215c 2D202002 	move $4,$17
 5488              	.set macro
 5489              	.set reorder
 5490              	
 5491 2160 02009426 	addu $20,$20,2
 5492 2164 00003296 	lhu $18,0($17)
 5493              	.set noreorder
 5494              	.set nomacro
 5495 2168 73FA0010 	b $L110
 5496 216c 24A84202 	and $21,$18,$2
 5497              	.set macro
 5498              	.set reorder
 5499              	
 5500              	$L182:
 5501 2170 02003096 	lhu $16,2($17)
 5502              	$L1802:
 5503 2174 1400228E 	lw $2,20($17)
GAS LISTING  			page 98


 5504 2178 2DA80002 	move $21,$16
 5505 217c 000030A6 	sh $16,0($17)
 5506              	$L1732:
 5507              	.set noreorder
 5508              	.set nomacro
 5509 2180 D0FE0010 	b $L1753
 5510 2184 FAFF4224 	addu $2,$2,-6
 5511              	.set macro
 5512              	.set reorder
 5513              	
 5514              	$L647:
 5515 2188 2D202002 	move $4,$17
 5516              	.set noreorder
 5517              	.set nomacro
 5518 218c 3001000C 	jal _SNCPUFetch16
 5519 2190 2D288002 	move $5,$20
 5520              	.set macro
 5521              	.set reorder
 5522              	
 5523 2194 02009426 	addu $20,$20,2
 5524 2198 2D804000 	move $16,$2
 5525 219c 2D202002 	move $4,$17
 5526              	.set noreorder
 5527              	.set nomacro
 5528 21a0 C4FF0010 	b $L2054
 5529 21a4 1000228E 	lw $2,16($17)
 5530              	.set macro
 5531              	.set reorder
 5532              	
 5533              	$L652:
 5534 21a8 2D288002 	move $5,$20
 5535              	.set noreorder
 5536              	.set nomacro
 5537 21ac 6001000C 	jal _SNCPUFetch24
 5538 21b0 2D202002 	move $4,$17
 5539              	.set macro
 5540              	.set reorder
 5541              	
 5542 21b4 03009426 	addu $20,$20,3
 5543 21b8 00002696 	lhu $6,0($17)
 5544 21bc 2D284000 	move $5,$2
 5545              	.set noreorder
 5546              	.set nomacro
 5547 21c0 8CFE0010 	b $L1688
 5548 21c4 2D202002 	move $4,$17
 5549              	.set macro
 5550              	.set reorder
 5551              	
 5552              	$L682:
 5553 21c8 2D202002 	move $4,$17
 5554              	.set noreorder
 5555              	.set nomacro
 5556 21cc 1A01000C 	jal _SNCPUFetch8
 5557 21d0 2D288002 	move $5,$20
 5558              	.set macro
 5559              	.set reorder
 5560              	
GAS LISTING  			page 99


 5561 21d4 01009426 	addu $20,$20,1
 5562 21d8 2D804000 	move $16,$2
 5563 21dc 2D202002 	move $4,$17
 5564 21e0 0A002296 	lhu $2,10($17)
 5565              	
 5566 21e4 21800202 	addu $16,$16,$2
 5567              	$L2048:
 5568 21e8 FFFF1032 	andi $16,$16,0xffff
 5569              	.set noreorder
 5570              	.set nomacro
 5571 21ec A400000C 	jal _SNCPURead16
 5572 21f0 2D280002 	move $5,$16
 5573              	.set macro
 5574              	.set reorder
 5575              	
 5576 21f4 2D202002 	move $4,$17
 5577 21f8 2D804000 	move $16,$2
 5578 21fc 1400228E 	lw $2,20($17)
 5579              	$L2049:
 5580 2200 1000238E 	lw $3,16($17)
 5581 2204 04002596 	lhu $5,4($17)
 5582              	$L1817:
 5583 2208 00002696 	lhu $6,0($17)
 5584 220c FAFF4224 	addu $2,$2,-6
 5585 2210 25800302 	or $16,$16,$3
 5586              	$L1808:
 5587 2214 140022AE 	sw $2,20($17)
 5588              	.set noreorder
 5589              	.set nomacro
 5590 2218 75FE0010 	b $L1686
 5591 221c 21800502 	addu $16,$16,$5
 5592              	.set macro
 5593              	.set reorder
 5594              	
 5595              	$L687:
 5596 2220 2D202002 	move $4,$17
 5597              	.set noreorder
 5598              	.set nomacro
 5599 2224 1A01000C 	jal _SNCPUFetch8
 5600 2228 2D288002 	move $5,$20
 5601              	.set macro
 5602              	.set reorder
 5603              	
 5604 222c 01009426 	addu $20,$20,1
 5605 2230 2D804000 	move $16,$2
 5606 2234 2D202002 	move $4,$17
 5607 2238 0A002296 	lhu $2,10($17)
 5608              	
 5609 223c 21800202 	addu $16,$16,$2
 5610              	.set noreorder
 5611              	.set nomacro
 5612 2240 97FF0010 	b $L1805
 5613 2244 FFFF1032 	andi $16,$16,0xffff
 5614              	.set macro
 5615              	.set reorder
 5616              	
 5617              	$L692:
GAS LISTING  			page 100


 5618 2248 2D202002 	move $4,$17
 5619              	.set noreorder
 5620              	.set nomacro
 5621 224c 1A01000C 	jal _SNCPUFetch8
 5622 2250 2D288002 	move $5,$20
 5623              	.set macro
 5624              	.set reorder
 5625              	
 5626 2254 01009426 	addu $20,$20,1
 5627 2258 2D804000 	move $16,$2
 5628 225c 06002396 	lhu $3,6($17)
 5629 2260 1400228E 	lw $2,20($17)
 5630 2264 2D202002 	move $4,$17
 5631 2268 21800302 	addu $16,$16,$3
 5632 226c FAFF4224 	addu $2,$2,-6
 5633              	.set noreorder
 5634              	.set nomacro
 5635 2270 DDFF0010 	b $L2048
 5636 2274 140022AE 	sw $2,20($17)
 5637              	.set macro
 5638              	.set reorder
 5639              	
 5640              	$L697:
 5641 2278 2D288002 	move $5,$20
 5642              	.set noreorder
 5643              	.set nomacro
 5644 227c 1A01000C 	jal _SNCPUFetch8
 5645 2280 2D202002 	move $4,$17
 5646              	.set macro
 5647              	.set reorder
 5648              	
 5649 2284 01009426 	addu $20,$20,1
 5650 2288 0A002396 	lhu $3,10($17)
 5651 228c 2D804000 	move $16,$2
 5652 2290 02002596 	lhu $5,2($17)
 5653 2294 2D202002 	move $4,$17
 5654 2298 1400228E 	lw $2,20($17)
 5655 229c 21800302 	addu $16,$16,$3
 5656 22a0 FFFF1032 	andi $16,$16,0xffff
 5657 22a4 00002696 	lhu $6,0($17)
 5658 22a8 FAFF4224 	addu $2,$2,-6
 5659 22ac 21800502 	addu $16,$16,$5
 5660              	$L1813:
 5661              	.set noreorder
 5662              	.set nomacro
 5663 22b0 06FF0010 	b $L1816
 5664 22b4 140022AE 	sw $2,20($17)
 5665              	.set macro
 5666              	.set reorder
 5667              	
 5668              	$L702:
 5669 22b8 2D288002 	move $5,$20
 5670              	.set noreorder
 5671              	.set nomacro
 5672 22bc 1A01000C 	jal _SNCPUFetch8
 5673 22c0 2D202002 	move $4,$17
 5674              	.set macro
GAS LISTING  			page 101


 5675              	.set reorder
 5676              	
 5677 22c4 01009426 	addu $20,$20,1
 5678 22c8 2D804000 	move $16,$2
 5679 22cc 2D202002 	move $4,$17
 5680 22d0 0A002296 	lhu $2,10($17)
 5681              	
 5682 22d4 21800202 	addu $16,$16,$2
 5683 22d8 FFFF1032 	andi $16,$16,0xffff
 5684              	.set noreorder
 5685              	.set nomacro
 5686 22dc D400000C 	jal _SNCPURead24
 5687 22e0 2D280002 	move $5,$16
 5688              	.set macro
 5689              	.set reorder
 5690              	
 5691 22e4 2D202002 	move $4,$17
 5692 22e8 2D804000 	move $16,$2
 5693 22ec 04002296 	lhu $2,4($17)
 5694              	$L1804:
 5695 22f0 00002696 	lhu $6,0($17)
 5696              	.set noreorder
 5697              	.set nomacro
 5698 22f4 3EFE0010 	b $L1686
 5699 22f8 21800202 	addu $16,$16,$2
 5700              	.set macro
 5701              	.set reorder
 5702              	
 5703              	$L187:
 5704              	.set noreorder
 5705              	.set nomacro
 5706 22fc 9DFF0010 	b $L1802
 5707 2300 04003096 	lhu $16,4($17)
 5708              	.set macro
 5709              	.set reorder
 5710              	
 5711              	$L707:
 5712 2304 2D202002 	move $4,$17
 5713              	.set noreorder
 5714              	.set nomacro
 5715 2308 3001000C 	jal _SNCPUFetch16
 5716 230c 2D288002 	move $5,$20
 5717              	.set macro
 5718              	.set reorder
 5719              	
 5720 2310 02009426 	addu $20,$20,2
 5721 2314 2D804000 	move $16,$2
 5722 2318 2D202002 	move $4,$17
 5723              	.set noreorder
 5724              	.set nomacro
 5725 231c B8FF0010 	b $L2049
 5726 2320 1400228E 	lw $2,20($17)
 5727              	.set macro
 5728              	.set reorder
 5729              	
 5730              	$L757:
 5731 2324 2D202002 	move $4,$17
GAS LISTING  			page 102


 5732              	.set noreorder
 5733              	.set nomacro
 5734 2328 3001000C 	jal _SNCPUFetch16
 5735 232c 2D288002 	move $5,$20
 5736              	.set macro
 5737              	.set reorder
 5738              	
 5739 2330 02009426 	addu $20,$20,2
 5740 2334 2D804000 	move $16,$2
 5741 2338 2D202002 	move $4,$17
 5742 233c 1000228E 	lw $2,16($17)
 5743              	.set noreorder
 5744              	.set nomacro
 5745 2340 5DFF0010 	b $L1815
 5746 2344 2D300000 	move $6,$0
 5747              	.set macro
 5748              	.set reorder
 5749              	
 5750              	$L712:
 5751 2348 2D288002 	move $5,$20
 5752              	.set noreorder
 5753              	.set nomacro
 5754 234c 3001000C 	jal _SNCPUFetch16
 5755 2350 2D202002 	move $4,$17
 5756              	.set macro
 5757              	.set reorder
 5758              	
 5759 2354 02009426 	addu $20,$20,2
 5760 2358 2D804000 	move $16,$2
 5761 235c 1000238E 	lw $3,16($17)
 5762 2360 1400228E 	lw $2,20($17)
 5763 2364 2D202002 	move $4,$17
 5764              	.set noreorder
 5765              	.set nomacro
 5766 2368 A7FF0010 	b $L1817
 5767 236c 02002596 	lhu $5,2($17)
 5768              	.set macro
 5769              	.set reorder
 5770              	
 5771              	$L762:
 5772              	
 5773 2370 2D288002 	move $5,$20
 5774              	.set noreorder
 5775              	.set nomacro
 5776 2374 3001000C 	jal _SNCPUFetch16
 5777 2378 2D202002 	move $4,$17
 5778              	.set macro
 5779              	.set reorder
 5780              	
 5781 237c 02009426 	addu $20,$20,2
 5782 2380 2D804000 	move $16,$2
 5783 2384 1000238E 	lw $3,16($17)
 5784 2388 1400228E 	lw $2,20($17)
 5785 238c 2D202002 	move $4,$17
 5786 2390 02002596 	lhu $5,2($17)
 5787 2394 2D300000 	move $6,$0
 5788 2398 FAFF4224 	addu $2,$2,-6
GAS LISTING  			page 103


 5789              	.set noreorder
 5790              	.set nomacro
 5791 239c 9DFF0010 	b $L1808
 5792 23a0 25800302 	or $16,$16,$3
 5793              	.set macro
 5794              	.set reorder
 5795              	
 5796              	$L657:
 5797 23a4 2D202002 	move $4,$17
 5798              	.set noreorder
 5799              	.set nomacro
 5800 23a8 6001000C 	jal _SNCPUFetch24
 5801 23ac 2D288002 	move $5,$20
 5802              	.set macro
 5803              	.set reorder
 5804              	
 5805 23b0 03009426 	addu $20,$20,3
 5806 23b4 2D804000 	move $16,$2
 5807 23b8 2D202002 	move $4,$17
 5808              	.set noreorder
 5809              	.set nomacro
 5810 23bc CCFF0010 	b $L1804
 5811 23c0 02002296 	lhu $2,2($17)
 5812              	.set macro
 5813              	.set reorder
 5814              	
 5815              	$L592:
 5816 23c4 2D288002 	move $5,$20
 5817              	.set noreorder
 5818              	.set nomacro
 5819 23c8 1A01000C 	jal _SNCPUFetch8
 5820 23cc 2D202002 	move $4,$17
 5821              	.set macro
 5822              	.set reorder
 5823              	
 5824 23d0 01009426 	addu $20,$20,1
 5825 23d4 2D804000 	move $16,$2
 5826 23d8 0A002396 	lhu $3,10($17)
 5827 23dc 1400228E 	lw $2,20($17)
 5828 23e0 2D202002 	move $4,$17
 5829 23e4 21800302 	addu $16,$16,$3
 5830 23e8 02002596 	lhu $5,2($17)
 5831 23ec FAFF4224 	addu $2,$2,-6
 5832 23f0 FFFF1032 	andi $16,$16,0xffff
 5833 23f4 140022AE 	sw $2,20($17)
 5834 23f8 21800502 	addu $16,$16,$5
 5835 23fc 0000A28F 	lw $2,0($sp)
 5836              	
 5837 2400 24800202 	and $16,$16,$2
 5838              	$L2041:
 5839              	.set noreorder
 5840              	.set nomacro
 5841 2404 A400000C 	jal _SNCPURead16
 5842 2408 2D280002 	move $5,$16
 5843              	.set macro
 5844              	.set reorder
 5845              	
GAS LISTING  			page 104


 5846 240c 2D202002 	move $4,$17
 5847 2410 2D804000 	move $16,$2
 5848 2414 1000228E 	lw $2,16($17)
 5849              	$L2084:
 5850 2418 25800202 	or $16,$16,$2
 5851              	$L2039:
 5852 241c 2D280002 	move $5,$16
 5853              	$L2040:
 5854 2420 A400000C 	jal _SNCPURead16
 5854      00000000 
 5855 2428 2D984000 	move $19,$2
 5856              	$L1858:
 5857 242c 2DA86002 	move $21,$19
 5858              	.set noreorder
 5859              	.set nomacro
 5860 2430 FCF90010 	b $L1684
 5861 2434 000033A6 	sh $19,0($17)
 5862              	.set macro
 5863              	.set reorder
 5864              	
 5865              	$L597:
 5866 2438 2D288002 	move $5,$20
 5867              	.set noreorder
 5868              	.set nomacro
 5869 243c 1A01000C 	jal _SNCPUFetch8
 5870 2440 2D202002 	move $4,$17
 5871              	.set macro
 5872              	.set reorder
 5873              	
 5874 2444 01009426 	addu $20,$20,1
 5875 2448 2D804000 	move $16,$2
 5876 244c 06002396 	lhu $3,6($17)
 5877 2450 1400228E 	lw $2,20($17)
 5878 2454 2D202002 	move $4,$17
 5879 2458 21800302 	addu $16,$16,$3
 5880 245c FAFF4224 	addu $2,$2,-6
 5881 2460 140022AE 	sw $2,20($17)
 5882              	$L2042:
 5883              	.set noreorder
 5884              	.set nomacro
 5885 2464 EDFF0010 	b $L2039
 5886 2468 FFFF1032 	andi $16,$16,0xffff
 5887              	.set macro
 5888              	.set reorder
 5889              	
 5890              	$L602:
 5891 246c 2D288002 	move $5,$20
 5892              	.set noreorder
 5893              	.set nomacro
 5894 2470 1A01000C 	jal _SNCPUFetch8
 5895 2474 2D202002 	move $4,$17
 5896              	.set macro
 5897              	.set reorder
 5898              	
 5899 2478 01009426 	addu $20,$20,1
 5900 247c 2D804000 	move $16,$2
 5901 2480 2D202002 	move $4,$17
GAS LISTING  			page 105


 5902 2484 0A002296 	lhu $2,10($17)
 5903              	.set noreorder
 5904              	.set nomacro
 5905 2488 F6FF0010 	b $L2042
 5906 248c 21800202 	addu $16,$16,$2
 5907              	.set macro
 5908              	.set reorder
 5909              	
 5910              	$L607:
 5911 2490 2D288002 	move $5,$20
 5912              	.set noreorder
 5913              	.set nomacro
 5914 2494 1A01000C 	jal _SNCPUFetch8
 5915 2498 2D202002 	move $4,$17
 5916              	.set macro
 5917              	.set reorder
 5918              	
 5919 249c 01009426 	addu $20,$20,1
 5920 24a0 2D804000 	move $16,$2
 5921 24a4 2D202002 	move $4,$17
 5922 24a8 0A002296 	lhu $2,10($17)
 5923              	
 5924 24ac 21800202 	addu $16,$16,$2
 5925 24b0 FFFF1032 	andi $16,$16,0xffff
 5926              	.set noreorder
 5927              	.set nomacro
 5928 24b4 D400000C 	jal _SNCPURead24
 5929 24b8 2D280002 	move $5,$16
 5930              	.set macro
 5931              	.set reorder
 5932              	
 5933 24bc 2D202002 	move $4,$17
 5934              	.set noreorder
 5935              	.set nomacro
 5936 24c0 D6FF0010 	b $L2039
 5937 24c4 2D804000 	move $16,$2
 5938              	.set macro
 5939              	.set reorder
 5940              	
 5941              	$L572:
 5942 24c8 2D288002 	move $5,$20
 5943              	.set noreorder
 5944              	.set nomacro
 5945 24cc 3001000C 	jal _SNCPUFetch16
 5946 24d0 2D202002 	move $4,$17
 5947              	.set macro
 5948              	.set reorder
 5949              	
 5950 24d4 02009426 	addu $20,$20,2
 5951              	.set noreorder
 5952              	.set nomacro
 5953 24d8 D4FF0010 	b $L1858
 5954 24dc 2D984000 	move $19,$2
 5955              	.set macro
 5956              	.set reorder
 5957              	
 5958              	$L577:
GAS LISTING  			page 106


 5959 24e0 2D288002 	move $5,$20
 5960              	.set noreorder
 5961              	.set nomacro
 5962 24e4 3001000C 	jal _SNCPUFetch16
 5963 24e8 2D202002 	move $4,$17
 5964              	.set macro
 5965              	.set reorder
 5966              	
 5967 24ec 02009426 	addu $20,$20,2
 5968 24f0 2D804000 	move $16,$2
 5969 24f4 2D202002 	move $4,$17
 5970              	.set noreorder
 5971              	.set nomacro
 5972 24f8 C7FF0010 	b $L2084
 5973 24fc 1000228E 	lw $2,16($17)
 5974              	.set macro
 5975              	.set reorder
 5976              	
 5977              	$L582:
 5978 2500 2D288002 	move $5,$20
 5979              	.set noreorder
 5980              	.set nomacro
 5981 2504 6001000C 	jal _SNCPUFetch24
 5982 2508 2D202002 	move $4,$17
 5983              	.set macro
 5984              	.set reorder
 5985              	
 5986 250c 03009426 	addu $20,$20,3
 5987 2510 2D284000 	move $5,$2
 5988              	.set noreorder
 5989              	.set nomacro
 5990 2514 C2FF0010 	b $L2040
 5991 2518 2D202002 	move $4,$17
 5992              	.set macro
 5993              	.set reorder
 5994              	
 5995              	$L612:
 5996 251c 2D288002 	move $5,$20
 5997              	.set noreorder
 5998              	.set nomacro
 5999 2520 1A01000C 	jal _SNCPUFetch8
 6000 2524 2D202002 	move $4,$17
 6001              	.set macro
 6002              	.set reorder
 6003              	
 6004 2528 01009426 	addu $20,$20,1
 6005 252c 2D804000 	move $16,$2
 6006 2530 2D202002 	move $4,$17
 6007 2534 0A002296 	lhu $2,10($17)
 6008              	
 6009 2538 21800202 	addu $16,$16,$2
 6010 253c FFFF1032 	andi $16,$16,0xffff
 6011              	.set noreorder
 6012              	.set nomacro
 6013 2540 A400000C 	jal _SNCPURead16
 6014 2544 2D280002 	move $5,$16
 6015              	.set macro
GAS LISTING  			page 107


 6016              	.set reorder
 6017              	
 6018 2548 04002396 	lhu $3,4($17)
 6019 254c 2D804000 	move $16,$2
 6020 2550 2D202002 	move $4,$17
 6021 2554 1000228E 	lw $2,16($17)
 6022              	
 6023 2558 25800202 	or $16,$16,$2
 6024              	.set noreorder
 6025              	.set nomacro
 6026 255c AFFF0010 	b $L2039
 6027 2560 21800302 	addu $16,$16,$3
 6028              	.set macro
 6029              	.set reorder
 6030              	
 6031              	$L617:
 6032 2564 2D288002 	move $5,$20
 6033              	.set noreorder
 6034              	.set nomacro
 6035 2568 1A01000C 	jal _SNCPUFetch8
 6036 256c 2D202002 	move $4,$17
 6037              	.set macro
 6038              	.set reorder
 6039              	
 6040 2570 01009426 	addu $20,$20,1
 6041 2574 2D804000 	move $16,$2
 6042 2578 2D202002 	move $4,$17
 6043 257c 0A002296 	lhu $2,10($17)
 6044              	
 6045 2580 21800202 	addu $16,$16,$2
 6046              	.set noreorder
 6047              	.set nomacro
 6048 2584 9FFF0010 	b $L2041
 6049 2588 FFFF1032 	andi $16,$16,0xffff
 6050              	.set macro
 6051              	.set reorder
 6052              	
 6053              	$L622:
 6054 258c 2D288002 	move $5,$20
 6055              	.set noreorder
 6056              	.set nomacro
 6057 2590 1A01000C 	jal _SNCPUFetch8
 6058 2594 2D202002 	move $4,$17
 6059              	.set macro
 6060              	.set reorder
 6061              	
 6062 2598 01009426 	addu $20,$20,1
 6063 259c 06002396 	lhu $3,6($17)
 6064 25a0 2D804000 	move $16,$2
 6065 25a4 1400228E 	lw $2,20($17)
 6066 25a8 2D202002 	move $4,$17
 6067 25ac 21800302 	addu $16,$16,$3
 6068 25b0 FAFF4224 	addu $2,$2,-6
 6069 25b4 FFFF1032 	andi $16,$16,0xffff
 6070 25b8 140022AE 	sw $2,20($17)
 6071              	.set noreorder
 6072              	.set nomacro
GAS LISTING  			page 108


 6073 25bc A400000C 	jal _SNCPURead16
 6074 25c0 2D280002 	move $5,$16
 6075              	.set macro
 6076              	.set reorder
 6077              	
 6078 25c4 04002596 	lhu $5,4($17)
 6079 25c8 1000238E 	lw $3,16($17)
 6080 25cc 2D804000 	move $16,$2
 6081 25d0 1400228E 	lw $2,20($17)
 6082 25d4 2D202002 	move $4,$17
 6083 25d8 25800302 	or $16,$16,$3
 6084 25dc FAFF4224 	addu $2,$2,-6
 6085 25e0 21800502 	addu $16,$16,$5
 6086              	.set noreorder
 6087              	.set nomacro
 6088 25e4 8DFF0010 	b $L2039
 6089 25e8 140022AE 	sw $2,20($17)
 6090              	.set macro
 6091              	.set reorder
 6092              	
 6093              	$L627:
 6094 25ec 2D288002 	move $5,$20
 6095              	.set noreorder
 6096              	.set nomacro
 6097 25f0 1A01000C 	jal _SNCPUFetch8
 6098 25f4 2D202002 	move $4,$17
 6099              	.set macro
 6100              	.set reorder
 6101              	
 6102 25f8 01009426 	addu $20,$20,1
 6103 25fc 2D804000 	move $16,$2
 6104 2600 02002596 	lhu $5,2($17)
 6105 2604 0A002296 	lhu $2,10($17)
 6106 2608 2D202002 	move $4,$17
 6107 260c 1400238E 	lw $3,20($17)
 6108 2610 21800202 	addu $16,$16,$2
 6109 2614 0000A28F 	lw $2,0($sp)
 6110 2618 FFFF1032 	andi $16,$16,0xffff
 6111 261c FAFF6324 	addu $3,$3,-6
 6112 2620 21800502 	addu $16,$16,$5
 6113 2624 140023AE 	sw $3,20($17)
 6114              	.set noreorder
 6115              	.set nomacro
 6116 2628 7CFF0010 	b $L2039
 6117 262c 24800202 	and $16,$16,$2
 6118              	.set macro
 6119              	.set reorder
 6120              	
 6121              	$L632:
 6122 2630 2D288002 	move $5,$20
 6123              	.set noreorder
 6124              	.set nomacro
 6125 2634 1A01000C 	jal _SNCPUFetch8
 6126 2638 2D202002 	move $4,$17
 6127              	.set macro
 6128              	.set reorder
 6129              	
GAS LISTING  			page 109


 6130 263c 01009426 	addu $20,$20,1
 6131 2640 2D804000 	move $16,$2
 6132 2644 2D202002 	move $4,$17
 6133 2648 0A002296 	lhu $2,10($17)
 6134              	
 6135 264c 21800202 	addu $16,$16,$2
 6136 2650 FFFF1032 	andi $16,$16,0xffff
 6137              	.set noreorder
 6138              	.set nomacro
 6139 2654 D400000C 	jal _SNCPURead24
 6140 2658 2D280002 	move $5,$16
 6141              	.set macro
 6142              	.set reorder
 6143              	
 6144 265c 2D202002 	move $4,$17
 6145 2660 2D804000 	move $16,$2
 6146 2664 04002296 	lhu $2,4($17)
 6147              	$L2038:
 6148              	.set noreorder
 6149              	.set nomacro
 6150 2668 6CFF0010 	b $L2039
 6151 266c 21800202 	addu $16,$16,$2
 6152              	.set macro
 6153              	.set reorder
 6154              	
 6155              	$L637:
 6156 2670 2D288002 	move $5,$20
 6157              	.set noreorder
 6158              	.set nomacro
 6159 2674 3001000C 	jal _SNCPUFetch16
 6160 2678 2D202002 	move $4,$17
 6161              	.set macro
 6162              	.set reorder
 6163              	
 6164 267c 02009426 	addu $20,$20,2
 6165 2680 2D804000 	move $16,$2
 6166 2684 1000238E 	lw $3,16($17)
 6167 2688 04002296 	lhu $2,4($17)
 6168 268c 2D202002 	move $4,$17
 6169              	$L2085:
 6170              	.set noreorder
 6171              	.set nomacro
 6172 2690 F5FF0010 	b $L2038
 6173 2694 25800302 	or $16,$16,$3
 6174              	.set macro
 6175              	.set reorder
 6176              	
 6177              	$L642:
 6178 2698 2D288002 	move $5,$20
 6179              	.set noreorder
 6180              	.set nomacro
 6181 269c 3001000C 	jal _SNCPUFetch16
 6182 26a0 2D202002 	move $4,$17
 6183              	.set macro
 6184              	.set reorder
 6185              	
 6186 26a4 02009426 	addu $20,$20,2
GAS LISTING  			page 110


 6187 26a8 2D804000 	move $16,$2
 6188 26ac 1000238E 	lw $3,16($17)
 6189 26b0 02002296 	lhu $2,2($17)
 6190              	.set noreorder
 6191              	.set nomacro
 6192 26b4 F6FF0010 	b $L2085
 6193 26b8 2D202002 	move $4,$17
 6194              	.set macro
 6195              	.set reorder
 6196              	
 6197              	$L587:
 6198 26bc 2D288002 	move $5,$20
 6199              	.set noreorder
 6200              	.set nomacro
 6201 26c0 6001000C 	jal _SNCPUFetch24
 6202 26c4 2D202002 	move $4,$17
 6203              	.set macro
 6204              	.set reorder
 6205              	
 6206 26c8 03009426 	addu $20,$20,3
 6207 26cc 2D804000 	move $16,$2
 6208 26d0 2D202002 	move $4,$17
 6209              	.set noreorder
 6210              	.set nomacro
 6211 26d4 E4FF0010 	b $L2038
 6212 26d8 02002296 	lhu $2,2($17)
 6213              	.set macro
 6214              	.set reorder
 6215              	
 6216              	$L1042:
 6217 26dc 2D288002 	move $5,$20
 6218              	.set noreorder
 6219              	.set nomacro
 6220 26e0 1A01000C 	jal _SNCPUFetch8
 6221 26e4 2D202002 	move $4,$17
 6222              	.set macro
 6223              	.set reorder
 6224              	
 6225 26e8 01009426 	addu $20,$20,1
 6226 26ec 2D804000 	move $16,$2
 6227 26f0 0A002396 	lhu $3,10($17)
 6228 26f4 1400228E 	lw $2,20($17)
 6229 26f8 2D202002 	move $4,$17
 6230 26fc 21800302 	addu $16,$16,$3
 6231 2700 02002596 	lhu $5,2($17)
 6232 2704 FAFF4224 	addu $2,$2,-6
 6233 2708 FFFF1032 	andi $16,$16,0xffff
 6234 270c 140022AE 	sw $2,20($17)
 6235 2710 21800502 	addu $16,$16,$5
 6236 2714 0000A28F 	lw $2,0($sp)
 6237              	
 6238 2718 24800202 	and $16,$16,$2
 6239              	$L2109:
 6240              	.set noreorder
 6241              	.set nomacro
 6242 271c A400000C 	jal _SNCPURead16
 6243 2720 2D280002 	move $5,$16
GAS LISTING  			page 111


 6244              	.set macro
 6245              	.set reorder
 6246              	
 6247 2724 2D202002 	move $4,$17
 6248 2728 2D804000 	move $16,$2
 6249 272c 1000228E 	lw $2,16($17)
 6250              	$L2097:
 6251 2730 25800202 	or $16,$16,$2
 6252              	$L2072:
 6253 2734 2D280002 	move $5,$16
 6254              	$L2073:
 6255 2738 A400000C 	jal _SNCPURead16
 6255      00000000 
 6256 2740 2D984000 	move $19,$2
 6257              	$L1959:
 6258 2744 00003296 	lhu $18,0($17)
 6259              	$L1965:
 6260 2748 23A85302 	subu $21,$18,$19
 6261 274c 02941500 	srl $18,$21,16
 6262 2750 2DB0A002 	move $22,$21
 6263              	.set noreorder
 6264              	.set nomacro
 6265 2754 0BFD0010 	b $L1683
 6266 2758 0100523A 	xori $18,$18,0x1
 6267              	.set macro
 6268              	.set reorder
 6269              	
 6270              	$L1047:
 6271 275c 2D288002 	move $5,$20
 6272              	.set noreorder
 6273              	.set nomacro
 6274 2760 1A01000C 	jal _SNCPUFetch8
 6275 2764 2D202002 	move $4,$17
 6276              	.set macro
 6277              	.set reorder
 6278              	
 6279 2768 01009426 	addu $20,$20,1
 6280 276c 2D804000 	move $16,$2
 6281 2770 06002396 	lhu $3,6($17)
 6282 2774 1400228E 	lw $2,20($17)
 6283 2778 2D202002 	move $4,$17
 6284 277c 21800302 	addu $16,$16,$3
 6285 2780 FAFF4224 	addu $2,$2,-6
 6286 2784 140022AE 	sw $2,20($17)
 6287              	$L2069:
 6288              	.set noreorder
 6289              	.set nomacro
 6290 2788 EAFF0010 	b $L2072
 6291 278c FFFF1032 	andi $16,$16,0xffff
 6292              	.set macro
 6293              	.set reorder
 6294              	
 6295              	$L1052:
 6296 2790 2D288002 	move $5,$20
 6297              	.set noreorder
 6298              	.set nomacro
 6299 2794 1A01000C 	jal _SNCPUFetch8
GAS LISTING  			page 112


 6300 2798 2D202002 	move $4,$17
 6301              	.set macro
 6302              	.set reorder
 6303              	
 6304 279c 01009426 	addu $20,$20,1
 6305 27a0 2D804000 	move $16,$2
 6306 27a4 2D202002 	move $4,$17
 6307 27a8 0A002296 	lhu $2,10($17)
 6308              	.set noreorder
 6309              	.set nomacro
 6310 27ac F6FF0010 	b $L2069
 6311 27b0 21800202 	addu $16,$16,$2
 6312              	.set macro
 6313              	.set reorder
 6314              	
 6315              	$L1238:
 6316 27b4 2D288002 	move $5,$20
 6317              	.set noreorder
 6318              	.set nomacro
 6319 27b8 1A01000C 	jal _SNCPUFetch8
 6320 27bc 2D202002 	move $4,$17
 6321              	.set macro
 6322              	.set reorder
 6323              	
 6324 27c0 01009426 	addu $20,$20,1
 6325 27c4 2D804000 	move $16,$2
 6326 27c8 2D202002 	move $4,$17
 6327 27cc 0A002296 	lhu $2,10($17)
 6328              	
 6329 27d0 21800202 	addu $16,$16,$2
 6330 27d4 FFFF1032 	andi $16,$16,0xffff
 6331              	$L1759:
 6332              	.set noreorder
 6333              	.set nomacro
 6334 27d8 A400000C 	jal _SNCPURead16
 6335 27dc 2D280002 	move $5,$16
 6336              	.set macro
 6337              	.set reorder
 6338              	
 6339 27e0 2D280002 	move $5,$16
 6340 27e4 FFFF5324 	addu $19,$2,-1
 6341              	$L1765:
 6342              	.set noreorder
 6343              	.set nomacro
 6344 27e8 E1FB0010 	b $L1777
 6345 27ec 2D202002 	move $4,$17
 6346              	.set macro
 6347              	.set reorder
 6348              	
 6349              	$L1057:
 6350 27f0 2D288002 	move $5,$20
 6351              	.set noreorder
 6352              	.set nomacro
 6353 27f4 1A01000C 	jal _SNCPUFetch8
 6354 27f8 2D202002 	move $4,$17
 6355              	.set macro
 6356              	.set reorder
GAS LISTING  			page 113


 6357              	
 6358 27fc 01009426 	addu $20,$20,1
 6359 2800 2D804000 	move $16,$2
 6360 2804 2D202002 	move $4,$17
 6361 2808 0A002296 	lhu $2,10($17)
 6362              	
 6363 280c 21800202 	addu $16,$16,$2
 6364 2810 FFFF1032 	andi $16,$16,0xffff
 6365              	.set noreorder
 6366              	.set nomacro
 6367 2814 D400000C 	jal _SNCPURead24
 6368 2818 2D280002 	move $5,$16
 6369              	.set macro
 6370              	.set reorder
 6371              	
 6372 281c 2D202002 	move $4,$17
 6373              	.set noreorder
 6374              	.set nomacro
 6375 2820 C4FF0010 	b $L2072
 6376 2824 2D804000 	move $16,$2
 6377              	.set macro
 6378              	.set reorder
 6379              	
 6380              	$L1062:
 6381 2828 2D288002 	move $5,$20
 6382              	.set noreorder
 6383              	.set nomacro
 6384 282c 3001000C 	jal _SNCPUFetch16
 6385 2830 2D202002 	move $4,$17
 6386              	.set macro
 6387              	.set reorder
 6388              	
 6389 2834 02009426 	addu $20,$20,2
 6390              	.set noreorder
 6391              	.set nomacro
 6392 2838 C2FF0010 	b $L1959
 6393 283c 2D984000 	move $19,$2
 6394              	.set macro
 6395              	.set reorder
 6396              	
 6397              	$L1067:
 6398 2840 2D288002 	move $5,$20
 6399              	.set noreorder
 6400              	.set nomacro
 6401 2844 3001000C 	jal _SNCPUFetch16
 6402 2848 2D202002 	move $4,$17
 6403              	.set macro
 6404              	.set reorder
 6405              	
 6406 284c 02009426 	addu $20,$20,2
 6407 2850 2D804000 	move $16,$2
 6408 2854 2D202002 	move $4,$17
 6409              	.set noreorder
 6410              	.set nomacro
 6411 2858 B5FF0010 	b $L2097
 6412 285c 1000228E 	lw $2,16($17)
 6413              	.set macro
GAS LISTING  			page 114


 6414              	.set reorder
 6415              	
 6416              	$L1243:
 6417 2860 2D288002 	move $5,$20
 6418              	.set noreorder
 6419              	.set nomacro
 6420 2864 3001000C 	jal _SNCPUFetch16
 6421 2868 2D202002 	move $4,$17
 6422              	.set macro
 6423              	.set reorder
 6424              	
 6425 286c 02009426 	addu $20,$20,2
 6426 2870 2D804000 	move $16,$2
 6427 2874 2D202002 	move $4,$17
 6428 2878 1000228E 	lw $2,16($17)
 6429              	.set noreorder
 6430              	.set nomacro
 6431 287c D6FF0010 	b $L1759
 6432 2880 25800202 	or $16,$16,$2
 6433              	.set macro
 6434              	.set reorder
 6435              	
 6436              	$L1072:
 6437 2884 2D288002 	move $5,$20
 6438              	.set noreorder
 6439              	.set nomacro
 6440 2888 6001000C 	jal _SNCPUFetch24
 6441 288c 2D202002 	move $4,$17
 6442              	.set macro
 6443              	.set reorder
 6444              	
 6445 2890 03009426 	addu $20,$20,3
 6446 2894 2D284000 	move $5,$2
 6447              	.set noreorder
 6448              	.set nomacro
 6449 2898 A7FF0010 	b $L2073
 6450 289c 2D202002 	move $4,$17
 6451              	.set macro
 6452              	.set reorder
 6453              	
 6454              	$L1077:
 6455 28a0 2D288002 	move $5,$20
 6456              	.set noreorder
 6457              	.set nomacro
 6458 28a4 1A01000C 	jal _SNCPUFetch8
 6459 28a8 2D202002 	move $4,$17
 6460              	.set macro
 6461              	.set reorder
 6462              	
 6463 28ac 01009426 	addu $20,$20,1
 6464 28b0 2D804000 	move $16,$2
 6465 28b4 2D202002 	move $4,$17
 6466 28b8 0A002296 	lhu $2,10($17)
 6467              	
 6468 28bc 21800202 	addu $16,$16,$2
 6469 28c0 FFFF1032 	andi $16,$16,0xffff
 6470              	.set noreorder
GAS LISTING  			page 115


 6471              	.set nomacro
 6472 28c4 A400000C 	jal _SNCPURead16
 6473 28c8 2D280002 	move $5,$16
 6474              	.set macro
 6475              	.set reorder
 6476              	
 6477 28cc 04002396 	lhu $3,4($17)
 6478 28d0 2D804000 	move $16,$2
 6479 28d4 2D202002 	move $4,$17
 6480 28d8 1000228E 	lw $2,16($17)
 6481              	
 6482 28dc 25800202 	or $16,$16,$2
 6483              	.set noreorder
 6484              	.set nomacro
 6485 28e0 94FF0010 	b $L2072
 6486 28e4 21800302 	addu $16,$16,$3
 6487              	.set macro
 6488              	.set reorder
 6489              	
 6490              	$L1082:
 6491 28e8 2D288002 	move $5,$20
 6492              	.set noreorder
 6493              	.set nomacro
 6494 28ec 1A01000C 	jal _SNCPUFetch8
 6495 28f0 2D202002 	move $4,$17
 6496              	.set macro
 6497              	.set reorder
 6498              	
 6499 28f4 01009426 	addu $20,$20,1
 6500 28f8 2D804000 	move $16,$2
 6501 28fc 2D202002 	move $4,$17
 6502 2900 0A002296 	lhu $2,10($17)
 6503              	
 6504 2904 21800202 	addu $16,$16,$2
 6505              	.set noreorder
 6506              	.set nomacro
 6507 2908 84FF0010 	b $L2109
 6508 290c FFFF1032 	andi $16,$16,0xffff
 6509              	.set macro
 6510              	.set reorder
 6511              	
 6512              	$L1087:
 6513 2910 2D288002 	move $5,$20
 6514              	.set noreorder
 6515              	.set nomacro
 6516 2914 1A01000C 	jal _SNCPUFetch8
 6517 2918 2D202002 	move $4,$17
 6518              	.set macro
 6519              	.set reorder
 6520              	
 6521 291c 01009426 	addu $20,$20,1
 6522 2920 06002396 	lhu $3,6($17)
 6523 2924 2D804000 	move $16,$2
 6524 2928 1400228E 	lw $2,20($17)
 6525 292c 2D202002 	move $4,$17
 6526 2930 21800302 	addu $16,$16,$3
 6527 2934 FAFF4224 	addu $2,$2,-6
GAS LISTING  			page 116


 6528 2938 FFFF1032 	andi $16,$16,0xffff
 6529 293c 140022AE 	sw $2,20($17)
 6530              	.set noreorder
 6531              	.set nomacro
 6532 2940 A400000C 	jal _SNCPURead16
 6533 2944 2D280002 	move $5,$16
 6534              	.set macro
 6535              	.set reorder
 6536              	
 6537 2948 04002596 	lhu $5,4($17)
 6538 294c 1000238E 	lw $3,16($17)
 6539 2950 2D804000 	move $16,$2
 6540 2954 1400228E 	lw $2,20($17)
 6541 2958 2D202002 	move $4,$17
 6542 295c 25800302 	or $16,$16,$3
 6543 2960 FAFF4224 	addu $2,$2,-6
 6544 2964 21800502 	addu $16,$16,$5
 6545              	.set noreorder
 6546              	.set nomacro
 6547 2968 72FF0010 	b $L2072
 6548 296c 140022AE 	sw $2,20($17)
 6549              	.set macro
 6550              	.set reorder
 6551              	
 6552              	$L1092:
 6553 2970 2D288002 	move $5,$20
 6554              	.set noreorder
 6555              	.set nomacro
 6556 2974 1A01000C 	jal _SNCPUFetch8
 6557 2978 2D202002 	move $4,$17
 6558              	.set macro
 6559              	.set reorder
 6560              	
 6561 297c 01009426 	addu $20,$20,1
 6562 2980 2D804000 	move $16,$2
 6563 2984 02002596 	lhu $5,2($17)
 6564 2988 0A002296 	lhu $2,10($17)
 6565 298c 2D202002 	move $4,$17
 6566 2990 1400238E 	lw $3,20($17)
 6567 2994 21800202 	addu $16,$16,$2
 6568 2998 0000A28F 	lw $2,0($sp)
 6569 299c FFFF1032 	andi $16,$16,0xffff
 6570 29a0 FAFF6324 	addu $3,$3,-6
 6571 29a4 21800502 	addu $16,$16,$5
 6572 29a8 140023AE 	sw $3,20($17)
 6573              	.set noreorder
 6574              	.set nomacro
 6575 29ac 61FF0010 	b $L2072
 6576 29b0 24800202 	and $16,$16,$2
 6577              	.set macro
 6578              	.set reorder
 6579              	
 6580              	$L1248:
 6581 29b4 2D288002 	move $5,$20
 6582              	.set noreorder
 6583              	.set nomacro
 6584 29b8 1A01000C 	jal _SNCPUFetch8
GAS LISTING  			page 117


 6585 29bc 2D202002 	move $4,$17
 6586              	.set macro
 6587              	.set reorder
 6588              	
 6589 29c0 01009426 	addu $20,$20,1
 6590 29c4 2D804000 	move $16,$2
 6591 29c8 0A002396 	lhu $3,10($17)
 6592 29cc 1400228E 	lw $2,20($17)
 6593 29d0 2D202002 	move $4,$17
 6594 29d4 21800302 	addu $16,$16,$3
 6595 29d8 02002596 	lhu $5,2($17)
 6596 29dc FAFF4224 	addu $2,$2,-6
 6597 29e0 FFFF1032 	andi $16,$16,0xffff
 6598 29e4 140022AE 	sw $2,20($17)
 6599 29e8 21800502 	addu $16,$16,$5
 6600 29ec 0000A28F 	lw $2,0($sp)
 6601              	.set noreorder
 6602              	.set nomacro
 6603 29f0 79FF0010 	b $L1759
 6604 29f4 24800202 	and $16,$16,$2
 6605              	.set macro
 6606              	.set reorder
 6607              	
 6608              	$L1097:
 6609 29f8 2D288002 	move $5,$20
 6610              	.set noreorder
 6611              	.set nomacro
 6612 29fc 1A01000C 	jal _SNCPUFetch8
 6613 2a00 2D202002 	move $4,$17
 6614              	.set macro
 6615              	.set reorder
 6616              	
 6617 2a04 01009426 	addu $20,$20,1
 6618 2a08 2D804000 	move $16,$2
 6619 2a0c 2D202002 	move $4,$17
 6620 2a10 0A002296 	lhu $2,10($17)
 6621              	
 6622 2a14 21800202 	addu $16,$16,$2
 6623 2a18 FFFF1032 	andi $16,$16,0xffff
 6624              	.set noreorder
 6625              	.set nomacro
 6626 2a1c D400000C 	jal _SNCPURead24
 6627 2a20 2D280002 	move $5,$16
 6628              	.set macro
 6629              	.set reorder
 6630              	
 6631 2a24 2D202002 	move $4,$17
 6632 2a28 2D804000 	move $16,$2
 6633 2a2c 04002296 	lhu $2,4($17)
 6634              	$L2071:
 6635              	.set noreorder
 6636              	.set nomacro
 6637 2a30 40FF0010 	b $L2072
 6638 2a34 21800202 	addu $16,$16,$2
 6639              	.set macro
 6640              	.set reorder
 6641              	
GAS LISTING  			page 118


 6642              	$L1102:
 6643 2a38 2D288002 	move $5,$20
 6644              	.set noreorder
 6645              	.set nomacro
 6646 2a3c 3001000C 	jal _SNCPUFetch16
 6647 2a40 2D202002 	move $4,$17
 6648              	.set macro
 6649              	.set reorder
 6650              	
 6651 2a44 02009426 	addu $20,$20,2
 6652 2a48 2D804000 	move $16,$2
 6653 2a4c 1000238E 	lw $3,16($17)
 6654 2a50 04002296 	lhu $2,4($17)
 6655 2a54 2D202002 	move $4,$17
 6656              	$L2098:
 6657              	.set noreorder
 6658              	.set nomacro
 6659 2a58 F5FF0010 	b $L2071
 6660 2a5c 25800302 	or $16,$16,$3
 6661              	.set macro
 6662              	.set reorder
 6663              	
 6664              	$L1107:
 6665 2a60 2D288002 	move $5,$20
 6666              	.set noreorder
 6667              	.set nomacro
 6668 2a64 3001000C 	jal _SNCPUFetch16
 6669 2a68 2D202002 	move $4,$17
 6670              	.set macro
 6671              	.set reorder
 6672              	
 6673 2a6c 02009426 	addu $20,$20,2
 6674 2a70 2D804000 	move $16,$2
 6675 2a74 1000238E 	lw $3,16($17)
 6676 2a78 02002296 	lhu $2,2($17)
 6677              	.set noreorder
 6678              	.set nomacro
 6679 2a7c F6FF0010 	b $L2098
 6680 2a80 2D202002 	move $4,$17
 6681              	.set macro
 6682              	.set reorder
 6683              	
 6684              	$L1253:
 6685 2a84 2D288002 	move $5,$20
 6686              	.set noreorder
 6687              	.set nomacro
 6688 2a88 3001000C 	jal _SNCPUFetch16
 6689 2a8c 2D202002 	move $4,$17
 6690              	.set macro
 6691              	.set reorder
 6692              	
 6693 2a90 02009426 	addu $20,$20,2
 6694 2a94 1000238E 	lw $3,16($17)
 6695 2a98 2D804000 	move $16,$2
 6696 2a9c 02002296 	lhu $2,2($17)
 6697 2aa0 2D202002 	move $4,$17
 6698 2aa4 25800302 	or $16,$16,$3
GAS LISTING  			page 119


 6699 2aa8 21800202 	addu $16,$16,$2
 6700              	.set noreorder
 6701              	.set nomacro
 6702 2aac A400000C 	jal _SNCPURead16
 6703 2ab0 2D280002 	move $5,$16
 6704              	.set macro
 6705              	.set reorder
 6706              	
 6707 2ab4 2D280002 	move $5,$16
 6708 2ab8 FFFF5324 	addu $19,$2,-1
 6709              	$L1997:
 6710              	.set noreorder
 6711              	.set nomacro
 6712 2abc F1FB0010 	b $L2029
 6713 2ac0 2D202002 	move $4,$17
 6714              	.set macro
 6715              	.set reorder
 6716              	
 6717              	$L1112:
 6718 2ac4 2D288002 	move $5,$20
 6719              	.set noreorder
 6720              	.set nomacro
 6721 2ac8 6001000C 	jal _SNCPUFetch24
 6722 2acc 2D202002 	move $4,$17
 6723              	.set macro
 6724              	.set reorder
 6725              	
 6726 2ad0 03009426 	addu $20,$20,3
 6727 2ad4 2D804000 	move $16,$2
 6728 2ad8 2D202002 	move $4,$17
 6729              	.set noreorder
 6730              	.set nomacro
 6731 2adc D4FF0010 	b $L2071
 6732 2ae0 02002296 	lhu $2,2($17)
 6733              	.set macro
 6734              	.set reorder
 6735              	
 6736              	$L407:
 6737 2ae4 2D288002 	move $5,$20
 6738              	.set noreorder
 6739              	.set nomacro
 6740 2ae8 1A01000C 	jal _SNCPUFetch8
 6741 2aec 2D202002 	move $4,$17
 6742              	.set macro
 6743              	.set reorder
 6744              	
 6745 2af0 01009426 	addu $20,$20,1
 6746 2af4 2D804000 	move $16,$2
 6747 2af8 0A002396 	lhu $3,10($17)
 6748 2afc 1400228E 	lw $2,20($17)
 6749 2b00 2D202002 	move $4,$17
 6750 2b04 21800302 	addu $16,$16,$3
 6751 2b08 02002596 	lhu $5,2($17)
 6752 2b0c FAFF4224 	addu $2,$2,-6
 6753 2b10 FFFF1032 	andi $16,$16,0xffff
 6754 2b14 140022AE 	sw $2,20($17)
 6755 2b18 21800502 	addu $16,$16,$5
GAS LISTING  			page 120


 6756 2b1c 0000A28F 	lw $2,0($sp)
 6757              	
 6758 2b20 24800202 	and $16,$16,$2
 6759              	$L2144:
 6760              	.set noreorder
 6761              	.set nomacro
 6762 2b24 A400000C 	jal _SNCPURead16
 6763 2b28 2D280002 	move $5,$16
 6764              	.set macro
 6765              	.set reorder
 6766              	
 6767 2b2c 2D202002 	move $4,$17
 6768 2b30 2D804000 	move $16,$2
 6769 2b34 1000228E 	lw $2,16($17)
 6770              	$L2131:
 6771 2b38 25800202 	or $16,$16,$2
 6772              	$L2126:
 6773              	.set noreorder
 6774              	.set nomacro
 6775 2b3c A400000C 	jal _SNCPURead16
 6776 2b40 2D280002 	move $5,$16
 6777              	.set macro
 6778              	.set reorder
 6779              	
 6780 2b44 00003296 	lhu $18,0($17)
 6781 2b48 FFFF5338 	xori $19,$2,0xffff
 6782 2b4c 0100E432 	andi $4,$23,0x1
 6783 2b50 21185302 	addu $3,$18,$19
 6784 2b54 2D284002 	move $5,$18
 6785 2b58 26105302 	xor $2,$18,$19
 6786 2b5c 21906400 	addu $18,$3,$4
 6787 2b60 27100200 	nor $2,$0,$2
 6788 2b64 2618B200 	xor $3,$5,$18
 6789 2b68 24104300 	and $2,$2,$3
 6790 2b6c 00804230 	andi $2,$2,0x8000
 6791              	.set noreorder
 6792              	.set nomacro
 6793 2b70 0B004010 	beq $2,$0,$L562
 6794 2b74 08002292 	lbu $2,8($17)
 6795              	.set macro
 6796              	.set reorder
 6797              	
 6798              	$L2162:
 6799 2b78 40004234 	ori $2,$2,0x40
 6800              	$L1669:
 6801 2b7c 080022A2 	sb $2,8($17)
 6802 2b80 08002292 	lbu $2,8($17)
 6803              	
 6804 2b84 08004230 	andi $2,$2,0x8
 6805              	.set noreorder
 6806              	.set nomacro
 6807 2b88 FBFB4050 	beql $2,$0,$L2160
 6808 2b8c 2DA84002 	move $21,$18
 6809              	.set macro
 6810              	.set reorder
 6811              	
 6812              	.set noreorder
GAS LISTING  			page 121


 6813              	.set nomacro
 6814 2b90 5E00000C 	jal _SNCpuDecimalSBC16
 6815 2b94 2D306002 	move $6,$19
 6816              	.set macro
 6817              	.set reorder
 6818              	
 6819              	.set noreorder
 6820              	.set nomacro
 6821 2b98 F6FB0010 	b $L564
 6822 2b9c 2D904000 	move $18,$2
 6823              	.set macro
 6824              	.set reorder
 6825              	
 6826              	$L562:
 6827              	.set noreorder
 6828              	.set nomacro
 6829 2ba0 F6FF0010 	b $L1669
 6830 2ba4 BF004230 	andi $2,$2,0xbf
 6831              	.set macro
 6832              	.set reorder
 6833              	
 6834              	$L418:
 6835 2ba8 2D288002 	move $5,$20
 6836              	.set noreorder
 6837              	.set nomacro
 6838 2bac 1A01000C 	jal _SNCPUFetch8
 6839 2bb0 2D202002 	move $4,$17
 6840              	.set macro
 6841              	.set reorder
 6842              	
 6843 2bb4 01009426 	addu $20,$20,1
 6844 2bb8 2D804000 	move $16,$2
 6845 2bbc 06002396 	lhu $3,6($17)
 6846 2bc0 1400228E 	lw $2,20($17)
 6847 2bc4 2D202002 	move $4,$17
 6848 2bc8 21800302 	addu $16,$16,$3
 6849 2bcc FAFF4224 	addu $2,$2,-6
 6850 2bd0 140022AE 	sw $2,20($17)
 6851              	$L2130:
 6852              	.set noreorder
 6853              	.set nomacro
 6854 2bd4 D9FF0010 	b $L2126
 6855 2bd8 FFFF1032 	andi $16,$16,0xffff
 6856              	.set macro
 6857              	.set reorder
 6858              	
 6859              	$L429:
 6860 2bdc 2D288002 	move $5,$20
 6861              	.set noreorder
 6862              	.set nomacro
 6863 2be0 1A01000C 	jal _SNCPUFetch8
 6864 2be4 2D202002 	move $4,$17
 6865              	.set macro
 6866              	.set reorder
 6867              	
 6868 2be8 01009426 	addu $20,$20,1
 6869 2bec 2D804000 	move $16,$2
GAS LISTING  			page 122


 6870 2bf0 2D202002 	move $4,$17
 6871 2bf4 0A002296 	lhu $2,10($17)
 6872              	.set noreorder
 6873              	.set nomacro
 6874 2bf8 F6FF0010 	b $L2130
 6875 2bfc 21800202 	addu $16,$16,$2
 6876              	.set macro
 6877              	.set reorder
 6878              	
 6879              	$L1258:
 6880 2c00 2D288002 	move $5,$20
 6881              	.set noreorder
 6882              	.set nomacro
 6883 2c04 1A01000C 	jal _SNCPUFetch8
 6884 2c08 2D202002 	move $4,$17
 6885              	.set macro
 6886              	.set reorder
 6887              	
 6888 2c0c 01009426 	addu $20,$20,1
 6889 2c10 2D804000 	move $16,$2
 6890 2c14 2D202002 	move $4,$17
 6891 2c18 0A002296 	lhu $2,10($17)
 6892              	
 6893 2c1c 21800202 	addu $16,$16,$2
 6894 2c20 FFFF1032 	andi $16,$16,0xffff
 6895              	$L1994:
 6896              	.set noreorder
 6897              	.set nomacro
 6898 2c24 A400000C 	jal _SNCPURead16
 6899 2c28 2D280002 	move $5,$16
 6900              	.set macro
 6901              	.set reorder
 6902              	
 6903 2c2c 2D280002 	move $5,$16
 6904              	.set noreorder
 6905              	.set nomacro
 6906 2c30 EDFE0010 	b $L1765
 6907 2c34 01005324 	addu $19,$2,1
 6908              	.set macro
 6909              	.set reorder
 6910              	
 6911              	$L440:
 6912 2c38 2D288002 	move $5,$20
 6913              	.set noreorder
 6914              	.set nomacro
 6915 2c3c 1A01000C 	jal _SNCPUFetch8
 6916 2c40 2D202002 	move $4,$17
 6917              	.set macro
 6918              	.set reorder
 6919              	
 6920 2c44 01009426 	addu $20,$20,1
 6921 2c48 2D804000 	move $16,$2
 6922 2c4c 2D202002 	move $4,$17
 6923 2c50 0A002296 	lhu $2,10($17)
 6924              	
 6925 2c54 21800202 	addu $16,$16,$2
 6926 2c58 FFFF1032 	andi $16,$16,0xffff
GAS LISTING  			page 123


 6927              	.set noreorder
 6928              	.set nomacro
 6929 2c5c D400000C 	jal _SNCPURead24
 6930 2c60 2D280002 	move $5,$16
 6931              	.set macro
 6932              	.set reorder
 6933              	
 6934 2c64 2D202002 	move $4,$17
 6935              	.set noreorder
 6936              	.set nomacro
 6937 2c68 B4FF0010 	b $L2126
 6938 2c6c 2D804000 	move $16,$2
 6939              	.set macro
 6940              	.set reorder
 6941              	
 6942              	$L451:
 6943 2c70 2D288002 	move $5,$20
 6944              	.set noreorder
 6945              	.set nomacro
 6946 2c74 3001000C 	jal _SNCPUFetch16
 6947 2c78 2D202002 	move $4,$17
 6948              	.set macro
 6949              	.set reorder
 6950              	
 6951 2c7c 02009426 	addu $20,$20,2
 6952 2c80 00003296 	lhu $18,0($17)
 6953 2c84 2D984000 	move $19,$2
 6954 2c88 0100E432 	andi $4,$23,0x1
 6955              	$L2127:
 6956 2c8c FFFF733A 	xori $19,$19,0xffff
 6957 2c90 2D284002 	move $5,$18
 6958 2c94 21105302 	addu $2,$18,$19
 6959 2c98 26185302 	xor $3,$18,$19
 6960 2c9c 21904400 	addu $18,$2,$4
 6961 2ca0 27180300 	nor $3,$0,$3
 6962 2ca4 2610B200 	xor $2,$5,$18
 6963 2ca8 24186200 	and $3,$3,$2
 6964 2cac 00806330 	andi $3,$3,0x8000
 6965              	.set noreorder
 6966              	.set nomacro
 6967 2cb0 B1FF6014 	bne $3,$0,$L2162
 6968 2cb4 08002292 	lbu $2,8($17)
 6969              	.set macro
 6970              	.set reorder
 6971              	
 6972              	.set noreorder
 6973              	.set nomacro
 6974 2cb8 B0FF0010 	b $L1669
 6975 2cbc BF004230 	andi $2,$2,0xbf
 6976              	.set macro
 6977              	.set reorder
 6978              	
 6979              	$L462:
 6980 2cc0 2D288002 	move $5,$20
 6981              	.set noreorder
 6982              	.set nomacro
 6983 2cc4 3001000C 	jal _SNCPUFetch16
GAS LISTING  			page 124


 6984 2cc8 2D202002 	move $4,$17
 6985              	.set macro
 6986              	.set reorder
 6987              	
 6988 2ccc 02009426 	addu $20,$20,2
 6989 2cd0 2D804000 	move $16,$2
 6990 2cd4 2D202002 	move $4,$17
 6991              	.set noreorder
 6992              	.set nomacro
 6993 2cd8 97FF0010 	b $L2131
 6994 2cdc 1000228E 	lw $2,16($17)
 6995              	.set macro
 6996              	.set reorder
 6997              	
 6998              	$L1263:
 6999 2ce0 2D288002 	move $5,$20
 7000              	.set noreorder
 7001              	.set nomacro
 7002 2ce4 3001000C 	jal _SNCPUFetch16
 7003 2ce8 2D202002 	move $4,$17
 7004              	.set macro
 7005              	.set reorder
 7006              	
 7007 2cec 02009426 	addu $20,$20,2
 7008 2cf0 2D804000 	move $16,$2
 7009 2cf4 2D202002 	move $4,$17
 7010 2cf8 1000228E 	lw $2,16($17)
 7011              	.set noreorder
 7012              	.set nomacro
 7013 2cfc C9FF0010 	b $L1994
 7014 2d00 25800202 	or $16,$16,$2
 7015              	.set macro
 7016              	.set reorder
 7017              	
 7018              	$L473:
 7019 2d04 2D288002 	move $5,$20
 7020              	.set noreorder
 7021              	.set nomacro
 7022 2d08 6001000C 	jal _SNCPUFetch24
 7023 2d0c 2D202002 	move $4,$17
 7024              	.set macro
 7025              	.set reorder
 7026              	
 7027 2d10 03009426 	addu $20,$20,3
 7028 2d14 2D202002 	move $4,$17
 7029              	.set noreorder
 7030              	.set nomacro
 7031 2d18 A400000C 	jal _SNCPURead16
 7032 2d1c 2D284000 	move $5,$2
 7033              	.set macro
 7034              	.set reorder
 7035              	
 7036 2d20 00003296 	lhu $18,0($17)
 7037 2d24 2D984000 	move $19,$2
 7038              	.set noreorder
 7039              	.set nomacro
 7040 2d28 D8FF0010 	b $L2127
GAS LISTING  			page 125


 7041 2d2c 0100E432 	andi $4,$23,0x1
 7042              	.set macro
 7043              	.set reorder
 7044              	
 7045              	$L484:
 7046 2d30 2D288002 	move $5,$20
 7047              	.set noreorder
 7048              	.set nomacro
 7049 2d34 1A01000C 	jal _SNCPUFetch8
 7050 2d38 2D202002 	move $4,$17
 7051              	.set macro
 7052              	.set reorder
 7053              	
 7054 2d3c 01009426 	addu $20,$20,1
 7055 2d40 2D804000 	move $16,$2
 7056 2d44 2D202002 	move $4,$17
 7057 2d48 0A002296 	lhu $2,10($17)
 7058              	
 7059 2d4c 21800202 	addu $16,$16,$2
 7060 2d50 FFFF1032 	andi $16,$16,0xffff
 7061              	.set noreorder
 7062              	.set nomacro
 7063 2d54 A400000C 	jal _SNCPURead16
 7064 2d58 2D280002 	move $5,$16
 7065              	.set macro
 7066              	.set reorder
 7067              	
 7068 2d5c 04002396 	lhu $3,4($17)
 7069 2d60 2D804000 	move $16,$2
 7070 2d64 2D202002 	move $4,$17
 7071 2d68 1000228E 	lw $2,16($17)
 7072              	
 7073 2d6c 25800202 	or $16,$16,$2
 7074              	.set noreorder
 7075              	.set nomacro
 7076 2d70 72FF0010 	b $L2126
 7077 2d74 21800302 	addu $16,$16,$3
 7078              	.set macro
 7079              	.set reorder
 7080              	
 7081              	$L495:
 7082 2d78 2D288002 	move $5,$20
 7083              	.set noreorder
 7084              	.set nomacro
 7085 2d7c 1A01000C 	jal _SNCPUFetch8
 7086 2d80 2D202002 	move $4,$17
 7087              	.set macro
 7088              	.set reorder
 7089              	
 7090 2d84 01009426 	addu $20,$20,1
 7091 2d88 2D804000 	move $16,$2
 7092 2d8c 2D202002 	move $4,$17
 7093 2d90 0A002296 	lhu $2,10($17)
 7094              	
 7095 2d94 21800202 	addu $16,$16,$2
 7096              	.set noreorder
 7097              	.set nomacro
GAS LISTING  			page 126


 7098 2d98 62FF0010 	b $L2144
 7099 2d9c FFFF1032 	andi $16,$16,0xffff
 7100              	.set macro
 7101              	.set reorder
 7102              	
 7103              	$L506:
 7104 2da0 2D288002 	move $5,$20
 7105              	.set noreorder
 7106              	.set nomacro
 7107 2da4 1A01000C 	jal _SNCPUFetch8
 7108 2da8 2D202002 	move $4,$17
 7109              	.set macro
 7110              	.set reorder
 7111              	
 7112 2dac 01009426 	addu $20,$20,1
 7113 2db0 06002396 	lhu $3,6($17)
 7114 2db4 2D804000 	move $16,$2
 7115 2db8 1400228E 	lw $2,20($17)
 7116 2dbc 2D202002 	move $4,$17
 7117 2dc0 21800302 	addu $16,$16,$3
 7118 2dc4 FAFF4224 	addu $2,$2,-6
 7119 2dc8 FFFF1032 	andi $16,$16,0xffff
 7120 2dcc 140022AE 	sw $2,20($17)
 7121              	.set noreorder
 7122              	.set nomacro
 7123 2dd0 A400000C 	jal _SNCPURead16
 7124 2dd4 2D280002 	move $5,$16
 7125              	.set macro
 7126              	.set reorder
 7127              	
 7128 2dd8 04002596 	lhu $5,4($17)
 7129 2ddc 1000238E 	lw $3,16($17)
 7130 2de0 2D804000 	move $16,$2
 7131 2de4 1400228E 	lw $2,20($17)
 7132 2de8 2D202002 	move $4,$17
 7133 2dec 25800302 	or $16,$16,$3
 7134 2df0 FAFF4224 	addu $2,$2,-6
 7135 2df4 21800502 	addu $16,$16,$5
 7136              	.set noreorder
 7137              	.set nomacro
 7138 2df8 50FF0010 	b $L2126
 7139 2dfc 140022AE 	sw $2,20($17)
 7140              	.set macro
 7141              	.set reorder
 7142              	
 7143              	$L517:
 7144 2e00 2D288002 	move $5,$20
 7145              	.set noreorder
 7146              	.set nomacro
 7147 2e04 1A01000C 	jal _SNCPUFetch8
 7148 2e08 2D202002 	move $4,$17
 7149              	.set macro
 7150              	.set reorder
 7151              	
 7152 2e0c 01009426 	addu $20,$20,1
 7153 2e10 2D804000 	move $16,$2
 7154 2e14 0A002396 	lhu $3,10($17)
GAS LISTING  			page 127


 7155 2e18 1400228E 	lw $2,20($17)
 7156 2e1c 2D202002 	move $4,$17
 7157 2e20 21800302 	addu $16,$16,$3
 7158 2e24 02002596 	lhu $5,2($17)
 7159 2e28 FAFF4224 	addu $2,$2,-6
 7160 2e2c FFFF1032 	andi $16,$16,0xffff
 7161 2e30 140022AE 	sw $2,20($17)
 7162 2e34 21800502 	addu $16,$16,$5
 7163 2e38 0000A28F 	lw $2,0($sp)
 7164              	.set noreorder
 7165              	.set nomacro
 7166 2e3c 3FFF0010 	b $L2126
 7167 2e40 24800202 	and $16,$16,$2
 7168              	.set macro
 7169              	.set reorder
 7170              	
 7171              	$L1268:
 7172 2e44 2D288002 	move $5,$20
 7173              	.set noreorder
 7174              	.set nomacro
 7175 2e48 1A01000C 	jal _SNCPUFetch8
 7176 2e4c 2D202002 	move $4,$17
 7177              	.set macro
 7178              	.set reorder
 7179              	
 7180 2e50 01009426 	addu $20,$20,1
 7181 2e54 2D804000 	move $16,$2
 7182 2e58 0A002396 	lhu $3,10($17)
 7183 2e5c 1400228E 	lw $2,20($17)
 7184 2e60 2D202002 	move $4,$17
 7185 2e64 21800302 	addu $16,$16,$3
 7186 2e68 02002596 	lhu $5,2($17)
 7187 2e6c FAFF4224 	addu $2,$2,-6
 7188 2e70 FFFF1032 	andi $16,$16,0xffff
 7189 2e74 140022AE 	sw $2,20($17)
 7190 2e78 21800502 	addu $16,$16,$5
 7191 2e7c 0000A28F 	lw $2,0($sp)
 7192              	.set noreorder
 7193              	.set nomacro
 7194 2e80 68FF0010 	b $L1994
 7195 2e84 24800202 	and $16,$16,$2
 7196              	.set macro
 7197              	.set reorder
 7198              	
 7199              	$L528:
 7200 2e88 2D288002 	move $5,$20
 7201              	.set noreorder
 7202              	.set nomacro
 7203 2e8c 1A01000C 	jal _SNCPUFetch8
 7204 2e90 2D202002 	move $4,$17
 7205              	.set macro
 7206              	.set reorder
 7207              	
 7208 2e94 01009426 	addu $20,$20,1
 7209 2e98 2D804000 	move $16,$2
 7210 2e9c 2D202002 	move $4,$17
 7211 2ea0 0A002296 	lhu $2,10($17)
GAS LISTING  			page 128


 7212              	
 7213 2ea4 21800202 	addu $16,$16,$2
 7214 2ea8 FFFF1032 	andi $16,$16,0xffff
 7215              	.set noreorder
 7216              	.set nomacro
 7217 2eac D400000C 	jal _SNCPURead24
 7218 2eb0 2D280002 	move $5,$16
 7219              	.set macro
 7220              	.set reorder
 7221              	
 7222 2eb4 2D202002 	move $4,$17
 7223 2eb8 2D804000 	move $16,$2
 7224 2ebc 04002296 	lhu $2,4($17)
 7225              	$L2125:
 7226              	.set noreorder
 7227              	.set nomacro
 7228 2ec0 1EFF0010 	b $L2126
 7229 2ec4 21800202 	addu $16,$16,$2
 7230              	.set macro
 7231              	.set reorder
 7232              	
 7233              	$L539:
 7234 2ec8 2D288002 	move $5,$20
 7235              	.set noreorder
 7236              	.set nomacro
 7237 2ecc 3001000C 	jal _SNCPUFetch16
 7238 2ed0 2D202002 	move $4,$17
 7239              	.set macro
 7240              	.set reorder
 7241              	
 7242 2ed4 02009426 	addu $20,$20,2
 7243 2ed8 2D804000 	move $16,$2
 7244 2edc 1000238E 	lw $3,16($17)
 7245 2ee0 04002296 	lhu $2,4($17)
 7246 2ee4 2D202002 	move $4,$17
 7247              	$L2128:
 7248              	.set noreorder
 7249              	.set nomacro
 7250 2ee8 F5FF0010 	b $L2125
 7251 2eec 25800302 	or $16,$16,$3
 7252              	.set macro
 7253              	.set reorder
 7254              	
 7255              	$L550:
 7256 2ef0 2D288002 	move $5,$20
 7257              	.set noreorder
 7258              	.set nomacro
 7259 2ef4 3001000C 	jal _SNCPUFetch16
 7260 2ef8 2D202002 	move $4,$17
 7261              	.set macro
 7262              	.set reorder
 7263              	
 7264 2efc 02009426 	addu $20,$20,2
 7265 2f00 2D804000 	move $16,$2
 7266 2f04 1000238E 	lw $3,16($17)
 7267 2f08 02002296 	lhu $2,2($17)
 7268              	.set noreorder
GAS LISTING  			page 129


 7269              	.set nomacro
 7270 2f0c F6FF0010 	b $L2128
 7271 2f10 2D202002 	move $4,$17
 7272              	.set macro
 7273              	.set reorder
 7274              	
 7275              	$L1273:
 7276 2f14 2D288002 	move $5,$20
 7277              	.set noreorder
 7278              	.set nomacro
 7279 2f18 3001000C 	jal _SNCPUFetch16
 7280 2f1c 2D202002 	move $4,$17
 7281              	.set macro
 7282              	.set reorder
 7283              	
 7284 2f20 02009426 	addu $20,$20,2
 7285 2f24 1000238E 	lw $3,16($17)
 7286 2f28 2D804000 	move $16,$2
 7287 2f2c 02002296 	lhu $2,2($17)
 7288 2f30 2D202002 	move $4,$17
 7289 2f34 25800302 	or $16,$16,$3
 7290 2f38 21800202 	addu $16,$16,$2
 7291              	.set noreorder
 7292              	.set nomacro
 7293 2f3c A400000C 	jal _SNCPURead16
 7294 2f40 2D280002 	move $5,$16
 7295              	.set macro
 7296              	.set reorder
 7297              	
 7298 2f44 2D280002 	move $5,$16
 7299              	.set noreorder
 7300              	.set nomacro
 7301 2f48 DCFE0010 	b $L1997
 7302 2f4c 01005324 	addu $19,$2,1
 7303              	.set macro
 7304              	.set reorder
 7305              	
 7306              	$L561:
 7307 2f50 2D288002 	move $5,$20
 7308              	.set noreorder
 7309              	.set nomacro
 7310 2f54 6001000C 	jal _SNCPUFetch24
 7311 2f58 2D202002 	move $4,$17
 7312              	.set macro
 7313              	.set reorder
 7314              	
 7315 2f5c 03009426 	addu $20,$20,3
 7316 2f60 2D804000 	move $16,$2
 7317 2f64 2D202002 	move $4,$17
 7318              	.set noreorder
 7319              	.set nomacro
 7320 2f68 D5FF0010 	b $L2125
 7321 2f6c 02002296 	lhu $2,2($17)
 7322              	.set macro
 7323              	.set reorder
 7324              	
 7325              	$L1592:
GAS LISTING  			page 130


 7326 2f70 2D288002 	move $5,$20
 7327 2f74 2D202002 	move $4,$17
 7328              	.set noreorder
 7329              	.set nomacro
 7330 2f78 1A01000C 	jal _SNCPUFetch8
 7331 2f7c 01009426 	addu $20,$20,1
 7332              	.set macro
 7333              	.set reorder
 7334              	
 7335 2f80 2D288002 	move $5,$20
 7336 2f84 2D202002 	move $4,$17
 7337 2f88 2D804000 	move $16,$2
 7338              	.set noreorder
 7339              	.set nomacro
 7340 2f8c 1A01000C 	jal _SNCPUFetch8
 7341 2f90 01009426 	addu $20,$20,1
 7342              	.set macro
 7343              	.set reorder
 7344              	
 7345 2f94 00841000 	sll $16,$16,16
 7346 2f98 02002396 	lhu $3,2($17)
 7347 2f9c 00140200 	sll $2,$2,16
 7348 2fa0 100030AE 	sw $16,16($17)
 7349 2fa4 2D202002 	move $4,$17
 7350 2fa8 25104300 	or $2,$2,$3
 7351              	.set noreorder
 7352              	.set nomacro
 7353 2fac 8E00000C 	jal _SNCPURead8
 7354 2fb0 2D284000 	move $5,$2
 7355              	.set macro
 7356              	.set reorder
 7357              	
 7358 2fb4 04002396 	lhu $3,4($17)
 7359 2fb8 2D304000 	move $6,$2
 7360 2fbc 2D202002 	move $4,$17
 7361 2fc0 25800302 	or $16,$16,$3
 7362              	.set noreorder
 7363              	.set nomacro
 7364 2fc4 A601000C 	jal _SNCPUWrite8
 7365 2fc8 2D280002 	move $5,$16
 7366              	.set macro
 7367              	.set reorder
 7368              	
 7369 2fcc 04002296 	lhu $2,4($17)
 7370 2fd0 00002596 	lhu $5,0($17)
 7371 2fd4 FDFF8626 	addu $6,$20,-3
 7372 2fd8 1400248E 	lw $4,20($17)
 7373 2fdc FFFF4224 	addu $2,$2,-1
 7374 2fe0 02002396 	lhu $3,2($17)
 7375 2fe4 FFFFA724 	addu $7,$5,-1
 7376 2fe8 F4FF8424 	addu $4,$4,-12
 7377 2fec 0BA0C500 	movn $20,$6,$5
 7378 2ff0 FFFF6324 	addu $3,$3,-1
 7379              	$L1712:
 7380 2ff4 020023A6 	sh $3,2($17)
 7381 2ff8 040022A6 	sh $2,4($17)
 7382              	$L1672:
GAS LISTING  			page 131


 7383 2ffc 000027A6 	sh $7,0($17)
 7384              	$L1673:
 7385              	.set noreorder
 7386              	.set nomacro
 7387 3000 CDF60010 	b $L110
 7388 3004 140024AE 	sw $4,20($17)
 7389              	.set macro
 7390              	.set reorder
 7391              	
 7392              	$L1585:
 7393 3008 2D288002 	move $5,$20
 7394 300c 2D202002 	move $4,$17
 7395              	.set noreorder
 7396              	.set nomacro
 7397 3010 1A01000C 	jal _SNCPUFetch8
 7398 3014 01009426 	addu $20,$20,1
 7399              	.set macro
 7400              	.set reorder
 7401              	
 7402 3018 2D288002 	move $5,$20
 7403 301c 2D202002 	move $4,$17
 7404 3020 2D804000 	move $16,$2
 7405              	.set noreorder
 7406              	.set nomacro
 7407 3024 1A01000C 	jal _SNCPUFetch8
 7408 3028 01009426 	addu $20,$20,1
 7409              	.set macro
 7410              	.set reorder
 7411              	
 7412 302c 00841000 	sll $16,$16,16
 7413 3030 02002396 	lhu $3,2($17)
 7414 3034 00140200 	sll $2,$2,16
 7415 3038 100030AE 	sw $16,16($17)
 7416 303c 2D202002 	move $4,$17
 7417 3040 25104300 	or $2,$2,$3
 7418              	.set noreorder
 7419              	.set nomacro
 7420 3044 8E00000C 	jal _SNCPURead8
 7421 3048 2D284000 	move $5,$2
 7422              	.set macro
 7423              	.set reorder
 7424              	
 7425 304c 04002396 	lhu $3,4($17)
 7426 3050 2D304000 	move $6,$2
 7427 3054 2D202002 	move $4,$17
 7428 3058 25800302 	or $16,$16,$3
 7429              	.set noreorder
 7430              	.set nomacro
 7431 305c A601000C 	jal _SNCPUWrite8
 7432 3060 2D280002 	move $5,$16
 7433              	.set macro
 7434              	.set reorder
 7435              	
 7436 3064 04002296 	lhu $2,4($17)
 7437 3068 00002596 	lhu $5,0($17)
 7438 306c FDFF8626 	addu $6,$20,-3
 7439 3070 1400248E 	lw $4,20($17)
GAS LISTING  			page 132


 7440 3074 01004224 	addu $2,$2,1
 7441 3078 02002396 	lhu $3,2($17)
 7442 307c FFFFA724 	addu $7,$5,-1
 7443 3080 F4FF8424 	addu $4,$4,-12
 7444 3084 0BA0C500 	movn $20,$6,$5
 7445              	.set noreorder
 7446              	.set nomacro
 7447 3088 DAFF0010 	b $L1712
 7448 308c 01006324 	addu $3,$3,1
 7449              	.set macro
 7450              	.set reorder
 7451              	
 7452              	$L1457:
 7453              	.set noreorder
 7454              	.set nomacro
 7455 3090 CAF90010 	b $L2019
 7456 3094 04002596 	lhu $5,4($17)
 7457              	.set macro
 7458              	.set reorder
 7459              	
 7460              	$L1462:
 7461              	.set noreorder
 7462              	.set nomacro
 7463 3098 6A02000C 	jal _SNCPUPop16
 7464 309c 2D202002 	move $4,$17
 7465              	.set macro
 7466              	.set reorder
 7467              	
 7468 30a0 2D804000 	move $16,$2
 7469 30a4 1400228E 	lw $2,20($17)
 7470 30a8 2DA80002 	move $21,$16
 7471              	.set noreorder
 7472              	.set nomacro
 7473 30ac 04FB0010 	b $L2020
 7474 30b0 040030A6 	sh $16,4($17)
 7475              	.set macro
 7476              	.set reorder
 7477              	
 7478              	$L732:
 7479 30b4 2D202002 	move $4,$17
 7480              	.set noreorder
 7481              	.set nomacro
 7482 30b8 1A01000C 	jal _SNCPUFetch8
 7483 30bc 2D288002 	move $5,$20
 7484              	.set macro
 7485              	.set reorder
 7486              	
 7487 30c0 01009426 	addu $20,$20,1
 7488 30c4 2D804000 	move $16,$2
 7489 30c8 04002696 	lhu $6,4($17)
 7490 30cc 0A002296 	lhu $2,10($17)
 7491              	.set noreorder
 7492              	.set nomacro
 7493 30d0 C5FA0010 	b $L2052
 7494 30d4 2D202002 	move $4,$17
 7495              	.set macro
 7496              	.set reorder
GAS LISTING  			page 133


 7497              	
 7498              	$L717:
 7499 30d8 2D202002 	move $4,$17
 7500              	.set noreorder
 7501              	.set nomacro
 7502 30dc 1A01000C 	jal _SNCPUFetch8
 7503 30e0 2D288002 	move $5,$20
 7504              	.set macro
 7505              	.set reorder
 7506              	
 7507 30e4 01009426 	addu $20,$20,1
 7508 30e8 2D804000 	move $16,$2
 7509 30ec 02002696 	lhu $6,2($17)
 7510 30f0 0A002296 	lhu $2,10($17)
 7511              	.set noreorder
 7512              	.set nomacro
 7513 30f4 BCFA0010 	b $L2052
 7514 30f8 2D202002 	move $4,$17
 7515              	.set macro
 7516              	.set reorder
 7517              	
 7518              	$L227:
 7519 30fc 04003396 	lhu $19,4($17)
 7520 3100 1400228E 	lw $2,20($17)
 7521 3104 FFFF7326 	addu $19,$19,-1
 7522              	$L1690:
 7523 3108 FAFF4224 	addu $2,$2,-6
 7524 310c 2DA86002 	move $21,$19
 7525 3110 2DB06002 	move $22,$19
 7526 3114 140022AE 	sw $2,20($17)
 7527              	.set noreorder
 7528              	.set nomacro
 7529 3118 87F60010 	b $L110
 7530 311c 040033A6 	sh $19,4($17)
 7531              	.set macro
 7532              	.set reorder
 7533              	
 7534              	$L737:
 7535 3120 2D202002 	move $4,$17
 7536              	.set noreorder
 7537              	.set nomacro
 7538 3124 3001000C 	jal _SNCPUFetch16
 7539 3128 2D288002 	move $5,$20
 7540              	.set macro
 7541              	.set reorder
 7542              	
 7543 312c 02009426 	addu $20,$20,2
 7544 3130 2D804000 	move $16,$2
 7545 3134 04002696 	lhu $6,4($17)
 7546 3138 1000228E 	lw $2,16($17)
 7547              	.set noreorder
 7548              	.set nomacro
 7549 313c DEFB0010 	b $L1815
 7550 3140 2D202002 	move $4,$17
 7551              	.set macro
 7552              	.set reorder
 7553              	
GAS LISTING  			page 134


 7554              	$L722:
 7555 3144 2D202002 	move $4,$17
 7556              	.set noreorder
 7557              	.set nomacro
 7558 3148 3001000C 	jal _SNCPUFetch16
 7559 314c 2D288002 	move $5,$20
 7560              	.set macro
 7561              	.set reorder
 7562              	
 7563 3150 02009426 	addu $20,$20,2
 7564 3154 2D804000 	move $16,$2
 7565 3158 02002696 	lhu $6,2($17)
 7566 315c 1000228E 	lw $2,16($17)
 7567              	.set noreorder
 7568              	.set nomacro
 7569 3160 D5FB0010 	b $L1815
 7570 3164 2D202002 	move $4,$17
 7571              	.set macro
 7572              	.set reorder
 7573              	
 7574              	$L742:
 7575 3168 2D288002 	move $5,$20
 7576              	.set noreorder
 7577              	.set nomacro
 7578 316c 1A01000C 	jal _SNCPUFetch8
 7579 3170 2D202002 	move $4,$17
 7580              	.set macro
 7581              	.set reorder
 7582              	
 7583 3174 01009426 	addu $20,$20,1
 7584 3178 0A002396 	lhu $3,10($17)
 7585 317c 2D804000 	move $16,$2
 7586 3180 02002596 	lhu $5,2($17)
 7587 3184 2D202002 	move $4,$17
 7588 3188 1400228E 	lw $2,20($17)
 7589 318c 21800302 	addu $16,$16,$3
 7590 3190 FFFF1032 	andi $16,$16,0xffff
 7591 3194 04002696 	lhu $6,4($17)
 7592 3198 FAFF4224 	addu $2,$2,-6
 7593              	.set noreorder
 7594              	.set nomacro
 7595 319c 44FC0010 	b $L1813
 7596 31a0 21800502 	addu $16,$16,$5
 7597              	.set macro
 7598              	.set reorder
 7599              	
 7600              	$L727:
 7601 31a4 2D288002 	move $5,$20
 7602              	.set noreorder
 7603              	.set nomacro
 7604 31a8 1A01000C 	jal _SNCPUFetch8
 7605 31ac 2D202002 	move $4,$17
 7606              	.set macro
 7607              	.set reorder
 7608              	
 7609 31b0 01009426 	addu $20,$20,1
 7610 31b4 0A002396 	lhu $3,10($17)
GAS LISTING  			page 135


 7611 31b8 2D804000 	move $16,$2
 7612 31bc 04002596 	lhu $5,4($17)
 7613 31c0 2D202002 	move $4,$17
 7614 31c4 1400228E 	lw $2,20($17)
 7615 31c8 21800302 	addu $16,$16,$3
 7616 31cc FFFF1032 	andi $16,$16,0xffff
 7617 31d0 02002696 	lhu $6,2($17)
 7618 31d4 FAFF4224 	addu $2,$2,-6
 7619              	.set noreorder
 7620              	.set nomacro
 7621 31d8 35FC0010 	b $L1813
 7622 31dc 21800502 	addu $16,$16,$5
 7623              	.set macro
 7624              	.set reorder
 7625              	
 7626              	$L202:
 7627 31e0 02003096 	lhu $16,2($17)
 7628              	$L2031:
 7629 31e4 1400228E 	lw $2,20($17)
 7630 31e8 2DA80002 	move $21,$16
 7631              	$L1799:
 7632              	.set noreorder
 7633              	.set nomacro
 7634 31ec E4FB0010 	b $L1732
 7635 31f0 040030A6 	sh $16,4($17)
 7636              	.set macro
 7637              	.set reorder
 7638              	
 7639              	$L792:
 7640 31f4 2D288002 	move $5,$20
 7641              	.set noreorder
 7642              	.set nomacro
 7643 31f8 3001000C 	jal _SNCPUFetch16
 7644 31fc 2D202002 	move $4,$17
 7645              	.set macro
 7646              	.set reorder
 7647              	
 7648 3200 02009426 	addu $20,$20,2
 7649 3204 2D984000 	move $19,$2
 7650              	$L1874:
 7651 3208 2DA86002 	move $21,$19
 7652              	.set noreorder
 7653              	.set nomacro
 7654 320c 85F60010 	b $L1684
 7655 3210 040033A6 	sh $19,4($17)
 7656              	.set macro
 7657              	.set reorder
 7658              	
 7659              	$L767:
 7660 3214 2D288002 	move $5,$20
 7661              	.set noreorder
 7662              	.set nomacro
 7663 3218 3001000C 	jal _SNCPUFetch16
 7664 321c 2D202002 	move $4,$17
 7665              	.set macro
 7666              	.set reorder
 7667              	
GAS LISTING  			page 136


 7668 3220 02009426 	addu $20,$20,2
 7669 3224 2D984000 	move $19,$2
 7670              	$L1866:
 7671 3228 2DA86002 	move $21,$19
 7672              	.set noreorder
 7673              	.set nomacro
 7674 322c 7DF60010 	b $L1684
 7675 3230 020033A6 	sh $19,2($17)
 7676              	.set macro
 7677              	.set reorder
 7678              	
 7679              	$L797:
 7680 3234 2D288002 	move $5,$20
 7681              	.set noreorder
 7682              	.set nomacro
 7683 3238 1A01000C 	jal _SNCPUFetch8
 7684 323c 2D202002 	move $4,$17
 7685              	.set macro
 7686              	.set reorder
 7687              	
 7688 3240 01009426 	addu $20,$20,1
 7689 3244 2D804000 	move $16,$2
 7690 3248 2D202002 	move $4,$17
 7691 324c 0A002296 	lhu $2,10($17)
 7692              	
 7693 3250 21800202 	addu $16,$16,$2
 7694 3254 FFFF1032 	andi $16,$16,0xffff
 7695              	$L2057:
 7696              	.set noreorder
 7697              	.set nomacro
 7698 3258 A400000C 	jal _SNCPURead16
 7699 325c 2D280002 	move $5,$16
 7700              	.set macro
 7701              	.set reorder
 7702              	
 7703              	.set noreorder
 7704              	.set nomacro
 7705 3260 E9FF0010 	b $L1874
 7706 3264 2D984000 	move $19,$2
 7707              	.set macro
 7708              	.set reorder
 7709              	
 7710              	$L772:
 7711 3268 2D288002 	move $5,$20
 7712              	.set noreorder
 7713              	.set nomacro
 7714 326c 1A01000C 	jal _SNCPUFetch8
 7715 3270 2D202002 	move $4,$17
 7716              	.set macro
 7717              	.set reorder
 7718              	
 7719 3274 01009426 	addu $20,$20,1
 7720 3278 2D804000 	move $16,$2
 7721 327c 2D202002 	move $4,$17
 7722 3280 0A002296 	lhu $2,10($17)
 7723              	
 7724 3284 21800202 	addu $16,$16,$2
GAS LISTING  			page 137


 7725 3288 FFFF1032 	andi $16,$16,0xffff
 7726              	$L2055:
 7727              	.set noreorder
 7728              	.set nomacro
 7729 328c A400000C 	jal _SNCPURead16
 7730 3290 2D280002 	move $5,$16
 7731              	.set macro
 7732              	.set reorder
 7733              	
 7734              	.set noreorder
 7735              	.set nomacro
 7736 3294 E4FF0010 	b $L1866
 7737 3298 2D984000 	move $19,$2
 7738              	.set macro
 7739              	.set reorder
 7740              	
 7741              	$L192:
 7742              	.set noreorder
 7743              	.set nomacro
 7744 329c D1FF0010 	b $L2031
 7745 32a0 00003096 	lhu $16,0($17)
 7746              	.set macro
 7747              	.set reorder
 7748              	
 7749              	$L197:
 7750              	
 7751 32a4 00003096 	lhu $16,0($17)
 7752              	$L1803:
 7753 32a8 1400228E 	lw $2,20($17)
 7754 32ac 2DA80002 	move $21,$16
 7755              	$L1798:
 7756              	.set noreorder
 7757              	.set nomacro
 7758 32b0 B3FB0010 	b $L1732
 7759 32b4 020030A6 	sh $16,2($17)
 7760              	.set macro
 7761              	.set reorder
 7762              	
 7763              	$L802:
 7764 32b8 2D288002 	move $5,$20
 7765              	.set noreorder
 7766              	.set nomacro
 7767 32bc 3001000C 	jal _SNCPUFetch16
 7768 32c0 2D202002 	move $4,$17
 7769              	.set macro
 7770              	.set reorder
 7771              	
 7772 32c4 02009426 	addu $20,$20,2
 7773 32c8 2D804000 	move $16,$2
 7774 32cc 2D202002 	move $4,$17
 7775 32d0 1000228E 	lw $2,16($17)
 7776              	.set noreorder
 7777              	.set nomacro
 7778 32d4 E0FF0010 	b $L2057
 7779 32d8 25800202 	or $16,$16,$2
 7780              	.set macro
 7781              	.set reorder
GAS LISTING  			page 138


 7782              	
 7783              	$L777:
 7784 32dc 2D288002 	move $5,$20
 7785              	.set noreorder
 7786              	.set nomacro
 7787 32e0 3001000C 	jal _SNCPUFetch16
 7788 32e4 2D202002 	move $4,$17
 7789              	.set macro
 7790              	.set reorder
 7791              	
 7792 32e8 02009426 	addu $20,$20,2
 7793 32ec 2D804000 	move $16,$2
 7794 32f0 2D202002 	move $4,$17
 7795 32f4 1000228E 	lw $2,16($17)
 7796              	.set noreorder
 7797              	.set nomacro
 7798 32f8 E4FF0010 	b $L2055
 7799 32fc 25800202 	or $16,$16,$2
 7800              	.set macro
 7801              	.set reorder
 7802              	
 7803              	$L807:
 7804 3300 2D288002 	move $5,$20
 7805              	.set noreorder
 7806              	.set nomacro
 7807 3304 1A01000C 	jal _SNCPUFetch8
 7808 3308 2D202002 	move $4,$17
 7809              	.set macro
 7810              	.set reorder
 7811              	
 7812 330c 01009426 	addu $20,$20,1
 7813 3310 2D804000 	move $16,$2
 7814 3314 02002596 	lhu $5,2($17)
 7815 3318 0A002296 	lhu $2,10($17)
 7816 331c 2D202002 	move $4,$17
 7817 3320 1400238E 	lw $3,20($17)
 7818 3324 21800202 	addu $16,$16,$2
 7819 3328 0000A28F 	lw $2,0($sp)
 7820 332c FFFF1032 	andi $16,$16,0xffff
 7821 3330 FAFF6324 	addu $3,$3,-6
 7822 3334 21800502 	addu $16,$16,$5
 7823 3338 140023AE 	sw $3,20($17)
 7824              	.set noreorder
 7825              	.set nomacro
 7826 333c C6FF0010 	b $L2057
 7827 3340 24800202 	and $16,$16,$2
 7828              	.set macro
 7829              	.set reorder
 7830              	
 7831              	$L782:
 7832 3344 2D288002 	move $5,$20
 7833              	.set noreorder
 7834              	.set nomacro
 7835 3348 1A01000C 	jal _SNCPUFetch8
 7836 334c 2D202002 	move $4,$17
 7837              	.set macro
 7838              	.set reorder
GAS LISTING  			page 139


 7839              	
 7840 3350 01009426 	addu $20,$20,1
 7841 3354 2D804000 	move $16,$2
 7842 3358 04002596 	lhu $5,4($17)
 7843 335c 0A002296 	lhu $2,10($17)
 7844 3360 2D202002 	move $4,$17
 7845 3364 1400238E 	lw $3,20($17)
 7846 3368 21800202 	addu $16,$16,$2
 7847 336c 0000A28F 	lw $2,0($sp)
 7848 3370 FFFF1032 	andi $16,$16,0xffff
 7849 3374 FAFF6324 	addu $3,$3,-6
 7850 3378 21800502 	addu $16,$16,$5
 7851 337c 140023AE 	sw $3,20($17)
 7852              	.set noreorder
 7853              	.set nomacro
 7854 3380 C2FF0010 	b $L2055
 7855 3384 24800202 	and $16,$16,$2
 7856              	.set macro
 7857              	.set reorder
 7858              	
 7859              	$L217:
 7860              	.set noreorder
 7861              	.set nomacro
 7862 3388 C7FF0010 	b $L1803
 7863 338c 06003096 	lhu $16,6($17)
 7864              	.set macro
 7865              	.set reorder
 7866              	
 7867              	$L207:
 7868              	.set noreorder
 7869              	.set nomacro
 7870 3390 C5FF0010 	b $L1803
 7871 3394 04003096 	lhu $16,4($17)
 7872              	.set macro
 7873              	.set reorder
 7874              	
 7875              	$L812:
 7876 3398 2D288002 	move $5,$20
 7877              	.set noreorder
 7878              	.set nomacro
 7879 339c 3001000C 	jal _SNCPUFetch16
 7880 33a0 2D202002 	move $4,$17
 7881              	.set macro
 7882              	.set reorder
 7883              	
 7884 33a4 02009426 	addu $20,$20,2
 7885 33a8 1000238E 	lw $3,16($17)
 7886 33ac 2D804000 	move $16,$2
 7887 33b0 02002296 	lhu $2,2($17)
 7888 33b4 2D202002 	move $4,$17
 7889 33b8 25800302 	or $16,$16,$3
 7890              	.set noreorder
 7891              	.set nomacro
 7892 33bc A6FF0010 	b $L2057
 7893 33c0 21800202 	addu $16,$16,$2
 7894              	.set macro
 7895              	.set reorder
GAS LISTING  			page 140


 7896              	
 7897              	$L787:
 7898 33c4 2D288002 	move $5,$20
 7899              	.set noreorder
 7900              	.set nomacro
 7901 33c8 3001000C 	jal _SNCPUFetch16
 7902 33cc 2D202002 	move $4,$17
 7903              	.set macro
 7904              	.set reorder
 7905              	
 7906 33d0 02009426 	addu $20,$20,2
 7907 33d4 1000238E 	lw $3,16($17)
 7908 33d8 2D804000 	move $16,$2
 7909 33dc 04002296 	lhu $2,4($17)
 7910 33e0 2D202002 	move $4,$17
 7911 33e4 25800302 	or $16,$16,$3
 7912              	.set noreorder
 7913              	.set nomacro
 7914 33e8 A8FF0010 	b $L2055
 7915 33ec 21800202 	addu $16,$16,$2
 7916              	.set macro
 7917              	.set reorder
 7918              	
 7919              	$L1132:
 7920 33f0 2D288002 	move $5,$20
 7921              	.set noreorder
 7922              	.set nomacro
 7923 33f4 3001000C 	jal _SNCPUFetch16
 7924 33f8 2D202002 	move $4,$17
 7925              	.set macro
 7926              	.set reorder
 7927              	
 7928 33fc 02009426 	addu $20,$20,2
 7929 3400 2D984000 	move $19,$2
 7930              	$L1966:
 7931              	.set noreorder
 7932              	.set nomacro
 7933 3404 D0FC0010 	b $L1965
 7934 3408 04003296 	lhu $18,4($17)
 7935              	.set macro
 7936              	.set reorder
 7937              	
 7938              	$L1137:
 7939 340c 2D288002 	move $5,$20
 7940              	.set noreorder
 7941              	.set nomacro
 7942 3410 1A01000C 	jal _SNCPUFetch8
 7943 3414 2D202002 	move $4,$17
 7944              	.set macro
 7945              	.set reorder
 7946              	
 7947 3418 01009426 	addu $20,$20,1
 7948 341c 2D804000 	move $16,$2
 7949 3420 2D202002 	move $4,$17
 7950 3424 0A002296 	lhu $2,10($17)
 7951              	
 7952 3428 21800202 	addu $16,$16,$2
GAS LISTING  			page 141


 7953 342c FFFF1032 	andi $16,$16,0xffff
 7954              	$L1969:
 7955              	.set noreorder
 7956              	.set nomacro
 7957 3430 A400000C 	jal _SNCPURead16
 7958 3434 2D280002 	move $5,$16
 7959              	.set macro
 7960              	.set reorder
 7961              	
 7962              	.set noreorder
 7963              	.set nomacro
 7964 3438 F2FF0010 	b $L1966
 7965 343c 2D984000 	move $19,$2
 7966              	.set macro
 7967              	.set reorder
 7968              	
 7969              	$L237:
 7970 3440 04003396 	lhu $19,4($17)
 7971 3444 1400228E 	lw $2,20($17)
 7972              	.set noreorder
 7973              	.set nomacro
 7974 3448 2FFF0010 	b $L1690
 7975 344c 01007326 	addu $19,$19,1
 7976              	.set macro
 7977              	.set reorder
 7978              	
 7979              	$L222:
 7980 3450 02003396 	lhu $19,2($17)
 7981 3454 1400228E 	lw $2,20($17)
 7982 3458 FFFF7326 	addu $19,$19,-1
 7983              	$L1692:
 7984 345c FAFF4224 	addu $2,$2,-6
 7985 3460 2DA86002 	move $21,$19
 7986 3464 2DB06002 	move $22,$19
 7987 3468 140022AE 	sw $2,20($17)
 7988              	.set noreorder
 7989              	.set nomacro
 7990 346c B2F50010 	b $L110
 7991 3470 020033A6 	sh $19,2($17)
 7992              	.set macro
 7993              	.set reorder
 7994              	
 7995              	$L1142:
 7996 3474 2D288002 	move $5,$20
 7997              	.set noreorder
 7998              	.set nomacro
 7999 3478 3001000C 	jal _SNCPUFetch16
 8000 347c 2D202002 	move $4,$17
 8001              	.set macro
 8002              	.set reorder
 8003              	
 8004 3480 02009426 	addu $20,$20,2
 8005 3484 2D804000 	move $16,$2
 8006 3488 2D202002 	move $4,$17
 8007 348c 1000228E 	lw $2,16($17)
 8008              	.set noreorder
 8009              	.set nomacro
GAS LISTING  			page 142


 8010 3490 E7FF0010 	b $L1969
 8011 3494 25800202 	or $16,$16,$2
 8012              	.set macro
 8013              	.set reorder
 8014              	
 8015              	$L1447:
 8016              	.set noreorder
 8017              	.set nomacro
 8018 3498 C8F80010 	b $L2019
 8019 349c 02002596 	lhu $5,2($17)
 8020              	.set macro
 8021              	.set reorder
 8022              	
 8023              	$L1117:
 8024              	
 8025 34a0 2D288002 	move $5,$20
 8026              	.set noreorder
 8027              	.set nomacro
 8028 34a4 3001000C 	jal _SNCPUFetch16
 8029 34a8 2D202002 	move $4,$17
 8030              	.set macro
 8031              	.set reorder
 8032              	
 8033 34ac 02009426 	addu $20,$20,2
 8034 34b0 2D984000 	move $19,$2
 8035              	$L1968:
 8036              	.set noreorder
 8037              	.set nomacro
 8038 34b4 A4FC0010 	b $L1965
 8039 34b8 02003296 	lhu $18,2($17)
 8040              	.set macro
 8041              	.set reorder
 8042              	
 8043              	$L1122:
 8044 34bc 2D288002 	move $5,$20
 8045              	.set noreorder
 8046              	.set nomacro
 8047 34c0 1A01000C 	jal _SNCPUFetch8
 8048 34c4 2D202002 	move $4,$17
 8049              	.set macro
 8050              	.set reorder
 8051              	
 8052 34c8 01009426 	addu $20,$20,1
 8053 34cc 2D804000 	move $16,$2
 8054 34d0 2D202002 	move $4,$17
 8055 34d4 0A002296 	lhu $2,10($17)
 8056              	
 8057 34d8 21800202 	addu $16,$16,$2
 8058 34dc FFFF1032 	andi $16,$16,0xffff
 8059              	$L1967:
 8060              	.set noreorder
 8061              	.set nomacro
 8062 34e0 A400000C 	jal _SNCPURead16
 8063 34e4 2D280002 	move $5,$16
 8064              	.set macro
 8065              	.set reorder
 8066              	
GAS LISTING  			page 143


 8067              	.set noreorder
 8068              	.set nomacro
 8069 34e8 F2FF0010 	b $L1968
 8070 34ec 2D984000 	move $19,$2
 8071              	.set macro
 8072              	.set reorder
 8073              	
 8074              	$L232:
 8075 34f0 02003396 	lhu $19,2($17)
 8076 34f4 1400228E 	lw $2,20($17)
 8077              	.set noreorder
 8078              	.set nomacro
 8079 34f8 D8FF0010 	b $L1692
 8080 34fc 01007326 	addu $19,$19,1
 8081              	.set macro
 8082              	.set reorder
 8083              	
 8084              	$L1127:
 8085 3500 2D288002 	move $5,$20
 8086              	.set noreorder
 8087              	.set nomacro
 8088 3504 3001000C 	jal _SNCPUFetch16
 8089 3508 2D202002 	move $4,$17
 8090              	.set macro
 8091              	.set reorder
 8092              	
 8093 350c 02009426 	addu $20,$20,2
 8094 3510 2D804000 	move $16,$2
 8095 3514 2D202002 	move $4,$17
 8096 3518 1000228E 	lw $2,16($17)
 8097              	.set noreorder
 8098              	.set nomacro
 8099 351c F0FF0010 	b $L1967
 8100 3520 25800202 	or $16,$16,$2
 8101              	.set macro
 8102              	.set reorder
 8103              	
 8104              	$L1452:
 8105              	.set noreorder
 8106              	.set nomacro
 8107 3524 6A02000C 	jal _SNCPUPop16
 8108 3528 2D202002 	move $4,$17
 8109              	.set macro
 8110              	.set reorder
 8111              	
 8112 352c 2D804000 	move $16,$2
 8113 3530 1400228E 	lw $2,20($17)
 8114 3534 2DA80002 	move $21,$16
 8115              	.set noreorder
 8116              	.set nomacro
 8117 3538 E1F90010 	b $L2020
 8118 353c 020030A6 	sh $16,2($17)
 8119              	.set macro
 8120              	.set reorder
 8121              	
 8122              	$L1494:
 8123 3540 01009226 	addu $18,$20,1
GAS LISTING  			page 144


 8124 3544 2D202002 	move $4,$17
 8125              	.set noreorder
 8126              	.set nomacro
 8127 3548 3202000C 	jal _SNCPUPush24
 8128 354c 2D284002 	move $5,$18
 8129              	.set macro
 8130              	.set reorder
 8131              	
 8132 3550 80FF0324 	li $3,-128
 8133 3554 08002292 	lbu $2,8($17)
 8134 3558 02221600 	srl $4,$22,8
 8135 355c 24208300 	and $4,$4,$3
 8136 3560 FFFFA532 	andi $5,$21,0xffff
 8137 3564 7C004230 	andi $2,$2,0x7c
 8138 3568 25105700 	or $2,$2,$23
 8139 356c 25104400 	or $2,$2,$4
 8140              	.set noreorder
 8141              	.set nomacro
 8142 3570 0300A014 	bne $5,$0,$L1495
 8143 3574 080022A2 	sb $2,8($17)
 8144              	.set macro
 8145              	.set reorder
 8146              	
 8147 3578 02004234 	ori $2,$2,0x2
 8148 357c 080022A2 	sb $2,8($17)
 8149              	$L1495:
 8150 3580 08002592 	lbu $5,8($17)
 8151              	.set noreorder
 8152              	.set nomacro
 8153 3584 F801000C 	jal _SNCPUPush8
 8154 3588 2D202002 	move $4,$17
 8155              	.set macro
 8156              	.set reorder
 8157              	
 8158 358c E6FF0534 	li $5,65510
 8159              	$L2022:
 8160 3590 08002292 	lbu $2,8($17)
 8161 3594 2D202002 	move $4,$17
 8162 3598 F7004230 	andi $2,$2,0xf7
 8163 359c 04004234 	ori $2,$2,0x4
 8164              	.set noreorder
 8165              	.set nomacro
 8166 35a0 A400000C 	jal _SNCPURead16
 8167 35a4 080022A2 	sb $2,8($17)
 8168              	.set macro
 8169              	.set reorder
 8170              	
 8171 35a8 2D804000 	move $16,$2
 8172 35ac 1400238E 	lw $3,20($17)
 8173              	$L2153:
 8174 35b0 FF00023C 	li $2,16711680
 8175 35b4 FFFF4234 	ori $2,$2,0xffff
 8176 35b8 FAFF6324 	addu $3,$3,-6
 8177              	$L1711:
 8178              	.set noreorder
 8179              	.set nomacro
 8180 35bc 5CF50010 	b $L1675
GAS LISTING  			page 145


 8181 35c0 24A00202 	and $20,$16,$2
 8182              	.set macro
 8183              	.set reorder
 8184              	
 8185              	$L179:
 8186 35c4 1400228E 	lw $2,20($17)
 8187 35c8 00003096 	lhu $16,0($17)
 8188              	$L1718:
 8189 35cc FAFF4224 	addu $2,$2,-6
 8190              	.set noreorder
 8191              	.set nomacro
 8192 35d0 B9F50010 	b $L1671
 8193 35d4 060030A6 	sh $16,6($17)
 8194              	.set macro
 8195              	.set reorder
 8196              	
 8197              	$L1199:
 8198              	.set noreorder
 8199              	.set nomacro
 8200 35d8 4802000C 	jal _SNCPUPop8
 8201 35dc 2D202002 	move $4,$17
 8202              	.set macro
 8203              	.set reorder
 8204              	
 8205 35e0 2D804000 	move $16,$2
 8206 35e4 02004230 	andi $2,$2,0x2
 8207 35e8 02004238 	xori $2,$2,0x2
 8208 35ec FF000332 	andi $3,$16,0x00ff
 8209 35f0 10000432 	andi $4,$16,0x10
 8210 35f4 080030A2 	sb $16,8($17)
 8211 35f8 FF005530 	andi $21,$2,0x00ff
 8212 35fc 00B20300 	sll $22,$3,8
 8213              	.set noreorder
 8214              	.set nomacro
 8215 3600 03008010 	beq $4,$0,$L1200
 8216 3604 01001732 	andi $23,$16,0x1
 8217              	.set macro
 8218              	.set reorder
 8219              	
 8220 3608 030020A2 	sb $0,3($17)
 8221 360c 050020A2 	sb $0,5($17)
 8222              	$L1200:
 8223 3610 09002292 	lbu $2,9($17)
 8224              	
 8225              	.set noreorder
 8226              	.set nomacro
 8227 3614 12004050 	beql $2,$0,$L1201
 8228 3618 08002292 	lbu $2,8($17)
 8229              	.set macro
 8230              	.set reorder
 8231              	
 8232 361c 08002392 	lbu $3,8($17)
 8233 3620 FF000224 	li $2,255
 8234 3624 0000A2AF 	sw $2,0($sp)
 8235 3628 00041E24 	li $fp,1024
 8236 362c 30006334 	ori $3,$3,0x30
 8237 3630 01000224 	li $2,1
GAS LISTING  			page 146


 8238 3634 070022A2 	sb $2,7($17)
 8239 3638 080023A2 	sb $3,8($17)
 8240 363c 0A0020A6 	sh $0,10($17)
 8241              	$L1202:
 8242              	.set noreorder
 8243              	.set nomacro
 8244 3640 7C02000C 	jal _SNCPUPop24
 8245 3644 2D202002 	move $4,$17
 8246              	.set macro
 8247              	.set reorder
 8248              	
 8249 3648 1400238E 	lw $3,20($17)
 8250              	$L2150:
 8251 364c 2D804000 	move $16,$2
 8252 3650 FF00023C 	li $2,16711680
 8253              	$L2024:
 8254 3654 FFFF4234 	ori $2,$2,0xffff
 8255              	.set noreorder
 8256              	.set nomacro
 8257 3658 D8FF0010 	b $L1711
 8258 365c F4FF6324 	addu $3,$3,-12
 8259              	.set macro
 8260              	.set reorder
 8261              	
 8262              	$L1201:
 8263 3660 FFFF0334 	li $3,65535
 8264 3664 0000A3AF 	sw $3,0($sp)
 8265 3668 00110200 	sll $2,$2,4
 8266              	.set noreorder
 8267              	.set nomacro
 8268 366c F4FF0010 	b $L1202
 8269 3670 00035E30 	andi $fp,$2,0x300
 8270              	.set macro
 8271              	.set reorder
 8272              	
 8273              	$L214:
 8274 3674 1400228E 	lw $2,20($17)
 8275              	.set noreorder
 8276              	.set nomacro
 8277 3678 D4FF0010 	b $L1718
 8278 367c 02003096 	lhu $16,2($17)
 8279              	.set macro
 8280              	.set reorder
 8281              	
 8282              	$L1502:
 8283 3680 01009226 	addu $18,$20,1
 8284 3684 2D202002 	move $4,$17
 8285              	.set noreorder
 8286              	.set nomacro
 8287 3688 2002000C 	jal _SNCPUPush16
 8288 368c FFFF4532 	andi $5,$18,0xffff
 8289              	.set macro
 8290              	.set reorder
 8291              	
 8292 3690 80FF0324 	li $3,-128
 8293 3694 08002292 	lbu $2,8($17)
 8294 3698 02221600 	srl $4,$22,8
GAS LISTING  			page 147


 8295 369c 24208300 	and $4,$4,$3
 8296 36a0 FFFFA532 	andi $5,$21,0xffff
 8297 36a4 7C004230 	andi $2,$2,0x7c
 8298 36a8 25105700 	or $2,$2,$23
 8299 36ac 25104400 	or $2,$2,$4
 8300              	.set noreorder
 8301              	.set nomacro
 8302 36b0 0300A014 	bne $5,$0,$L1503
 8303 36b4 080022A2 	sb $2,8($17)
 8304              	.set macro
 8305              	.set reorder
 8306              	
 8307 36b8 02004234 	ori $2,$2,0x2
 8308 36bc 080022A2 	sb $2,8($17)
 8309              	$L1503:
 8310 36c0 08002592 	lbu $5,8($17)
 8311              	.set noreorder
 8312              	.set nomacro
 8313 36c4 F801000C 	jal _SNCPUPush8
 8314 36c8 2D202002 	move $4,$17
 8315              	.set macro
 8316              	.set reorder
 8317              	
 8318 36cc 2D202002 	move $4,$17
 8319 36d0 08002292 	lbu $2,8($17)
 8320 36d4 F6FF0534 	li $5,65526
 8321 36d8 F7004230 	andi $2,$2,0xf7
 8322 36dc 04004234 	ori $2,$2,0x4
 8323              	.set noreorder
 8324              	.set nomacro
 8325 36e0 A400000C 	jal _SNCPURead16
 8326 36e4 080022A2 	sb $2,8($17)
 8327              	.set macro
 8328              	.set reorder
 8329              	
 8330              	.set noreorder
 8331              	.set nomacro
 8332 36e8 D8FF0010 	b $L2150
 8333 36ec 1400238E 	lw $3,20($17)
 8334              	.set macro
 8335              	.set reorder
 8336              	
 8337              	$L1025:
 8338 36f0 2D288002 	move $5,$20
 8339              	.set noreorder
 8340              	.set nomacro
 8341 36f4 1A01000C 	jal _SNCPUFetch8
 8342 36f8 2D202002 	move $4,$17
 8343              	.set macro
 8344              	.set reorder
 8345              	
 8346 36fc 01009426 	addu $20,$20,1
 8347 3700 0A002396 	lhu $3,10($17)
 8348 3704 2D804000 	move $16,$2
 8349 3708 1400228E 	lw $2,20($17)
 8350 370c 2D202002 	move $4,$17
 8351 3710 21800302 	addu $16,$16,$3
GAS LISTING  			page 148


 8352 3714 02002596 	lhu $5,2($17)
 8353 3718 FFFF1032 	andi $16,$16,0xffff
 8354 371c FAFF4224 	addu $2,$2,-6
 8355 3720 0000A38F 	lw $3,0($sp)
 8356 3724 21800502 	addu $16,$16,$5
 8357 3728 140022AE 	sw $2,20($17)
 8358 372c 24800302 	and $16,$16,$3
 8359              	$L1944:
 8360              	.set noreorder
 8361              	.set nomacro
 8362 3730 A400000C 	jal _SNCPURead16
 8363 3734 2D280002 	move $5,$16
 8364              	.set macro
 8365              	.set reorder
 8366              	
 8367 3738 2D202002 	move $4,$17
 8368 373c 2D804000 	move $16,$2
 8369 3740 1000228E 	lw $2,16($17)
 8370              	$L2068:
 8371 3744 25800202 	or $16,$16,$2
 8372              	$L1931:
 8373 3748 2D280002 	move $5,$16
 8374              	$L1932:
 8375 374c 8E00000C 	jal _SNCPURead8
 8375      00000000 
 8376 3754 2D984000 	move $19,$2
 8377              	$L1933:
 8378 3758 00003292 	lbu $18,0($17)
 8379              	
 8380 375c 25905302 	or $18,$18,$19
 8381              	$L1877:
 8382 3760 000032A2 	sb $18,0($17)
 8383              	.set noreorder
 8384              	.set nomacro
 8385 3764 2FF50010 	b $L1684
 8386 3768 00AA1200 	sll $21,$18,8
 8387              	.set macro
 8388              	.set reorder
 8389              	
 8390              	$L1500:
 8391 376c 01009226 	addu $18,$20,1
 8392 3770 2D202002 	move $4,$17
 8393              	.set noreorder
 8394              	.set nomacro
 8395 3774 3202000C 	jal _SNCPUPush24
 8396 3778 2D284002 	move $5,$18
 8397              	.set macro
 8398              	.set reorder
 8399              	
 8400 377c 80FF0324 	li $3,-128
 8401 3780 08002292 	lbu $2,8($17)
 8402 3784 02221600 	srl $4,$22,8
 8403 3788 24208300 	and $4,$4,$3
 8404 378c FFFFA532 	andi $5,$21,0xffff
 8405 3790 7C004230 	andi $2,$2,0x7c
 8406 3794 25105700 	or $2,$2,$23
 8407 3798 25104400 	or $2,$2,$4
GAS LISTING  			page 149


 8408              	.set noreorder
 8409              	.set nomacro
 8410 379c 0300A014 	bne $5,$0,$L1501
 8411 37a0 080022A2 	sb $2,8($17)
 8412              	.set macro
 8413              	.set reorder
 8414              	
 8415 37a4 02004234 	ori $2,$2,0x2
 8416 37a8 080022A2 	sb $2,8($17)
 8417              	$L1501:
 8418 37ac 08002592 	lbu $5,8($17)
 8419              	.set noreorder
 8420              	.set nomacro
 8421 37b0 F801000C 	jal _SNCPUPush8
 8422 37b4 2D202002 	move $4,$17
 8423              	.set macro
 8424              	.set reorder
 8425              	
 8426              	.set noreorder
 8427              	.set nomacro
 8428 37b8 75FF0010 	b $L2022
 8429 37bc E4FF0534 	li $5,65508
 8430              	.set macro
 8431              	.set reorder
 8432              	
 8433              	$L970:
 8434 37c0 2D288002 	move $5,$20
 8435              	.set noreorder
 8436              	.set nomacro
 8437 37c4 1A01000C 	jal _SNCPUFetch8
 8438 37c8 2D202002 	move $4,$17
 8439              	.set macro
 8440              	.set reorder
 8441              	
 8442 37cc 01009426 	addu $20,$20,1
 8443 37d0 2D804000 	move $16,$2
 8444 37d4 06002396 	lhu $3,6($17)
 8445 37d8 1400228E 	lw $2,20($17)
 8446 37dc 2D202002 	move $4,$17
 8447 37e0 21800302 	addu $16,$16,$3
 8448 37e4 FAFF4224 	addu $2,$2,-6
 8449 37e8 140022AE 	sw $2,20($17)
 8450              	$L2095:
 8451              	.set noreorder
 8452              	.set nomacro
 8453 37ec D6FF0010 	b $L1931
 8454 37f0 FFFF1032 	andi $16,$16,0xffff
 8455              	.set macro
 8456              	.set reorder
 8457              	
 8458              	$L1396:
 8459 37f4 2D288002 	move $5,$20
 8460              	.set noreorder
 8461              	.set nomacro
 8462 37f8 1A01000C 	jal _SNCPUFetch8
 8463 37fc 2D202002 	move $4,$17
 8464              	.set macro
GAS LISTING  			page 150


 8465              	.set reorder
 8466              	
 8467 3800 01009426 	addu $20,$20,1
 8468 3804 2D804000 	move $16,$2
 8469 3808 2D202002 	move $4,$17
 8470 380c 0A002296 	lhu $2,10($17)
 8471              	
 8472 3810 21800202 	addu $16,$16,$2
 8473 3814 FFFF1032 	andi $16,$16,0xffff
 8474              	$L2018:
 8475              	.set noreorder
 8476              	.set nomacro
 8477 3818 8E00000C 	jal _SNCPURead8
 8478 381c 2D280002 	move $5,$16
 8479              	.set macro
 8480              	.set reorder
 8481              	
 8482 3820 2D202002 	move $4,$17
 8483 3824 2D984000 	move $19,$2
 8484 3828 2D280002 	move $5,$16
 8485 382c 00002292 	lbu $2,0($17)
 8486              	
 8487 3830 24906202 	and $18,$19,$2
 8488 3834 25986202 	or $19,$19,$2
 8489 3838 FF006632 	andi $6,$19,0x00ff
 8490 383c 00AA1200 	sll $21,$18,8
 8491              	$L1786:
 8492 3840 A601000C 	jal _SNCPUWrite8
 8492      00000000 
 8493              	.set noreorder
 8494              	.set nomacro
 8495 3848 1AF50010 	b $L1714
 8496 384c 1400228E 	lw $2,20($17)
 8497              	.set macro
 8498              	.set reorder
 8499              	
 8500              	$L975:
 8501 3850 2D288002 	move $5,$20
 8502              	.set noreorder
 8503              	.set nomacro
 8504 3854 1A01000C 	jal _SNCPUFetch8
 8505 3858 2D202002 	move $4,$17
 8506              	.set macro
 8507              	.set reorder
 8508              	
 8509 385c 01009426 	addu $20,$20,1
 8510 3860 2D804000 	move $16,$2
 8511 3864 2D202002 	move $4,$17
 8512 3868 0A002296 	lhu $2,10($17)
 8513              	.set noreorder
 8514              	.set nomacro
 8515 386c DFFF0010 	b $L2095
 8516 3870 21800202 	addu $16,$16,$2
 8517              	.set macro
 8518              	.set reorder
 8519              	
 8520              	$L1281:
GAS LISTING  			page 151


 8521 3874 2D288002 	move $5,$20
 8522              	.set noreorder
 8523              	.set nomacro
 8524 3878 1A01000C 	jal _SNCPUFetch8
 8525 387c 2D202002 	move $4,$17
 8526              	.set macro
 8527              	.set reorder
 8528              	
 8529 3880 01009426 	addu $20,$20,1
 8530 3884 2D804000 	move $16,$2
 8531 3888 2D202002 	move $4,$17
 8532 388c 0A002296 	lhu $2,10($17)
 8533              	
 8534 3890 21800202 	addu $16,$16,$2
 8535 3894 FFFF1032 	andi $16,$16,0xffff
 8536              	$L2005:
 8537              	.set noreorder
 8538              	.set nomacro
 8539 3898 8E00000C 	jal _SNCPURead8
 8540 389c 2D280002 	move $5,$16
 8541              	.set macro
 8542              	.set reorder
 8543              	
 8544 38a0 2D202002 	move $4,$17
 8545 38a4 2D280002 	move $5,$16
 8546 38a8 40980200 	sll $19,$2,1
 8547              	$L1999:
 8548 38ac FF006632 	andi $6,$19,0x00ff
 8549 38b0 00AA1300 	sll $21,$19,8
 8550              	.set noreorder
 8551              	.set nomacro
 8552 38b4 A601000C 	jal _SNCPUWrite8
 8553 38b8 029A1300 	srl $19,$19,8
 8554              	.set macro
 8555              	.set reorder
 8556              	
 8557              	.set noreorder
 8558              	.set nomacro
 8559 38bc 1CF50010 	b $L2151
 8560 38c0 1400228E 	lw $2,20($17)
 8561              	.set macro
 8562              	.set reorder
 8563              	
 8564              	$L980:
 8565 38c4 2D288002 	move $5,$20
 8566              	.set noreorder
 8567              	.set nomacro
 8568 38c8 1A01000C 	jal _SNCPUFetch8
 8569 38cc 2D202002 	move $4,$17
 8570              	.set macro
 8571              	.set reorder
 8572              	
 8573 38d0 01009426 	addu $20,$20,1
 8574 38d4 2D804000 	move $16,$2
 8575 38d8 2D202002 	move $4,$17
 8576 38dc 0A002296 	lhu $2,10($17)
 8577              	
GAS LISTING  			page 152


 8578 38e0 21800202 	addu $16,$16,$2
 8579 38e4 FFFF1032 	andi $16,$16,0xffff
 8580              	.set noreorder
 8581              	.set nomacro
 8582 38e8 D400000C 	jal _SNCPURead24
 8583 38ec 2D280002 	move $5,$16
 8584              	.set macro
 8585              	.set reorder
 8586              	
 8587 38f0 2D202002 	move $4,$17
 8588              	.set noreorder
 8589              	.set nomacro
 8590 38f4 94FF0010 	b $L1931
 8591 38f8 2D804000 	move $16,$2
 8592              	.set macro
 8593              	.set reorder
 8594              	
 8595              	$L1426:
 8596 38fc 08002392 	lbu $3,8($17)
 8597 3900 80FF0224 	li $2,-128
 8598 3904 02221600 	srl $4,$22,8
 8599 3908 FFFFA532 	andi $5,$21,0xffff
 8600 390c 7C006330 	andi $3,$3,0x7c
 8601 3910 24208200 	and $4,$4,$2
 8602 3914 25187700 	or $3,$3,$23
 8603 3918 25106400 	or $2,$3,$4
 8604              	.set noreorder
 8605              	.set nomacro
 8606 391c 0300A014 	bne $5,$0,$L1427
 8607 3920 080022A2 	sb $2,8($17)
 8608              	.set macro
 8609              	.set reorder
 8610              	
 8611 3924 02004234 	ori $2,$2,0x2
 8612 3928 080022A2 	sb $2,8($17)
 8613              	$L1427:
 8614 392c 08002592 	lbu $5,8($17)
 8615              	$L2021:
 8616 3930 2D202002 	move $4,$17
 8617              	$L1795:
 8618 3934 F801000C 	jal _SNCPUPush8
 8618      00000000 
 8619              	.set noreorder
 8620              	.set nomacro
 8621 393c DDF40010 	b $L1714
 8622 3940 1400228E 	lw $2,20($17)
 8623              	.set macro
 8624              	.set reorder
 8625              	
 8626              	$L985:
 8627 3944 2D288002 	move $5,$20
 8628              	.set noreorder
 8629              	.set nomacro
 8630 3948 1A01000C 	jal _SNCPUFetch8
 8631 394c 2D202002 	move $4,$17
 8632              	.set macro
 8633              	.set reorder
GAS LISTING  			page 153


 8634              	
 8635 3950 01009426 	addu $20,$20,1
 8636              	.set noreorder
 8637              	.set nomacro
 8638 3954 80FF0010 	b $L1933
 8639 3958 2D984000 	move $19,$2
 8640              	.set macro
 8641              	.set reorder
 8642              	
 8643              	$L1221:
 8644 395c 00003392 	lbu $19,0($17)
 8645 3960 1400228E 	lw $2,20($17)
 8646 3964 40981300 	sll $19,$19,1
 8647 3968 000033A2 	sb $19,0($17)
 8648 396c 00AA1300 	sll $21,$19,8
 8649 3970 029A1300 	srl $19,$19,8
 8650 3974 FAFF4224 	addu $2,$2,-6
 8651              	.set noreorder
 8652              	.set nomacro
 8653 3978 D2F80010 	b $L1753
 8654 397c 01007732 	andi $23,$19,0x1
 8655              	.set macro
 8656              	.set reorder
 8657              	
 8658              	$L1470:
 8659              	.set noreorder
 8660              	.set nomacro
 8661 3980 8EF70010 	b $L2019
 8662 3984 0A002596 	lhu $5,10($17)
 8663              	.set macro
 8664              	.set reorder
 8665              	
 8666              	$L1401:
 8667              	
 8668 3988 2D288002 	move $5,$20
 8669              	.set noreorder
 8670              	.set nomacro
 8671 398c 3001000C 	jal _SNCPUFetch16
 8672 3990 2D202002 	move $4,$17
 8673              	.set macro
 8674              	.set reorder
 8675              	
 8676 3994 02009426 	addu $20,$20,2
 8677 3998 2D804000 	move $16,$2
 8678 399c 2D202002 	move $4,$17
 8679 39a0 1000228E 	lw $2,16($17)
 8680              	.set noreorder
 8681              	.set nomacro
 8682 39a4 9CFF0010 	b $L2018
 8683 39a8 25800202 	or $16,$16,$2
 8684              	.set macro
 8685              	.set reorder
 8686              	
 8687              	$L990:
 8688 39ac 2D288002 	move $5,$20
 8689              	.set noreorder
 8690              	.set nomacro
GAS LISTING  			page 154


 8691 39b0 3001000C 	jal _SNCPUFetch16
 8692 39b4 2D202002 	move $4,$17
 8693              	.set macro
 8694              	.set reorder
 8695              	
 8696 39b8 02009426 	addu $20,$20,2
 8697 39bc 2D804000 	move $16,$2
 8698 39c0 2D202002 	move $4,$17
 8699              	.set noreorder
 8700              	.set nomacro
 8701 39c4 5FFF0010 	b $L2068
 8702 39c8 1000228E 	lw $2,16($17)
 8703              	.set macro
 8704              	.set reorder
 8705              	
 8706              	$L1286:
 8707 39cc 2D288002 	move $5,$20
 8708              	.set noreorder
 8709              	.set nomacro
 8710 39d0 3001000C 	jal _SNCPUFetch16
 8711 39d4 2D202002 	move $4,$17
 8712              	.set macro
 8713              	.set reorder
 8714              	
 8715 39d8 02009426 	addu $20,$20,2
 8716 39dc 2D804000 	move $16,$2
 8717 39e0 2D202002 	move $4,$17
 8718 39e4 1000228E 	lw $2,16($17)
 8719              	.set noreorder
 8720              	.set nomacro
 8721 39e8 ABFF0010 	b $L2005
 8722 39ec 25800202 	or $16,$16,$2
 8723              	.set macro
 8724              	.set reorder
 8725              	
 8726              	$L995:
 8727 39f0 2D288002 	move $5,$20
 8728              	.set noreorder
 8729              	.set nomacro
 8730 39f4 6001000C 	jal _SNCPUFetch24
 8731 39f8 2D202002 	move $4,$17
 8732              	.set macro
 8733              	.set reorder
 8734              	
 8735 39fc 03009426 	addu $20,$20,3
 8736 3a00 2D284000 	move $5,$2
 8737              	.set noreorder
 8738              	.set nomacro
 8739 3a04 51FF0010 	b $L1932
 8740 3a08 2D202002 	move $4,$17
 8741              	.set macro
 8742              	.set reorder
 8743              	
 8744              	$L1529:
 8745 3a0c 2D288002 	move $5,$20
 8746              	.set noreorder
 8747              	.set nomacro
GAS LISTING  			page 155


 8748 3a10 1A01000C 	jal _SNCPUFetch8
 8749 3a14 2D202002 	move $4,$17
 8750              	.set macro
 8751              	.set reorder
 8752              	
 8753 3a18 01009426 	addu $20,$20,1
 8754 3a1c 2D184000 	move $3,$2
 8755 3a20 0080C232 	andi $2,$22,0x8000
 8756              	$L1754:
 8757              	.set noreorder
 8758              	.set nomacro
 8759 3a24 45F44054 	bnel $2,$0,$L2147
 8760 3a28 1400228E 	lw $2,20($17)
 8761              	.set macro
 8762              	.set reorder
 8763              	
 8764              	
 8765 3a2c 00160300 	sll $2,$3,24
 8766              	$L1674:
 8767 3a30 1400238E 	lw $3,20($17)
 8768 3a34 03160200 	sra $2,$2,24
 8769 3a38 21A08202 	addu $20,$20,$2
 8770              	.set noreorder
 8771              	.set nomacro
 8772 3a3c 3CF40010 	b $L1675
 8773 3a40 FAFF6324 	addu $3,$3,-6
 8774              	.set macro
 8775              	.set reorder
 8776              	
 8777              	$L1000:
 8778 3a44 2D288002 	move $5,$20
 8779              	.set noreorder
 8780              	.set nomacro
 8781 3a48 1A01000C 	jal _SNCPUFetch8
 8782 3a4c 2D202002 	move $4,$17
 8783              	.set macro
 8784              	.set reorder
 8785              	
 8786 3a50 01009426 	addu $20,$20,1
 8787 3a54 2D804000 	move $16,$2
 8788 3a58 2D202002 	move $4,$17
 8789 3a5c 0A002296 	lhu $2,10($17)
 8790              	
 8791 3a60 21800202 	addu $16,$16,$2
 8792 3a64 FFFF1032 	andi $16,$16,0xffff
 8793              	.set noreorder
 8794              	.set nomacro
 8795 3a68 A400000C 	jal _SNCPURead16
 8796 3a6c 2D280002 	move $5,$16
 8797              	.set macro
 8798              	.set reorder
 8799              	
 8800 3a70 04002396 	lhu $3,4($17)
 8801 3a74 2D804000 	move $16,$2
 8802 3a78 2D202002 	move $4,$17
 8803 3a7c 1000228E 	lw $2,16($17)
 8804              	
GAS LISTING  			page 156


 8805 3a80 25800202 	or $16,$16,$2
 8806              	.set noreorder
 8807              	.set nomacro
 8808 3a84 30FF0010 	b $L1931
 8809 3a88 21800302 	addu $16,$16,$3
 8810              	.set macro
 8811              	.set reorder
 8812              	
 8813              	$L1005:
 8814 3a8c 2D288002 	move $5,$20
 8815              	.set noreorder
 8816              	.set nomacro
 8817 3a90 1A01000C 	jal _SNCPUFetch8
 8818 3a94 2D202002 	move $4,$17
 8819              	.set macro
 8820              	.set reorder
 8821              	
 8822 3a98 01009426 	addu $20,$20,1
 8823 3a9c 2D804000 	move $16,$2
 8824 3aa0 2D202002 	move $4,$17
 8825 3aa4 0A002296 	lhu $2,10($17)
 8826              	
 8827 3aa8 21800202 	addu $16,$16,$2
 8828              	.set noreorder
 8829              	.set nomacro
 8830 3aac 20FF0010 	b $L1944
 8831 3ab0 FFFF1032 	andi $16,$16,0xffff
 8832              	.set macro
 8833              	.set reorder
 8834              	
 8835              	$L1010:
 8836 3ab4 2D288002 	move $5,$20
 8837              	.set noreorder
 8838              	.set nomacro
 8839 3ab8 1A01000C 	jal _SNCPUFetch8
 8840 3abc 2D202002 	move $4,$17
 8841              	.set macro
 8842              	.set reorder
 8843              	
 8844 3ac0 01009426 	addu $20,$20,1
 8845 3ac4 06002396 	lhu $3,6($17)
 8846 3ac8 2D804000 	move $16,$2
 8847 3acc 1400228E 	lw $2,20($17)
 8848 3ad0 2D202002 	move $4,$17
 8849 3ad4 21800302 	addu $16,$16,$3
 8850 3ad8 FAFF4224 	addu $2,$2,-6
 8851 3adc FFFF1032 	andi $16,$16,0xffff
 8852 3ae0 140022AE 	sw $2,20($17)
 8853              	.set noreorder
 8854              	.set nomacro
 8855 3ae4 A400000C 	jal _SNCPURead16
 8856 3ae8 2D280002 	move $5,$16
 8857              	.set macro
 8858              	.set reorder
 8859              	
 8860 3aec 04002596 	lhu $5,4($17)
 8861 3af0 1000238E 	lw $3,16($17)
GAS LISTING  			page 157


 8862 3af4 2D804000 	move $16,$2
 8863 3af8 1400228E 	lw $2,20($17)
 8864 3afc 2D202002 	move $4,$17
 8865 3b00 25800302 	or $16,$16,$3
 8866 3b04 FAFF4224 	addu $2,$2,-6
 8867 3b08 21800502 	addu $16,$16,$5
 8868              	.set noreorder
 8869              	.set nomacro
 8870 3b0c 0EFF0010 	b $L1931
 8871 3b10 140022AE 	sw $2,20($17)
 8872              	.set macro
 8873              	.set reorder
 8874              	
 8875              	$L1386:
 8876 3b14 2D288002 	move $5,$20
 8877              	.set noreorder
 8878              	.set nomacro
 8879 3b18 1A01000C 	jal _SNCPUFetch8
 8880 3b1c 2D202002 	move $4,$17
 8881              	.set macro
 8882              	.set reorder
 8883              	
 8884 3b20 01009426 	addu $20,$20,1
 8885 3b24 2D804000 	move $16,$2
 8886 3b28 2D202002 	move $4,$17
 8887 3b2c 0A002296 	lhu $2,10($17)
 8888              	
 8889 3b30 21800202 	addu $16,$16,$2
 8890 3b34 FFFF1032 	andi $16,$16,0xffff
 8891              	$L2017:
 8892              	.set noreorder
 8893              	.set nomacro
 8894 3b38 8E00000C 	jal _SNCPURead8
 8895 3b3c 2D280002 	move $5,$16
 8896              	.set macro
 8897              	.set reorder
 8898              	
 8899 3b40 2D202002 	move $4,$17
 8900 3b44 2D984000 	move $19,$2
 8901 3b48 2D280002 	move $5,$16
 8902 3b4c 00002292 	lbu $2,0($17)
 8903              	
 8904 3b50 24906202 	and $18,$19,$2
 8905 3b54 25986202 	or $19,$19,$2
 8906 3b58 26986202 	xor $19,$19,$2
 8907 3b5c 00AA1200 	sll $21,$18,8
 8908              	.set noreorder
 8909              	.set nomacro
 8910 3b60 37FF0010 	b $L1786
 8911 3b64 FF006632 	andi $6,$19,0x00ff
 8912              	.set macro
 8913              	.set reorder
 8914              	
 8915              	$L1015:
 8916 3b68 2D288002 	move $5,$20
 8917              	.set noreorder
 8918              	.set nomacro
GAS LISTING  			page 158


 8919 3b6c 1A01000C 	jal _SNCPUFetch8
 8920 3b70 2D202002 	move $4,$17
 8921              	.set macro
 8922              	.set reorder
 8923              	
 8924 3b74 01009426 	addu $20,$20,1
 8925 3b78 2D804000 	move $16,$2
 8926 3b7c 1400238E 	lw $3,20($17)
 8927 3b80 0A002296 	lhu $2,10($17)
 8928 3b84 2D202002 	move $4,$17
 8929 3b88 FAFF6324 	addu $3,$3,-6
 8930 3b8c 02002596 	lhu $5,2($17)
 8931 3b90 21800202 	addu $16,$16,$2
 8932 3b94 140023AE 	sw $3,20($17)
 8933 3b98 FFFF1032 	andi $16,$16,0xffff
 8934 3b9c 0000A38F 	lw $3,0($sp)
 8935 3ba0 21800502 	addu $16,$16,$5
 8936              	.set noreorder
 8937              	.set nomacro
 8938 3ba4 E8FE0010 	b $L1931
 8939 3ba8 24800302 	and $16,$16,$3
 8940              	.set macro
 8941              	.set reorder
 8942              	
 8943              	$L1291:
 8944 3bac 2D288002 	move $5,$20
 8945              	.set noreorder
 8946              	.set nomacro
 8947 3bb0 1A01000C 	jal _SNCPUFetch8
 8948 3bb4 2D202002 	move $4,$17
 8949              	.set macro
 8950              	.set reorder
 8951              	
 8952 3bb8 01009426 	addu $20,$20,1
 8953 3bbc 0A002396 	lhu $3,10($17)
 8954 3bc0 2D804000 	move $16,$2
 8955 3bc4 1400228E 	lw $2,20($17)
 8956 3bc8 2D202002 	move $4,$17
 8957 3bcc 21800302 	addu $16,$16,$3
 8958 3bd0 02002596 	lhu $5,2($17)
 8959 3bd4 FFFF1032 	andi $16,$16,0xffff
 8960 3bd8 FAFF4224 	addu $2,$2,-6
 8961 3bdc 0000A38F 	lw $3,0($sp)
 8962 3be0 21800502 	addu $16,$16,$5
 8963 3be4 140022AE 	sw $2,20($17)
 8964              	.set noreorder
 8965              	.set nomacro
 8966 3be8 2BFF0010 	b $L2005
 8967 3bec 24800302 	and $16,$16,$3
 8968              	.set macro
 8969              	.set reorder
 8970              	
 8971              	$L1020:
 8972 3bf0 2D288002 	move $5,$20
 8973              	.set noreorder
 8974              	.set nomacro
 8975 3bf4 1A01000C 	jal _SNCPUFetch8
GAS LISTING  			page 159


 8976 3bf8 2D202002 	move $4,$17
 8977              	.set macro
 8978              	.set reorder
 8979              	
 8980 3bfc 01009426 	addu $20,$20,1
 8981 3c00 2D804000 	move $16,$2
 8982 3c04 2D202002 	move $4,$17
 8983 3c08 0A002296 	lhu $2,10($17)
 8984              	
 8985 3c0c 21800202 	addu $16,$16,$2
 8986 3c10 FFFF1032 	andi $16,$16,0xffff
 8987              	.set noreorder
 8988              	.set nomacro
 8989 3c14 D400000C 	jal _SNCPURead24
 8990 3c18 2D280002 	move $5,$16
 8991              	.set macro
 8992              	.set reorder
 8993              	
 8994 3c1c 2D202002 	move $4,$17
 8995 3c20 2D804000 	move $16,$2
 8996 3c24 04002296 	lhu $2,4($17)
 8997              	$L1930:
 8998              	.set noreorder
 8999              	.set nomacro
 9000 3c28 C7FE0010 	b $L1931
 9001 3c2c 21800202 	addu $16,$16,$2
 9002              	.set macro
 9003              	.set reorder
 9004              	
 9005              	$L138:
 9006 3c30 1400228E 	lw $2,20($17)
 9007              	.set noreorder
 9008              	.set nomacro
 9009 3c34 1FF40010 	b $L1714
 9010 3c38 2DB80000 	move $23,$0
 9011              	.set macro
 9012              	.set reorder
 9013              	
 9014              	$L1030:
 9015 3c3c 2D288002 	move $5,$20
 9016              	.set noreorder
 9017              	.set nomacro
 9018 3c40 3001000C 	jal _SNCPUFetch16
 9019 3c44 2D202002 	move $4,$17
 9020              	.set macro
 9021              	.set reorder
 9022              	
 9023 3c48 02009426 	addu $20,$20,2
 9024 3c4c 2D804000 	move $16,$2
 9025 3c50 1000238E 	lw $3,16($17)
 9026 3c54 04002296 	lhu $2,4($17)
 9027 3c58 2D202002 	move $4,$17
 9028              	$L1943:
 9029              	.set noreorder
 9030              	.set nomacro
 9031 3c5c F2FF0010 	b $L1930
 9032 3c60 25800302 	or $16,$16,$3
GAS LISTING  			page 160


 9033              	.set macro
 9034              	.set reorder
 9035              	
 9036              	$L1216:
 9037 3c64 00003392 	lbu $19,0($17)
 9038 3c68 1400228E 	lw $2,20($17)
 9039 3c6c 01007326 	addu $19,$19,1
 9040              	$L1993:
 9041 3c70 00AA1300 	sll $21,$19,8
 9042 3c74 FAFF4224 	addu $2,$2,-6
 9043 3c78 2DB0A002 	move $22,$21
 9044 3c7c 140022AE 	sw $2,20($17)
 9045              	$L1680:
 9046              	.set noreorder
 9047              	.set nomacro
 9048 3c80 ADF30010 	b $L110
 9049 3c84 000033A2 	sb $19,0($17)
 9050              	.set macro
 9051              	.set reorder
 9052              	
 9053              	$L180:
 9054 3c88 1400228E 	lw $2,20($17)
 9055 3c8c 00003092 	lbu $16,0($17)
 9056              	$L1719:
 9057 3c90 FAFF4224 	addu $2,$2,-6
 9058              	.set noreorder
 9059              	.set nomacro
 9060 3c94 08F40010 	b $L1671
 9061 3c98 060030A2 	sb $16,6($17)
 9062              	.set macro
 9063              	.set reorder
 9064              	
 9065              	$L1391:
 9066 3c9c 2D288002 	move $5,$20
 9067              	.set noreorder
 9068              	.set nomacro
 9069 3ca0 3001000C 	jal _SNCPUFetch16
 9070 3ca4 2D202002 	move $4,$17
 9071              	.set macro
 9072              	.set reorder
 9073              	
 9074 3ca8 02009426 	addu $20,$20,2
 9075 3cac 2D804000 	move $16,$2
 9076 3cb0 2D202002 	move $4,$17
 9077 3cb4 1000228E 	lw $2,16($17)
 9078              	.set noreorder
 9079              	.set nomacro
 9080 3cb8 9FFF0010 	b $L2017
 9081 3cbc 25800202 	or $16,$16,$2
 9082              	.set macro
 9083              	.set reorder
 9084              	
 9085              	$L1035:
 9086 3cc0 2D288002 	move $5,$20
 9087              	.set noreorder
 9088              	.set nomacro
 9089 3cc4 3001000C 	jal _SNCPUFetch16
GAS LISTING  			page 161


 9090 3cc8 2D202002 	move $4,$17
 9091              	.set macro
 9092              	.set reorder
 9093              	
 9094 3ccc 02009426 	addu $20,$20,2
 9095 3cd0 2D804000 	move $16,$2
 9096 3cd4 1000238E 	lw $3,16($17)
 9097 3cd8 02002296 	lhu $2,2($17)
 9098              	.set noreorder
 9099              	.set nomacro
 9100 3cdc DFFF0010 	b $L1943
 9101 3ce0 2D202002 	move $4,$17
 9102              	.set macro
 9103              	.set reorder
 9104              	
 9105              	$L1296:
 9106 3ce4 2D288002 	move $5,$20
 9107              	.set noreorder
 9108              	.set nomacro
 9109 3ce8 3001000C 	jal _SNCPUFetch16
 9110 3cec 2D202002 	move $4,$17
 9111              	.set macro
 9112              	.set reorder
 9113              	
 9114 3cf0 02009426 	addu $20,$20,2
 9115 3cf4 1000238E 	lw $3,16($17)
 9116 3cf8 2D804000 	move $16,$2
 9117 3cfc 02002296 	lhu $2,2($17)
 9118 3d00 2D202002 	move $4,$17
 9119 3d04 25800302 	or $16,$16,$3
 9120 3d08 21800202 	addu $16,$16,$2
 9121              	.set noreorder
 9122              	.set nomacro
 9123 3d0c 8E00000C 	jal _SNCPURead8
 9124 3d10 2D280002 	move $5,$16
 9125              	.set macro
 9126              	.set reorder
 9127              	
 9128 3d14 2D202002 	move $4,$17
 9129 3d18 2D280002 	move $5,$16
 9130 3d1c 40980200 	sll $19,$2,1
 9131              	$L2081:
 9132 3d20 FF006632 	andi $6,$19,0x00ff
 9133 3d24 00AA1300 	sll $21,$19,8
 9134              	.set noreorder
 9135              	.set nomacro
 9136 3d28 A601000C 	jal _SNCPUWrite8
 9137 3d2c 029A1300 	srl $19,$19,8
 9138              	.set macro
 9139              	.set reorder
 9140              	
 9141              	.set noreorder
 9142              	.set nomacro
 9143 3d30 F1F40010 	b $L2152
 9144 3d34 1400228E 	lw $2,20($17)
 9145              	.set macro
 9146              	.set reorder
GAS LISTING  			page 162


 9147              	
 9148              	$L1040:
 9149 3d38 2D288002 	move $5,$20
 9150              	.set noreorder
 9151              	.set nomacro
 9152 3d3c 6001000C 	jal _SNCPUFetch24
 9153 3d40 2D202002 	move $4,$17
 9154              	.set macro
 9155              	.set reorder
 9156              	
 9157 3d44 03009426 	addu $20,$20,3
 9158 3d48 2D804000 	move $16,$2
 9159 3d4c 2D202002 	move $4,$17
 9160              	.set noreorder
 9161              	.set nomacro
 9162 3d50 B5FF0010 	b $L1930
 9163 3d54 02002296 	lhu $2,2($17)
 9164              	.set macro
 9165              	.set reorder
 9166              	
 9167              	$L1150:
 9168 3d58 2D288002 	move $5,$20
 9169              	.set noreorder
 9170              	.set nomacro
 9171 3d5c 3001000C 	jal _SNCPUFetch16
 9172 3d60 2D202002 	move $4,$17
 9173              	.set macro
 9174              	.set reorder
 9175              	
 9176 3d64 01009226 	addu $18,$20,1
 9177 3d68 2D804000 	move $16,$2
 9178 3d6c 2D202002 	move $4,$17
 9179 3d70 FFFF4532 	andi $5,$18,0xffff
 9180              	$L1703:
 9181 3d74 2002000C 	jal _SNCPUPush16
 9181      00000000 
 9182 3d7c FFFF023C 	li $2,-65536
 9183 3d80 1400238E 	lw $3,20($17)
 9184 3d84 24A04202 	and $20,$18,$2
 9185              	$L1705:
 9186 3d88 FAFF6324 	addu $3,$3,-6
 9187              	$L1707:
 9188              	.set noreorder
 9189              	.set nomacro
 9190 3d8c 68F30010 	b $L1675
 9191 3d90 25A09002 	or $20,$20,$16
 9192              	.set macro
 9193              	.set reorder
 9194              	
 9195              	$L820:
 9196 3d94 2D288002 	move $5,$20
 9197              	.set noreorder
 9198              	.set nomacro
 9199 3d98 1A01000C 	jal _SNCPUFetch8
 9200 3d9c 2D202002 	move $4,$17
 9201              	.set macro
 9202              	.set reorder
GAS LISTING  			page 163


 9203              	
 9204 3da0 01009426 	addu $20,$20,1
 9205 3da4 0A002396 	lhu $3,10($17)
 9206 3da8 2D804000 	move $16,$2
 9207 3dac 02002596 	lhu $5,2($17)
 9208 3db0 2D202002 	move $4,$17
 9209 3db4 21800302 	addu $16,$16,$3
 9210 3db8 1400228E 	lw $2,20($17)
 9211 3dbc FFFF1032 	andi $16,$16,0xffff
 9212 3dc0 0000A38F 	lw $3,0($sp)
 9213 3dc4 21800502 	addu $16,$16,$5
 9214 3dc8 FAFF4224 	addu $2,$2,-6
 9215 3dcc 24800302 	and $16,$16,$3
 9216 3dd0 140022AE 	sw $2,20($17)
 9217              	$L2139:
 9218              	.set noreorder
 9219              	.set nomacro
 9220 3dd4 A400000C 	jal _SNCPURead16
 9221 3dd8 2D280002 	move $5,$16
 9222              	.set macro
 9223              	.set reorder
 9224              	
 9225 3ddc 2D202002 	move $4,$17
 9226 3de0 2D804000 	move $16,$2
 9227 3de4 1000228E 	lw $2,16($17)
 9228              	$L2092:
 9229 3de8 25800202 	or $16,$16,$2
 9230              	$L1939:
 9231 3dec 2D280002 	move $5,$16
 9232              	$L1940:
 9233 3df0 8E00000C 	jal _SNCPURead8
 9233      00000000 
 9234 3df8 2D984000 	move $19,$2
 9235              	$L1941:
 9236 3dfc 00003292 	lbu $18,0($17)
 9237              	.set noreorder
 9238              	.set nomacro
 9239 3e00 57FE0010 	b $L1877
 9240 3e04 24905302 	and $18,$18,$19
 9241              	.set macro
 9242              	.set reorder
 9243              	
 9244              	$L1160:
 9245 3e08 2D288002 	move $5,$20
 9246 3e0c 2D202002 	move $4,$17
 9247              	.set noreorder
 9248              	.set nomacro
 9249 3e10 6001000C 	jal _SNCPUFetch24
 9250 3e14 02009226 	addu $18,$20,2
 9251              	.set macro
 9252              	.set reorder
 9253              	
 9254 3e18 2D284002 	move $5,$18
 9255 3e1c 2D202002 	move $4,$17
 9256              	.set noreorder
 9257              	.set nomacro
 9258 3e20 3202000C 	jal _SNCPUPush24
GAS LISTING  			page 164


 9259 3e24 2D804000 	move $16,$2
 9260              	.set macro
 9261              	.set reorder
 9262              	
 9263              	.set noreorder
 9264              	.set nomacro
 9265 3e28 E1FD0010 	b $L2153
 9266 3e2c 1400238E 	lw $3,20($17)
 9267              	.set macro
 9268              	.set reorder
 9269              	
 9270              	$L825:
 9271 3e30 2D288002 	move $5,$20
 9272              	.set noreorder
 9273              	.set nomacro
 9274 3e34 1A01000C 	jal _SNCPUFetch8
 9275 3e38 2D202002 	move $4,$17
 9276              	.set macro
 9277              	.set reorder
 9278              	
 9279 3e3c 01009426 	addu $20,$20,1
 9280 3e40 2D804000 	move $16,$2
 9281 3e44 06002396 	lhu $3,6($17)
 9282 3e48 1400228E 	lw $2,20($17)
 9283 3e4c 2D202002 	move $4,$17
 9284 3e50 21800302 	addu $16,$16,$3
 9285 3e54 FAFF4224 	addu $2,$2,-6
 9286 3e58 140022AE 	sw $2,20($17)
 9287              	$L2107:
 9288              	.set noreorder
 9289              	.set nomacro
 9290 3e5c E3FF0010 	b $L1939
 9291 3e60 FFFF1032 	andi $16,$16,0xffff
 9292              	.set macro
 9293              	.set reorder
 9294              	
 9295              	$L1361:
 9296 3e64 2D288002 	move $5,$20
 9297              	.set noreorder
 9298              	.set nomacro
 9299 3e68 1A01000C 	jal _SNCPUFetch8
 9300 3e6c 2D202002 	move $4,$17
 9301              	.set macro
 9302              	.set reorder
 9303              	
 9304 3e70 01009426 	addu $20,$20,1
 9305 3e74 2D804000 	move $16,$2
 9306 3e78 2D202002 	move $4,$17
 9307 3e7c 0A002296 	lhu $2,10($17)
 9308              	
 9309 3e80 21800202 	addu $16,$16,$2
 9310 3e84 FFFF1032 	andi $16,$16,0xffff
 9311              	$L1677:
 9312              	.set noreorder
 9313              	.set nomacro
 9314 3e88 8E00000C 	jal _SNCPURead8
 9315 3e8c 2D280002 	move $5,$16
GAS LISTING  			page 165


 9316              	.set macro
 9317              	.set reorder
 9318              	
 9319 3e90 00003292 	lbu $18,0($17)
 9320 3e94 2D984000 	move $19,$2
 9321 3e98 08002292 	lbu $2,8($17)
 9322 3e9c 40006332 	andi $3,$19,0x40
 9323 3ea0 24905302 	and $18,$18,$19
 9324 3ea4 BF004230 	andi $2,$2,0xbf
 9325 3ea8 00B21300 	sll $22,$19,8
 9326 3eac 25104300 	or $2,$2,$3
 9327 3eb0 00AA1200 	sll $21,$18,8
 9328              	.set noreorder
 9329              	.set nomacro
 9330 3eb4 20F30010 	b $L110
 9331 3eb8 080022A2 	sb $2,8($17)
 9332              	.set macro
 9333              	.set reorder
 9334              	
 9335              	$L830:
 9336 3ebc 2D288002 	move $5,$20
 9337              	.set noreorder
 9338              	.set nomacro
 9339 3ec0 1A01000C 	jal _SNCPUFetch8
 9340 3ec4 2D202002 	move $4,$17
 9341              	.set macro
 9342              	.set reorder
 9343              	
 9344 3ec8 01009426 	addu $20,$20,1
 9345 3ecc 2D804000 	move $16,$2
 9346 3ed0 2D202002 	move $4,$17
 9347 3ed4 0A002296 	lhu $2,10($17)
 9348              	.set noreorder
 9349              	.set nomacro
 9350 3ed8 E0FF0010 	b $L2107
 9351 3edc 21800202 	addu $16,$16,$2
 9352              	.set macro
 9353              	.set reorder
 9354              	
 9355              	$L1321:
 9356 3ee0 2D288002 	move $5,$20
 9357              	.set noreorder
 9358              	.set nomacro
 9359 3ee4 1A01000C 	jal _SNCPUFetch8
 9360 3ee8 2D202002 	move $4,$17
 9361              	.set macro
 9362              	.set reorder
 9363              	
 9364 3eec 0100F232 	andi $18,$23,0x1
 9365 3ef0 2D804000 	move $16,$2
 9366 3ef4 2D202002 	move $4,$17
 9367 3ef8 0A002296 	lhu $2,10($17)
 9368 3efc 01009426 	addu $20,$20,1
 9369 3f00 21800202 	addu $16,$16,$2
 9370 3f04 FFFF1032 	andi $16,$16,0xffff
 9371              	$L2004:
 9372              	.set noreorder
GAS LISTING  			page 166


 9373              	.set nomacro
 9374 3f08 8E00000C 	jal _SNCPURead8
 9375 3f0c 2D280002 	move $5,$16
 9376              	.set macro
 9377              	.set reorder
 9378              	
 9379 3f10 2D202002 	move $4,$17
 9380 3f14 40980200 	sll $19,$2,1
 9381 3f18 2D280002 	move $5,$16
 9382              	.set noreorder
 9383              	.set nomacro
 9384 3f1c 63FE0010 	b $L1999
 9385 3f20 25987202 	or $19,$19,$18
 9386              	.set macro
 9387              	.set reorder
 9388              	
 9389              	$L835:
 9390 3f24 2D288002 	move $5,$20
 9391              	.set noreorder
 9392              	.set nomacro
 9393 3f28 1A01000C 	jal _SNCPUFetch8
 9394 3f2c 2D202002 	move $4,$17
 9395              	.set macro
 9396              	.set reorder
 9397              	
 9398 3f30 01009426 	addu $20,$20,1
 9399 3f34 2D804000 	move $16,$2
 9400 3f38 2D202002 	move $4,$17
 9401 3f3c 0A002296 	lhu $2,10($17)
 9402              	
 9403 3f40 21800202 	addu $16,$16,$2
 9404 3f44 FFFF1032 	andi $16,$16,0xffff
 9405              	.set noreorder
 9406              	.set nomacro
 9407 3f48 D400000C 	jal _SNCPURead24
 9408 3f4c 2D280002 	move $5,$16
 9409              	.set macro
 9410              	.set reorder
 9411              	
 9412 3f50 2D202002 	move $4,$17
 9413              	.set noreorder
 9414              	.set nomacro
 9415 3f54 A5FF0010 	b $L1939
 9416 3f58 2D804000 	move $16,$2
 9417              	.set macro
 9418              	.set reorder
 9419              	
 9420              	$L1432:
 9421              	.set noreorder
 9422              	.set nomacro
 9423 3f5c 4802000C 	jal _SNCPUPop8
 9424 3f60 2D202002 	move $4,$17
 9425              	.set macro
 9426              	.set reorder
 9427              	
 9428 3f64 2D804000 	move $16,$2
 9429 3f68 02004230 	andi $2,$2,0x2
GAS LISTING  			page 167


 9430 3f6c 02004238 	xori $2,$2,0x2
 9431 3f70 FF000332 	andi $3,$16,0x00ff
 9432 3f74 10000432 	andi $4,$16,0x10
 9433 3f78 080030A2 	sb $16,8($17)
 9434 3f7c FF005530 	andi $21,$2,0x00ff
 9435 3f80 00B20300 	sll $22,$3,8
 9436              	.set noreorder
 9437              	.set nomacro
 9438 3f84 03008010 	beq $4,$0,$L1433
 9439 3f88 01001732 	andi $23,$16,0x1
 9440              	.set macro
 9441              	.set reorder
 9442              	
 9443 3f8c 030020A2 	sb $0,3($17)
 9444 3f90 050020A2 	sb $0,5($17)
 9445              	$L1433:
 9446 3f94 09002292 	lbu $2,9($17)
 9447              	
 9448              	.set noreorder
 9449              	.set nomacro
 9450 3f98 0B004050 	beql $2,$0,$L1434
 9451 3f9c 08002292 	lbu $2,8($17)
 9452              	.set macro
 9453              	.set reorder
 9454              	
 9455 3fa0 08002392 	lbu $3,8($17)
 9456 3fa4 FF000224 	li $2,255
 9457 3fa8 0000A2AF 	sw $2,0($sp)
 9458 3fac 00041E24 	li $fp,1024
 9459 3fb0 30006334 	ori $3,$3,0x30
 9460 3fb4 01000224 	li $2,1
 9461 3fb8 070022A2 	sb $2,7($17)
 9462 3fbc 080023A2 	sb $3,8($17)
 9463              	.set noreorder
 9464              	.set nomacro
 9465 3fc0 B4F60010 	b $L1604
 9466 3fc4 0A0020A6 	sh $0,10($17)
 9467              	.set macro
 9468              	.set reorder
 9469              	
 9470              	$L1434:
 9471 3fc8 FFFF0334 	li $3,65535
 9472 3fcc 0000A3AF 	sw $3,0($sp)
 9473 3fd0 00110200 	sll $2,$2,4
 9474              	.set noreorder
 9475              	.set nomacro
 9476 3fd4 AFF60010 	b $L1604
 9477 3fd8 00035E30 	andi $fp,$2,0x300
 9478              	.set macro
 9479              	.set reorder
 9480              	
 9481              	$L840:
 9482 3fdc 2D288002 	move $5,$20
 9483              	.set noreorder
 9484              	.set nomacro
 9485 3fe0 1A01000C 	jal _SNCPUFetch8
 9486 3fe4 2D202002 	move $4,$17
GAS LISTING  			page 168


 9487              	.set macro
 9488              	.set reorder
 9489              	
 9490 3fe8 01009426 	addu $20,$20,1
 9491              	.set noreorder
 9492              	.set nomacro
 9493 3fec 83FF0010 	b $L1941
 9494 3ff0 2D984000 	move $19,$2
 9495              	.set macro
 9496              	.set reorder
 9497              	
 9498              	$L1231:
 9499 3ff4 00003392 	lbu $19,0($17)
 9500 3ff8 0100F232 	andi $18,$23,0x1
 9501 3ffc 1400228E 	lw $2,20($17)
 9502 4000 40981300 	sll $19,$19,1
 9503 4004 25987202 	or $19,$19,$18
 9504 4008 FAFF4224 	addu $2,$2,-6
 9505 400c 00AA1300 	sll $21,$19,8
 9506 4010 000033A2 	sb $19,0($17)
 9507 4014 029A1300 	srl $19,$19,8
 9508 4018 2DB0A002 	move $22,$21
 9509              	.set noreorder
 9510              	.set nomacro
 9511 401c 26F30010 	b $L1671
 9512 4020 01007732 	andi $23,$19,0x1
 9513              	.set macro
 9514              	.set reorder
 9515              	
 9516              	$L1475:
 9517              	.set noreorder
 9518              	.set nomacro
 9519 4024 6A02000C 	jal _SNCPUPop16
 9520 4028 2D202002 	move $4,$17
 9521              	.set macro
 9522              	.set reorder
 9523              	
 9524 402c 2D804000 	move $16,$2
 9525 4030 1400228E 	lw $2,20($17)
 9526 4034 0A0030A6 	sh $16,10($17)
 9527              	.set noreorder
 9528              	.set nomacro
 9529 4038 21F70010 	b $L2020
 9530 403c 2DA80002 	move $21,$16
 9531              	.set macro
 9532              	.set reorder
 9533              	
 9534              	$L1366:
 9535 4040 2D288002 	move $5,$20
 9536              	.set noreorder
 9537              	.set nomacro
 9538 4044 3001000C 	jal _SNCPUFetch16
 9539 4048 2D202002 	move $4,$17
 9540              	.set macro
 9541              	.set reorder
 9542              	
 9543 404c 02009426 	addu $20,$20,2
GAS LISTING  			page 169


 9544 4050 2D804000 	move $16,$2
 9545 4054 2D202002 	move $4,$17
 9546 4058 1000228E 	lw $2,16($17)
 9547              	.set noreorder
 9548              	.set nomacro
 9549 405c 8AFF0010 	b $L1677
 9550 4060 25800202 	or $16,$16,$2
 9551              	.set macro
 9552              	.set reorder
 9553              	
 9554              	$L845:
 9555 4064 2D288002 	move $5,$20
 9556              	.set noreorder
 9557              	.set nomacro
 9558 4068 3001000C 	jal _SNCPUFetch16
 9559 406c 2D202002 	move $4,$17
 9560              	.set macro
 9561              	.set reorder
 9562              	
 9563 4070 02009426 	addu $20,$20,2
 9564 4074 2D804000 	move $16,$2
 9565 4078 2D202002 	move $4,$17
 9566              	.set noreorder
 9567              	.set nomacro
 9568 407c 5AFF0010 	b $L2092
 9569 4080 1000228E 	lw $2,16($17)
 9570              	.set macro
 9571              	.set reorder
 9572              	
 9573              	$L1326:
 9574 4084 2D288002 	move $5,$20
 9575              	.set noreorder
 9576              	.set nomacro
 9577 4088 3001000C 	jal _SNCPUFetch16
 9578 408c 2D202002 	move $4,$17
 9579              	.set macro
 9580              	.set reorder
 9581              	
 9582 4090 0100F232 	andi $18,$23,0x1
 9583 4094 2D804000 	move $16,$2
 9584 4098 2D202002 	move $4,$17
 9585 409c 1000228E 	lw $2,16($17)
 9586 40a0 02009426 	addu $20,$20,2
 9587              	.set noreorder
 9588              	.set nomacro
 9589 40a4 98FF0010 	b $L2004
 9590 40a8 25800202 	or $16,$16,$2
 9591              	.set macro
 9592              	.set reorder
 9593              	
 9594              	$L850:
 9595 40ac 2D288002 	move $5,$20
 9596              	.set noreorder
 9597              	.set nomacro
 9598 40b0 6001000C 	jal _SNCPUFetch24
 9599 40b4 2D202002 	move $4,$17
 9600              	.set macro
GAS LISTING  			page 170


 9601              	.set reorder
 9602              	
 9603 40b8 03009426 	addu $20,$20,3
 9604 40bc 2D284000 	move $5,$2
 9605              	.set noreorder
 9606              	.set nomacro
 9607 40c0 4BFF0010 	b $L1940
 9608 40c4 2D202002 	move $4,$17
 9609              	.set macro
 9610              	.set reorder
 9611              	
 9612              	$L1535:
 9613 40c8 2D288002 	move $5,$20
 9614              	.set noreorder
 9615              	.set nomacro
 9616 40cc 1A01000C 	jal _SNCPUFetch8
 9617 40d0 2D202002 	move $4,$17
 9618              	.set macro
 9619              	.set reorder
 9620              	
 9621 40d4 01009426 	addu $20,$20,1
 9622 40d8 2D184000 	move $3,$2
 9623 40dc 0080C232 	andi $2,$22,0x8000
 9624              	$L1755:
 9625              	.set noreorder
 9626              	.set nomacro
 9627 40e0 96F24050 	beql $2,$0,$L2147
 9628 40e4 1400228E 	lw $2,20($17)
 9629              	.set macro
 9630              	.set reorder
 9631              	
 9632              	.set noreorder
 9633              	.set nomacro
 9634 40e8 51FE0010 	b $L1674
 9635 40ec 00160300 	sll $2,$3,24
 9636              	.set macro
 9637              	.set reorder
 9638              	
 9639              	$L855:
 9640 40f0 2D288002 	move $5,$20
 9641              	.set noreorder
 9642              	.set nomacro
 9643 40f4 1A01000C 	jal _SNCPUFetch8
 9644 40f8 2D202002 	move $4,$17
 9645              	.set macro
 9646              	.set reorder
 9647              	
 9648 40fc 01009426 	addu $20,$20,1
 9649 4100 2D804000 	move $16,$2
 9650 4104 2D202002 	move $4,$17
 9651 4108 0A002296 	lhu $2,10($17)
 9652              	
 9653 410c 21800202 	addu $16,$16,$2
 9654 4110 FFFF1032 	andi $16,$16,0xffff
 9655              	.set noreorder
 9656              	.set nomacro
 9657 4114 A400000C 	jal _SNCPURead16
GAS LISTING  			page 171


 9658 4118 2D280002 	move $5,$16
 9659              	.set macro
 9660              	.set reorder
 9661              	
 9662 411c 04002396 	lhu $3,4($17)
 9663 4120 2D804000 	move $16,$2
 9664 4124 2D202002 	move $4,$17
 9665 4128 1000228E 	lw $2,16($17)
 9666              	
 9667 412c 25800202 	or $16,$16,$2
 9668              	.set noreorder
 9669              	.set nomacro
 9670 4130 2EFF0010 	b $L1939
 9671 4134 21800302 	addu $16,$16,$3
 9672              	.set macro
 9673              	.set reorder
 9674              	
 9675              	$L860:
 9676 4138 2D288002 	move $5,$20
 9677              	.set noreorder
 9678              	.set nomacro
 9679 413c 1A01000C 	jal _SNCPUFetch8
 9680 4140 2D202002 	move $4,$17
 9681              	.set macro
 9682              	.set reorder
 9683              	
 9684 4144 01009426 	addu $20,$20,1
 9685 4148 2D804000 	move $16,$2
 9686 414c 2D202002 	move $4,$17
 9687 4150 0A002296 	lhu $2,10($17)
 9688              	
 9689 4154 21800202 	addu $16,$16,$2
 9690              	.set noreorder
 9691              	.set nomacro
 9692 4158 1EFF0010 	b $L2139
 9693 415c FFFF1032 	andi $16,$16,0xffff
 9694              	.set macro
 9695              	.set reorder
 9696              	
 9697              	$L865:
 9698 4160 2D288002 	move $5,$20
 9699              	.set noreorder
 9700              	.set nomacro
 9701 4164 1A01000C 	jal _SNCPUFetch8
 9702 4168 2D202002 	move $4,$17
 9703              	.set macro
 9704              	.set reorder
 9705              	
 9706 416c 01009426 	addu $20,$20,1
 9707 4170 06002396 	lhu $3,6($17)
 9708 4174 2D804000 	move $16,$2
 9709 4178 1400228E 	lw $2,20($17)
 9710 417c 2D202002 	move $4,$17
 9711 4180 21800302 	addu $16,$16,$3
 9712 4184 FAFF4224 	addu $2,$2,-6
 9713 4188 FFFF1032 	andi $16,$16,0xffff
 9714 418c 140022AE 	sw $2,20($17)
GAS LISTING  			page 172


 9715              	.set noreorder
 9716              	.set nomacro
 9717 4190 A400000C 	jal _SNCPURead16
 9718 4194 2D280002 	move $5,$16
 9719              	.set macro
 9720              	.set reorder
 9721              	
 9722 4198 04002596 	lhu $5,4($17)
 9723 419c 1000238E 	lw $3,16($17)
 9724 41a0 2D804000 	move $16,$2
 9725 41a4 1400228E 	lw $2,20($17)
 9726 41a8 2D202002 	move $4,$17
 9727 41ac 25800302 	or $16,$16,$3
 9728 41b0 FAFF4224 	addu $2,$2,-6
 9729 41b4 21800502 	addu $16,$16,$5
 9730              	.set noreorder
 9731              	.set nomacro
 9732 41b8 0CFF0010 	b $L1939
 9733 41bc 140022AE 	sw $2,20($17)
 9734              	.set macro
 9735              	.set reorder
 9736              	
 9737              	$L1371:
 9738 41c0 2D288002 	move $5,$20
 9739              	.set noreorder
 9740              	.set nomacro
 9741 41c4 1A01000C 	jal _SNCPUFetch8
 9742 41c8 2D202002 	move $4,$17
 9743              	.set macro
 9744              	.set reorder
 9745              	
 9746 41cc 01009426 	addu $20,$20,1
 9747 41d0 0A002396 	lhu $3,10($17)
 9748 41d4 2D804000 	move $16,$2
 9749 41d8 02002596 	lhu $5,2($17)
 9750 41dc 2D202002 	move $4,$17
 9751 41e0 21800302 	addu $16,$16,$3
 9752 41e4 1400228E 	lw $2,20($17)
 9753 41e8 FFFF1032 	andi $16,$16,0xffff
 9754 41ec 0000A38F 	lw $3,0($sp)
 9755 41f0 21800502 	addu $16,$16,$5
 9756 41f4 FAFF4224 	addu $2,$2,-6
 9757 41f8 24800302 	and $16,$16,$3
 9758              	.set noreorder
 9759              	.set nomacro
 9760 41fc 22FF0010 	b $L1677
 9761 4200 140022AE 	sw $2,20($17)
 9762              	.set macro
 9763              	.set reorder
 9764              	
 9765              	$L870:
 9766 4204 2D288002 	move $5,$20
 9767              	.set noreorder
 9768              	.set nomacro
 9769 4208 1A01000C 	jal _SNCPUFetch8
 9770 420c 2D202002 	move $4,$17
 9771              	.set macro
GAS LISTING  			page 173


 9772              	.set reorder
 9773              	
 9774 4210 01009426 	addu $20,$20,1
 9775 4214 2D804000 	move $16,$2
 9776 4218 1400238E 	lw $3,20($17)
 9777 421c 0A002296 	lhu $2,10($17)
 9778 4220 2D202002 	move $4,$17
 9779 4224 FAFF6324 	addu $3,$3,-6
 9780 4228 02002596 	lhu $5,2($17)
 9781 422c 21800202 	addu $16,$16,$2
 9782 4230 140023AE 	sw $3,20($17)
 9783 4234 FFFF1032 	andi $16,$16,0xffff
 9784 4238 0000A38F 	lw $3,0($sp)
 9785 423c 21800502 	addu $16,$16,$5
 9786              	.set noreorder
 9787              	.set nomacro
 9788 4240 EAFE0010 	b $L1939
 9789 4244 24800302 	and $16,$16,$3
 9790              	.set macro
 9791              	.set reorder
 9792              	
 9793              	$L1331:
 9794 4248 2D288002 	move $5,$20
 9795              	.set noreorder
 9796              	.set nomacro
 9797 424c 1A01000C 	jal _SNCPUFetch8
 9798 4250 2D202002 	move $4,$17
 9799              	.set macro
 9800              	.set reorder
 9801              	
 9802 4254 0100F232 	andi $18,$23,0x1
 9803 4258 0A002596 	lhu $5,10($17)
 9804 425c 2D804000 	move $16,$2
 9805 4260 02002396 	lhu $3,2($17)
 9806 4264 2D202002 	move $4,$17
 9807 4268 1400228E 	lw $2,20($17)
 9808 426c 21800502 	addu $16,$16,$5
 9809 4270 FFFF1032 	andi $16,$16,0xffff
 9810 4274 01009426 	addu $20,$20,1
 9811 4278 21800302 	addu $16,$16,$3
 9812 427c FAFF4224 	addu $2,$2,-6
 9813 4280 0000A38F 	lw $3,0($sp)
 9814 4284 140022AE 	sw $2,20($17)
 9815              	.set noreorder
 9816              	.set nomacro
 9817 4288 1FFF0010 	b $L2004
 9818 428c 24800302 	and $16,$16,$3
 9819              	.set macro
 9820              	.set reorder
 9821              	
 9822              	$L875:
 9823 4290 2D288002 	move $5,$20
 9824              	.set noreorder
 9825              	.set nomacro
 9826 4294 1A01000C 	jal _SNCPUFetch8
 9827 4298 2D202002 	move $4,$17
 9828              	.set macro
GAS LISTING  			page 174


 9829              	.set reorder
 9830              	
 9831 429c 01009426 	addu $20,$20,1
 9832 42a0 2D804000 	move $16,$2
 9833 42a4 2D202002 	move $4,$17
 9834 42a8 0A002296 	lhu $2,10($17)
 9835              	
 9836 42ac 21800202 	addu $16,$16,$2
 9837 42b0 FFFF1032 	andi $16,$16,0xffff
 9838              	.set noreorder
 9839              	.set nomacro
 9840 42b4 D400000C 	jal _SNCPURead24
 9841 42b8 2D280002 	move $5,$16
 9842              	.set macro
 9843              	.set reorder
 9844              	
 9845 42bc 2D202002 	move $4,$17
 9846 42c0 2D804000 	move $16,$2
 9847 42c4 04002296 	lhu $2,4($17)
 9848              	$L1938:
 9849              	.set noreorder
 9850              	.set nomacro
 9851 42c8 C8FE0010 	b $L1939
 9852 42cc 21800202 	addu $16,$16,$2
 9853              	.set macro
 9854              	.set reorder
 9855              	
 9856              	$L143:
 9857 42d0 1400228E 	lw $2,20($17)
 9858              	.set noreorder
 9859              	.set nomacro
 9860 42d4 77F20010 	b $L1714
 9861 42d8 01001724 	li $23,1
 9862              	.set macro
 9863              	.set reorder
 9864              	
 9865              	$L880:
 9866 42dc 2D288002 	move $5,$20
 9867              	.set noreorder
 9868              	.set nomacro
 9869 42e0 3001000C 	jal _SNCPUFetch16
 9870 42e4 2D202002 	move $4,$17
 9871              	.set macro
 9872              	.set reorder
 9873              	
 9874 42e8 02009426 	addu $20,$20,2
 9875 42ec 2D804000 	move $16,$2
 9876 42f0 1000238E 	lw $3,16($17)
 9877 42f4 04002296 	lhu $2,4($17)
 9878 42f8 2D202002 	move $4,$17
 9879              	$L2063:
 9880              	.set noreorder
 9881              	.set nomacro
 9882 42fc F2FF0010 	b $L1938
 9883 4300 25800302 	or $16,$16,$3
 9884              	.set macro
 9885              	.set reorder
GAS LISTING  			page 175


 9886              	
 9887              	$L1211:
 9888 4304 00003392 	lbu $19,0($17)
 9889 4308 1400228E 	lw $2,20($17)
 9890              	.set noreorder
 9891              	.set nomacro
 9892 430c 58FE0010 	b $L1993
 9893 4310 FFFF7326 	addu $19,$19,-1
 9894              	.set macro
 9895              	.set reorder
 9896              	
 9897              	$L175:
 9898              	.set noreorder
 9899              	.set nomacro
 9900 4314 97F70010 	b $L1802
 9901 4318 06003096 	lhu $16,6($17)
 9902              	.set macro
 9903              	.set reorder
 9904              	
 9905              	$L1376:
 9906 431c 2D288002 	move $5,$20
 9907              	.set noreorder
 9908              	.set nomacro
 9909 4320 3001000C 	jal _SNCPUFetch16
 9910 4324 2D202002 	move $4,$17
 9911              	.set macro
 9912              	.set reorder
 9913              	
 9914 4328 02009426 	addu $20,$20,2
 9915 432c 1000238E 	lw $3,16($17)
 9916 4330 2D804000 	move $16,$2
 9917 4334 02002296 	lhu $2,2($17)
 9918 4338 2D202002 	move $4,$17
 9919 433c 25800302 	or $16,$16,$3
 9920              	.set noreorder
 9921              	.set nomacro
 9922 4340 D1FE0010 	b $L1677
 9923 4344 21800202 	addu $16,$16,$2
 9924              	.set macro
 9925              	.set reorder
 9926              	
 9927              	$L885:
 9928 4348 2D288002 	move $5,$20
 9929              	.set noreorder
 9930              	.set nomacro
 9931 434c 3001000C 	jal _SNCPUFetch16
 9932 4350 2D202002 	move $4,$17
 9933              	.set macro
 9934              	.set reorder
 9935              	
 9936 4354 02009426 	addu $20,$20,2
 9937 4358 2D804000 	move $16,$2
 9938 435c 1000238E 	lw $3,16($17)
 9939 4360 02002296 	lhu $2,2($17)
 9940              	.set noreorder
 9941              	.set nomacro
 9942 4364 E5FF0010 	b $L2063
GAS LISTING  			page 176


 9943 4368 2D202002 	move $4,$17
 9944              	.set macro
 9945              	.set reorder
 9946              	
 9947              	$L1336:
 9948 436c 2D288002 	move $5,$20
 9949              	.set noreorder
 9950              	.set nomacro
 9951 4370 3001000C 	jal _SNCPUFetch16
 9952 4374 2D202002 	move $4,$17
 9953              	.set macro
 9954              	.set reorder
 9955              	
 9956 4378 0100F232 	andi $18,$23,0x1
 9957 437c 1000238E 	lw $3,16($17)
 9958 4380 2D804000 	move $16,$2
 9959 4384 02002296 	lhu $2,2($17)
 9960 4388 2D202002 	move $4,$17
 9961 438c 25800302 	or $16,$16,$3
 9962 4390 02009426 	addu $20,$20,2
 9963 4394 21800202 	addu $16,$16,$2
 9964              	.set noreorder
 9965              	.set nomacro
 9966 4398 8E00000C 	jal _SNCPURead8
 9967 439c 2D280002 	move $5,$16
 9968              	.set macro
 9969              	.set reorder
 9970              	
 9971 43a0 2D202002 	move $4,$17
 9972 43a4 40980200 	sll $19,$2,1
 9973 43a8 2D280002 	move $5,$16
 9974              	.set noreorder
 9975              	.set nomacro
 9976 43ac 5CFE0010 	b $L2081
 9977 43b0 25987202 	or $19,$19,$18
 9978              	.set macro
 9979              	.set reorder
 9980              	
 9981              	$L890:
 9982 43b4 2D288002 	move $5,$20
 9983              	.set noreorder
 9984              	.set nomacro
 9985 43b8 6001000C 	jal _SNCPUFetch24
 9986 43bc 2D202002 	move $4,$17
 9987              	.set macro
 9988              	.set reorder
 9989              	
 9990 43c0 03009426 	addu $20,$20,3
 9991 43c4 2D804000 	move $16,$2
 9992 43c8 2D202002 	move $4,$17
 9993              	.set noreorder
 9994              	.set nomacro
 9995 43cc BEFF0010 	b $L1938
 9996 43d0 02002296 	lhu $2,2($17)
 9997              	.set macro
 9998              	.set reorder
 9999              	
GAS LISTING  			page 177


 10000              	$L1203:
 10001              	
 10002              	.set noreorder
 10003              	.set nomacro
 10004 43d4 4802000C 	jal _SNCPUPop8
 10005 43d8 2D202002 	move $4,$17
 10006              	.set macro
 10007              	.set reorder
 10008              	
 10009 43dc 2D804000 	move $16,$2
 10010 43e0 02004230 	andi $2,$2,0x2
 10011 43e4 02004238 	xori $2,$2,0x2
 10012 43e8 FF000332 	andi $3,$16,0x00ff
 10013 43ec 10000432 	andi $4,$16,0x10
 10014 43f0 080030A2 	sb $16,8($17)
 10015 43f4 FF005530 	andi $21,$2,0x00ff
 10016 43f8 00B20300 	sll $22,$3,8
 10017              	.set noreorder
 10018              	.set nomacro
 10019 43fc 03008010 	beq $4,$0,$L1204
 10020 4400 01001732 	andi $23,$16,0x1
 10021              	.set macro
 10022              	.set reorder
 10023              	
 10024 4404 030020A2 	sb $0,3($17)
 10025 4408 050020A2 	sb $0,5($17)
 10026              	$L1204:
 10027 440c 09002292 	lbu $2,9($17)
 10028              	
 10029              	.set noreorder
 10030              	.set nomacro
 10031 4410 13004050 	beql $2,$0,$L1205
 10032 4414 08002292 	lbu $2,8($17)
 10033              	.set macro
 10034              	.set reorder
 10035              	
 10036 4418 08002392 	lbu $3,8($17)
 10037 441c FF000224 	li $2,255
 10038 4420 0000A2AF 	sw $2,0($sp)
 10039 4424 00041E24 	li $fp,1024
 10040 4428 30006334 	ori $3,$3,0x30
 10041 442c 01000224 	li $2,1
 10042 4430 070022A2 	sb $2,7($17)
 10043 4434 080023A2 	sb $3,8($17)
 10044 4438 0A0020A6 	sh $0,10($17)
 10045              	$L1206:
 10046 443c 2D202002 	move $4,$17
 10047              	.set noreorder
 10048              	.set nomacro
 10049 4440 6A02000C 	jal _SNCPUPop16
 10050 4444 FFFF9426 	addu $20,$20,-1
 10051              	.set macro
 10052              	.set reorder
 10053              	
 10054 4448 1400238E 	lw $3,20($17)
 10055 444c 2D804000 	move $16,$2
 10056 4450 FFFF023C 	li $2,-65536
GAS LISTING  			page 178


 10057 4454 24A08202 	and $20,$20,$2
 10058              	.set noreorder
 10059              	.set nomacro
 10060 4458 4CFE0010 	b $L1707
 10061 445c F4FF6324 	addu $3,$3,-12
 10062              	.set macro
 10063              	.set reorder
 10064              	
 10065              	$L1205:
 10066 4460 FFFF0334 	li $3,65535
 10067 4464 0000A3AF 	sw $3,0($sp)
 10068 4468 00110200 	sll $2,$2,4
 10069              	.set noreorder
 10070              	.set nomacro
 10071 446c F3FF0010 	b $L1206
 10072 4470 00035E30 	andi $fp,$2,0x300
 10073              	.set macro
 10074              	.set reorder
 10075              	
 10076              	$L895:
 10077 4474 2D288002 	move $5,$20
 10078              	.set noreorder
 10079              	.set nomacro
 10080 4478 1A01000C 	jal _SNCPUFetch8
 10081 447c 2D202002 	move $4,$17
 10082              	.set macro
 10083              	.set reorder
 10084              	
 10085 4480 01009426 	addu $20,$20,1
 10086 4484 0A002396 	lhu $3,10($17)
 10087 4488 2D804000 	move $16,$2
 10088 448c 02002596 	lhu $5,2($17)
 10089 4490 2D202002 	move $4,$17
 10090 4494 21800302 	addu $16,$16,$3
 10091 4498 1400228E 	lw $2,20($17)
 10092 449c FFFF1032 	andi $16,$16,0xffff
 10093 44a0 0000A38F 	lw $3,0($sp)
 10094 44a4 21800502 	addu $16,$16,$5
 10095 44a8 FAFF4224 	addu $2,$2,-6
 10096 44ac 24800302 	and $16,$16,$3
 10097 44b0 140022AE 	sw $2,20($17)
 10098              	$L2140:
 10099              	.set noreorder
 10100              	.set nomacro
 10101 44b4 A400000C 	jal _SNCPURead16
 10102 44b8 2D280002 	move $5,$16
 10103              	.set macro
 10104              	.set reorder
 10105              	
 10106 44bc 2D202002 	move $4,$17
 10107 44c0 2D804000 	move $16,$2
 10108 44c4 1000228E 	lw $2,16($17)
 10109              	$L2094:
 10110 44c8 25800202 	or $16,$16,$2
 10111              	$L1935:
 10112 44cc 2D280002 	move $5,$16
 10113              	$L1936:
GAS LISTING  			page 179


 10114 44d0 8E00000C 	jal _SNCPURead8
 10114      00000000 
 10115 44d8 2D984000 	move $19,$2
 10116              	$L1937:
 10117 44dc 00003292 	lbu $18,0($17)
 10118              	.set noreorder
 10119              	.set nomacro
 10120 44e0 9FFC0010 	b $L1877
 10121 44e4 26905302 	xor $18,$18,$19
 10122              	.set macro
 10123              	.set reorder
 10124              	
 10125              	$L900:
 10126 44e8 2D288002 	move $5,$20
 10127              	.set noreorder
 10128              	.set nomacro
 10129 44ec 1A01000C 	jal _SNCPUFetch8
 10130 44f0 2D202002 	move $4,$17
 10131              	.set macro
 10132              	.set reorder
 10133              	
 10134 44f4 01009426 	addu $20,$20,1
 10135 44f8 2D804000 	move $16,$2
 10136 44fc 06002396 	lhu $3,6($17)
 10137 4500 1400228E 	lw $2,20($17)
 10138 4504 2D202002 	move $4,$17
 10139 4508 21800302 	addu $16,$16,$3
 10140 450c FAFF4224 	addu $2,$2,-6
 10141 4510 140022AE 	sw $2,20($17)
 10142              	$L2108:
 10143              	.set noreorder
 10144              	.set nomacro
 10145 4514 EDFF0010 	b $L1935
 10146 4518 FFFF1032 	andi $16,$16,0xffff
 10147              	.set macro
 10148              	.set reorder
 10149              	
 10150              	$L1596:
 10151 451c 2D288002 	move $5,$20
 10152 4520 2D202002 	move $4,$17
 10153              	.set noreorder
 10154              	.set nomacro
 10155 4524 1A01000C 	jal _SNCPUFetch8
 10156 4528 01009426 	addu $20,$20,1
 10157              	.set macro
 10158              	.set reorder
 10159              	
 10160 452c 2D288002 	move $5,$20
 10161 4530 2D202002 	move $4,$17
 10162 4534 2D804000 	move $16,$2
 10163              	.set noreorder
 10164              	.set nomacro
 10165 4538 1A01000C 	jal _SNCPUFetch8
 10166 453c 01009426 	addu $20,$20,1
 10167              	.set macro
 10168              	.set reorder
 10169              	
GAS LISTING  			page 180


 10170 4540 00841000 	sll $16,$16,16
 10171 4544 02002392 	lbu $3,2($17)
 10172 4548 00140200 	sll $2,$2,16
 10173 454c 100030AE 	sw $16,16($17)
 10174 4550 2D202002 	move $4,$17
 10175 4554 25104300 	or $2,$2,$3
 10176              	.set noreorder
 10177              	.set nomacro
 10178 4558 8E00000C 	jal _SNCPURead8
 10179 455c 2D284000 	move $5,$2
 10180              	.set macro
 10181              	.set reorder
 10182              	
 10183 4560 04002392 	lbu $3,4($17)
 10184 4564 2D304000 	move $6,$2
 10185 4568 2D202002 	move $4,$17
 10186 456c 25800302 	or $16,$16,$3
 10187              	.set noreorder
 10188              	.set nomacro
 10189 4570 A601000C 	jal _SNCPUWrite8
 10190 4574 2D280002 	move $5,$16
 10191              	.set macro
 10192              	.set reorder
 10193              	
 10194 4578 04002292 	lbu $2,4($17)
 10195 457c 00002596 	lhu $5,0($17)
 10196 4580 FDFF8626 	addu $6,$20,-3
 10197 4584 1400248E 	lw $4,20($17)
 10198 4588 FFFF4224 	addu $2,$2,-1
 10199 458c 02002392 	lbu $3,2($17)
 10200 4590 FFFFA724 	addu $7,$5,-1
 10201 4594 F4FF8424 	addu $4,$4,-12
 10202 4598 0BA0C500 	movn $20,$6,$5
 10203 459c FFFF6324 	addu $3,$3,-1
 10204              	$L1713:
 10205 45a0 020023A2 	sb $3,2($17)
 10206              	.set noreorder
 10207              	.set nomacro
 10208 45a4 95FA0010 	b $L1672
 10209 45a8 040022A2 	sb $2,4($17)
 10210              	.set macro
 10211              	.set reorder
 10212              	
 10213              	$L905:
 10214 45ac 2D288002 	move $5,$20
 10215              	.set noreorder
 10216              	.set nomacro
 10217 45b0 1A01000C 	jal _SNCPUFetch8
 10218 45b4 2D202002 	move $4,$17
 10219              	.set macro
 10220              	.set reorder
 10221              	
 10222 45b8 01009426 	addu $20,$20,1
 10223 45bc 2D804000 	move $16,$2
 10224 45c0 2D202002 	move $4,$17
 10225 45c4 0A002296 	lhu $2,10($17)
 10226              	.set noreorder
GAS LISTING  			page 181


 10227              	.set nomacro
 10228 45c8 D2FF0010 	b $L2108
 10229 45cc 21800202 	addu $16,$16,$2
 10230              	.set macro
 10231              	.set reorder
 10232              	
 10233              	$L1301:
 10234 45d0 2D288002 	move $5,$20
 10235              	.set noreorder
 10236              	.set nomacro
 10237 45d4 1A01000C 	jal _SNCPUFetch8
 10238 45d8 2D202002 	move $4,$17
 10239              	.set macro
 10240              	.set reorder
 10241              	
 10242 45dc 01009426 	addu $20,$20,1
 10243 45e0 2D804000 	move $16,$2
 10244 45e4 2D202002 	move $4,$17
 10245 45e8 0A002296 	lhu $2,10($17)
 10246              	
 10247 45ec 21800202 	addu $16,$16,$2
 10248 45f0 FFFF1032 	andi $16,$16,0xffff
 10249              	$L2013:
 10250              	.set noreorder
 10251              	.set nomacro
 10252 45f4 8E00000C 	jal _SNCPURead8
 10253 45f8 2D280002 	move $5,$16
 10254              	.set macro
 10255              	.set reorder
 10256              	
 10257 45fc 2D202002 	move $4,$17
 10258 4600 2D984000 	move $19,$2
 10259 4604 2D280002 	move $5,$16
 10260 4608 01005730 	andi $23,$2,0x1
 10261              	$L2011:
 10262 460c 42981300 	srl $19,$19,1
 10263              	$L1778:
 10264 4610 00AA1300 	sll $21,$19,8
 10265 4614 FF006632 	andi $6,$19,0x00ff
 10266              	.set noreorder
 10267              	.set nomacro
 10268 4618 89FC0010 	b $L1786
 10269 461c 2DB0A002 	move $22,$21
 10270              	.set macro
 10271              	.set reorder
 10272              	
 10273              	$L910:
 10274 4620 2D288002 	move $5,$20
 10275              	.set noreorder
 10276              	.set nomacro
 10277 4624 1A01000C 	jal _SNCPUFetch8
 10278 4628 2D202002 	move $4,$17
 10279              	.set macro
 10280              	.set reorder
 10281              	
 10282 462c 01009426 	addu $20,$20,1
 10283 4630 2D804000 	move $16,$2
GAS LISTING  			page 182


 10284 4634 2D202002 	move $4,$17
 10285 4638 0A002296 	lhu $2,10($17)
 10286              	
 10287 463c 21800202 	addu $16,$16,$2
 10288 4640 FFFF1032 	andi $16,$16,0xffff
 10289              	.set noreorder
 10290              	.set nomacro
 10291 4644 D400000C 	jal _SNCPURead24
 10292 4648 2D280002 	move $5,$16
 10293              	.set macro
 10294              	.set reorder
 10295              	
 10296 464c 2D202002 	move $4,$17
 10297              	.set noreorder
 10298              	.set nomacro
 10299 4650 9EFF0010 	b $L1935
 10300 4654 2D804000 	move $16,$2
 10301              	.set macro
 10302              	.set reorder
 10303              	
 10304              	$L1440:
 10305              	.set noreorder
 10306              	.set nomacro
 10307 4658 B5FC0010 	b $L2021
 10308 465c 00002592 	lbu $5,0($17)
 10309              	.set macro
 10310              	.set reorder
 10311              	
 10312              	$L915:
 10313              	
 10314 4660 2D288002 	move $5,$20
 10315              	.set noreorder
 10316              	.set nomacro
 10317 4664 1A01000C 	jal _SNCPUFetch8
 10318 4668 2D202002 	move $4,$17
 10319              	.set macro
 10320              	.set reorder
 10321              	
 10322 466c 01009426 	addu $20,$20,1
 10323              	.set noreorder
 10324              	.set nomacro
 10325 4670 9AFF0010 	b $L1937
 10326 4674 2D984000 	move $19,$2
 10327              	.set macro
 10328              	.set reorder
 10329              	
 10330              	$L1226:
 10331 4678 00003392 	lbu $19,0($17)
 10332 467c 1400228E 	lw $2,20($17)
 10333 4680 01007732 	andi $23,$19,0x1
 10334              	.set noreorder
 10335              	.set nomacro
 10336 4684 7AFD0010 	b $L1993
 10337 4688 42981300 	srl $19,$19,1
 10338              	.set macro
 10339              	.set reorder
 10340              	
GAS LISTING  			page 183


 10341              	$L1421:
 10342 468c 02841400 	srl $16,$20,16
 10343 4690 2D202002 	move $4,$17
 10344              	.set noreorder
 10345              	.set nomacro
 10346 4694 A7FC0010 	b $L1795
 10347 4698 FF000532 	andi $5,$16,0x00ff
 10348              	.set macro
 10349              	.set reorder
 10350              	
 10351              	$L1155:
 10352 469c 2D288002 	move $5,$20
 10353              	.set noreorder
 10354              	.set nomacro
 10355 46a0 3001000C 	jal _SNCPUFetch16
 10356 46a4 2D202002 	move $4,$17
 10357              	.set macro
 10358              	.set reorder
 10359              	
 10360 46a8 01009426 	addu $20,$20,1
 10361 46ac 2D804000 	move $16,$2
 10362              	$L1682:
 10363 46b0 FFFF023C 	li $2,-65536
 10364 46b4 24A08202 	and $20,$20,$2
 10365              	.set noreorder
 10366              	.set nomacro
 10367 46b8 1FF10010 	b $L110
 10368 46bc 25A09002 	or $20,$20,$16
 10369              	.set macro
 10370              	.set reorder
 10371              	
 10372              	$L920:
 10373 46c0 2D288002 	move $5,$20
 10374              	.set noreorder
 10375              	.set nomacro
 10376 46c4 3001000C 	jal _SNCPUFetch16
 10377 46c8 2D202002 	move $4,$17
 10378              	.set macro
 10379              	.set reorder
 10380              	
 10381 46cc 02009426 	addu $20,$20,2
 10382 46d0 2D804000 	move $16,$2
 10383 46d4 2D202002 	move $4,$17
 10384              	.set noreorder
 10385              	.set nomacro
 10386 46d8 7BFF0010 	b $L2094
 10387 46dc 1000228E 	lw $2,16($17)
 10388              	.set macro
 10389              	.set reorder
 10390              	
 10391              	$L1306:
 10392 46e0 2D288002 	move $5,$20
 10393              	.set noreorder
 10394              	.set nomacro
 10395 46e4 3001000C 	jal _SNCPUFetch16
 10396 46e8 2D202002 	move $4,$17
 10397              	.set macro
GAS LISTING  			page 184


 10398              	.set reorder
 10399              	
 10400 46ec 02009426 	addu $20,$20,2
 10401 46f0 2D804000 	move $16,$2
 10402 46f4 2D202002 	move $4,$17
 10403 46f8 1000228E 	lw $2,16($17)
 10404              	.set noreorder
 10405              	.set nomacro
 10406 46fc BDFF0010 	b $L2013
 10407 4700 25800202 	or $16,$16,$2
 10408              	.set macro
 10409              	.set reorder
 10410              	
 10411              	$L925:
 10412 4704 2D288002 	move $5,$20
 10413              	.set noreorder
 10414              	.set nomacro
 10415 4708 6001000C 	jal _SNCPUFetch24
 10416 470c 2D202002 	move $4,$17
 10417              	.set macro
 10418              	.set reorder
 10419              	
 10420 4710 03009426 	addu $20,$20,3
 10421 4714 2D284000 	move $5,$2
 10422              	.set noreorder
 10423              	.set nomacro
 10424 4718 6DFF0010 	b $L1936
 10425 471c 2D202002 	move $4,$17
 10426              	.set macro
 10427              	.set reorder
 10428              	
 10429              	$L1565:
 10430 4720 2D288002 	move $5,$20
 10431              	.set noreorder
 10432              	.set nomacro
 10433 4724 1A01000C 	jal _SNCPUFetch8
 10434 4728 2D202002 	move $4,$17
 10435              	.set macro
 10436              	.set reorder
 10437              	
 10438 472c 01009426 	addu $20,$20,1
 10439 4730 2D184000 	move $3,$2
 10440 4734 08002292 	lbu $2,8($17)
 10441              	.set noreorder
 10442              	.set nomacro
 10443 4738 BAFC0010 	b $L1754
 10444 473c 40004230 	andi $2,$2,0x40
 10445              	.set macro
 10446              	.set reorder
 10447              	
 10448              	$L930:
 10449 4740 2D288002 	move $5,$20
 10450              	.set noreorder
 10451              	.set nomacro
 10452 4744 1A01000C 	jal _SNCPUFetch8
 10453 4748 2D202002 	move $4,$17
 10454              	.set macro
GAS LISTING  			page 185


 10455              	.set reorder
 10456              	
 10457 474c 01009426 	addu $20,$20,1
 10458 4750 2D804000 	move $16,$2
 10459 4754 2D202002 	move $4,$17
 10460 4758 0A002296 	lhu $2,10($17)
 10461              	
 10462 475c 21800202 	addu $16,$16,$2
 10463 4760 FFFF1032 	andi $16,$16,0xffff
 10464              	.set noreorder
 10465              	.set nomacro
 10466 4764 A400000C 	jal _SNCPURead16
 10467 4768 2D280002 	move $5,$16
 10468              	.set macro
 10469              	.set reorder
 10470              	
 10471 476c 04002396 	lhu $3,4($17)
 10472 4770 2D804000 	move $16,$2
 10473 4774 2D202002 	move $4,$17
 10474 4778 1000228E 	lw $2,16($17)
 10475              	
 10476 477c 25800202 	or $16,$16,$2
 10477              	.set noreorder
 10478              	.set nomacro
 10479 4780 52FF0010 	b $L1935
 10480 4784 21800302 	addu $16,$16,$3
 10481              	.set macro
 10482              	.set reorder
 10483              	
 10484              	$L935:
 10485 4788 2D288002 	move $5,$20
 10486              	.set noreorder
 10487              	.set nomacro
 10488 478c 1A01000C 	jal _SNCPUFetch8
 10489 4790 2D202002 	move $4,$17
 10490              	.set macro
 10491              	.set reorder
 10492              	
 10493 4794 01009426 	addu $20,$20,1
 10494 4798 2D804000 	move $16,$2
 10495 479c 2D202002 	move $4,$17
 10496 47a0 0A002296 	lhu $2,10($17)
 10497              	
 10498 47a4 21800202 	addu $16,$16,$2
 10499              	.set noreorder
 10500              	.set nomacro
 10501 47a8 42FF0010 	b $L2140
 10502 47ac FFFF1032 	andi $16,$16,0xffff
 10503              	.set macro
 10504              	.set reorder
 10505              	
 10506              	$L940:
 10507 47b0 2D288002 	move $5,$20
 10508              	.set noreorder
 10509              	.set nomacro
 10510 47b4 1A01000C 	jal _SNCPUFetch8
 10511 47b8 2D202002 	move $4,$17
GAS LISTING  			page 186


 10512              	.set macro
 10513              	.set reorder
 10514              	
 10515 47bc 01009426 	addu $20,$20,1
 10516 47c0 06002396 	lhu $3,6($17)
 10517 47c4 2D804000 	move $16,$2
 10518 47c8 1400228E 	lw $2,20($17)
 10519 47cc 2D202002 	move $4,$17
 10520 47d0 21800302 	addu $16,$16,$3
 10521 47d4 FAFF4224 	addu $2,$2,-6
 10522 47d8 FFFF1032 	andi $16,$16,0xffff
 10523 47dc 140022AE 	sw $2,20($17)
 10524              	.set noreorder
 10525              	.set nomacro
 10526 47e0 A400000C 	jal _SNCPURead16
 10527 47e4 2D280002 	move $5,$16
 10528              	.set macro
 10529              	.set reorder
 10530              	
 10531 47e8 04002596 	lhu $5,4($17)
 10532 47ec 1000238E 	lw $3,16($17)
 10533 47f0 2D804000 	move $16,$2
 10534 47f4 1400228E 	lw $2,20($17)
 10535 47f8 2D202002 	move $4,$17
 10536 47fc 25800302 	or $16,$16,$3
 10537 4800 FAFF4224 	addu $2,$2,-6
 10538 4804 21800502 	addu $16,$16,$5
 10539              	.set noreorder
 10540              	.set nomacro
 10541 4808 30FF0010 	b $L1935
 10542 480c 140022AE 	sw $2,20($17)
 10543              	.set macro
 10544              	.set reorder
 10545              	
 10546              	$L1589:
 10547 4810 2D288002 	move $5,$20
 10548 4814 2D202002 	move $4,$17
 10549              	.set noreorder
 10550              	.set nomacro
 10551 4818 1A01000C 	jal _SNCPUFetch8
 10552 481c 01009426 	addu $20,$20,1
 10553              	.set macro
 10554              	.set reorder
 10555              	
 10556 4820 2D288002 	move $5,$20
 10557 4824 2D202002 	move $4,$17
 10558 4828 2D804000 	move $16,$2
 10559              	.set noreorder
 10560              	.set nomacro
 10561 482c 1A01000C 	jal _SNCPUFetch8
 10562 4830 01009426 	addu $20,$20,1
 10563              	.set macro
 10564              	.set reorder
 10565              	
 10566 4834 00841000 	sll $16,$16,16
 10567 4838 02002392 	lbu $3,2($17)
 10568 483c 00140200 	sll $2,$2,16
GAS LISTING  			page 187


 10569 4840 100030AE 	sw $16,16($17)
 10570 4844 2D202002 	move $4,$17
 10571 4848 25104300 	or $2,$2,$3
 10572              	.set noreorder
 10573              	.set nomacro
 10574 484c 8E00000C 	jal _SNCPURead8
 10575 4850 2D284000 	move $5,$2
 10576              	.set macro
 10577              	.set reorder
 10578              	
 10579 4854 04002392 	lbu $3,4($17)
 10580 4858 2D304000 	move $6,$2
 10581 485c 2D202002 	move $4,$17
 10582 4860 25800302 	or $16,$16,$3
 10583              	.set noreorder
 10584              	.set nomacro
 10585 4864 A601000C 	jal _SNCPUWrite8
 10586 4868 2D280002 	move $5,$16
 10587              	.set macro
 10588              	.set reorder
 10589              	
 10590 486c 04002292 	lbu $2,4($17)
 10591 4870 00002596 	lhu $5,0($17)
 10592 4874 FDFF8626 	addu $6,$20,-3
 10593 4878 1400248E 	lw $4,20($17)
 10594 487c 01004224 	addu $2,$2,1
 10595 4880 02002392 	lbu $3,2($17)
 10596 4884 FFFFA724 	addu $7,$5,-1
 10597 4888 F4FF8424 	addu $4,$4,-12
 10598 488c 0BA0C500 	movn $20,$6,$5
 10599              	.set noreorder
 10600              	.set nomacro
 10601 4890 43FF0010 	b $L1713
 10602 4894 01006324 	addu $3,$3,1
 10603              	.set macro
 10604              	.set reorder
 10605              	
 10606              	$L945:
 10607 4898 2D288002 	move $5,$20
 10608              	.set noreorder
 10609              	.set nomacro
 10610 489c 1A01000C 	jal _SNCPUFetch8
 10611 48a0 2D202002 	move $4,$17
 10612              	.set macro
 10613              	.set reorder
 10614              	
 10615 48a4 01009426 	addu $20,$20,1
 10616 48a8 2D804000 	move $16,$2
 10617 48ac 1400238E 	lw $3,20($17)
 10618 48b0 0A002296 	lhu $2,10($17)
 10619 48b4 2D202002 	move $4,$17
 10620 48b8 FAFF6324 	addu $3,$3,-6
 10621 48bc 02002596 	lhu $5,2($17)
 10622 48c0 21800202 	addu $16,$16,$2
 10623 48c4 140023AE 	sw $3,20($17)
 10624 48c8 FFFF1032 	andi $16,$16,0xffff
 10625 48cc 0000A38F 	lw $3,0($sp)
GAS LISTING  			page 188


 10626 48d0 21800502 	addu $16,$16,$5
 10627              	.set noreorder
 10628              	.set nomacro
 10629 48d4 FDFE0010 	b $L1935
 10630 48d8 24800302 	and $16,$16,$3
 10631              	.set macro
 10632              	.set reorder
 10633              	
 10634              	$L1311:
 10635 48dc 2D288002 	move $5,$20
 10636              	.set noreorder
 10637              	.set nomacro
 10638 48e0 1A01000C 	jal _SNCPUFetch8
 10639 48e4 2D202002 	move $4,$17
 10640              	.set macro
 10641              	.set reorder
 10642              	
 10643 48e8 01009426 	addu $20,$20,1
 10644 48ec 0A002396 	lhu $3,10($17)
 10645 48f0 2D804000 	move $16,$2
 10646 48f4 1400228E 	lw $2,20($17)
 10647 48f8 2D202002 	move $4,$17
 10648 48fc 21800302 	addu $16,$16,$3
 10649 4900 02002596 	lhu $5,2($17)
 10650 4904 FFFF1032 	andi $16,$16,0xffff
 10651 4908 FAFF4224 	addu $2,$2,-6
 10652 490c 0000A38F 	lw $3,0($sp)
 10653 4910 21800502 	addu $16,$16,$5
 10654 4914 140022AE 	sw $2,20($17)
 10655              	.set noreorder
 10656              	.set nomacro
 10657 4918 36FF0010 	b $L2013
 10658 491c 24800302 	and $16,$16,$3
 10659              	.set macro
 10660              	.set reorder
 10661              	
 10662              	$L950:
 10663 4920 2D288002 	move $5,$20
 10664              	.set noreorder
 10665              	.set nomacro
 10666 4924 1A01000C 	jal _SNCPUFetch8
 10667 4928 2D202002 	move $4,$17
 10668              	.set macro
 10669              	.set reorder
 10670              	
 10671 492c 01009426 	addu $20,$20,1
 10672 4930 2D804000 	move $16,$2
 10673 4934 2D202002 	move $4,$17
 10674 4938 0A002296 	lhu $2,10($17)
 10675              	
 10676 493c 21800202 	addu $16,$16,$2
 10677 4940 FFFF1032 	andi $16,$16,0xffff
 10678              	.set noreorder
 10679              	.set nomacro
 10680 4944 D400000C 	jal _SNCPURead24
 10681 4948 2D280002 	move $5,$16
 10682              	.set macro
GAS LISTING  			page 189


 10683              	.set reorder
 10684              	
 10685 494c 2D202002 	move $4,$17
 10686 4950 2D804000 	move $16,$2
 10687 4954 04002296 	lhu $2,4($17)
 10688              	$L1934:
 10689              	.set noreorder
 10690              	.set nomacro
 10691 4958 DCFE0010 	b $L1935
 10692 495c 21800202 	addu $16,$16,$2
 10693              	.set macro
 10694              	.set reorder
 10695              	
 10696              	$L128:
 10697 4960 08002292 	lbu $2,8($17)
 10698 4964 1400238E 	lw $3,20($17)
 10699              	.set noreorder
 10700              	.set nomacro
 10701 4968 6FF00010 	b $L1702
 10702 496c FB004230 	andi $2,$2,0xfb
 10703              	.set macro
 10704              	.set reorder
 10705              	
 10706              	$L955:
 10707 4970 2D288002 	move $5,$20
 10708              	.set noreorder
 10709              	.set nomacro
 10710 4974 3001000C 	jal _SNCPUFetch16
 10711 4978 2D202002 	move $4,$17
 10712              	.set macro
 10713              	.set reorder
 10714              	
 10715 497c 02009426 	addu $20,$20,2
 10716 4980 2D804000 	move $16,$2
 10717 4984 1000238E 	lw $3,16($17)
 10718 4988 04002296 	lhu $2,4($17)
 10719 498c 2D202002 	move $4,$17
 10720              	$L2065:
 10721              	.set noreorder
 10722              	.set nomacro
 10723 4990 F1FF0010 	b $L1934
 10724 4994 25800302 	or $16,$16,$3
 10725              	.set macro
 10726              	.set reorder
 10727              	
 10728              	$L1460:
 10729              	.set noreorder
 10730              	.set nomacro
 10731 4998 E5FB0010 	b $L2021
 10732 499c 04002592 	lbu $5,4($17)
 10733              	.set macro
 10734              	.set reorder
 10735              	
 10736              	$L165:
 10737 49a0 00003096 	lhu $16,0($17)
 10738 49a4 1400228E 	lw $2,20($17)
 10739 49a8 2DA80002 	move $21,$16
GAS LISTING  			page 190


 10740              	.set noreorder
 10741              	.set nomacro
 10742 49ac F4F50010 	b $L1732
 10743 49b0 0A0030A6 	sh $16,10($17)
 10744              	.set macro
 10745              	.set reorder
 10746              	
 10747              	$L1165:
 10748 49b4 2D288002 	move $5,$20
 10749              	.set noreorder
 10750              	.set nomacro
 10751 49b8 6001000C 	jal _SNCPUFetch24
 10752 49bc 2D202002 	move $4,$17
 10753              	.set macro
 10754              	.set reorder
 10755              	
 10756 49c0 2D804000 	move $16,$2
 10757              	$L2156:
 10758 49c4 FF00023C 	li $2,16711680
 10759 49c8 FFFF4234 	ori $2,$2,0xffff
 10760              	.set noreorder
 10761              	.set nomacro
 10762 49cc 5AF00010 	b $L110
 10763 49d0 24A00202 	and $20,$16,$2
 10764              	.set macro
 10765              	.set reorder
 10766              	
 10767              	$L960:
 10768 49d4 2D288002 	move $5,$20
 10769              	.set noreorder
 10770              	.set nomacro
 10771 49d8 3001000C 	jal _SNCPUFetch16
 10772 49dc 2D202002 	move $4,$17
 10773              	.set macro
 10774              	.set reorder
 10775              	
 10776 49e0 02009426 	addu $20,$20,2
 10777 49e4 2D804000 	move $16,$2
 10778 49e8 1000238E 	lw $3,16($17)
 10779 49ec 02002296 	lhu $2,2($17)
 10780              	.set noreorder
 10781              	.set nomacro
 10782 49f0 E7FF0010 	b $L2065
 10783 49f4 2D202002 	move $4,$17
 10784              	.set macro
 10785              	.set reorder
 10786              	
 10787              	$L1316:
 10788 49f8 2D288002 	move $5,$20
 10789              	.set noreorder
 10790              	.set nomacro
 10791 49fc 3001000C 	jal _SNCPUFetch16
 10792 4a00 2D202002 	move $4,$17
 10793              	.set macro
 10794              	.set reorder
 10795              	
 10796 4a04 02009426 	addu $20,$20,2
GAS LISTING  			page 191


 10797 4a08 1000238E 	lw $3,16($17)
 10798 4a0c 2D804000 	move $16,$2
 10799 4a10 02002296 	lhu $2,2($17)
 10800 4a14 2D202002 	move $4,$17
 10801 4a18 25800302 	or $16,$16,$3
 10802 4a1c 21800202 	addu $16,$16,$2
 10803              	.set noreorder
 10804              	.set nomacro
 10805 4a20 8E00000C 	jal _SNCPURead8
 10806 4a24 2D280002 	move $5,$16
 10807              	.set macro
 10808              	.set reorder
 10809              	
 10810 4a28 2D202002 	move $4,$17
 10811 4a2c 2D984000 	move $19,$2
 10812 4a30 2D280002 	move $5,$16
 10813 4a34 01005730 	andi $23,$2,0x1
 10814              	$L2083:
 10815 4a38 42981300 	srl $19,$19,1
 10816              	$L2030:
 10817 4a3c 00AA1300 	sll $21,$19,8
 10818 4a40 FF006632 	andi $6,$19,0x00ff
 10819              	.set noreorder
 10820              	.set nomacro
 10821 4a44 A601000C 	jal _SNCPUWrite8
 10822 4a48 2DB0A002 	move $22,$21
 10823              	.set macro
 10824              	.set reorder
 10825              	
 10826              	.set noreorder
 10827              	.set nomacro
 10828 4a4c ACF10010 	b $L2154
 10829 4a50 1400228E 	lw $2,20($17)
 10830              	.set macro
 10831              	.set reorder
 10832              	
 10833              	$L965:
 10834 4a54 2D288002 	move $5,$20
 10835              	.set noreorder
 10836              	.set nomacro
 10837 4a58 6001000C 	jal _SNCPUFetch24
 10838 4a5c 2D202002 	move $4,$17
 10839              	.set macro
 10840              	.set reorder
 10841              	
 10842 4a60 03009426 	addu $20,$20,3
 10843 4a64 2D804000 	move $16,$2
 10844 4a68 2D202002 	move $4,$17
 10845              	.set noreorder
 10846              	.set nomacro
 10847 4a6c BAFF0010 	b $L1934
 10848 4a70 02002296 	lhu $2,2($17)
 10849              	.set macro
 10850              	.set reorder
 10851              	
 10852              	$L1190:
 10853 4a74 2D202002 	move $4,$17
GAS LISTING  			page 192


 10854              	.set noreorder
 10855              	.set nomacro
 10856 4a78 6A02000C 	jal _SNCPUPop16
 10857 4a7c FFFF9426 	addu $20,$20,-1
 10858              	.set macro
 10859              	.set reorder
 10860              	
 10861 4a80 1400238E 	lw $3,20($17)
 10862 4a84 01005024 	addu $16,$2,1
 10863 4a88 FFFF023C 	li $2,-65536
 10864 4a8c 24A08202 	and $20,$20,$2
 10865              	.set noreorder
 10866              	.set nomacro
 10867 4a90 BEFC0010 	b $L1707
 10868 4a94 EEFF6324 	addu $3,$3,-18
 10869              	.set macro
 10870              	.set reorder
 10871              	
 10872              	$L248:
 10873 4a98 2D288002 	move $5,$20
 10874              	.set noreorder
 10875              	.set nomacro
 10876 4a9c 1A01000C 	jal _SNCPUFetch8
 10877 4aa0 2D202002 	move $4,$17
 10878              	.set macro
 10879              	.set reorder
 10880              	
 10881 4aa4 01009426 	addu $20,$20,1
 10882 4aa8 0A002396 	lhu $3,10($17)
 10883 4aac 2D804000 	move $16,$2
 10884 4ab0 02002596 	lhu $5,2($17)
 10885 4ab4 2D202002 	move $4,$17
 10886 4ab8 21800302 	addu $16,$16,$3
 10887 4abc 1400228E 	lw $2,20($17)
 10888 4ac0 FFFF1032 	andi $16,$16,0xffff
 10889 4ac4 0000A38F 	lw $3,0($sp)
 10890 4ac8 21800502 	addu $16,$16,$5
 10891 4acc FAFF4224 	addu $2,$2,-6
 10892 4ad0 24800302 	and $16,$16,$3
 10893 4ad4 140022AE 	sw $2,20($17)
 10894              	$L2143:
 10895              	.set noreorder
 10896              	.set nomacro
 10897 4ad8 A400000C 	jal _SNCPURead16
 10898 4adc 2D280002 	move $5,$16
 10899              	.set macro
 10900              	.set reorder
 10901              	
 10902 4ae0 2D202002 	move $4,$17
 10903 4ae4 2D804000 	move $16,$2
 10904 4ae8 1000228E 	lw $2,16($17)
 10905              	$L2124:
 10906 4aec 25800202 	or $16,$16,$2
 10907              	$L2119:
 10908              	.set noreorder
 10909              	.set nomacro
 10910 4af0 8E00000C 	jal _SNCPURead8
GAS LISTING  			page 193


 10911 4af4 2D280002 	move $5,$16
 10912              	.set macro
 10913              	.set reorder
 10914              	
 10915 4af8 00003292 	lbu $18,0($17)
 10916 4afc 0100E432 	andi $4,$23,0x1
 10917 4b00 2D984000 	move $19,$2
 10918 4b04 21184202 	addu $3,$18,$2
 10919 4b08 2D284002 	move $5,$18
 10920 4b0c 26104202 	xor $2,$18,$2
 10921 4b10 21906400 	addu $18,$3,$4
 10922 4b14 27100200 	nor $2,$0,$2
 10923 4b18 2618B200 	xor $3,$5,$18
 10924 4b1c 24104300 	and $2,$2,$3
 10925 4b20 80004230 	andi $2,$2,0x80
 10926              	.set noreorder
 10927              	.set nomacro
 10928 4b24 0E004010 	beq $2,$0,$L403
 10929 4b28 08002292 	lbu $2,8($17)
 10930              	.set macro
 10931              	.set reorder
 10932              	
 10933              	$L2164:
 10934 4b2c 40004234 	ori $2,$2,0x40
 10935              	$L1640:
 10936 4b30 080022A2 	sb $2,8($17)
 10937 4b34 08002292 	lbu $2,8($17)
 10938              	
 10939 4b38 08004230 	andi $2,$2,0x8
 10940              	.set noreorder
 10941              	.set nomacro
 10942 4b3c 05004050 	beql $2,$0,$L2163
 10943 4b40 000032A2 	sb $18,0($17)
 10944              	.set macro
 10945              	.set reorder
 10946              	
 10947              	.set noreorder
 10948              	.set nomacro
 10949 4b44 0000000C 	jal _SNCpuDecimalADC8
 10950 4b48 2D306002 	move $6,$19
 10951              	.set macro
 10952              	.set reorder
 10953              	
 10954 4b4c 2D904000 	move $18,$2
 10955              	$L570:
 10956 4b50 000032A2 	sb $18,0($17)
 10957              	$L2163:
 10958 4b54 00AA1200 	sll $21,$18,8
 10959              	.set noreorder
 10960              	.set nomacro
 10961 4b58 09F40010 	b $L1945
 10962 4b5c 02921200 	srl $18,$18,8
 10963              	.set macro
 10964              	.set reorder
 10965              	
 10966              	$L403:
 10967              	.set noreorder
GAS LISTING  			page 194


 10968              	.set nomacro
 10969 4b60 F3FF0010 	b $L1640
 10970 4b64 BF004230 	andi $2,$2,0xbf
 10971              	.set macro
 10972              	.set reorder
 10973              	
 10974              	$L1406:
 10975 4b68 2D288002 	move $5,$20
 10976              	.set noreorder
 10977              	.set nomacro
 10978 4b6c 3001000C 	jal _SNCPUFetch16
 10979 4b70 2D202002 	move $4,$17
 10980              	.set macro
 10981              	.set reorder
 10982              	
 10983 4b74 02009426 	addu $20,$20,2
 10984 4b78 21805400 	addu $16,$2,$20
 10985 4b7c 2D202002 	move $4,$17
 10986              	.set noreorder
 10987              	.set nomacro
 10988 4b80 0FF30010 	b $L1794
 10989 4b84 FFFF0532 	andi $5,$16,0xffff
 10990              	.set macro
 10991              	.set reorder
 10992              	
 10993              	$L259:
 10994 4b88 2D288002 	move $5,$20
 10995              	.set noreorder
 10996              	.set nomacro
 10997 4b8c 1A01000C 	jal _SNCPUFetch8
 10998 4b90 2D202002 	move $4,$17
 10999              	.set macro
 11000              	.set reorder
 11001              	
 11002 4b94 01009426 	addu $20,$20,1
 11003 4b98 2D804000 	move $16,$2
 11004 4b9c 06002396 	lhu $3,6($17)
 11005 4ba0 1400228E 	lw $2,20($17)
 11006 4ba4 2D202002 	move $4,$17
 11007 4ba8 21800302 	addu $16,$16,$3
 11008 4bac FAFF4224 	addu $2,$2,-6
 11009 4bb0 140022AE 	sw $2,20($17)
 11010              	$L2123:
 11011              	.set noreorder
 11012              	.set nomacro
 11013 4bb4 CEFF0010 	b $L2119
 11014 4bb8 FFFF1032 	andi $16,$16,0xffff
 11015              	.set macro
 11016              	.set reorder
 11017              	
 11018              	$L750:
 11019 4bbc 2D202002 	move $4,$17
 11020              	.set noreorder
 11021              	.set nomacro
 11022 4bc0 1A01000C 	jal _SNCPUFetch8
 11023 4bc4 2D288002 	move $5,$20
 11024              	.set macro
GAS LISTING  			page 195


 11025              	.set reorder
 11026              	
 11027 4bc8 01009426 	addu $20,$20,1
 11028 4bcc 2D804000 	move $16,$2
 11029 4bd0 2D202002 	move $4,$17
 11030 4bd4 0A002296 	lhu $2,10($17)
 11031 4bd8 2D300000 	move $6,$0
 11032              	$L2053:
 11033 4bdc 21800202 	addu $16,$16,$2
 11034              	$L1828:
 11035 4be0 FFFF1032 	andi $16,$16,0xffff
 11036              	$L1685:
 11037 4be4 2D280002 	move $5,$16
 11038              	$L1687:
 11039 4be8 A601000C 	jal _SNCPUWrite8
 11039      00000000 
 11040              	.set noreorder
 11041              	.set nomacro
 11042 4bf0 D2EF0010 	b $L2147
 11043 4bf4 1400228E 	lw $2,20($17)
 11044              	.set macro
 11045              	.set reorder
 11046              	
 11047              	$L270:
 11048 4bf8 2D288002 	move $5,$20
 11049              	.set noreorder
 11050              	.set nomacro
 11051 4bfc 1A01000C 	jal _SNCPUFetch8
 11052 4c00 2D202002 	move $4,$17
 11053              	.set macro
 11054              	.set reorder
 11055              	
 11056 4c04 01009426 	addu $20,$20,1
 11057 4c08 2D804000 	move $16,$2
 11058 4c0c 2D202002 	move $4,$17
 11059 4c10 0A002296 	lhu $2,10($17)
 11060              	.set noreorder
 11061              	.set nomacro
 11062 4c14 E7FF0010 	b $L2123
 11063 4c18 21800202 	addu $16,$16,$2
 11064              	.set macro
 11065              	.set reorder
 11066              	
 11067              	$L1341:
 11068 4c1c 2D288002 	move $5,$20
 11069              	.set noreorder
 11070              	.set nomacro
 11071 4c20 1A01000C 	jal _SNCPUFetch8
 11072 4c24 2D202002 	move $4,$17
 11073              	.set macro
 11074              	.set reorder
 11075              	
 11076 4c28 0100F232 	andi $18,$23,0x1
 11077 4c2c 2D804000 	move $16,$2
 11078 4c30 2D202002 	move $4,$17
 11079 4c34 0A002296 	lhu $2,10($17)
 11080 4c38 00921200 	sll $18,$18,8
GAS LISTING  			page 196


 11081 4c3c 01009426 	addu $20,$20,1
 11082 4c40 21800202 	addu $16,$16,$2
 11083 4c44 FFFF1032 	andi $16,$16,0xffff
 11084              	$L2010:
 11085              	.set noreorder
 11086              	.set nomacro
 11087 4c48 8E00000C 	jal _SNCPURead8
 11088 4c4c 2D280002 	move $5,$16
 11089              	.set macro
 11090              	.set reorder
 11091              	
 11092 4c50 2D202002 	move $4,$17
 11093 4c54 2D280002 	move $5,$16
 11094 4c58 01005730 	andi $23,$2,0x1
 11095              	.set noreorder
 11096              	.set nomacro
 11097 4c5c 6BFE0010 	b $L2011
 11098 4c60 25985200 	or $19,$2,$18
 11099              	.set macro
 11100              	.set reorder
 11101              	
 11102              	$L281:
 11103 4c64 2D288002 	move $5,$20
 11104              	.set noreorder
 11105              	.set nomacro
 11106 4c68 1A01000C 	jal _SNCPUFetch8
 11107 4c6c 2D202002 	move $4,$17
 11108              	.set macro
 11109              	.set reorder
 11110              	
 11111 4c70 01009426 	addu $20,$20,1
 11112 4c74 2D804000 	move $16,$2
 11113 4c78 2D202002 	move $4,$17
 11114 4c7c 0A002296 	lhu $2,10($17)
 11115              	
 11116 4c80 21800202 	addu $16,$16,$2
 11117 4c84 FFFF1032 	andi $16,$16,0xffff
 11118              	.set noreorder
 11119              	.set nomacro
 11120 4c88 D400000C 	jal _SNCPURead24
 11121 4c8c 2D280002 	move $5,$16
 11122              	.set macro
 11123              	.set reorder
 11124              	
 11125 4c90 2D202002 	move $4,$17
 11126              	.set noreorder
 11127              	.set nomacro
 11128 4c94 96FF0010 	b $L2119
 11129 4c98 2D804000 	move $16,$2
 11130              	.set macro
 11131              	.set reorder
 11132              	
 11133              	$L1445:
 11134              	.set noreorder
 11135              	.set nomacro
 11136 4c9c 4802000C 	jal _SNCPUPop8
 11137 4ca0 2D202002 	move $4,$17
GAS LISTING  			page 197


 11138              	.set macro
 11139              	.set reorder
 11140              	
 11141 4ca4 2D804000 	move $16,$2
 11142 4ca8 1400228E 	lw $2,20($17)
 11143 4cac 00AA1000 	sll $21,$16,8
 11144              	.set noreorder
 11145              	.set nomacro
 11146 4cb0 03F40010 	b $L2020
 11147 4cb4 000030A2 	sb $16,0($17)
 11148              	.set macro
 11149              	.set reorder
 11150              	
 11151              	$L292:
 11152 4cb8 2D288002 	move $5,$20
 11153              	.set noreorder
 11154              	.set nomacro
 11155 4cbc 1A01000C 	jal _SNCPUFetch8
 11156 4cc0 2D202002 	move $4,$17
 11157              	.set macro
 11158              	.set reorder
 11159              	
 11160 4cc4 01009426 	addu $20,$20,1
 11161 4cc8 00003292 	lbu $18,0($17)
 11162 4ccc 2D984000 	move $19,$2
 11163 4cd0 0100E432 	andi $4,$23,0x1
 11164              	$L2120:
 11165 4cd4 21105302 	addu $2,$18,$19
 11166 4cd8 2D284002 	move $5,$18
 11167 4cdc 26185302 	xor $3,$18,$19
 11168 4ce0 21904400 	addu $18,$2,$4
 11169 4ce4 27180300 	nor $3,$0,$3
 11170 4ce8 2610B200 	xor $2,$5,$18
 11171 4cec 24186200 	and $3,$3,$2
 11172 4cf0 80006330 	andi $3,$3,0x80
 11173              	.set noreorder
 11174              	.set nomacro
 11175 4cf4 8DFF6014 	bne $3,$0,$L2164
 11176 4cf8 08002292 	lbu $2,8($17)
 11177              	.set macro
 11178              	.set reorder
 11179              	
 11180              	.set noreorder
 11181              	.set nomacro
 11182 4cfc 8CFF0010 	b $L1640
 11183 4d00 BF004230 	andi $2,$2,0xbf
 11184              	.set macro
 11185              	.set reorder
 11186              	
 11187              	$L1236:
 11188 4d04 0100F232 	andi $18,$23,0x1
 11189 4d08 00003392 	lbu $19,0($17)
 11190 4d0c 1400228E 	lw $2,20($17)
 11191 4d10 00921200 	sll $18,$18,8
 11192 4d14 01007732 	andi $23,$19,0x1
 11193 4d18 25987202 	or $19,$19,$18
 11194 4d1c 42981300 	srl $19,$19,1
GAS LISTING  			page 198


 11195 4d20 FAFF4224 	addu $2,$2,-6
 11196 4d24 00AA1300 	sll $21,$19,8
 11197 4d28 140022AE 	sw $2,20($17)
 11198              	.set noreorder
 11199              	.set nomacro
 11200 4d2c D4FB0010 	b $L1680
 11201 4d30 2DB0A002 	move $22,$21
 11202              	.set macro
 11203              	.set reorder
 11204              	
 11205              	$L1195:
 11206              	.set noreorder
 11207              	.set nomacro
 11208 4d34 7C02000C 	jal _SNCPUPop24
 11209 4d38 2D202002 	move $4,$17
 11210              	.set macro
 11211              	.set reorder
 11212              	
 11213 4d3c 1400238E 	lw $3,20($17)
 11214 4d40 2D804000 	move $16,$2
 11215 4d44 FF00023C 	li $2,16711680
 11216              	.set noreorder
 11217              	.set nomacro
 11218 4d48 42FA0010 	b $L2024
 11219 4d4c 01001026 	addu $16,$16,1
 11220              	.set macro
 11221              	.set reorder
 11222              	
 11223              	$L1170:
 11224 4d50 2D288002 	move $5,$20
 11225              	.set noreorder
 11226              	.set nomacro
 11227 4d54 3001000C 	jal _SNCPUFetch16
 11228 4d58 2D202002 	move $4,$17
 11229              	.set macro
 11230              	.set reorder
 11231              	
 11232 4d5c 02009426 	addu $20,$20,2
 11233 4d60 2D284000 	move $5,$2
 11234              	.set noreorder
 11235              	.set nomacro
 11236 4d64 A400000C 	jal _SNCPURead16
 11237 4d68 2D202002 	move $4,$17
 11238              	.set macro
 11239              	.set reorder
 11240              	
 11241 4d6c FFFF9426 	addu $20,$20,-1
 11242              	.set noreorder
 11243              	.set nomacro
 11244 4d70 4FFE0010 	b $L1682
 11245 4d74 FFFF5030 	andi $16,$2,0xffff
 11246              	.set macro
 11247              	.set reorder
 11248              	
 11249              	$L303:
 11250 4d78 2D288002 	move $5,$20
 11251              	.set noreorder
GAS LISTING  			page 199


 11252              	.set nomacro
 11253 4d7c 3001000C 	jal _SNCPUFetch16
 11254 4d80 2D202002 	move $4,$17
 11255              	.set macro
 11256              	.set reorder
 11257              	
 11258 4d84 02009426 	addu $20,$20,2
 11259 4d88 2D804000 	move $16,$2
 11260 4d8c 2D202002 	move $4,$17
 11261              	.set noreorder
 11262              	.set nomacro
 11263 4d90 56FF0010 	b $L2124
 11264 4d94 1000228E 	lw $2,16($17)
 11265              	.set macro
 11266              	.set reorder
 11267              	
 11268              	$L1346:
 11269 4d98 2D288002 	move $5,$20
 11270              	.set noreorder
 11271              	.set nomacro
 11272 4d9c 3001000C 	jal _SNCPUFetch16
 11273 4da0 2D202002 	move $4,$17
 11274              	.set macro
 11275              	.set reorder
 11276              	
 11277 4da4 0100F232 	andi $18,$23,0x1
 11278 4da8 2D804000 	move $16,$2
 11279 4dac 2D202002 	move $4,$17
 11280 4db0 1000228E 	lw $2,16($17)
 11281 4db4 00921200 	sll $18,$18,8
 11282 4db8 02009426 	addu $20,$20,2
 11283              	.set noreorder
 11284              	.set nomacro
 11285 4dbc A2FF0010 	b $L2010
 11286 4dc0 25800202 	or $16,$16,$2
 11287              	.set macro
 11288              	.set reorder
 11289              	
 11290              	$L314:
 11291 4dc4 2D288002 	move $5,$20
 11292              	.set noreorder
 11293              	.set nomacro
 11294 4dc8 6001000C 	jal _SNCPUFetch24
 11295 4dcc 2D202002 	move $4,$17
 11296              	.set macro
 11297              	.set reorder
 11298              	
 11299 4dd0 03009426 	addu $20,$20,3
 11300 4dd4 2D202002 	move $4,$17
 11301              	.set noreorder
 11302              	.set nomacro
 11303 4dd8 8E00000C 	jal _SNCPURead8
 11304 4ddc 2D284000 	move $5,$2
 11305              	.set macro
 11306              	.set reorder
 11307              	
 11308 4de0 00003292 	lbu $18,0($17)
GAS LISTING  			page 200


 11309 4de4 2D984000 	move $19,$2
 11310              	.set noreorder
 11311              	.set nomacro
 11312 4de8 BAFF0010 	b $L2120
 11313 4dec 0100E432 	andi $4,$23,0x1
 11314              	.set macro
 11315              	.set reorder
 11316              	
 11317              	$L1571:
 11318 4df0 2D288002 	move $5,$20
 11319              	.set noreorder
 11320              	.set nomacro
 11321 4df4 1A01000C 	jal _SNCPUFetch8
 11322 4df8 2D202002 	move $4,$17
 11323              	.set macro
 11324              	.set reorder
 11325              	
 11326 4dfc 01009426 	addu $20,$20,1
 11327 4e00 2D184000 	move $3,$2
 11328 4e04 08002292 	lbu $2,8($17)
 11329              	.set noreorder
 11330              	.set nomacro
 11331 4e08 B5FC0010 	b $L1755
 11332 4e0c 40004230 	andi $2,$2,0x40
 11333              	.set macro
 11334              	.set reorder
 11335              	
 11336              	$L325:
 11337 4e10 2D288002 	move $5,$20
 11338              	.set noreorder
 11339              	.set nomacro
 11340 4e14 1A01000C 	jal _SNCPUFetch8
 11341 4e18 2D202002 	move $4,$17
 11342              	.set macro
 11343              	.set reorder
 11344              	
 11345 4e1c 01009426 	addu $20,$20,1
 11346 4e20 2D804000 	move $16,$2
 11347 4e24 2D202002 	move $4,$17
 11348 4e28 0A002296 	lhu $2,10($17)
 11349              	
 11350 4e2c 21800202 	addu $16,$16,$2
 11351 4e30 FFFF1032 	andi $16,$16,0xffff
 11352              	.set noreorder
 11353              	.set nomacro
 11354 4e34 A400000C 	jal _SNCPURead16
 11355 4e38 2D280002 	move $5,$16
 11356              	.set macro
 11357              	.set reorder
 11358              	
 11359 4e3c 04002396 	lhu $3,4($17)
 11360 4e40 2D804000 	move $16,$2
 11361 4e44 2D202002 	move $4,$17
 11362 4e48 1000228E 	lw $2,16($17)
 11363              	
 11364 4e4c 25800202 	or $16,$16,$2
 11365              	.set noreorder
GAS LISTING  			page 201


 11366              	.set nomacro
 11367 4e50 27FF0010 	b $L2119
 11368 4e54 21800302 	addu $16,$16,$3
 11369              	.set macro
 11370              	.set reorder
 11371              	
 11372              	$L336:
 11373 4e58 2D288002 	move $5,$20
 11374              	.set noreorder
 11375              	.set nomacro
 11376 4e5c 1A01000C 	jal _SNCPUFetch8
 11377 4e60 2D202002 	move $4,$17
 11378              	.set macro
 11379              	.set reorder
 11380              	
 11381 4e64 01009426 	addu $20,$20,1
 11382 4e68 2D804000 	move $16,$2
 11383 4e6c 2D202002 	move $4,$17
 11384 4e70 0A002296 	lhu $2,10($17)
 11385              	
 11386 4e74 21800202 	addu $16,$16,$2
 11387              	.set noreorder
 11388              	.set nomacro
 11389 4e78 17FF0010 	b $L2143
 11390 4e7c FFFF1032 	andi $16,$16,0xffff
 11391              	.set macro
 11392              	.set reorder
 11393              	
 11394              	$L347:
 11395 4e80 2D288002 	move $5,$20
 11396              	.set noreorder
 11397              	.set nomacro
 11398 4e84 1A01000C 	jal _SNCPUFetch8
 11399 4e88 2D202002 	move $4,$17
 11400              	.set macro
 11401              	.set reorder
 11402              	
 11403 4e8c 01009426 	addu $20,$20,1
 11404 4e90 06002396 	lhu $3,6($17)
 11405 4e94 2D804000 	move $16,$2
 11406 4e98 1400228E 	lw $2,20($17)
 11407 4e9c 2D202002 	move $4,$17
 11408 4ea0 21800302 	addu $16,$16,$3
 11409 4ea4 FAFF4224 	addu $2,$2,-6
 11410 4ea8 FFFF1032 	andi $16,$16,0xffff
 11411 4eac 140022AE 	sw $2,20($17)
 11412              	.set noreorder
 11413              	.set nomacro
 11414 4eb0 A400000C 	jal _SNCPURead16
 11415 4eb4 2D280002 	move $5,$16
 11416              	.set macro
 11417              	.set reorder
 11418              	
 11419 4eb8 04002596 	lhu $5,4($17)
 11420 4ebc 1000238E 	lw $3,16($17)
 11421 4ec0 2D804000 	move $16,$2
 11422 4ec4 1400228E 	lw $2,20($17)
GAS LISTING  			page 202


 11423 4ec8 2D202002 	move $4,$17
 11424 4ecc 25800302 	or $16,$16,$3
 11425 4ed0 FAFF4224 	addu $2,$2,-6
 11426 4ed4 21800502 	addu $16,$16,$5
 11427              	.set noreorder
 11428              	.set nomacro
 11429 4ed8 05FF0010 	b $L2119
 11430 4edc 140022AE 	sw $2,20($17)
 11431              	.set macro
 11432              	.set reorder
 11433              	
 11434              	$L755:
 11435 4ee0 2D288002 	move $5,$20
 11436              	.set noreorder
 11437              	.set nomacro
 11438 4ee4 1A01000C 	jal _SNCPUFetch8
 11439 4ee8 2D202002 	move $4,$17
 11440              	.set macro
 11441              	.set reorder
 11442              	
 11443 4eec 01009426 	addu $20,$20,1
 11444 4ef0 2D804000 	move $16,$2
 11445 4ef4 1400238E 	lw $3,20($17)
 11446 4ef8 0A002296 	lhu $2,10($17)
 11447 4efc 2D202002 	move $4,$17
 11448 4f00 02002596 	lhu $5,2($17)
 11449 4f04 FAFF6324 	addu $3,$3,-6
 11450 4f08 21800202 	addu $16,$16,$2
 11451 4f0c 140023AE 	sw $3,20($17)
 11452 4f10 FFFF1032 	andi $16,$16,0xffff
 11453 4f14 2D300000 	move $6,$0
 11454 4f18 21800502 	addu $16,$16,$5
 11455              	$L1830:
 11456 4f1c 0000A38F 	lw $3,0($sp)
 11457              	.set noreorder
 11458              	.set nomacro
 11459 4f20 30FF0010 	b $L1685
 11460 4f24 24800302 	and $16,$16,$3
 11461              	.set macro
 11462              	.set reorder
 11463              	
 11464              	$L358:
 11465 4f28 2D288002 	move $5,$20
 11466              	.set noreorder
 11467              	.set nomacro
 11468 4f2c 1A01000C 	jal _SNCPUFetch8
 11469 4f30 2D202002 	move $4,$17
 11470              	.set macro
 11471              	.set reorder
 11472              	
 11473 4f34 01009426 	addu $20,$20,1
 11474 4f38 0A002396 	lhu $3,10($17)
 11475 4f3c 2D804000 	move $16,$2
 11476 4f40 02002596 	lhu $5,2($17)
 11477 4f44 2D202002 	move $4,$17
 11478 4f48 21800302 	addu $16,$16,$3
 11479 4f4c 1400228E 	lw $2,20($17)
GAS LISTING  			page 203


 11480 4f50 FFFF1032 	andi $16,$16,0xffff
 11481 4f54 0000A38F 	lw $3,0($sp)
 11482 4f58 21800502 	addu $16,$16,$5
 11483 4f5c FAFF4224 	addu $2,$2,-6
 11484 4f60 24800302 	and $16,$16,$3
 11485              	.set noreorder
 11486              	.set nomacro
 11487 4f64 E2FE0010 	b $L2119
 11488 4f68 140022AE 	sw $2,20($17)
 11489              	.set macro
 11490              	.set reorder
 11491              	
 11492              	$L1351:
 11493 4f6c 2D288002 	move $5,$20
 11494              	.set noreorder
 11495              	.set nomacro
 11496 4f70 1A01000C 	jal _SNCPUFetch8
 11497 4f74 2D202002 	move $4,$17
 11498              	.set macro
 11499              	.set reorder
 11500              	
 11501 4f78 0100F232 	andi $18,$23,0x1
 11502 4f7c 0A002596 	lhu $5,10($17)
 11503 4f80 2D804000 	move $16,$2
 11504 4f84 02002396 	lhu $3,2($17)
 11505 4f88 2D202002 	move $4,$17
 11506 4f8c 1400228E 	lw $2,20($17)
 11507 4f90 21800502 	addu $16,$16,$5
 11508 4f94 FFFF1032 	andi $16,$16,0xffff
 11509 4f98 00921200 	sll $18,$18,8
 11510 4f9c 21800302 	addu $16,$16,$3
 11511 4fa0 FAFF4224 	addu $2,$2,-6
 11512 4fa4 0000A38F 	lw $3,0($sp)
 11513 4fa8 01009426 	addu $20,$20,1
 11514 4fac 140022AE 	sw $2,20($17)
 11515              	.set noreorder
 11516              	.set nomacro
 11517 4fb0 25FF0010 	b $L2010
 11518 4fb4 24800302 	and $16,$16,$3
 11519              	.set macro
 11520              	.set reorder
 11521              	
 11522              	$L369:
 11523 4fb8 2D288002 	move $5,$20
 11524              	.set noreorder
 11525              	.set nomacro
 11526 4fbc 1A01000C 	jal _SNCPUFetch8
 11527 4fc0 2D202002 	move $4,$17
 11528              	.set macro
 11529              	.set reorder
 11530              	
 11531 4fc4 01009426 	addu $20,$20,1
 11532 4fc8 2D804000 	move $16,$2
 11533 4fcc 2D202002 	move $4,$17
 11534 4fd0 0A002296 	lhu $2,10($17)
 11535              	
 11536 4fd4 21800202 	addu $16,$16,$2
GAS LISTING  			page 204


 11537 4fd8 FFFF1032 	andi $16,$16,0xffff
 11538              	.set noreorder
 11539              	.set nomacro
 11540 4fdc D400000C 	jal _SNCPURead24
 11541 4fe0 2D280002 	move $5,$16
 11542              	.set macro
 11543              	.set reorder
 11544              	
 11545 4fe4 2D202002 	move $4,$17
 11546 4fe8 2D804000 	move $16,$2
 11547 4fec 04002296 	lhu $2,4($17)
 11548              	$L2118:
 11549              	.set noreorder
 11550              	.set nomacro
 11551 4ff0 BFFE0010 	b $L2119
 11552 4ff4 21800202 	addu $16,$16,$2
 11553              	.set macro
 11554              	.set reorder
 11555              	
 11556              	$L380:
 11557 4ff8 2D288002 	move $5,$20
 11558              	.set noreorder
 11559              	.set nomacro
 11560 4ffc 3001000C 	jal _SNCPUFetch16
 11561 5000 2D202002 	move $4,$17
 11562              	.set macro
 11563              	.set reorder
 11564              	
 11565 5004 02009426 	addu $20,$20,2
 11566 5008 2D804000 	move $16,$2
 11567 500c 1000238E 	lw $3,16($17)
 11568 5010 04002296 	lhu $2,4($17)
 11569 5014 2D202002 	move $4,$17
 11570              	$L2121:
 11571              	.set noreorder
 11572              	.set nomacro
 11573 5018 F5FF0010 	b $L2118
 11574 501c 25800302 	or $16,$16,$3
 11575              	.set macro
 11576              	.set reorder
 11577              	
 11578              	$L1465:
 11579              	.set noreorder
 11580              	.set nomacro
 11581 5020 4802000C 	jal _SNCPUPop8
 11582 5024 2D202002 	move $4,$17
 11583              	.set macro
 11584              	.set reorder
 11585              	
 11586 5028 2D804000 	move $16,$2
 11587 502c 1400228E 	lw $2,20($17)
 11588 5030 00AA1000 	sll $21,$16,8
 11589              	.set noreorder
 11590              	.set nomacro
 11591 5034 22F30010 	b $L2020
 11592 5038 040030A2 	sb $16,4($17)
 11593              	.set macro
GAS LISTING  			page 205


 11594              	.set reorder
 11595              	
 11596              	$L170:
 11597              	.set noreorder
 11598              	.set nomacro
 11599 503c 4DF40010 	b $L1802
 11600 5040 0A003096 	lhu $16,10($17)
 11601              	.set macro
 11602              	.set reorder
 11603              	
 11604              	$L1185:
 11605 5044 2D288002 	move $5,$20
 11606              	.set noreorder
 11607              	.set nomacro
 11608 5048 3001000C 	jal _SNCPUFetch16
 11609 504c 2D202002 	move $4,$17
 11610              	.set macro
 11611              	.set reorder
 11612              	
 11613 5050 02009426 	addu $20,$20,2
 11614 5054 2D804000 	move $16,$2
 11615 5058 029C1400 	srl $19,$20,16
 11616 505c 02002296 	lhu $2,2($17)
 11617 5060 009C1300 	sll $19,$19,16
 11618 5064 2D202002 	move $4,$17
 11619 5068 FFFF9426 	addu $20,$20,-1
 11620 506c 21800202 	addu $16,$16,$2
 11621 5070 FFFF1032 	andi $16,$16,0xffff
 11622 5074 25801302 	or $16,$16,$19
 11623              	.set noreorder
 11624              	.set nomacro
 11625 5078 A400000C 	jal _SNCPURead16
 11626 507c 2D280002 	move $5,$16
 11627              	.set macro
 11628              	.set reorder
 11629              	
 11630 5080 1400238E 	lw $3,20($17)
 11631 5084 FFFF5030 	andi $16,$2,0xffff
 11632 5088 FFFF023C 	li $2,-65536
 11633              	.set noreorder
 11634              	.set nomacro
 11635 508c 3EFB0010 	b $L1705
 11636 5090 24A08202 	and $20,$20,$2
 11637              	.set macro
 11638              	.set reorder
 11639              	
 11640              	$L391:
 11641 5094 2D288002 	move $5,$20
 11642              	.set noreorder
 11643              	.set nomacro
 11644 5098 3001000C 	jal _SNCPUFetch16
 11645 509c 2D202002 	move $4,$17
 11646              	.set macro
 11647              	.set reorder
 11648              	
 11649 50a0 02009426 	addu $20,$20,2
 11650 50a4 2D804000 	move $16,$2
GAS LISTING  			page 206


 11651 50a8 1000238E 	lw $3,16($17)
 11652 50ac 02002296 	lhu $2,2($17)
 11653              	.set noreorder
 11654              	.set nomacro
 11655 50b0 D9FF0010 	b $L2121
 11656 50b4 2D202002 	move $4,$17
 11657              	.set macro
 11658              	.set reorder
 11659              	
 11660              	$L1356:
 11661 50b8 2D288002 	move $5,$20
 11662              	.set noreorder
 11663              	.set nomacro
 11664 50bc 3001000C 	jal _SNCPUFetch16
 11665 50c0 2D202002 	move $4,$17
 11666              	.set macro
 11667              	.set reorder
 11668              	
 11669 50c4 0100F232 	andi $18,$23,0x1
 11670 50c8 2D804000 	move $16,$2
 11671 50cc 02002396 	lhu $3,2($17)
 11672 50d0 1000228E 	lw $2,16($17)
 11673 50d4 2D202002 	move $4,$17
 11674 50d8 00921200 	sll $18,$18,8
 11675 50dc 02009426 	addu $20,$20,2
 11676 50e0 25800202 	or $16,$16,$2
 11677 50e4 21800302 	addu $16,$16,$3
 11678              	.set noreorder
 11679              	.set nomacro
 11680 50e8 8E00000C 	jal _SNCPURead8
 11681 50ec 2D280002 	move $5,$16
 11682              	.set macro
 11683              	.set reorder
 11684              	
 11685 50f0 2D202002 	move $4,$17
 11686 50f4 2D280002 	move $5,$16
 11687 50f8 01005730 	andi $23,$2,0x1
 11688              	.set noreorder
 11689              	.set nomacro
 11690 50fc 4EFE0010 	b $L2083
 11691 5100 25985200 	or $19,$2,$18
 11692              	.set macro
 11693              	.set reorder
 11694              	
 11695              	$L402:
 11696 5104 2D288002 	move $5,$20
 11697              	.set noreorder
 11698              	.set nomacro
 11699 5108 6001000C 	jal _SNCPUFetch24
 11700 510c 2D202002 	move $4,$17
 11701              	.set macro
 11702              	.set reorder
 11703              	
 11704 5110 03009426 	addu $20,$20,3
 11705 5114 2D804000 	move $16,$2
 11706 5118 2D202002 	move $4,$17
 11707              	.set noreorder
GAS LISTING  			page 207


 11708              	.set nomacro
 11709 511c B4FF0010 	b $L2118
 11710 5120 02002296 	lhu $2,2($17)
 11711              	.set macro
 11712              	.set reorder
 11713              	
 11714              	$L1577:
 11715 5124 2D288002 	move $5,$20
 11716              	.set noreorder
 11717              	.set nomacro
 11718 5128 1A01000C 	jal _SNCPUFetch8
 11719 512c 2D202002 	move $4,$17
 11720              	.set macro
 11721              	.set reorder
 11722              	
 11723 5130 01009426 	addu $20,$20,1
 11724              	.set noreorder
 11725              	.set nomacro
 11726 5134 3EFA0010 	b $L1674
 11727 5138 00160200 	sll $2,$2,24
 11728              	.set macro
 11729              	.set reorder
 11730              	
 11731              	$L665:
 11732 513c 2D288002 	move $5,$20
 11733              	.set noreorder
 11734              	.set nomacro
 11735 5140 1A01000C 	jal _SNCPUFetch8
 11736 5144 2D202002 	move $4,$17
 11737              	.set macro
 11738              	.set reorder
 11739              	
 11740 5148 01009426 	addu $20,$20,1
 11741 514c 0A002396 	lhu $3,10($17)
 11742 5150 2D804000 	move $16,$2
 11743 5154 02002596 	lhu $5,2($17)
 11744 5158 2D202002 	move $4,$17
 11745 515c 21800302 	addu $16,$16,$3
 11746 5160 1400228E 	lw $2,20($17)
 11747 5164 FFFF1032 	andi $16,$16,0xffff
 11748 5168 0000A38F 	lw $3,0($sp)
 11749 516c 21800502 	addu $16,$16,$5
 11750 5170 FAFF4224 	addu $2,$2,-6
 11751 5174 24800302 	and $16,$16,$3
 11752 5178 140022AE 	sw $2,20($17)
 11753              	$L1819:
 11754              	.set noreorder
 11755              	.set nomacro
 11756 517c A400000C 	jal _SNCPURead16
 11757 5180 2D280002 	move $5,$16
 11758              	.set macro
 11759              	.set reorder
 11760              	
 11761 5184 2D202002 	move $4,$17
 11762 5188 2D804000 	move $16,$2
 11763 518c 1000228E 	lw $2,16($17)
 11764              	$L2088:
GAS LISTING  			page 208


 11765 5190 00002692 	lbu $6,0($17)
 11766              	$L1829:
 11767              	.set noreorder
 11768              	.set nomacro
 11769 5194 93FE0010 	b $L1685
 11770 5198 25800202 	or $16,$16,$2
 11771              	.set macro
 11772              	.set reorder
 11773              	
 11774              	$L1583:
 11775 519c 2D288002 	move $5,$20
 11776              	.set noreorder
 11777              	.set nomacro
 11778 51a0 3001000C 	jal _SNCPUFetch16
 11779 51a4 2D202002 	move $4,$17
 11780              	.set macro
 11781              	.set reorder
 11782              	
 11783 51a8 02009426 	addu $20,$20,2
 11784 51ac 00140200 	sll $2,$2,16
 11785 51b0 1400248E 	lw $4,20($17)
 11786 51b4 03140200 	sra $2,$2,16
 11787 51b8 FF00033C 	li $3,16711680
 11788 51bc 21105400 	addu $2,$2,$20
 11789 51c0 24188302 	and $3,$20,$3
 11790 51c4 FFFF4230 	andi $2,$2,0xffff
 11791 51c8 FAFF8424 	addu $4,$4,-6
 11792              	.set noreorder
 11793              	.set nomacro
 11794 51cc 8CF70010 	b $L1673
 11795 51d0 21A06200 	addu $20,$3,$2
 11796              	.set macro
 11797              	.set reorder
 11798              	
 11799              	$L670:
 11800 51d4 2D202002 	move $4,$17
 11801              	.set noreorder
 11802              	.set nomacro
 11803 51d8 1A01000C 	jal _SNCPUFetch8
 11804 51dc 2D288002 	move $5,$20
 11805              	.set macro
 11806              	.set reorder
 11807              	
 11808 51e0 01009426 	addu $20,$20,1
 11809 51e4 2D804000 	move $16,$2
 11810 51e8 06002396 	lhu $3,6($17)
 11811 51ec 1400228E 	lw $2,20($17)
 11812 51f0 2D202002 	move $4,$17
 11813 51f4 00002692 	lbu $6,0($17)
 11814 51f8 21800302 	addu $16,$16,$3
 11815 51fc FAFF4224 	addu $2,$2,-6
 11816              	.set noreorder
 11817              	.set nomacro
 11818 5200 77FE0010 	b $L1828
 11819 5204 140022AE 	sw $2,20($17)
 11820              	.set macro
 11821              	.set reorder
GAS LISTING  			page 209


 11822              	
 11823              	$L735:
 11824 5208 2D202002 	move $4,$17
 11825              	.set noreorder
 11826              	.set nomacro
 11827 520c 1A01000C 	jal _SNCPUFetch8
 11828 5210 2D288002 	move $5,$20
 11829              	.set macro
 11830              	.set reorder
 11831              	
 11832 5214 01009426 	addu $20,$20,1
 11833 5218 2D804000 	move $16,$2
 11834 521c 04002692 	lbu $6,4($17)
 11835 5220 0A002296 	lhu $2,10($17)
 11836              	.set noreorder
 11837              	.set nomacro
 11838 5224 6DFE0010 	b $L2053
 11839 5228 2D202002 	move $4,$17
 11840              	.set macro
 11841              	.set reorder
 11842              	
 11843              	$L675:
 11844 522c 2D202002 	move $4,$17
 11845              	.set noreorder
 11846              	.set nomacro
 11847 5230 1A01000C 	jal _SNCPUFetch8
 11848 5234 2D288002 	move $5,$20
 11849              	.set macro
 11850              	.set reorder
 11851              	
 11852 5238 01009426 	addu $20,$20,1
 11853 523c 2D804000 	move $16,$2
 11854 5240 00002692 	lbu $6,0($17)
 11855 5244 0A002296 	lhu $2,10($17)
 11856              	.set noreorder
 11857              	.set nomacro
 11858 5248 64FE0010 	b $L2053
 11859 524c 2D202002 	move $4,$17
 11860              	.set macro
 11861              	.set reorder
 11862              	
 11863              	$L720:
 11864 5250 2D202002 	move $4,$17
 11865              	.set noreorder
 11866              	.set nomacro
 11867 5254 1A01000C 	jal _SNCPUFetch8
 11868 5258 2D288002 	move $5,$20
 11869              	.set macro
 11870              	.set reorder
 11871              	
 11872 525c 01009426 	addu $20,$20,1
 11873 5260 2D804000 	move $16,$2
 11874 5264 02002692 	lbu $6,2($17)
 11875 5268 0A002296 	lhu $2,10($17)
 11876              	.set noreorder
 11877              	.set nomacro
 11878 526c 5BFE0010 	b $L2053
GAS LISTING  			page 210


 11879 5270 2D202002 	move $4,$17
 11880              	.set macro
 11881              	.set reorder
 11882              	
 11883              	$L680:
 11884 5274 2D288002 	move $5,$20
 11885              	.set noreorder
 11886              	.set nomacro
 11887 5278 1A01000C 	jal _SNCPUFetch8
 11888 527c 2D202002 	move $4,$17
 11889              	.set macro
 11890              	.set reorder
 11891              	
 11892 5280 01009426 	addu $20,$20,1
 11893 5284 2D804000 	move $16,$2
 11894 5288 2D202002 	move $4,$17
 11895 528c 0A002296 	lhu $2,10($17)
 11896              	
 11897 5290 21800202 	addu $16,$16,$2
 11898 5294 FFFF1032 	andi $16,$16,0xffff
 11899              	.set noreorder
 11900              	.set nomacro
 11901 5298 D400000C 	jal _SNCPURead24
 11902 529c 2D280002 	move $5,$16
 11903              	.set macro
 11904              	.set reorder
 11905              	
 11906 52a0 00002692 	lbu $6,0($17)
 11907 52a4 2D804000 	move $16,$2
 11908              	.set noreorder
 11909              	.set nomacro
 11910 52a8 4EFE0010 	b $L1685
 11911 52ac 2D202002 	move $4,$17
 11912              	.set macro
 11913              	.set reorder
 11914              	
 11915              	$L230:
 11916 52b0 04003392 	lbu $19,4($17)
 11917 52b4 1400228E 	lw $2,20($17)
 11918 52b8 FFFF7326 	addu $19,$19,-1
 11919              	$L1689:
 11920 52bc 00AA1300 	sll $21,$19,8
 11921 52c0 FAFF4224 	addu $2,$2,-6
 11922 52c4 2DB0A002 	move $22,$21
 11923 52c8 140022AE 	sw $2,20($17)
 11924              	.set noreorder
 11925              	.set nomacro
 11926 52cc 1AEE0010 	b $L110
 11927 52d0 040033A2 	sb $19,4($17)
 11928              	.set macro
 11929              	.set reorder
 11930              	
 11931              	$L1381:
 11932 52d4 2D288002 	move $5,$20
 11933              	.set noreorder
 11934              	.set nomacro
 11935 52d8 1A01000C 	jal _SNCPUFetch8
GAS LISTING  			page 211


 11936 52dc 2D202002 	move $4,$17
 11937              	.set macro
 11938              	.set reorder
 11939              	
 11940 52e0 01009426 	addu $20,$20,1
 11941 52e4 00003292 	lbu $18,0($17)
 11942              	
 11943 52e8 24904202 	and $18,$18,$2
 11944              	.set noreorder
 11945              	.set nomacro
 11946 52ec 12EE0010 	b $L110
 11947 52f0 00AA1200 	sll $21,$18,8
 11948              	.set macro
 11949              	.set reorder
 11950              	
 11951              	$L185:
 11952 52f4 02003092 	lbu $16,2($17)
 11953              	$L1801:
 11954 52f8 1400228E 	lw $2,20($17)
 11955 52fc 00AA1000 	sll $21,$16,8
 11956              	.set noreorder
 11957              	.set nomacro
 11958 5300 9FF30010 	b $L1732
 11959 5304 000030A2 	sb $16,0($17)
 11960              	.set macro
 11961              	.set reorder
 11962              	
 11963              	$L1480:
 11964              	.set noreorder
 11965              	.set nomacro
 11966 5308 89F90010 	b $L2021
 11967 530c 12002592 	lbu $5,18($17)
 11968              	.set macro
 11969              	.set reorder
 11970              	
 11971              	$L740:
 11972 5310 2D202002 	move $4,$17
 11973              	.set noreorder
 11974              	.set nomacro
 11975 5314 3001000C 	jal _SNCPUFetch16
 11976 5318 2D288002 	move $5,$20
 11977              	.set macro
 11978              	.set reorder
 11979              	
 11980 531c 02009426 	addu $20,$20,2
 11981 5320 2D804000 	move $16,$2
 11982 5324 04002692 	lbu $6,4($17)
 11983 5328 1000228E 	lw $2,16($17)
 11984              	.set noreorder
 11985              	.set nomacro
 11986 532c 99FF0010 	b $L1829
 11987 5330 2D202002 	move $4,$17
 11988              	.set macro
 11989              	.set reorder
 11990              	
 11991              	$L650:
 11992 5334 2D202002 	move $4,$17
GAS LISTING  			page 212


 11993              	.set noreorder
 11994              	.set nomacro
 11995 5338 3001000C 	jal _SNCPUFetch16
 11996 533c 2D288002 	move $5,$20
 11997              	.set macro
 11998              	.set reorder
 11999              	
 12000 5340 02009426 	addu $20,$20,2
 12001 5344 2D804000 	move $16,$2
 12002 5348 2D202002 	move $4,$17
 12003              	.set noreorder
 12004              	.set nomacro
 12005 534c 90FF0010 	b $L2088
 12006 5350 1000228E 	lw $2,16($17)
 12007              	.set macro
 12008              	.set reorder
 12009              	
 12010              	$L725:
 12011 5354 2D202002 	move $4,$17
 12012              	.set noreorder
 12013              	.set nomacro
 12014 5358 3001000C 	jal _SNCPUFetch16
 12015 535c 2D288002 	move $5,$20
 12016              	.set macro
 12017              	.set reorder
 12018              	
 12019 5360 02009426 	addu $20,$20,2
 12020 5364 2D804000 	move $16,$2
 12021 5368 02002692 	lbu $6,2($17)
 12022 536c 1000228E 	lw $2,16($17)
 12023              	.set noreorder
 12024              	.set nomacro
 12025 5370 88FF0010 	b $L1829
 12026 5374 2D202002 	move $4,$17
 12027              	.set macro
 12028              	.set reorder
 12029              	
 12030              	$L655:
 12031 5378 2D288002 	move $5,$20
 12032              	.set noreorder
 12033              	.set nomacro
 12034 537c 6001000C 	jal _SNCPUFetch24
 12035 5380 2D202002 	move $4,$17
 12036              	.set macro
 12037              	.set reorder
 12038              	
 12039 5384 03009426 	addu $20,$20,3
 12040 5388 00002692 	lbu $6,0($17)
 12041 538c 2D284000 	move $5,$2
 12042              	.set noreorder
 12043              	.set nomacro
 12044 5390 15FE0010 	b $L1687
 12045 5394 2D202002 	move $4,$17
 12046              	.set macro
 12047              	.set reorder
 12048              	
 12049              	$L1553:
GAS LISTING  			page 213


 12050 5398 2D288002 	move $5,$20
 12051              	.set noreorder
 12052              	.set nomacro
 12053 539c 1A01000C 	jal _SNCPUFetch8
 12054 53a0 2D202002 	move $4,$17
 12055              	.set macro
 12056              	.set reorder
 12057              	
 12058              	.set noreorder
 12059              	.set nomacro
 12060 53a4 E4EDE016 	bne $23,$0,$L110
 12061 53a8 01009426 	addu $20,$20,1
 12062              	.set macro
 12063              	.set reorder
 12064              	
 12065              	.set noreorder
 12066              	.set nomacro
 12067 53ac A0F90010 	b $L1674
 12068 53b0 00160200 	sll $2,$2,24
 12069              	.set macro
 12070              	.set reorder
 12071              	
 12072              	$L685:
 12073 53b4 2D202002 	move $4,$17
 12074              	.set noreorder
 12075              	.set nomacro
 12076 53b8 1A01000C 	jal _SNCPUFetch8
 12077 53bc 2D288002 	move $5,$20
 12078              	.set macro
 12079              	.set reorder
 12080              	
 12081 53c0 01009426 	addu $20,$20,1
 12082 53c4 2D804000 	move $16,$2
 12083 53c8 2D202002 	move $4,$17
 12084 53cc 0A002296 	lhu $2,10($17)
 12085              	
 12086 53d0 21800202 	addu $16,$16,$2
 12087              	$L2050:
 12088 53d4 FFFF1032 	andi $16,$16,0xffff
 12089              	.set noreorder
 12090              	.set nomacro
 12091 53d8 A400000C 	jal _SNCPURead16
 12092 53dc 2D280002 	move $5,$16
 12093              	.set macro
 12094              	.set reorder
 12095              	
 12096 53e0 2D202002 	move $4,$17
 12097 53e4 2D804000 	move $16,$2
 12098 53e8 1400228E 	lw $2,20($17)
 12099              	$L2051:
 12100 53ec 1000238E 	lw $3,16($17)
 12101 53f0 04002596 	lhu $5,4($17)
 12102              	$L1831:
 12103 53f4 00002692 	lbu $6,0($17)
 12104 53f8 FAFF4224 	addu $2,$2,-6
 12105 53fc 25800302 	or $16,$16,$3
 12106              	$L1822:
GAS LISTING  			page 214


 12107 5400 140022AE 	sw $2,20($17)
 12108              	.set noreorder
 12109              	.set nomacro
 12110 5404 F7FD0010 	b $L1685
 12111 5408 21800502 	addu $16,$16,$5
 12112              	.set macro
 12113              	.set reorder
 12114              	
 12115              	$L690:
 12116 540c 2D202002 	move $4,$17
 12117              	.set noreorder
 12118              	.set nomacro
 12119 5410 1A01000C 	jal _SNCPUFetch8
 12120 5414 2D288002 	move $5,$20
 12121              	.set macro
 12122              	.set reorder
 12123              	
 12124 5418 01009426 	addu $20,$20,1
 12125 541c 2D804000 	move $16,$2
 12126 5420 2D202002 	move $4,$17
 12127 5424 0A002296 	lhu $2,10($17)
 12128              	
 12129 5428 21800202 	addu $16,$16,$2
 12130              	.set noreorder
 12131              	.set nomacro
 12132 542c 53FF0010 	b $L1819
 12133 5430 FFFF1032 	andi $16,$16,0xffff
 12134              	.set macro
 12135              	.set reorder
 12136              	
 12137              	$L695:
 12138 5434 2D202002 	move $4,$17
 12139              	.set noreorder
 12140              	.set nomacro
 12141 5438 1A01000C 	jal _SNCPUFetch8
 12142 543c 2D288002 	move $5,$20
 12143              	.set macro
 12144              	.set reorder
 12145              	
 12146 5440 01009426 	addu $20,$20,1
 12147 5444 2D804000 	move $16,$2
 12148 5448 06002396 	lhu $3,6($17)
 12149 544c 1400228E 	lw $2,20($17)
 12150 5450 2D202002 	move $4,$17
 12151 5454 21800302 	addu $16,$16,$3
 12152 5458 FAFF4224 	addu $2,$2,-6
 12153              	.set noreorder
 12154              	.set nomacro
 12155 545c DDFF0010 	b $L2050
 12156 5460 140022AE 	sw $2,20($17)
 12157              	.set macro
 12158              	.set reorder
 12159              	
 12160              	$L745:
 12161 5464 2D288002 	move $5,$20
 12162              	.set noreorder
 12163              	.set nomacro
GAS LISTING  			page 215


 12164 5468 1A01000C 	jal _SNCPUFetch8
 12165 546c 2D202002 	move $4,$17
 12166              	.set macro
 12167              	.set reorder
 12168              	
 12169 5470 01009426 	addu $20,$20,1
 12170 5474 0A002396 	lhu $3,10($17)
 12171 5478 2D804000 	move $16,$2
 12172 547c 02002596 	lhu $5,2($17)
 12173 5480 2D202002 	move $4,$17
 12174 5484 1400228E 	lw $2,20($17)
 12175 5488 21800302 	addu $16,$16,$3
 12176 548c FFFF1032 	andi $16,$16,0xffff
 12177 5490 04002692 	lbu $6,4($17)
 12178 5494 FAFF4224 	addu $2,$2,-6
 12179 5498 21800502 	addu $16,$16,$5
 12180              	$L1827:
 12181              	.set noreorder
 12182              	.set nomacro
 12183 549c 9FFE0010 	b $L1830
 12184 54a0 140022AE 	sw $2,20($17)
 12185              	.set macro
 12186              	.set reorder
 12187              	
 12188              	$L700:
 12189 54a4 2D288002 	move $5,$20
 12190              	.set noreorder
 12191              	.set nomacro
 12192 54a8 1A01000C 	jal _SNCPUFetch8
 12193 54ac 2D202002 	move $4,$17
 12194              	.set macro
 12195              	.set reorder
 12196              	
 12197 54b0 01009426 	addu $20,$20,1
 12198 54b4 0A002396 	lhu $3,10($17)
 12199 54b8 2D804000 	move $16,$2
 12200 54bc 02002596 	lhu $5,2($17)
 12201 54c0 2D202002 	move $4,$17
 12202 54c4 1400228E 	lw $2,20($17)
 12203 54c8 21800302 	addu $16,$16,$3
 12204 54cc FFFF1032 	andi $16,$16,0xffff
 12205 54d0 00002692 	lbu $6,0($17)
 12206 54d4 FAFF4224 	addu $2,$2,-6
 12207              	.set noreorder
 12208              	.set nomacro
 12209 54d8 F0FF0010 	b $L1827
 12210 54dc 21800502 	addu $16,$16,$5
 12211              	.set macro
 12212              	.set reorder
 12213              	
 12214              	$L730:
 12215 54e0 2D288002 	move $5,$20
 12216              	.set noreorder
 12217              	.set nomacro
 12218 54e4 1A01000C 	jal _SNCPUFetch8
 12219 54e8 2D202002 	move $4,$17
 12220              	.set macro
GAS LISTING  			page 216


 12221              	.set reorder
 12222              	
 12223 54ec 01009426 	addu $20,$20,1
 12224 54f0 0A002396 	lhu $3,10($17)
 12225 54f4 2D804000 	move $16,$2
 12226 54f8 04002596 	lhu $5,4($17)
 12227 54fc 2D202002 	move $4,$17
 12228 5500 1400228E 	lw $2,20($17)
 12229 5504 21800302 	addu $16,$16,$3
 12230 5508 FFFF1032 	andi $16,$16,0xffff
 12231 550c 02002692 	lbu $6,2($17)
 12232 5510 FAFF4224 	addu $2,$2,-6
 12233              	.set noreorder
 12234              	.set nomacro
 12235 5514 E1FF0010 	b $L1827
 12236 5518 21800502 	addu $16,$16,$5
 12237              	.set macro
 12238              	.set reorder
 12239              	
 12240              	$L705:
 12241 551c 2D288002 	move $5,$20
 12242              	.set noreorder
 12243              	.set nomacro
 12244 5520 1A01000C 	jal _SNCPUFetch8
 12245 5524 2D202002 	move $4,$17
 12246              	.set macro
 12247              	.set reorder
 12248              	
 12249 5528 01009426 	addu $20,$20,1
 12250 552c 2D804000 	move $16,$2
 12251 5530 2D202002 	move $4,$17
 12252 5534 0A002296 	lhu $2,10($17)
 12253              	
 12254 5538 21800202 	addu $16,$16,$2
 12255 553c FFFF1032 	andi $16,$16,0xffff
 12256              	.set noreorder
 12257              	.set nomacro
 12258 5540 D400000C 	jal _SNCPURead24
 12259 5544 2D280002 	move $5,$16
 12260              	.set macro
 12261              	.set reorder
 12262              	
 12263 5548 2D202002 	move $4,$17
 12264 554c 2D804000 	move $16,$2
 12265 5550 04002296 	lhu $2,4($17)
 12266              	$L1818:
 12267 5554 00002692 	lbu $6,0($17)
 12268              	.set noreorder
 12269              	.set nomacro
 12270 5558 A2FD0010 	b $L1685
 12271 555c 21800202 	addu $16,$16,$2
 12272              	.set macro
 12273              	.set reorder
 12274              	
 12275              	$L190:
 12276              	.set noreorder
 12277              	.set nomacro
GAS LISTING  			page 217


 12278 5560 65FF0010 	b $L1801
 12279 5564 04003092 	lbu $16,4($17)
 12280              	.set macro
 12281              	.set reorder
 12282              	
 12283              	$L710:
 12284 5568 2D202002 	move $4,$17
 12285              	.set noreorder
 12286              	.set nomacro
 12287 556c 3001000C 	jal _SNCPUFetch16
 12288 5570 2D288002 	move $5,$20
 12289              	.set macro
 12290              	.set reorder
 12291              	
 12292 5574 02009426 	addu $20,$20,2
 12293 5578 2D804000 	move $16,$2
 12294 557c 2D202002 	move $4,$17
 12295              	.set noreorder
 12296              	.set nomacro
 12297 5580 9AFF0010 	b $L2051
 12298 5584 1400228E 	lw $2,20($17)
 12299              	.set macro
 12300              	.set reorder
 12301              	
 12302              	$L215:
 12303              	
 12304 5588 1400228E 	lw $2,20($17)
 12305              	.set noreorder
 12306              	.set nomacro
 12307 558c C0F90010 	b $L1719
 12308 5590 02003092 	lbu $16,2($17)
 12309              	.set macro
 12310              	.set reorder
 12311              	
 12312              	$L205:
 12313              	
 12314 5594 02003096 	lhu $16,2($17)
 12315 5598 1400228E 	lw $2,20($17)
 12316              	.set noreorder
 12317              	.set nomacro
 12318 559c 13F70010 	b $L1799
 12319 55a0 00AA1000 	sll $21,$16,8
 12320              	.set macro
 12321              	.set reorder
 12322              	
 12323              	$L760:
 12324 55a4 2D202002 	move $4,$17
 12325              	.set noreorder
 12326              	.set nomacro
 12327 55a8 3001000C 	jal _SNCPUFetch16
 12328 55ac 2D288002 	move $5,$20
 12329              	.set macro
 12330              	.set reorder
 12331              	
 12332 55b0 02009426 	addu $20,$20,2
 12333 55b4 2D804000 	move $16,$2
 12334 55b8 2D202002 	move $4,$17
GAS LISTING  			page 218


 12335 55bc 1000228E 	lw $2,16($17)
 12336              	.set noreorder
 12337              	.set nomacro
 12338 55c0 F4FE0010 	b $L1829
 12339 55c4 2D300000 	move $6,$0
 12340              	.set macro
 12341              	.set reorder
 12342              	
 12343              	$L715:
 12344 55c8 2D288002 	move $5,$20
 12345              	.set noreorder
 12346              	.set nomacro
 12347 55cc 3001000C 	jal _SNCPUFetch16
 12348 55d0 2D202002 	move $4,$17
 12349              	.set macro
 12350              	.set reorder
 12351              	
 12352 55d4 02009426 	addu $20,$20,2
 12353 55d8 2D804000 	move $16,$2
 12354 55dc 1000238E 	lw $3,16($17)
 12355 55e0 1400228E 	lw $2,20($17)
 12356 55e4 2D202002 	move $4,$17
 12357              	.set noreorder
 12358              	.set nomacro
 12359 55e8 82FF0010 	b $L1831
 12360 55ec 02002596 	lhu $5,2($17)
 12361              	.set macro
 12362              	.set reorder
 12363              	
 12364              	$L765:
 12365              	
 12366 55f0 2D288002 	move $5,$20
 12367              	.set noreorder
 12368              	.set nomacro
 12369 55f4 3001000C 	jal _SNCPUFetch16
 12370 55f8 2D202002 	move $4,$17
 12371              	.set macro
 12372              	.set reorder
 12373              	
 12374 55fc 02009426 	addu $20,$20,2
 12375 5600 2D804000 	move $16,$2
 12376 5604 1000238E 	lw $3,16($17)
 12377 5608 1400228E 	lw $2,20($17)
 12378 560c 2D202002 	move $4,$17
 12379 5610 02002596 	lhu $5,2($17)
 12380 5614 2D300000 	move $6,$0
 12381 5618 FAFF4224 	addu $2,$2,-6
 12382              	.set noreorder
 12383              	.set nomacro
 12384 561c 78FF0010 	b $L1822
 12385 5620 25800302 	or $16,$16,$3
 12386              	.set macro
 12387              	.set reorder
 12388              	
 12389              	$L660:
 12390 5624 2D202002 	move $4,$17
 12391              	.set noreorder
GAS LISTING  			page 219


 12392              	.set nomacro
 12393 5628 6001000C 	jal _SNCPUFetch24
 12394 562c 2D288002 	move $5,$20
 12395              	.set macro
 12396              	.set reorder
 12397              	
 12398 5630 03009426 	addu $20,$20,3
 12399 5634 2D804000 	move $16,$2
 12400 5638 2D202002 	move $4,$17
 12401              	.set noreorder
 12402              	.set nomacro
 12403 563c C5FF0010 	b $L1818
 12404 5640 02002296 	lhu $2,2($17)
 12405              	.set macro
 12406              	.set reorder
 12407              	
 12408              	$L795:
 12409 5644 2D288002 	move $5,$20
 12410              	.set noreorder
 12411              	.set nomacro
 12412 5648 1A01000C 	jal _SNCPUFetch8
 12413 564c 2D202002 	move $4,$17
 12414              	.set macro
 12415              	.set reorder
 12416              	
 12417 5650 01009426 	addu $20,$20,1
 12418 5654 2D984000 	move $19,$2
 12419              	$L1875:
 12420 5658 00AA1300 	sll $21,$19,8
 12421              	.set noreorder
 12422              	.set nomacro
 12423 565c 71ED0010 	b $L1684
 12424 5660 040033A2 	sb $19,4($17)
 12425              	.set macro
 12426              	.set reorder
 12427              	
 12428              	$L595:
 12429 5664 2D288002 	move $5,$20
 12430              	.set noreorder
 12431              	.set nomacro
 12432 5668 1A01000C 	jal _SNCPUFetch8
 12433 566c 2D202002 	move $4,$17
 12434              	.set macro
 12435              	.set reorder
 12436              	
 12437 5670 01009426 	addu $20,$20,1
 12438 5674 0A002396 	lhu $3,10($17)
 12439 5678 2D804000 	move $16,$2
 12440 567c 02002596 	lhu $5,2($17)
 12441 5680 2D202002 	move $4,$17
 12442 5684 21800302 	addu $16,$16,$3
 12443 5688 1400228E 	lw $2,20($17)
 12444 568c FFFF1032 	andi $16,$16,0xffff
 12445 5690 0000A38F 	lw $3,0($sp)
 12446 5694 21800502 	addu $16,$16,$5
 12447 5698 FAFF4224 	addu $2,$2,-6
 12448 569c 24800302 	and $16,$16,$3
GAS LISTING  			page 220


 12449 56a0 140022AE 	sw $2,20($17)
 12450              	$L2046:
 12451              	.set noreorder
 12452              	.set nomacro
 12453 56a4 A400000C 	jal _SNCPURead16
 12454 56a8 2D280002 	move $5,$16
 12455              	.set macro
 12456              	.set reorder
 12457              	
 12458 56ac 2D202002 	move $4,$17
 12459 56b0 2D804000 	move $16,$2
 12460 56b4 1000228E 	lw $2,16($17)
 12461              	$L2086:
 12462 56b8 25800202 	or $16,$16,$2
 12463              	$L2044:
 12464 56bc 2D280002 	move $5,$16
 12465              	$L2045:
 12466 56c0 8E00000C 	jal _SNCPURead8
 12466      00000000 
 12467 56c8 2D984000 	move $19,$2
 12468              	$L1859:
 12469 56cc 00AA1300 	sll $21,$19,8
 12470              	.set noreorder
 12471              	.set nomacro
 12472 56d0 54ED0010 	b $L1684
 12473 56d4 000033A2 	sb $19,0($17)
 12474              	.set macro
 12475              	.set reorder
 12476              	
 12477              	$L770:
 12478 56d8 2D288002 	move $5,$20
 12479              	.set noreorder
 12480              	.set nomacro
 12481 56dc 1A01000C 	jal _SNCPUFetch8
 12482 56e0 2D202002 	move $4,$17
 12483              	.set macro
 12484              	.set reorder
 12485              	
 12486 56e4 01009426 	addu $20,$20,1
 12487 56e8 2D984000 	move $19,$2
 12488              	$L1867:
 12489 56ec 00AA1300 	sll $21,$19,8
 12490              	.set noreorder
 12491              	.set nomacro
 12492 56f0 4CED0010 	b $L1684
 12493 56f4 020033A2 	sb $19,2($17)
 12494              	.set macro
 12495              	.set reorder
 12496              	
 12497              	$L600:
 12498 56f8 2D288002 	move $5,$20
 12499              	.set noreorder
 12500              	.set nomacro
 12501 56fc 1A01000C 	jal _SNCPUFetch8
 12502 5700 2D202002 	move $4,$17
 12503              	.set macro
 12504              	.set reorder
GAS LISTING  			page 221


 12505              	
 12506 5704 01009426 	addu $20,$20,1
 12507 5708 2D804000 	move $16,$2
 12508 570c 06002396 	lhu $3,6($17)
 12509 5710 1400228E 	lw $2,20($17)
 12510 5714 2D202002 	move $4,$17
 12511 5718 21800302 	addu $16,$16,$3
 12512 571c FAFF4224 	addu $2,$2,-6
 12513 5720 140022AE 	sw $2,20($17)
 12514              	$L2047:
 12515              	.set noreorder
 12516              	.set nomacro
 12517 5724 E5FF0010 	b $L2044
 12518 5728 FFFF1032 	andi $16,$16,0xffff
 12519              	.set macro
 12520              	.set reorder
 12521              	
 12522              	$L800:
 12523 572c 2D288002 	move $5,$20
 12524              	.set noreorder
 12525              	.set nomacro
 12526 5730 1A01000C 	jal _SNCPUFetch8
 12527 5734 2D202002 	move $4,$17
 12528              	.set macro
 12529              	.set reorder
 12530              	
 12531 5738 01009426 	addu $20,$20,1
 12532 573c 2D804000 	move $16,$2
 12533 5740 2D202002 	move $4,$17
 12534 5744 0A002296 	lhu $2,10($17)
 12535              	
 12536 5748 21800202 	addu $16,$16,$2
 12537 574c FFFF1032 	andi $16,$16,0xffff
 12538              	$L2058:
 12539              	.set noreorder
 12540              	.set nomacro
 12541 5750 8E00000C 	jal _SNCPURead8
 12542 5754 2D280002 	move $5,$16
 12543              	.set macro
 12544              	.set reorder
 12545              	
 12546              	.set noreorder
 12547              	.set nomacro
 12548 5758 BFFF0010 	b $L1875
 12549 575c 2D984000 	move $19,$2
 12550              	.set macro
 12551              	.set reorder
 12552              	
 12553              	$L605:
 12554 5760 2D288002 	move $5,$20
 12555              	.set noreorder
 12556              	.set nomacro
 12557 5764 1A01000C 	jal _SNCPUFetch8
 12558 5768 2D202002 	move $4,$17
 12559              	.set macro
 12560              	.set reorder
 12561              	
GAS LISTING  			page 222


 12562 576c 01009426 	addu $20,$20,1
 12563 5770 2D804000 	move $16,$2
 12564 5774 2D202002 	move $4,$17
 12565 5778 0A002296 	lhu $2,10($17)
 12566              	.set noreorder
 12567              	.set nomacro
 12568 577c E9FF0010 	b $L2047
 12569 5780 21800202 	addu $16,$16,$2
 12570              	.set macro
 12571              	.set reorder
 12572              	
 12573              	$L775:
 12574 5784 2D288002 	move $5,$20
 12575              	.set noreorder
 12576              	.set nomacro
 12577 5788 1A01000C 	jal _SNCPUFetch8
 12578 578c 2D202002 	move $4,$17
 12579              	.set macro
 12580              	.set reorder
 12581              	
 12582 5790 01009426 	addu $20,$20,1
 12583 5794 2D804000 	move $16,$2
 12584 5798 2D202002 	move $4,$17
 12585 579c 0A002296 	lhu $2,10($17)
 12586              	
 12587 57a0 21800202 	addu $16,$16,$2
 12588 57a4 FFFF1032 	andi $16,$16,0xffff
 12589              	$L2056:
 12590              	.set noreorder
 12591              	.set nomacro
 12592 57a8 8E00000C 	jal _SNCPURead8
 12593 57ac 2D280002 	move $5,$16
 12594              	.set macro
 12595              	.set reorder
 12596              	
 12597              	.set noreorder
 12598              	.set nomacro
 12599 57b0 CEFF0010 	b $L1867
 12600 57b4 2D984000 	move $19,$2
 12601              	.set macro
 12602              	.set reorder
 12603              	
 12604              	$L610:
 12605 57b8 2D288002 	move $5,$20
 12606              	.set noreorder
 12607              	.set nomacro
 12608 57bc 1A01000C 	jal _SNCPUFetch8
 12609 57c0 2D202002 	move $4,$17
 12610              	.set macro
 12611              	.set reorder
 12612              	
 12613 57c4 01009426 	addu $20,$20,1
 12614 57c8 2D804000 	move $16,$2
 12615 57cc 2D202002 	move $4,$17
 12616 57d0 0A002296 	lhu $2,10($17)
 12617              	
 12618 57d4 21800202 	addu $16,$16,$2
GAS LISTING  			page 223


 12619 57d8 FFFF1032 	andi $16,$16,0xffff
 12620              	.set noreorder
 12621              	.set nomacro
 12622 57dc D400000C 	jal _SNCPURead24
 12623 57e0 2D280002 	move $5,$16
 12624              	.set macro
 12625              	.set reorder
 12626              	
 12627 57e4 2D202002 	move $4,$17
 12628              	.set noreorder
 12629              	.set nomacro
 12630 57e8 B4FF0010 	b $L2044
 12631 57ec 2D804000 	move $16,$2
 12632              	.set macro
 12633              	.set reorder
 12634              	
 12635              	$L195:
 12636 57f0 00003092 	lbu $16,0($17)
 12637 57f4 1400228E 	lw $2,20($17)
 12638 57f8 00AA1000 	sll $21,$16,8
 12639              	.set noreorder
 12640              	.set nomacro
 12641 57fc 60F20010 	b $L1732
 12642 5800 040030A2 	sb $16,4($17)
 12643              	.set macro
 12644              	.set reorder
 12645              	
 12646              	$L575:
 12647 5804 2D288002 	move $5,$20
 12648              	.set noreorder
 12649              	.set nomacro
 12650 5808 1A01000C 	jal _SNCPUFetch8
 12651 580c 2D202002 	move $4,$17
 12652              	.set macro
 12653              	.set reorder
 12654              	
 12655 5810 01009426 	addu $20,$20,1
 12656              	.set noreorder
 12657              	.set nomacro
 12658 5814 ADFF0010 	b $L1859
 12659 5818 2D984000 	move $19,$2
 12660              	.set macro
 12661              	.set reorder
 12662              	
 12663              	$L200:
 12664 581c 00003092 	lbu $16,0($17)
 12665              	$L1800:
 12666 5820 1400228E 	lw $2,20($17)
 12667 5824 00AA1000 	sll $21,$16,8
 12668              	.set noreorder
 12669              	.set nomacro
 12670 5828 55F20010 	b $L1732
 12671 582c 020030A2 	sb $16,2($17)
 12672              	.set macro
 12673              	.set reorder
 12674              	
 12675              	$L1485:
GAS LISTING  			page 224


 12676              	.set noreorder
 12677              	.set nomacro
 12678 5830 4802000C 	jal _SNCPUPop8
 12679 5834 2D202002 	move $4,$17
 12680              	.set macro
 12681              	.set reorder
 12682              	
 12683 5838 2D804000 	move $16,$2
 12684 583c 1400228E 	lw $2,20($17)
 12685 5840 00AA1000 	sll $21,$16,8
 12686 5844 00841000 	sll $16,$16,16
 12687 5848 F4FF4224 	addu $2,$2,-12
 12688 584c 2DB0A002 	move $22,$21
 12689              	.set noreorder
 12690              	.set nomacro
 12691 5850 19ED0010 	b $L1671
 12692 5854 100030AE 	sw $16,16($17)
 12693              	.set macro
 12694              	.set reorder
 12695              	
 12696              	$L805:
 12697 5858 2D288002 	move $5,$20
 12698              	.set noreorder
 12699              	.set nomacro
 12700 585c 3001000C 	jal _SNCPUFetch16
 12701 5860 2D202002 	move $4,$17
 12702              	.set macro
 12703              	.set reorder
 12704              	
 12705 5864 02009426 	addu $20,$20,2
 12706 5868 2D804000 	move $16,$2
 12707 586c 2D202002 	move $4,$17
 12708 5870 1000228E 	lw $2,16($17)
 12709              	.set noreorder
 12710              	.set nomacro
 12711 5874 B6FF0010 	b $L2058
 12712 5878 25800202 	or $16,$16,$2
 12713              	.set macro
 12714              	.set reorder
 12715              	
 12716              	$L580:
 12717 587c 2D288002 	move $5,$20
 12718              	.set noreorder
 12719              	.set nomacro
 12720 5880 3001000C 	jal _SNCPUFetch16
 12721 5884 2D202002 	move $4,$17
 12722              	.set macro
 12723              	.set reorder
 12724              	
 12725 5888 02009426 	addu $20,$20,2
 12726 588c 2D804000 	move $16,$2
 12727 5890 2D202002 	move $4,$17
 12728              	.set noreorder
 12729              	.set nomacro
 12730 5894 88FF0010 	b $L2086
 12731 5898 1000228E 	lw $2,16($17)
 12732              	.set macro
GAS LISTING  			page 225


 12733              	.set reorder
 12734              	
 12735              	$L780:
 12736 589c 2D288002 	move $5,$20
 12737              	.set noreorder
 12738              	.set nomacro
 12739 58a0 3001000C 	jal _SNCPUFetch16
 12740 58a4 2D202002 	move $4,$17
 12741              	.set macro
 12742              	.set reorder
 12743              	
 12744 58a8 02009426 	addu $20,$20,2
 12745 58ac 2D804000 	move $16,$2
 12746 58b0 2D202002 	move $4,$17
 12747 58b4 1000228E 	lw $2,16($17)
 12748              	.set noreorder
 12749              	.set nomacro
 12750 58b8 BBFF0010 	b $L2056
 12751 58bc 25800202 	or $16,$16,$2
 12752              	.set macro
 12753              	.set reorder
 12754              	
 12755              	$L585:
 12756 58c0 2D288002 	move $5,$20
 12757              	.set noreorder
 12758              	.set nomacro
 12759 58c4 6001000C 	jal _SNCPUFetch24
 12760 58c8 2D202002 	move $4,$17
 12761              	.set macro
 12762              	.set reorder
 12763              	
 12764 58cc 03009426 	addu $20,$20,3
 12765 58d0 2D284000 	move $5,$2
 12766              	.set noreorder
 12767              	.set nomacro
 12768 58d4 7AFF0010 	b $L2045
 12769 58d8 2D202002 	move $4,$17
 12770              	.set macro
 12771              	.set reorder
 12772              	
 12773              	$L1559:
 12774 58dc 2D288002 	move $5,$20
 12775              	.set noreorder
 12776              	.set nomacro
 12777 58e0 1A01000C 	jal _SNCPUFetch8
 12778 58e4 2D202002 	move $4,$17
 12779              	.set macro
 12780              	.set reorder
 12781              	
 12782              	.set noreorder
 12783              	.set nomacro
 12784 58e8 93ECE012 	beq $23,$0,$L110
 12785 58ec 01009426 	addu $20,$20,1
 12786              	.set macro
 12787              	.set reorder
 12788              	
 12789              	.set noreorder
GAS LISTING  			page 226


 12790              	.set nomacro
 12791 58f0 4FF80010 	b $L1674
 12792 58f4 00160200 	sll $2,$2,24
 12793              	.set macro
 12794              	.set reorder
 12795              	
 12796              	$L615:
 12797 58f8 2D288002 	move $5,$20
 12798              	.set noreorder
 12799              	.set nomacro
 12800 58fc 1A01000C 	jal _SNCPUFetch8
 12801 5900 2D202002 	move $4,$17
 12802              	.set macro
 12803              	.set reorder
 12804              	
 12805 5904 01009426 	addu $20,$20,1
 12806 5908 2D804000 	move $16,$2
 12807 590c 2D202002 	move $4,$17
 12808 5910 0A002296 	lhu $2,10($17)
 12809              	
 12810 5914 21800202 	addu $16,$16,$2
 12811 5918 FFFF1032 	andi $16,$16,0xffff
 12812              	.set noreorder
 12813              	.set nomacro
 12814 591c A400000C 	jal _SNCPURead16
 12815 5920 2D280002 	move $5,$16
 12816              	.set macro
 12817              	.set reorder
 12818              	
 12819 5924 04002396 	lhu $3,4($17)
 12820 5928 2D804000 	move $16,$2
 12821 592c 2D202002 	move $4,$17
 12822 5930 1000228E 	lw $2,16($17)
 12823              	
 12824 5934 25800202 	or $16,$16,$2
 12825              	.set noreorder
 12826              	.set nomacro
 12827 5938 60FF0010 	b $L2044
 12828 593c 21800302 	addu $16,$16,$3
 12829              	.set macro
 12830              	.set reorder
 12831              	
 12832              	$L620:
 12833 5940 2D288002 	move $5,$20
 12834              	.set noreorder
 12835              	.set nomacro
 12836 5944 1A01000C 	jal _SNCPUFetch8
 12837 5948 2D202002 	move $4,$17
 12838              	.set macro
 12839              	.set reorder
 12840              	
 12841 594c 01009426 	addu $20,$20,1
 12842 5950 2D804000 	move $16,$2
 12843 5954 2D202002 	move $4,$17
 12844 5958 0A002296 	lhu $2,10($17)
 12845              	
 12846 595c 21800202 	addu $16,$16,$2
GAS LISTING  			page 227


 12847              	.set noreorder
 12848              	.set nomacro
 12849 5960 50FF0010 	b $L2046
 12850 5964 FFFF1032 	andi $16,$16,0xffff
 12851              	.set macro
 12852              	.set reorder
 12853              	
 12854              	$L625:
 12855 5968 2D288002 	move $5,$20
 12856              	.set noreorder
 12857              	.set nomacro
 12858 596c 1A01000C 	jal _SNCPUFetch8
 12859 5970 2D202002 	move $4,$17
 12860              	.set macro
 12861              	.set reorder
 12862              	
 12863 5974 01009426 	addu $20,$20,1
 12864 5978 06002396 	lhu $3,6($17)
 12865 597c 2D804000 	move $16,$2
 12866 5980 1400228E 	lw $2,20($17)
 12867 5984 2D202002 	move $4,$17
 12868 5988 21800302 	addu $16,$16,$3
 12869 598c FAFF4224 	addu $2,$2,-6
 12870 5990 FFFF1032 	andi $16,$16,0xffff
 12871 5994 140022AE 	sw $2,20($17)
 12872              	.set noreorder
 12873              	.set nomacro
 12874 5998 A400000C 	jal _SNCPURead16
 12875 599c 2D280002 	move $5,$16
 12876              	.set macro
 12877              	.set reorder
 12878              	
 12879 59a0 04002596 	lhu $5,4($17)
 12880 59a4 1000238E 	lw $3,16($17)
 12881 59a8 2D804000 	move $16,$2
 12882 59ac 1400228E 	lw $2,20($17)
 12883 59b0 2D202002 	move $4,$17
 12884 59b4 25800302 	or $16,$16,$3
 12885 59b8 FAFF4224 	addu $2,$2,-6
 12886 59bc 21800502 	addu $16,$16,$5
 12887              	.set noreorder
 12888              	.set nomacro
 12889 59c0 3EFF0010 	b $L2044
 12890 59c4 140022AE 	sw $2,20($17)
 12891              	.set macro
 12892              	.set reorder
 12893              	
 12894              	$L810:
 12895 59c8 2D288002 	move $5,$20
 12896              	.set noreorder
 12897              	.set nomacro
 12898 59cc 1A01000C 	jal _SNCPUFetch8
 12899 59d0 2D202002 	move $4,$17
 12900              	.set macro
 12901              	.set reorder
 12902              	
 12903 59d4 01009426 	addu $20,$20,1
GAS LISTING  			page 228


 12904 59d8 2D804000 	move $16,$2
 12905 59dc 1400238E 	lw $3,20($17)
 12906 59e0 0A002296 	lhu $2,10($17)
 12907 59e4 2D202002 	move $4,$17
 12908 59e8 FAFF6324 	addu $3,$3,-6
 12909 59ec 02002596 	lhu $5,2($17)
 12910 59f0 21800202 	addu $16,$16,$2
 12911 59f4 140023AE 	sw $3,20($17)
 12912 59f8 FFFF1032 	andi $16,$16,0xffff
 12913 59fc 0000A38F 	lw $3,0($sp)
 12914 5a00 21800502 	addu $16,$16,$5
 12915              	.set noreorder
 12916              	.set nomacro
 12917 5a04 52FF0010 	b $L2058
 12918 5a08 24800302 	and $16,$16,$3
 12919              	.set macro
 12920              	.set reorder
 12921              	
 12922              	$L630:
 12923 5a0c 2D288002 	move $5,$20
 12924              	.set noreorder
 12925              	.set nomacro
 12926 5a10 1A01000C 	jal _SNCPUFetch8
 12927 5a14 2D202002 	move $4,$17
 12928              	.set macro
 12929              	.set reorder
 12930              	
 12931 5a18 01009426 	addu $20,$20,1
 12932 5a1c 2D804000 	move $16,$2
 12933 5a20 1400238E 	lw $3,20($17)
 12934 5a24 0A002296 	lhu $2,10($17)
 12935 5a28 2D202002 	move $4,$17
 12936 5a2c FAFF6324 	addu $3,$3,-6
 12937 5a30 02002596 	lhu $5,2($17)
 12938 5a34 21800202 	addu $16,$16,$2
 12939 5a38 140023AE 	sw $3,20($17)
 12940 5a3c FFFF1032 	andi $16,$16,0xffff
 12941 5a40 0000A38F 	lw $3,0($sp)
 12942 5a44 21800502 	addu $16,$16,$5
 12943              	.set noreorder
 12944              	.set nomacro
 12945 5a48 1CFF0010 	b $L2044
 12946 5a4c 24800302 	and $16,$16,$3
 12947              	.set macro
 12948              	.set reorder
 12949              	
 12950              	$L785:
 12951 5a50 2D288002 	move $5,$20
 12952              	.set noreorder
 12953              	.set nomacro
 12954 5a54 1A01000C 	jal _SNCPUFetch8
 12955 5a58 2D202002 	move $4,$17
 12956              	.set macro
 12957              	.set reorder
 12958              	
 12959 5a5c 01009426 	addu $20,$20,1
 12960 5a60 2D804000 	move $16,$2
GAS LISTING  			page 229


 12961 5a64 1400238E 	lw $3,20($17)
 12962 5a68 0A002296 	lhu $2,10($17)
 12963 5a6c 2D202002 	move $4,$17
 12964 5a70 FAFF6324 	addu $3,$3,-6
 12965 5a74 04002596 	lhu $5,4($17)
 12966 5a78 21800202 	addu $16,$16,$2
 12967 5a7c 140023AE 	sw $3,20($17)
 12968 5a80 FFFF1032 	andi $16,$16,0xffff
 12969 5a84 0000A38F 	lw $3,0($sp)
 12970 5a88 21800502 	addu $16,$16,$5
 12971              	.set noreorder
 12972              	.set nomacro
 12973 5a8c 46FF0010 	b $L2056
 12974 5a90 24800302 	and $16,$16,$3
 12975              	.set macro
 12976              	.set reorder
 12977              	
 12978              	$L635:
 12979 5a94 2D288002 	move $5,$20
 12980              	.set noreorder
 12981              	.set nomacro
 12982 5a98 1A01000C 	jal _SNCPUFetch8
 12983 5a9c 2D202002 	move $4,$17
 12984              	.set macro
 12985              	.set reorder
 12986              	
 12987 5aa0 01009426 	addu $20,$20,1
 12988 5aa4 2D804000 	move $16,$2
 12989 5aa8 2D202002 	move $4,$17
 12990 5aac 0A002296 	lhu $2,10($17)
 12991              	
 12992 5ab0 21800202 	addu $16,$16,$2
 12993 5ab4 FFFF1032 	andi $16,$16,0xffff
 12994              	.set noreorder
 12995              	.set nomacro
 12996 5ab8 D400000C 	jal _SNCPURead24
 12997 5abc 2D280002 	move $5,$16
 12998              	.set macro
 12999              	.set reorder
 13000              	
 13001 5ac0 2D202002 	move $4,$17
 13002 5ac4 2D804000 	move $16,$2
 13003 5ac8 04002296 	lhu $2,4($17)
 13004              	$L2043:
 13005              	.set noreorder
 13006              	.set nomacro
 13007 5acc FBFE0010 	b $L2044
 13008 5ad0 21800202 	addu $16,$16,$2
 13009              	.set macro
 13010              	.set reorder
 13011              	
 13012              	$L133:
 13013 5ad4 08002292 	lbu $2,8($17)
 13014 5ad8 1400238E 	lw $3,20($17)
 13015              	.set noreorder
 13016              	.set nomacro
 13017 5adc 12EC0010 	b $L1702
GAS LISTING  			page 230


 13018 5ae0 BF004230 	andi $2,$2,0xbf
 13019              	.set macro
 13020              	.set reorder
 13021              	
 13022              	$L640:
 13023 5ae4 2D288002 	move $5,$20
 13024              	.set noreorder
 13025              	.set nomacro
 13026 5ae8 3001000C 	jal _SNCPUFetch16
 13027 5aec 2D202002 	move $4,$17
 13028              	.set macro
 13029              	.set reorder
 13030              	
 13031 5af0 02009426 	addu $20,$20,2
 13032 5af4 2D804000 	move $16,$2
 13033 5af8 1000238E 	lw $3,16($17)
 13034 5afc 04002296 	lhu $2,4($17)
 13035 5b00 2D202002 	move $4,$17
 13036              	$L2087:
 13037              	.set noreorder
 13038              	.set nomacro
 13039 5b04 F1FF0010 	b $L2043
 13040 5b08 25800302 	or $16,$16,$3
 13041              	.set macro
 13042              	.set reorder
 13043              	
 13044              	$L220:
 13045              	.set noreorder
 13046              	.set nomacro
 13047 5b0c 44FF0010 	b $L1800
 13048 5b10 06003092 	lbu $16,6($17)
 13049              	.set macro
 13050              	.set reorder
 13051              	
 13052              	$L210:
 13053              	
 13054 5b14 04003096 	lhu $16,4($17)
 13055 5b18 1400228E 	lw $2,20($17)
 13056              	.set noreorder
 13057              	.set nomacro
 13058 5b1c E4F50010 	b $L1798
 13059 5b20 00AA1000 	sll $21,$16,8
 13060              	.set macro
 13061              	.set reorder
 13062              	
 13063              	$L815:
 13064 5b24 2D288002 	move $5,$20
 13065              	.set noreorder
 13066              	.set nomacro
 13067 5b28 3001000C 	jal _SNCPUFetch16
 13068 5b2c 2D202002 	move $4,$17
 13069              	.set macro
 13070              	.set reorder
 13071              	
 13072 5b30 02009426 	addu $20,$20,2
 13073 5b34 1000238E 	lw $3,16($17)
 13074 5b38 2D804000 	move $16,$2
GAS LISTING  			page 231


 13075 5b3c 02002296 	lhu $2,2($17)
 13076 5b40 2D202002 	move $4,$17
 13077 5b44 25800302 	or $16,$16,$3
 13078              	.set noreorder
 13079              	.set nomacro
 13080 5b48 01FF0010 	b $L2058
 13081 5b4c 21800202 	addu $16,$16,$2
 13082              	.set macro
 13083              	.set reorder
 13084              	
 13085              	$L645:
 13086 5b50 2D288002 	move $5,$20
 13087              	.set noreorder
 13088              	.set nomacro
 13089 5b54 3001000C 	jal _SNCPUFetch16
 13090 5b58 2D202002 	move $4,$17
 13091              	.set macro
 13092              	.set reorder
 13093              	
 13094 5b5c 02009426 	addu $20,$20,2
 13095 5b60 2D804000 	move $16,$2
 13096 5b64 1000238E 	lw $3,16($17)
 13097 5b68 02002296 	lhu $2,2($17)
 13098              	.set noreorder
 13099              	.set nomacro
 13100 5b6c E5FF0010 	b $L2087
 13101 5b70 2D202002 	move $4,$17
 13102              	.set macro
 13103              	.set reorder
 13104              	
 13105              	$L790:
 13106 5b74 2D288002 	move $5,$20
 13107              	.set noreorder
 13108              	.set nomacro
 13109 5b78 3001000C 	jal _SNCPUFetch16
 13110 5b7c 2D202002 	move $4,$17
 13111              	.set macro
 13112              	.set reorder
 13113              	
 13114 5b80 02009426 	addu $20,$20,2
 13115 5b84 1000238E 	lw $3,16($17)
 13116 5b88 2D804000 	move $16,$2
 13117 5b8c 04002296 	lhu $2,4($17)
 13118 5b90 2D202002 	move $4,$17
 13119 5b94 25800302 	or $16,$16,$3
 13120              	.set noreorder
 13121              	.set nomacro
 13122 5b98 03FF0010 	b $L2056
 13123 5b9c 21800202 	addu $16,$16,$2
 13124              	.set macro
 13125              	.set reorder
 13126              	
 13127              	$L590:
 13128 5ba0 2D288002 	move $5,$20
 13129              	.set noreorder
 13130              	.set nomacro
 13131 5ba4 6001000C 	jal _SNCPUFetch24
GAS LISTING  			page 232


 13132 5ba8 2D202002 	move $4,$17
 13133              	.set macro
 13134              	.set reorder
 13135              	
 13136 5bac 03009426 	addu $20,$20,3
 13137 5bb0 2D804000 	move $16,$2
 13138 5bb4 2D202002 	move $4,$17
 13139              	.set noreorder
 13140              	.set nomacro
 13141 5bb8 C4FF0010 	b $L2043
 13142 5bbc 02002296 	lhu $2,2($17)
 13143              	.set macro
 13144              	.set reorder
 13145              	
 13146              	$L1135:
 13147 5bc0 2D288002 	move $5,$20
 13148              	.set noreorder
 13149              	.set nomacro
 13150 5bc4 1A01000C 	jal _SNCPUFetch8
 13151 5bc8 2D202002 	move $4,$17
 13152              	.set macro
 13153              	.set reorder
 13154              	
 13155 5bcc 01009426 	addu $20,$20,1
 13156 5bd0 2D984000 	move $19,$2
 13157              	$L1971:
 13158 5bd4 04003292 	lbu $18,4($17)
 13159              	$L1972:
 13160 5bd8 23905302 	subu $18,$18,$19
 13161 5bdc 00AA1200 	sll $21,$18,8
 13162 5be0 02921200 	srl $18,$18,8
 13163              	.set noreorder
 13164              	.set nomacro
 13165 5be4 E6EF0010 	b $L1945
 13166 5be8 0100523A 	xori $18,$18,0x1
 13167              	.set macro
 13168              	.set reorder
 13169              	
 13170              	$L1045:
 13171 5bec 2D288002 	move $5,$20
 13172              	.set noreorder
 13173              	.set nomacro
 13174 5bf0 1A01000C 	jal _SNCPUFetch8
 13175 5bf4 2D202002 	move $4,$17
 13176              	.set macro
 13177              	.set reorder
 13178              	
 13179 5bf8 01009426 	addu $20,$20,1
 13180 5bfc 0A002396 	lhu $3,10($17)
 13181 5c00 2D804000 	move $16,$2
 13182 5c04 02002596 	lhu $5,2($17)
 13183 5c08 2D202002 	move $4,$17
 13184 5c0c 21800302 	addu $16,$16,$3
 13185 5c10 1400228E 	lw $2,20($17)
 13186 5c14 FFFF1032 	andi $16,$16,0xffff
 13187 5c18 0000A38F 	lw $3,0($sp)
 13188 5c1c 21800502 	addu $16,$16,$5
GAS LISTING  			page 233


 13189 5c20 FAFF4224 	addu $2,$2,-6
 13190 5c24 24800302 	and $16,$16,$3
 13191 5c28 140022AE 	sw $2,20($17)
 13192              	$L2110:
 13193              	.set noreorder
 13194              	.set nomacro
 13195 5c2c A400000C 	jal _SNCPURead16
 13196 5c30 2D280002 	move $5,$16
 13197              	.set macro
 13198              	.set reorder
 13199              	
 13200 5c34 2D202002 	move $4,$17
 13201 5c38 2D804000 	move $16,$2
 13202 5c3c 1000228E 	lw $2,16($17)
 13203              	$L2100:
 13204 5c40 25800202 	or $16,$16,$2
 13205              	$L2075:
 13206 5c44 2D280002 	move $5,$16
 13207              	$L2076:
 13208 5c48 8E00000C 	jal _SNCPURead8
 13208      00000000 
 13209 5c50 2D984000 	move $19,$2
 13210              	$L1986:
 13211              	.set noreorder
 13212              	.set nomacro
 13213 5c54 E0FF0010 	b $L1972
 13214 5c58 00003292 	lbu $18,0($17)
 13215              	.set macro
 13216              	.set reorder
 13217              	
 13218              	$L1519:
 13219 5c5c 2D288002 	move $5,$20
 13220              	.set noreorder
 13221              	.set nomacro
 13222 5c60 1A01000C 	jal _SNCPUFetch8
 13223 5c64 2D202002 	move $4,$17
 13224              	.set macro
 13225              	.set reorder
 13226              	
 13227 5c68 01009426 	addu $20,$20,1
 13228 5c6c 2D984000 	move $19,$2
 13229 5c70 09002692 	lbu $6,9($17)
 13230 5c74 08002292 	lbu $2,8($17)
 13231 5c78 80006532 	andi $5,$19,0x80
 13232 5c7c 01006432 	andi $4,$19,0x1
 13233 5c80 02006332 	andi $3,$19,0x2
 13234 5c84 25105300 	or $2,$2,$19
 13235 5c88 01000724 	li $7,1
 13236 5c8c 26105300 	xor $2,$2,$19
 13237 5c90 0BB80400 	movn $23,$0,$4
 13238 5c94 080022A2 	sb $2,8($17)
 13239 5c98 0BA8E300 	movn $21,$7,$3
 13240              	.set noreorder
 13241              	.set nomacro
 13242 5c9c 0900C010 	beq $6,$0,$L1523
 13243 5ca0 0BB00500 	movn $22,$0,$5
 13244              	.set macro
GAS LISTING  			page 234


 13245              	.set reorder
 13246              	
 13247 5ca4 30004234 	ori $2,$2,0x30
 13248 5ca8 FF000324 	li $3,255
 13249 5cac 0000A3AF 	sw $3,0($sp)
 13250 5cb0 00041E24 	li $fp,1024
 13251 5cb4 080022A2 	sb $2,8($17)
 13252 5cb8 070027A2 	sb $7,7($17)
 13253              	$L1797:
 13254              	.set noreorder
 13255              	.set nomacro
 13256 5cbc FCEB0010 	b $L1605
 13257 5cc0 0A0020A6 	sh $0,10($17)
 13258              	.set macro
 13259              	.set reorder
 13260              	
 13261              	$L1523:
 13262 5cc4 FFFF0334 	li $3,65535
 13263 5cc8 00110200 	sll $2,$2,4
 13264 5ccc 0000A3AF 	sw $3,0($sp)
 13265              	$L1796:
 13266              	.set noreorder
 13267              	.set nomacro
 13268 5cd0 F7EB0010 	b $L1605
 13269 5cd4 00035E30 	andi $fp,$2,0x300
 13270              	.set macro
 13271              	.set reorder
 13272              	
 13273              	$L1050:
 13274 5cd8 2D288002 	move $5,$20
 13275              	.set noreorder
 13276              	.set nomacro
 13277 5cdc 1A01000C 	jal _SNCPUFetch8
 13278 5ce0 2D202002 	move $4,$17
 13279              	.set macro
 13280              	.set reorder
 13281              	
 13282 5ce4 01009426 	addu $20,$20,1
 13283 5ce8 2D804000 	move $16,$2
 13284 5cec 06002396 	lhu $3,6($17)
 13285 5cf0 1400228E 	lw $2,20($17)
 13286 5cf4 2D202002 	move $4,$17
 13287 5cf8 21800302 	addu $16,$16,$3
 13288 5cfc FAFF4224 	addu $2,$2,-6
 13289 5d00 140022AE 	sw $2,20($17)
 13290              	$L2070:
 13291              	.set noreorder
 13292              	.set nomacro
 13293 5d04 CFFF0010 	b $L2075
 13294 5d08 FFFF1032 	andi $16,$16,0xffff
 13295              	.set macro
 13296              	.set reorder
 13297              	
 13298              	$L1140:
 13299 5d0c 2D288002 	move $5,$20
 13300              	.set noreorder
 13301              	.set nomacro
GAS LISTING  			page 235


 13302 5d10 1A01000C 	jal _SNCPUFetch8
 13303 5d14 2D202002 	move $4,$17
 13304              	.set macro
 13305              	.set reorder
 13306              	
 13307 5d18 01009426 	addu $20,$20,1
 13308 5d1c 2D804000 	move $16,$2
 13309 5d20 2D202002 	move $4,$17
 13310 5d24 0A002296 	lhu $2,10($17)
 13311              	
 13312 5d28 21800202 	addu $16,$16,$2
 13313 5d2c FFFF1032 	andi $16,$16,0xffff
 13314              	$L1970:
 13315              	.set noreorder
 13316              	.set nomacro
 13317 5d30 8E00000C 	jal _SNCPURead8
 13318 5d34 2D280002 	move $5,$16
 13319              	.set macro
 13320              	.set reorder
 13321              	
 13322              	.set noreorder
 13323              	.set nomacro
 13324 5d38 A6FF0010 	b $L1971
 13325 5d3c 2D984000 	move $19,$2
 13326              	.set macro
 13327              	.set reorder
 13328              	
 13329              	$L1055:
 13330 5d40 2D288002 	move $5,$20
 13331              	.set noreorder
 13332              	.set nomacro
 13333 5d44 1A01000C 	jal _SNCPUFetch8
 13334 5d48 2D202002 	move $4,$17
 13335              	.set macro
 13336              	.set reorder
 13337              	
 13338 5d4c 01009426 	addu $20,$20,1
 13339 5d50 2D804000 	move $16,$2
 13340 5d54 2D202002 	move $4,$17
 13341 5d58 0A002296 	lhu $2,10($17)
 13342              	.set noreorder
 13343              	.set nomacro
 13344 5d5c E9FF0010 	b $L2070
 13345 5d60 21800202 	addu $16,$16,$2
 13346              	.set macro
 13347              	.set reorder
 13348              	
 13349              	$L1241:
 13350 5d64 2D288002 	move $5,$20
 13351              	.set noreorder
 13352              	.set nomacro
 13353 5d68 1A01000C 	jal _SNCPUFetch8
 13354 5d6c 2D202002 	move $4,$17
 13355              	.set macro
 13356              	.set reorder
 13357              	
 13358 5d70 01009426 	addu $20,$20,1
GAS LISTING  			page 236


 13359 5d74 2D804000 	move $16,$2
 13360 5d78 2D202002 	move $4,$17
 13361 5d7c 0A002296 	lhu $2,10($17)
 13362              	
 13363 5d80 21800202 	addu $16,$16,$2
 13364 5d84 FFFF1032 	andi $16,$16,0xffff
 13365              	$L1760:
 13366              	.set noreorder
 13367              	.set nomacro
 13368 5d88 8E00000C 	jal _SNCPURead8
 13369 5d8c 2D280002 	move $5,$16
 13370              	.set macro
 13371              	.set reorder
 13372              	
 13373 5d90 2D280002 	move $5,$16
 13374 5d94 FFFF5324 	addu $19,$2,-1
 13375              	$L1766:
 13376              	.set noreorder
 13377              	.set nomacro
 13378 5d98 1DFA0010 	b $L1778
 13379 5d9c 2D202002 	move $4,$17
 13380              	.set macro
 13381              	.set reorder
 13382              	
 13383              	$L1060:
 13384 5da0 2D288002 	move $5,$20
 13385              	.set noreorder
 13386              	.set nomacro
 13387 5da4 1A01000C 	jal _SNCPUFetch8
 13388 5da8 2D202002 	move $4,$17
 13389              	.set macro
 13390              	.set reorder
 13391              	
 13392 5dac 01009426 	addu $20,$20,1
 13393 5db0 2D804000 	move $16,$2
 13394 5db4 2D202002 	move $4,$17
 13395 5db8 0A002296 	lhu $2,10($17)
 13396              	
 13397 5dbc 21800202 	addu $16,$16,$2
 13398 5dc0 FFFF1032 	andi $16,$16,0xffff
 13399              	.set noreorder
 13400              	.set nomacro
 13401 5dc4 D400000C 	jal _SNCPURead24
 13402 5dc8 2D280002 	move $5,$16
 13403              	.set macro
 13404              	.set reorder
 13405              	
 13406 5dcc 2D202002 	move $4,$17
 13407              	.set noreorder
 13408              	.set nomacro
 13409 5dd0 9CFF0010 	b $L2075
 13410 5dd4 2D804000 	move $16,$2
 13411              	.set macro
 13412              	.set reorder
 13413              	
 13414              	$L240:
 13415 5dd8 04003392 	lbu $19,4($17)
GAS LISTING  			page 237


 13416 5ddc 1400228E 	lw $2,20($17)
 13417              	.set noreorder
 13418              	.set nomacro
 13419 5de0 36FD0010 	b $L1689
 13420 5de4 01007326 	addu $19,$19,1
 13421              	.set macro
 13422              	.set reorder
 13423              	
 13424              	$L1065:
 13425 5de8 2D288002 	move $5,$20
 13426              	.set noreorder
 13427              	.set nomacro
 13428 5dec 1A01000C 	jal _SNCPUFetch8
 13429 5df0 2D202002 	move $4,$17
 13430              	.set macro
 13431              	.set reorder
 13432              	
 13433 5df4 01009426 	addu $20,$20,1
 13434              	.set noreorder
 13435              	.set nomacro
 13436 5df8 96FF0010 	b $L1986
 13437 5dfc 2D984000 	move $19,$2
 13438              	.set macro
 13439              	.set reorder
 13440              	
 13441              	$L225:
 13442 5e00 02003392 	lbu $19,2($17)
 13443 5e04 1400228E 	lw $2,20($17)
 13444 5e08 FFFF7326 	addu $19,$19,-1
 13445              	$L1691:
 13446 5e0c 00AA1300 	sll $21,$19,8
 13447 5e10 FAFF4224 	addu $2,$2,-6
 13448 5e14 2DB0A002 	move $22,$21
 13449 5e18 140022AE 	sw $2,20($17)
 13450              	.set noreorder
 13451              	.set nomacro
 13452 5e1c 46EB0010 	b $L110
 13453 5e20 020033A2 	sb $19,2($17)
 13454              	.set macro
 13455              	.set reorder
 13456              	
 13457              	$L1602:
 13458 5e24 31002392 	lbu $3,49($17)
 13459              	
 13460 5e28 04006230 	andi $2,$3,0x4
 13461              	.set noreorder
 13462              	.set nomacro
 13463 5e2c 06004054 	bnel $2,$0,$L1603
 13464 5e30 FD006230 	andi $2,$3,0xfd
 13465              	.set macro
 13466              	.set reorder
 13467              	
 13468 5e34 02006234 	ori $2,$3,0x2
 13469 5e38 FFFF9426 	addu $20,$20,-1
 13470 5e3c 310022A2 	sb $2,49($17)
 13471              	.set noreorder
 13472              	.set nomacro
GAS LISTING  			page 238


 13473 5e40 14EF0010 	b $L1604
 13474 5e44 140020AE 	sw $0,20($17)
 13475              	.set macro
 13476              	.set reorder
 13477              	
 13478              	$L1603:
 13479              	.set noreorder
 13480              	.set nomacro
 13481 5e48 12EF0010 	b $L1604
 13482 5e4c 310022A2 	sb $2,49($17)
 13483              	.set macro
 13484              	.set reorder
 13485              	
 13486              	$L1145:
 13487 5e50 2D288002 	move $5,$20
 13488              	.set noreorder
 13489              	.set nomacro
 13490 5e54 3001000C 	jal _SNCPUFetch16
 13491 5e58 2D202002 	move $4,$17
 13492              	.set macro
 13493              	.set reorder
 13494              	
 13495 5e5c 02009426 	addu $20,$20,2
 13496 5e60 2D804000 	move $16,$2
 13497 5e64 2D202002 	move $4,$17
 13498 5e68 1000228E 	lw $2,16($17)
 13499              	.set noreorder
 13500              	.set nomacro
 13501 5e6c B0FF0010 	b $L1970
 13502 5e70 25800202 	or $16,$16,$2
 13503              	.set macro
 13504              	.set reorder
 13505              	
 13506              	$L1070:
 13507 5e74 2D288002 	move $5,$20
 13508              	.set noreorder
 13509              	.set nomacro
 13510 5e78 3001000C 	jal _SNCPUFetch16
 13511 5e7c 2D202002 	move $4,$17
 13512              	.set macro
 13513              	.set reorder
 13514              	
 13515 5e80 02009426 	addu $20,$20,2
 13516 5e84 2D804000 	move $16,$2
 13517 5e88 2D202002 	move $4,$17
 13518              	.set noreorder
 13519              	.set nomacro
 13520 5e8c 6CFF0010 	b $L2100
 13521 5e90 1000228E 	lw $2,16($17)
 13522              	.set macro
 13523              	.set reorder
 13524              	
 13525              	$L1246:
 13526 5e94 2D288002 	move $5,$20
 13527              	.set noreorder
 13528              	.set nomacro
 13529 5e98 3001000C 	jal _SNCPUFetch16
GAS LISTING  			page 239


 13530 5e9c 2D202002 	move $4,$17
 13531              	.set macro
 13532              	.set reorder
 13533              	
 13534 5ea0 02009426 	addu $20,$20,2
 13535 5ea4 2D804000 	move $16,$2
 13536 5ea8 2D202002 	move $4,$17
 13537 5eac 1000228E 	lw $2,16($17)
 13538              	.set noreorder
 13539              	.set nomacro
 13540 5eb0 B5FF0010 	b $L1760
 13541 5eb4 25800202 	or $16,$16,$2
 13542              	.set macro
 13543              	.set reorder
 13544              	
 13545              	$L1075:
 13546 5eb8 2D288002 	move $5,$20
 13547              	.set noreorder
 13548              	.set nomacro
 13549 5ebc 6001000C 	jal _SNCPUFetch24
 13550 5ec0 2D202002 	move $4,$17
 13551              	.set macro
 13552              	.set reorder
 13553              	
 13554 5ec4 03009426 	addu $20,$20,3
 13555 5ec8 2D284000 	move $5,$2
 13556              	.set noreorder
 13557              	.set nomacro
 13558 5ecc 5EFF0010 	b $L2076
 13559 5ed0 2D202002 	move $4,$17
 13560              	.set macro
 13561              	.set reorder
 13562              	
 13563              	$L1547:
 13564 5ed4 2D288002 	move $5,$20
 13565              	.set noreorder
 13566              	.set nomacro
 13567 5ed8 1A01000C 	jal _SNCPUFetch8
 13568 5edc 2D202002 	move $4,$17
 13569              	.set macro
 13570              	.set reorder
 13571              	
 13572 5ee0 01009426 	addu $20,$20,1
 13573 5ee4 2D184000 	move $3,$2
 13574              	.set noreorder
 13575              	.set nomacro
 13576 5ee8 7DF80010 	b $L1755
 13577 5eec FFFFA232 	andi $2,$21,0xffff
 13578              	.set macro
 13579              	.set reorder
 13580              	
 13581              	$L1080:
 13582 5ef0 2D288002 	move $5,$20
 13583              	.set noreorder
 13584              	.set nomacro
 13585 5ef4 1A01000C 	jal _SNCPUFetch8
 13586 5ef8 2D202002 	move $4,$17
GAS LISTING  			page 240


 13587              	.set macro
 13588              	.set reorder
 13589              	
 13590 5efc 01009426 	addu $20,$20,1
 13591 5f00 2D804000 	move $16,$2
 13592 5f04 2D202002 	move $4,$17
 13593 5f08 0A002296 	lhu $2,10($17)
 13594              	
 13595 5f0c 21800202 	addu $16,$16,$2
 13596 5f10 FFFF1032 	andi $16,$16,0xffff
 13597              	.set noreorder
 13598              	.set nomacro
 13599 5f14 A400000C 	jal _SNCPURead16
 13600 5f18 2D280002 	move $5,$16
 13601              	.set macro
 13602              	.set reorder
 13603              	
 13604 5f1c 04002396 	lhu $3,4($17)
 13605 5f20 2D804000 	move $16,$2
 13606 5f24 2D202002 	move $4,$17
 13607 5f28 1000228E 	lw $2,16($17)
 13608              	
 13609 5f2c 25800202 	or $16,$16,$2
 13610              	.set noreorder
 13611              	.set nomacro
 13612 5f30 44FF0010 	b $L2075
 13613 5f34 21800302 	addu $16,$16,$3
 13614              	.set macro
 13615              	.set reorder
 13616              	
 13617              	$L1085:
 13618 5f38 2D288002 	move $5,$20
 13619              	.set noreorder
 13620              	.set nomacro
 13621 5f3c 1A01000C 	jal _SNCPUFetch8
 13622 5f40 2D202002 	move $4,$17
 13623              	.set macro
 13624              	.set reorder
 13625              	
 13626 5f44 01009426 	addu $20,$20,1
 13627 5f48 2D804000 	move $16,$2
 13628 5f4c 2D202002 	move $4,$17
 13629 5f50 0A002296 	lhu $2,10($17)
 13630              	
 13631 5f54 21800202 	addu $16,$16,$2
 13632              	.set noreorder
 13633              	.set nomacro
 13634 5f58 34FF0010 	b $L2110
 13635 5f5c FFFF1032 	andi $16,$16,0xffff
 13636              	.set macro
 13637              	.set reorder
 13638              	
 13639              	$L1090:
 13640 5f60 2D288002 	move $5,$20
 13641              	.set noreorder
 13642              	.set nomacro
 13643 5f64 1A01000C 	jal _SNCPUFetch8
GAS LISTING  			page 241


 13644 5f68 2D202002 	move $4,$17
 13645              	.set macro
 13646              	.set reorder
 13647              	
 13648 5f6c 01009426 	addu $20,$20,1
 13649 5f70 06002396 	lhu $3,6($17)
 13650 5f74 2D804000 	move $16,$2
 13651 5f78 1400228E 	lw $2,20($17)
 13652 5f7c 2D202002 	move $4,$17
 13653 5f80 21800302 	addu $16,$16,$3
 13654 5f84 FAFF4224 	addu $2,$2,-6
 13655 5f88 FFFF1032 	andi $16,$16,0xffff
 13656 5f8c 140022AE 	sw $2,20($17)
 13657              	.set noreorder
 13658              	.set nomacro
 13659 5f90 A400000C 	jal _SNCPURead16
 13660 5f94 2D280002 	move $5,$16
 13661              	.set macro
 13662              	.set reorder
 13663              	
 13664 5f98 04002596 	lhu $5,4($17)
 13665 5f9c 1000238E 	lw $3,16($17)
 13666 5fa0 2D804000 	move $16,$2
 13667 5fa4 1400228E 	lw $2,20($17)
 13668 5fa8 2D202002 	move $4,$17
 13669 5fac 25800302 	or $16,$16,$3
 13670 5fb0 FAFF4224 	addu $2,$2,-6
 13671 5fb4 21800502 	addu $16,$16,$5
 13672              	.set noreorder
 13673              	.set nomacro
 13674 5fb8 22FF0010 	b $L2075
 13675 5fbc 140022AE 	sw $2,20($17)
 13676              	.set macro
 13677              	.set reorder
 13678              	
 13679              	$L1416:
 13680 5fc0 2D288002 	move $5,$20
 13681              	.set noreorder
 13682              	.set nomacro
 13683 5fc4 1A01000C 	jal _SNCPUFetch8
 13684 5fc8 2D202002 	move $4,$17
 13685              	.set macro
 13686              	.set reorder
 13687              	
 13688 5fcc 01009426 	addu $20,$20,1
 13689 5fd0 2D804000 	move $16,$2
 13690 5fd4 2D202002 	move $4,$17
 13691 5fd8 0A002296 	lhu $2,10($17)
 13692              	
 13693 5fdc 21800202 	addu $16,$16,$2
 13694 5fe0 FFFF1032 	andi $16,$16,0xffff
 13695              	.set noreorder
 13696              	.set nomacro
 13697 5fe4 A400000C 	jal _SNCPURead16
 13698 5fe8 2D280002 	move $5,$16
 13699              	.set macro
 13700              	.set reorder
GAS LISTING  			page 242


 13701              	
 13702 5fec 2D202002 	move $4,$17
 13703 5ff0 2D804000 	move $16,$2
 13704 5ff4 1000228E 	lw $2,16($17)
 13705              	
 13706 5ff8 25800202 	or $16,$16,$2
 13707 5ffc FFFF0532 	andi $5,$16,0xffff
 13708              	$L1676:
 13709 6000 2002000C 	jal _SNCPUPush16
 13709      00000000 
 13710              	.set noreorder
 13711              	.set nomacro
 13712 6008 CCEA0010 	b $L2147
 13713 600c 1400228E 	lw $2,20($17)
 13714              	.set macro
 13715              	.set reorder
 13716              	
 13717              	$L1095:
 13718 6010 2D288002 	move $5,$20
 13719              	.set noreorder
 13720              	.set nomacro
 13721 6014 1A01000C 	jal _SNCPUFetch8
 13722 6018 2D202002 	move $4,$17
 13723              	.set macro
 13724              	.set reorder
 13725              	
 13726 601c 01009426 	addu $20,$20,1
 13727 6020 2D804000 	move $16,$2
 13728 6024 1400238E 	lw $3,20($17)
 13729 6028 0A002296 	lhu $2,10($17)
 13730 602c 2D202002 	move $4,$17
 13731 6030 FAFF6324 	addu $3,$3,-6
 13732 6034 02002596 	lhu $5,2($17)
 13733 6038 21800202 	addu $16,$16,$2
 13734 603c 140023AE 	sw $3,20($17)
 13735 6040 FFFF1032 	andi $16,$16,0xffff
 13736 6044 0000A38F 	lw $3,0($sp)
 13737 6048 21800502 	addu $16,$16,$5
 13738              	.set noreorder
 13739              	.set nomacro
 13740 604c FDFE0010 	b $L2075
 13741 6050 24800302 	and $16,$16,$3
 13742              	.set macro
 13743              	.set reorder
 13744              	
 13745              	$L1251:
 13746 6054 2D288002 	move $5,$20
 13747              	.set noreorder
 13748              	.set nomacro
 13749 6058 1A01000C 	jal _SNCPUFetch8
 13750 605c 2D202002 	move $4,$17
 13751              	.set macro
 13752              	.set reorder
 13753              	
 13754 6060 01009426 	addu $20,$20,1
 13755 6064 0A002396 	lhu $3,10($17)
 13756 6068 2D804000 	move $16,$2
GAS LISTING  			page 243


 13757 606c 1400228E 	lw $2,20($17)
 13758 6070 2D202002 	move $4,$17
 13759 6074 21800302 	addu $16,$16,$3
 13760 6078 02002596 	lhu $5,2($17)
 13761 607c FFFF1032 	andi $16,$16,0xffff
 13762 6080 FAFF4224 	addu $2,$2,-6
 13763 6084 0000A38F 	lw $3,0($sp)
 13764 6088 21800502 	addu $16,$16,$5
 13765 608c 140022AE 	sw $2,20($17)
 13766              	.set noreorder
 13767              	.set nomacro
 13768 6090 3DFF0010 	b $L1760
 13769 6094 24800302 	and $16,$16,$3
 13770              	.set macro
 13771              	.set reorder
 13772              	
 13773              	$L1100:
 13774 6098 2D288002 	move $5,$20
 13775              	.set noreorder
 13776              	.set nomacro
 13777 609c 1A01000C 	jal _SNCPUFetch8
 13778 60a0 2D202002 	move $4,$17
 13779              	.set macro
 13780              	.set reorder
 13781              	
 13782 60a4 01009426 	addu $20,$20,1
 13783 60a8 2D804000 	move $16,$2
 13784 60ac 2D202002 	move $4,$17
 13785 60b0 0A002296 	lhu $2,10($17)
 13786              	
 13787 60b4 21800202 	addu $16,$16,$2
 13788 60b8 FFFF1032 	andi $16,$16,0xffff
 13789              	.set noreorder
 13790              	.set nomacro
 13791 60bc D400000C 	jal _SNCPURead24
 13792 60c0 2D280002 	move $5,$16
 13793              	.set macro
 13794              	.set reorder
 13795              	
 13796 60c4 2D202002 	move $4,$17
 13797 60c8 2D804000 	move $16,$2
 13798 60cc 04002296 	lhu $2,4($17)
 13799              	$L2074:
 13800              	.set noreorder
 13801              	.set nomacro
 13802 60d0 DCFE0010 	b $L2075
 13803 60d4 21800202 	addu $16,$16,$2
 13804              	.set macro
 13805              	.set reorder
 13806              	
 13807              	$L148:
 13808 60d8 08002292 	lbu $2,8($17)
 13809 60dc 1400238E 	lw $3,20($17)
 13810              	.set noreorder
 13811              	.set nomacro
 13812 60e0 91EA0010 	b $L1702
 13813 60e4 F7004230 	andi $2,$2,0xf7
GAS LISTING  			page 244


 13814              	.set macro
 13815              	.set reorder
 13816              	
 13817              	$L1105:
 13818 60e8 2D288002 	move $5,$20
 13819              	.set noreorder
 13820              	.set nomacro
 13821 60ec 3001000C 	jal _SNCPUFetch16
 13822 60f0 2D202002 	move $4,$17
 13823              	.set macro
 13824              	.set reorder
 13825              	
 13826 60f4 02009426 	addu $20,$20,2
 13827 60f8 2D804000 	move $16,$2
 13828 60fc 1000238E 	lw $3,16($17)
 13829 6100 04002296 	lhu $2,4($17)
 13830 6104 2D202002 	move $4,$17
 13831              	$L2101:
 13832              	.set noreorder
 13833              	.set nomacro
 13834 6108 F1FF0010 	b $L2074
 13835 610c 25800302 	or $16,$16,$3
 13836              	.set macro
 13837              	.set reorder
 13838              	
 13839              	$L1450:
 13840              	.set noreorder
 13841              	.set nomacro
 13842 6110 07F60010 	b $L2021
 13843 6114 02002592 	lbu $5,2($17)
 13844              	.set macro
 13845              	.set reorder
 13846              	
 13847              	$L1175:
 13848              	
 13849 6118 2D288002 	move $5,$20
 13850              	.set noreorder
 13851              	.set nomacro
 13852 611c 3001000C 	jal _SNCPUFetch16
 13853 6120 2D202002 	move $4,$17
 13854              	.set macro
 13855              	.set reorder
 13856              	
 13857 6124 2D202002 	move $4,$17
 13858              	.set noreorder
 13859              	.set nomacro
 13860 6128 D400000C 	jal _SNCPURead24
 13861 612c 2D284000 	move $5,$2
 13862              	.set macro
 13863              	.set reorder
 13864              	
 13865              	.set noreorder
 13866              	.set nomacro
 13867 6130 24FA0010 	b $L2156
 13868 6134 2D804000 	move $16,$2
 13869              	.set macro
 13870              	.set reorder
GAS LISTING  			page 245


 13871              	
 13872              	$L1110:
 13873 6138 2D288002 	move $5,$20
 13874              	.set noreorder
 13875              	.set nomacro
 13876 613c 3001000C 	jal _SNCPUFetch16
 13877 6140 2D202002 	move $4,$17
 13878              	.set macro
 13879              	.set reorder
 13880              	
 13881 6144 02009426 	addu $20,$20,2
 13882 6148 2D804000 	move $16,$2
 13883 614c 1000238E 	lw $3,16($17)
 13884 6150 02002296 	lhu $2,2($17)
 13885              	.set noreorder
 13886              	.set nomacro
 13887 6154 ECFF0010 	b $L2101
 13888 6158 2D202002 	move $4,$17
 13889              	.set macro
 13890              	.set reorder
 13891              	
 13892              	$L1256:
 13893 615c 2D288002 	move $5,$20
 13894              	.set noreorder
 13895              	.set nomacro
 13896 6160 3001000C 	jal _SNCPUFetch16
 13897 6164 2D202002 	move $4,$17
 13898              	.set macro
 13899              	.set reorder
 13900              	
 13901 6168 02009426 	addu $20,$20,2
 13902 616c 1000238E 	lw $3,16($17)
 13903 6170 2D804000 	move $16,$2
 13904 6174 02002296 	lhu $2,2($17)
 13905 6178 2D202002 	move $4,$17
 13906 617c 25800302 	or $16,$16,$3
 13907 6180 21800202 	addu $16,$16,$2
 13908              	.set noreorder
 13909              	.set nomacro
 13910 6184 8E00000C 	jal _SNCPURead8
 13911 6188 2D280002 	move $5,$16
 13912              	.set macro
 13913              	.set reorder
 13914              	
 13915 618c 2D280002 	move $5,$16
 13916 6190 FFFF5324 	addu $19,$2,-1
 13917              	$L1996:
 13918              	.set noreorder
 13919              	.set nomacro
 13920 6194 29FA0010 	b $L2030
 13921 6198 2D202002 	move $4,$17
 13922              	.set macro
 13923              	.set reorder
 13924              	
 13925              	$L1115:
 13926 619c 2D288002 	move $5,$20
 13927              	.set noreorder
GAS LISTING  			page 246


 13928              	.set nomacro
 13929 61a0 6001000C 	jal _SNCPUFetch24
 13930 61a4 2D202002 	move $4,$17
 13931              	.set macro
 13932              	.set reorder
 13933              	
 13934 61a8 03009426 	addu $20,$20,3
 13935 61ac 2D804000 	move $16,$2
 13936 61b0 2D202002 	move $4,$17
 13937              	.set noreorder
 13938              	.set nomacro
 13939 61b4 C6FF0010 	b $L2074
 13940 61b8 02002296 	lhu $2,2($17)
 13941              	.set macro
 13942              	.set reorder
 13943              	
 13944              	$L1120:
 13945 61bc 2D288002 	move $5,$20
 13946              	.set noreorder
 13947              	.set nomacro
 13948 61c0 1A01000C 	jal _SNCPUFetch8
 13949 61c4 2D202002 	move $4,$17
 13950              	.set macro
 13951              	.set reorder
 13952              	
 13953 61c8 01009426 	addu $20,$20,1
 13954 61cc 2D984000 	move $19,$2
 13955              	$L1988:
 13956              	.set noreorder
 13957              	.set nomacro
 13958 61d0 81FE0010 	b $L1972
 13959 61d4 02003292 	lbu $18,2($17)
 13960              	.set macro
 13961              	.set reorder
 13962              	
 13963              	$L413:
 13964 61d8 2D288002 	move $5,$20
 13965              	.set noreorder
 13966              	.set nomacro
 13967 61dc 1A01000C 	jal _SNCPUFetch8
 13968 61e0 2D202002 	move $4,$17
 13969              	.set macro
 13970              	.set reorder
 13971              	
 13972 61e4 01009426 	addu $20,$20,1
 13973 61e8 0A002396 	lhu $3,10($17)
 13974 61ec 2D804000 	move $16,$2
 13975 61f0 02002596 	lhu $5,2($17)
 13976 61f4 2D202002 	move $4,$17
 13977 61f8 21800302 	addu $16,$16,$3
 13978 61fc 1400228E 	lw $2,20($17)
 13979 6200 FFFF1032 	andi $16,$16,0xffff
 13980 6204 0000A38F 	lw $3,0($sp)
 13981 6208 21800502 	addu $16,$16,$5
 13982 620c FAFF4224 	addu $2,$2,-6
 13983 6210 24800302 	and $16,$16,$3
 13984 6214 140022AE 	sw $2,20($17)
GAS LISTING  			page 247


 13985              	$L2145:
 13986              	.set noreorder
 13987              	.set nomacro
 13988 6218 A400000C 	jal _SNCPURead16
 13989 621c 2D280002 	move $5,$16
 13990              	.set macro
 13991              	.set reorder
 13992              	
 13993 6220 2D202002 	move $4,$17
 13994 6224 2D804000 	move $16,$2
 13995 6228 1000228E 	lw $2,16($17)
 13996              	$L2138:
 13997 622c 25800202 	or $16,$16,$2
 13998              	$L2133:
 13999              	.set noreorder
 14000              	.set nomacro
 14001 6230 8E00000C 	jal _SNCPURead8
 14002 6234 2D280002 	move $5,$16
 14003              	.set macro
 14004              	.set reorder
 14005              	
 14006 6238 00003292 	lbu $18,0($17)
 14007 623c FF005338 	xori $19,$2,0xff
 14008 6240 0100E432 	andi $4,$23,0x1
 14009 6244 21185302 	addu $3,$18,$19
 14010 6248 2D284002 	move $5,$18
 14011 624c 26105302 	xor $2,$18,$19
 14012 6250 21906400 	addu $18,$3,$4
 14013 6254 27100200 	nor $2,$0,$2
 14014 6258 2618B200 	xor $3,$5,$18
 14015 625c 24104300 	and $2,$2,$3
 14016 6260 80004230 	andi $2,$2,0x80
 14017              	.set noreorder
 14018              	.set nomacro
 14019 6264 0B004010 	beq $2,$0,$L568
 14020 6268 08002292 	lbu $2,8($17)
 14021              	.set macro
 14022              	.set reorder
 14023              	
 14024              	$L2166:
 14025 626c 40004234 	ori $2,$2,0x40
 14026              	$L1670:
 14027 6270 080022A2 	sb $2,8($17)
 14028 6274 08002292 	lbu $2,8($17)
 14029              	
 14030 6278 08004230 	andi $2,$2,0x8
 14031              	.set noreorder
 14032              	.set nomacro
 14033 627c 35FA4050 	beql $2,$0,$L2163
 14034 6280 000032A2 	sb $18,0($17)
 14035              	.set macro
 14036              	.set reorder
 14037              	
 14038              	.set noreorder
 14039              	.set nomacro
 14040 6284 4400000C 	jal _SNCpuDecimalSBC8
 14041 6288 2D306002 	move $6,$19
GAS LISTING  			page 248


 14042              	.set macro
 14043              	.set reorder
 14044              	
 14045              	.set noreorder
 14046              	.set nomacro
 14047 628c 30FA0010 	b $L570
 14048 6290 2D904000 	move $18,$2
 14049              	.set macro
 14050              	.set reorder
 14051              	
 14052              	$L568:
 14053              	.set noreorder
 14054              	.set nomacro
 14055 6294 F6FF0010 	b $L1670
 14056 6298 BF004230 	andi $2,$2,0xbf
 14057              	.set macro
 14058              	.set reorder
 14059              	
 14060              	$L1508:
 14061 629c 2D288002 	move $5,$20
 14062              	.set noreorder
 14063              	.set nomacro
 14064 62a0 1A01000C 	jal _SNCPUFetch8
 14065 62a4 2D202002 	move $4,$17
 14066              	.set macro
 14067              	.set reorder
 14068              	
 14069 62a8 01009426 	addu $20,$20,1
 14070 62ac 08002392 	lbu $3,8($17)
 14071 62b0 01004630 	andi $6,$2,0x1
 14072 62b4 02004530 	andi $5,$2,0x2
 14073 62b8 80004430 	andi $4,$2,0x80
 14074 62bc 25186200 	or $3,$3,$2
 14075 62c0 10004730 	andi $7,$2,0x10
 14076 62c4 01000824 	li $8,1
 14077 62c8 FFFF0234 	li $2,65535
 14078 62cc 080023A2 	sb $3,8($17)
 14079 62d0 0BB04400 	movn $22,$2,$4
 14080 62d4 0BB80601 	movn $23,$8,$6
 14081              	.set noreorder
 14082              	.set nomacro
 14083 62d8 0300E010 	beq $7,$0,$L1512
 14084 62dc 0BA80500 	movn $21,$0,$5
 14085              	.set macro
 14086              	.set reorder
 14087              	
 14088 62e0 030020A2 	sb $0,3($17)
 14089 62e4 050020A2 	sb $0,5($17)
 14090              	$L1512:
 14091 62e8 09002292 	lbu $2,9($17)
 14092              	
 14093              	.set noreorder
 14094              	.set nomacro
 14095 62ec 0B004050 	beql $2,$0,$L2165
 14096 62f0 08002292 	lbu $2,8($17)
 14097              	.set macro
 14098              	.set reorder
GAS LISTING  			page 249


 14099              	
 14100              	
 14101 62f4 08002292 	lbu $2,8($17)
 14102 62f8 FF000324 	li $3,255
 14103 62fc 00041E24 	li $fp,1024
 14104 6300 0000A3AF 	sw $3,0($sp)
 14105 6304 30004234 	ori $2,$2,0x30
 14106 6308 0A0020A6 	sh $0,10($17)
 14107 630c 070028A2 	sb $8,7($17)
 14108              	.set noreorder
 14109              	.set nomacro
 14110 6310 67EA0010 	b $L1605
 14111 6314 080022A2 	sb $2,8($17)
 14112              	.set macro
 14113              	.set reorder
 14114              	
 14115              	$L1513:
 14116 6318 08002292 	lbu $2,8($17)
 14117              	$L2165:
 14118 631c FFFF0334 	li $3,65535
 14119 6320 0000A3AF 	sw $3,0($sp)
 14120              	.set noreorder
 14121              	.set nomacro
 14122 6324 6AFE0010 	b $L1796
 14123 6328 00110200 	sll $2,$2,4
 14124              	.set macro
 14125              	.set reorder
 14126              	
 14127              	$L424:
 14128 632c 2D288002 	move $5,$20
 14129              	.set noreorder
 14130              	.set nomacro
 14131 6330 1A01000C 	jal _SNCPUFetch8
 14132 6334 2D202002 	move $4,$17
 14133              	.set macro
 14134              	.set reorder
 14135              	
 14136 6338 01009426 	addu $20,$20,1
 14137 633c 2D804000 	move $16,$2
 14138 6340 06002396 	lhu $3,6($17)
 14139 6344 1400228E 	lw $2,20($17)
 14140 6348 2D202002 	move $4,$17
 14141 634c 21800302 	addu $16,$16,$3
 14142 6350 FAFF4224 	addu $2,$2,-6
 14143 6354 140022AE 	sw $2,20($17)
 14144              	$L2137:
 14145              	.set noreorder
 14146              	.set nomacro
 14147 6358 B5FF0010 	b $L2133
 14148 635c FFFF1032 	andi $16,$16,0xffff
 14149              	.set macro
 14150              	.set reorder
 14151              	
 14152              	$L1125:
 14153 6360 2D288002 	move $5,$20
 14154              	.set noreorder
 14155              	.set nomacro
GAS LISTING  			page 250


 14156 6364 1A01000C 	jal _SNCPUFetch8
 14157 6368 2D202002 	move $4,$17
 14158              	.set macro
 14159              	.set reorder
 14160              	
 14161 636c 01009426 	addu $20,$20,1
 14162 6370 2D804000 	move $16,$2
 14163 6374 2D202002 	move $4,$17
 14164 6378 0A002296 	lhu $2,10($17)
 14165              	
 14166 637c 21800202 	addu $16,$16,$2
 14167 6380 FFFF1032 	andi $16,$16,0xffff
 14168              	$L2077:
 14169              	.set noreorder
 14170              	.set nomacro
 14171 6384 8E00000C 	jal _SNCPURead8
 14172 6388 2D280002 	move $5,$16
 14173              	.set macro
 14174              	.set reorder
 14175              	
 14176              	.set noreorder
 14177              	.set nomacro
 14178 638c 90FF0010 	b $L1988
 14179 6390 2D984000 	move $19,$2
 14180              	.set macro
 14181              	.set reorder
 14182              	
 14183              	$L435:
 14184 6394 2D288002 	move $5,$20
 14185              	.set noreorder
 14186              	.set nomacro
 14187 6398 1A01000C 	jal _SNCPUFetch8
 14188 639c 2D202002 	move $4,$17
 14189              	.set macro
 14190              	.set reorder
 14191              	
 14192 63a0 01009426 	addu $20,$20,1
 14193 63a4 2D804000 	move $16,$2
 14194 63a8 2D202002 	move $4,$17
 14195 63ac 0A002296 	lhu $2,10($17)
 14196              	.set noreorder
 14197              	.set nomacro
 14198 63b0 E9FF0010 	b $L2137
 14199 63b4 21800202 	addu $16,$16,$2
 14200              	.set macro
 14201              	.set reorder
 14202              	
 14203              	$L1261:
 14204 63b8 2D288002 	move $5,$20
 14205              	.set noreorder
 14206              	.set nomacro
 14207 63bc 1A01000C 	jal _SNCPUFetch8
 14208 63c0 2D202002 	move $4,$17
 14209              	.set macro
 14210              	.set reorder
 14211              	
 14212 63c4 01009426 	addu $20,$20,1
GAS LISTING  			page 251


 14213 63c8 2D804000 	move $16,$2
 14214 63cc 2D202002 	move $4,$17
 14215 63d0 0A002296 	lhu $2,10($17)
 14216              	
 14217 63d4 21800202 	addu $16,$16,$2
 14218 63d8 FFFF1032 	andi $16,$16,0xffff
 14219              	$L1995:
 14220              	.set noreorder
 14221              	.set nomacro
 14222 63dc 8E00000C 	jal _SNCPURead8
 14223 63e0 2D280002 	move $5,$16
 14224              	.set macro
 14225              	.set reorder
 14226              	
 14227 63e4 2D280002 	move $5,$16
 14228              	.set noreorder
 14229              	.set nomacro
 14230 63e8 6BFE0010 	b $L1766
 14231 63ec 01005324 	addu $19,$2,1
 14232              	.set macro
 14233              	.set reorder
 14234              	
 14235              	$L446:
 14236 63f0 2D288002 	move $5,$20
 14237              	.set noreorder
 14238              	.set nomacro
 14239 63f4 1A01000C 	jal _SNCPUFetch8
 14240 63f8 2D202002 	move $4,$17
 14241              	.set macro
 14242              	.set reorder
 14243              	
 14244 63fc 01009426 	addu $20,$20,1
 14245 6400 2D804000 	move $16,$2
 14246 6404 2D202002 	move $4,$17
 14247 6408 0A002296 	lhu $2,10($17)
 14248              	
 14249 640c 21800202 	addu $16,$16,$2
 14250 6410 FFFF1032 	andi $16,$16,0xffff
 14251              	.set noreorder
 14252              	.set nomacro
 14253 6414 D400000C 	jal _SNCPURead24
 14254 6418 2D280002 	move $5,$16
 14255              	.set macro
 14256              	.set reorder
 14257              	
 14258 641c 2D202002 	move $4,$17
 14259              	.set noreorder
 14260              	.set nomacro
 14261 6420 83FF0010 	b $L2133
 14262 6424 2D804000 	move $16,$2
 14263              	.set macro
 14264              	.set reorder
 14265              	
 14266              	$L235:
 14267 6428 02003392 	lbu $19,2($17)
 14268 642c 1400228E 	lw $2,20($17)
 14269              	.set noreorder
GAS LISTING  			page 252


 14270              	.set nomacro
 14271 6430 76FE0010 	b $L1691
 14272 6434 01007326 	addu $19,$19,1
 14273              	.set macro
 14274              	.set reorder
 14275              	
 14276              	$L457:
 14277 6438 2D288002 	move $5,$20
 14278              	.set noreorder
 14279              	.set nomacro
 14280 643c 1A01000C 	jal _SNCPUFetch8
 14281 6440 2D202002 	move $4,$17
 14282              	.set macro
 14283              	.set reorder
 14284              	
 14285 6444 01009426 	addu $20,$20,1
 14286 6448 00003292 	lbu $18,0($17)
 14287 644c 2D984000 	move $19,$2
 14288 6450 0100E432 	andi $4,$23,0x1
 14289              	$L2134:
 14290 6454 FF00733A 	xori $19,$19,0xff
 14291 6458 2D284002 	move $5,$18
 14292 645c 21105302 	addu $2,$18,$19
 14293 6460 26185302 	xor $3,$18,$19
 14294 6464 21904400 	addu $18,$2,$4
 14295 6468 27180300 	nor $3,$0,$3
 14296 646c 2610B200 	xor $2,$5,$18
 14297 6470 24186200 	and $3,$3,$2
 14298 6474 80006330 	andi $3,$3,0x80
 14299              	.set noreorder
 14300              	.set nomacro
 14301 6478 7CFF6014 	bne $3,$0,$L2166
 14302 647c 08002292 	lbu $2,8($17)
 14303              	.set macro
 14304              	.set reorder
 14305              	
 14306              	.set noreorder
 14307              	.set nomacro
 14308 6480 7BFF0010 	b $L1670
 14309 6484 BF004230 	andi $2,$2,0xbf
 14310              	.set macro
 14311              	.set reorder
 14312              	
 14313              	$L1490:
 14314 6488 00003396 	lhu $19,0($17)
 14315 648c 1400228E 	lw $2,20($17)
 14316 6490 02821300 	srl $16,$19,8
 14317 6494 009A1300 	sll $19,$19,8
 14318 6498 00AA1000 	sll $21,$16,8
 14319 649c 25987002 	or $19,$19,$16
 14320 64a0 F4FF4224 	addu $2,$2,-12
 14321 64a4 2DB0A002 	move $22,$21
 14322              	.set noreorder
 14323              	.set nomacro
 14324 64a8 03EA0010 	b $L1671
 14325 64ac 000033A6 	sh $19,0($17)
 14326              	.set macro
GAS LISTING  			page 253


 14327              	.set reorder
 14328              	
 14329              	$L1130:
 14330 64b0 2D288002 	move $5,$20
 14331              	.set noreorder
 14332              	.set nomacro
 14333 64b4 3001000C 	jal _SNCPUFetch16
 14334 64b8 2D202002 	move $4,$17
 14335              	.set macro
 14336              	.set reorder
 14337              	
 14338 64bc 02009426 	addu $20,$20,2
 14339 64c0 2D804000 	move $16,$2
 14340 64c4 2D202002 	move $4,$17
 14341 64c8 1000228E 	lw $2,16($17)
 14342              	.set noreorder
 14343              	.set nomacro
 14344 64cc ADFF0010 	b $L2077
 14345 64d0 25800202 	or $16,$16,$2
 14346              	.set macro
 14347              	.set reorder
 14348              	
 14349              	$L468:
 14350 64d4 2D288002 	move $5,$20
 14351              	.set noreorder
 14352              	.set nomacro
 14353 64d8 3001000C 	jal _SNCPUFetch16
 14354 64dc 2D202002 	move $4,$17
 14355              	.set macro
 14356              	.set reorder
 14357              	
 14358 64e0 02009426 	addu $20,$20,2
 14359 64e4 2D804000 	move $16,$2
 14360 64e8 2D202002 	move $4,$17
 14361              	.set noreorder
 14362              	.set nomacro
 14363 64ec 4FFF0010 	b $L2138
 14364 64f0 1000228E 	lw $2,16($17)
 14365              	.set macro
 14366              	.set reorder
 14367              	
 14368              	$L1266:
 14369 64f4 2D288002 	move $5,$20
 14370              	.set noreorder
 14371              	.set nomacro
 14372 64f8 3001000C 	jal _SNCPUFetch16
 14373 64fc 2D202002 	move $4,$17
 14374              	.set macro
 14375              	.set reorder
 14376              	
 14377 6500 02009426 	addu $20,$20,2
 14378 6504 2D804000 	move $16,$2
 14379 6508 2D202002 	move $4,$17
 14380 650c 1000228E 	lw $2,16($17)
 14381              	.set noreorder
 14382              	.set nomacro
 14383 6510 B2FF0010 	b $L1995
GAS LISTING  			page 254


 14384 6514 25800202 	or $16,$16,$2
 14385              	.set macro
 14386              	.set reorder
 14387              	
 14388              	$L479:
 14389 6518 2D288002 	move $5,$20
 14390              	.set noreorder
 14391              	.set nomacro
 14392 651c 6001000C 	jal _SNCPUFetch24
 14393 6520 2D202002 	move $4,$17
 14394              	.set macro
 14395              	.set reorder
 14396              	
 14397 6524 03009426 	addu $20,$20,3
 14398 6528 2D202002 	move $4,$17
 14399              	.set noreorder
 14400              	.set nomacro
 14401 652c 8E00000C 	jal _SNCPURead8
 14402 6530 2D284000 	move $5,$2
 14403              	.set macro
 14404              	.set reorder
 14405              	
 14406 6534 00003292 	lbu $18,0($17)
 14407 6538 2D984000 	move $19,$2
 14408              	.set noreorder
 14409              	.set nomacro
 14410 653c C5FF0010 	b $L2134
 14411 6540 0100E432 	andi $4,$23,0x1
 14412              	.set macro
 14413              	.set reorder
 14414              	
 14415              	$L1541:
 14416 6544 2D288002 	move $5,$20
 14417              	.set noreorder
 14418              	.set nomacro
 14419 6548 1A01000C 	jal _SNCPUFetch8
 14420 654c 2D202002 	move $4,$17
 14421              	.set macro
 14422              	.set reorder
 14423              	
 14424 6550 01009426 	addu $20,$20,1
 14425 6554 2D184000 	move $3,$2
 14426              	.set noreorder
 14427              	.set nomacro
 14428 6558 32F50010 	b $L1754
 14429 655c FFFFA232 	andi $2,$21,0xffff
 14430              	.set macro
 14431              	.set reorder
 14432              	
 14433              	$L490:
 14434 6560 2D288002 	move $5,$20
 14435              	.set noreorder
 14436              	.set nomacro
 14437 6564 1A01000C 	jal _SNCPUFetch8
 14438 6568 2D202002 	move $4,$17
 14439              	.set macro
 14440              	.set reorder
GAS LISTING  			page 255


 14441              	
 14442 656c 01009426 	addu $20,$20,1
 14443 6570 2D804000 	move $16,$2
 14444 6574 2D202002 	move $4,$17
 14445 6578 0A002296 	lhu $2,10($17)
 14446              	
 14447 657c 21800202 	addu $16,$16,$2
 14448 6580 FFFF1032 	andi $16,$16,0xffff
 14449              	.set noreorder
 14450              	.set nomacro
 14451 6584 A400000C 	jal _SNCPURead16
 14452 6588 2D280002 	move $5,$16
 14453              	.set macro
 14454              	.set reorder
 14455              	
 14456 658c 04002396 	lhu $3,4($17)
 14457 6590 2D804000 	move $16,$2
 14458 6594 2D202002 	move $4,$17
 14459 6598 1000228E 	lw $2,16($17)
 14460              	
 14461 659c 25800202 	or $16,$16,$2
 14462              	.set noreorder
 14463              	.set nomacro
 14464 65a0 23FF0010 	b $L2133
 14465 65a4 21800302 	addu $16,$16,$3
 14466              	.set macro
 14467              	.set reorder
 14468              	
 14469              	$L501:
 14470 65a8 2D288002 	move $5,$20
 14471              	.set noreorder
 14472              	.set nomacro
 14473 65ac 1A01000C 	jal _SNCPUFetch8
 14474 65b0 2D202002 	move $4,$17
 14475              	.set macro
 14476              	.set reorder
 14477              	
 14478 65b4 01009426 	addu $20,$20,1
 14479 65b8 2D804000 	move $16,$2
 14480 65bc 2D202002 	move $4,$17
 14481 65c0 0A002296 	lhu $2,10($17)
 14482              	
 14483 65c4 21800202 	addu $16,$16,$2
 14484              	.set noreorder
 14485              	.set nomacro
 14486 65c8 13FF0010 	b $L2145
 14487 65cc FFFF1032 	andi $16,$16,0xffff
 14488              	.set macro
 14489              	.set reorder
 14490              	
 14491              	$L512:
 14492 65d0 2D288002 	move $5,$20
 14493              	.set noreorder
 14494              	.set nomacro
 14495 65d4 1A01000C 	jal _SNCPUFetch8
 14496 65d8 2D202002 	move $4,$17
 14497              	.set macro
GAS LISTING  			page 256


 14498              	.set reorder
 14499              	
 14500 65dc 01009426 	addu $20,$20,1
 14501 65e0 06002396 	lhu $3,6($17)
 14502 65e4 2D804000 	move $16,$2
 14503 65e8 1400228E 	lw $2,20($17)
 14504 65ec 2D202002 	move $4,$17
 14505 65f0 21800302 	addu $16,$16,$3
 14506 65f4 FAFF4224 	addu $2,$2,-6
 14507 65f8 FFFF1032 	andi $16,$16,0xffff
 14508 65fc 140022AE 	sw $2,20($17)
 14509              	.set noreorder
 14510              	.set nomacro
 14511 6600 A400000C 	jal _SNCPURead16
 14512 6604 2D280002 	move $5,$16
 14513              	.set macro
 14514              	.set reorder
 14515              	
 14516 6608 04002596 	lhu $5,4($17)
 14517 660c 1000238E 	lw $3,16($17)
 14518 6610 2D804000 	move $16,$2
 14519 6614 1400228E 	lw $2,20($17)
 14520 6618 2D202002 	move $4,$17
 14521 661c 25800302 	or $16,$16,$3
 14522 6620 FAFF4224 	addu $2,$2,-6
 14523 6624 21800502 	addu $16,$16,$5
 14524              	.set noreorder
 14525              	.set nomacro
 14526 6628 01FF0010 	b $L2133
 14527 662c 140022AE 	sw $2,20($17)
 14528              	.set macro
 14529              	.set reorder
 14530              	
 14531              	$L1411:
 14532 6630 2D288002 	move $5,$20
 14533              	.set noreorder
 14534              	.set nomacro
 14535 6634 3001000C 	jal _SNCPUFetch16
 14536 6638 2D202002 	move $4,$17
 14537              	.set macro
 14538              	.set reorder
 14539              	
 14540 663c 02009426 	addu $20,$20,2
 14541 6640 FFFF4530 	andi $5,$2,0xffff
 14542              	.set noreorder
 14543              	.set nomacro
 14544 6644 6EFE0010 	b $L1676
 14545 6648 2D202002 	move $4,$17
 14546              	.set macro
 14547              	.set reorder
 14548              	
 14549              	$L523:
 14550 664c 2D288002 	move $5,$20
 14551              	.set noreorder
 14552              	.set nomacro
 14553 6650 1A01000C 	jal _SNCPUFetch8
 14554 6654 2D202002 	move $4,$17
GAS LISTING  			page 257


 14555              	.set macro
 14556              	.set reorder
 14557              	
 14558 6658 01009426 	addu $20,$20,1
 14559 665c 0A002396 	lhu $3,10($17)
 14560 6660 2D804000 	move $16,$2
 14561 6664 02002596 	lhu $5,2($17)
 14562 6668 2D202002 	move $4,$17
 14563 666c 21800302 	addu $16,$16,$3
 14564 6670 1400228E 	lw $2,20($17)
 14565 6674 FFFF1032 	andi $16,$16,0xffff
 14566 6678 0000A38F 	lw $3,0($sp)
 14567 667c 21800502 	addu $16,$16,$5
 14568 6680 FAFF4224 	addu $2,$2,-6
 14569 6684 24800302 	and $16,$16,$3
 14570              	.set noreorder
 14571              	.set nomacro
 14572 6688 E9FE0010 	b $L2133
 14573 668c 140022AE 	sw $2,20($17)
 14574              	.set macro
 14575              	.set reorder
 14576              	
 14577              	$L1271:
 14578 6690 2D288002 	move $5,$20
 14579              	.set noreorder
 14580              	.set nomacro
 14581 6694 1A01000C 	jal _SNCPUFetch8
 14582 6698 2D202002 	move $4,$17
 14583              	.set macro
 14584              	.set reorder
 14585              	
 14586 669c 01009426 	addu $20,$20,1
 14587 66a0 0A002396 	lhu $3,10($17)
 14588 66a4 2D804000 	move $16,$2
 14589 66a8 1400228E 	lw $2,20($17)
 14590 66ac 2D202002 	move $4,$17
 14591 66b0 21800302 	addu $16,$16,$3
 14592 66b4 02002596 	lhu $5,2($17)
 14593 66b8 FFFF1032 	andi $16,$16,0xffff
 14594 66bc FAFF4224 	addu $2,$2,-6
 14595 66c0 0000A38F 	lw $3,0($sp)
 14596 66c4 21800502 	addu $16,$16,$5
 14597 66c8 140022AE 	sw $2,20($17)
 14598              	.set noreorder
 14599              	.set nomacro
 14600 66cc 43FF0010 	b $L1995
 14601 66d0 24800302 	and $16,$16,$3
 14602              	.set macro
 14603              	.set reorder
 14604              	
 14605              	$L534:
 14606 66d4 2D288002 	move $5,$20
 14607              	.set noreorder
 14608              	.set nomacro
 14609 66d8 1A01000C 	jal _SNCPUFetch8
 14610 66dc 2D202002 	move $4,$17
 14611              	.set macro
GAS LISTING  			page 258


 14612              	.set reorder
 14613              	
 14614 66e0 01009426 	addu $20,$20,1
 14615 66e4 2D804000 	move $16,$2
 14616 66e8 2D202002 	move $4,$17
 14617 66ec 0A002296 	lhu $2,10($17)
 14618              	
 14619 66f0 21800202 	addu $16,$16,$2
 14620 66f4 FFFF1032 	andi $16,$16,0xffff
 14621              	.set noreorder
 14622              	.set nomacro
 14623 66f8 D400000C 	jal _SNCPURead24
 14624 66fc 2D280002 	move $5,$16
 14625              	.set macro
 14626              	.set reorder
 14627              	
 14628 6700 2D202002 	move $4,$17
 14629 6704 2D804000 	move $16,$2
 14630 6708 04002296 	lhu $2,4($17)
 14631              	$L2132:
 14632              	.set noreorder
 14633              	.set nomacro
 14634 670c C8FE0010 	b $L2133
 14635 6710 21800202 	addu $16,$16,$2
 14636              	.set macro
 14637              	.set reorder
 14638              	
 14639              	$L153:
 14640 6714 08002292 	lbu $2,8($17)
 14641 6718 1400238E 	lw $3,20($17)
 14642              	.set noreorder
 14643              	.set nomacro
 14644 671c 02E90010 	b $L1702
 14645 6720 08004234 	ori $2,$2,0x8
 14646              	.set macro
 14647              	.set reorder
 14648              	
 14649              	$L545:
 14650 6724 2D288002 	move $5,$20
 14651              	.set noreorder
 14652              	.set nomacro
 14653 6728 3001000C 	jal _SNCPUFetch16
 14654 672c 2D202002 	move $4,$17
 14655              	.set macro
 14656              	.set reorder
 14657              	
 14658 6730 02009426 	addu $20,$20,2
 14659 6734 2D804000 	move $16,$2
 14660 6738 1000238E 	lw $3,16($17)
 14661 673c 04002296 	lhu $2,4($17)
 14662 6740 2D202002 	move $4,$17
 14663              	$L2135:
 14664              	.set noreorder
 14665              	.set nomacro
 14666 6744 F1FF0010 	b $L2132
 14667 6748 25800302 	or $16,$16,$3
 14668              	.set macro
GAS LISTING  			page 259


 14669              	.set reorder
 14670              	
 14671              	$L1455:
 14672              	.set noreorder
 14673              	.set nomacro
 14674 674c 4802000C 	jal _SNCPUPop8
 14675 6750 2D202002 	move $4,$17
 14676              	.set macro
 14677              	.set reorder
 14678              	
 14679 6754 2D804000 	move $16,$2
 14680 6758 1400228E 	lw $2,20($17)
 14681 675c 00AA1000 	sll $21,$16,8
 14682              	.set noreorder
 14683              	.set nomacro
 14684 6760 57ED0010 	b $L2020
 14685 6764 020030A2 	sb $16,2($17)
 14686              	.set macro
 14687              	.set reorder
 14688              	
 14689              	$L158:
 14690 6768 09003392 	lbu $19,9($17)
 14691 676c 0100F032 	andi $16,$23,0x1
 14692 6770 090030A2 	sb $16,9($17)
 14693              	.set noreorder
 14694              	.set nomacro
 14695 6774 E8FE0012 	beq $16,$0,$L1513
 14696 6778 01007732 	andi $23,$19,0x1
 14697              	.set macro
 14698              	.set reorder
 14699              	
 14700 677c 08002392 	lbu $3,8($17)
 14701 6780 FF000224 	li $2,255
 14702 6784 0000A2AF 	sw $2,0($sp)
 14703 6788 00041E24 	li $fp,1024
 14704 678c 30006334 	ori $3,$3,0x30
 14705 6790 01000224 	li $2,1
 14706 6794 070022A2 	sb $2,7($17)
 14707              	.set noreorder
 14708              	.set nomacro
 14709 6798 48FD0010 	b $L1797
 14710 679c 080023A2 	sb $3,8($17)
 14711              	.set macro
 14712              	.set reorder
 14713              	
 14714              	$L1180:
 14715 67a0 2D288002 	move $5,$20
 14716              	.set noreorder
 14717              	.set nomacro
 14718 67a4 3001000C 	jal _SNCPUFetch16
 14719 67a8 2D202002 	move $4,$17
 14720              	.set macro
 14721              	.set reorder
 14722              	
 14723 67ac 02009426 	addu $20,$20,2
 14724 67b0 2D804000 	move $16,$2
 14725 67b4 029C1400 	srl $19,$20,16
GAS LISTING  			page 260


 14726 67b8 02002296 	lhu $2,2($17)
 14727 67bc 009C1300 	sll $19,$19,16
 14728 67c0 2D202002 	move $4,$17
 14729 67c4 FFFF9226 	addu $18,$20,-1
 14730 67c8 21800202 	addu $16,$16,$2
 14731 67cc FFFF1032 	andi $16,$16,0xffff
 14732 67d0 25801302 	or $16,$16,$19
 14733              	.set noreorder
 14734              	.set nomacro
 14735 67d4 A400000C 	jal _SNCPURead16
 14736 67d8 2D280002 	move $5,$16
 14737              	.set macro
 14738              	.set reorder
 14739              	
 14740 67dc FFFF4532 	andi $5,$18,0xffff
 14741 67e0 2D202002 	move $4,$17
 14742              	.set noreorder
 14743              	.set nomacro
 14744 67e4 63F50010 	b $L1703
 14745 67e8 FFFF5030 	andi $16,$2,0xffff
 14746              	.set macro
 14747              	.set reorder
 14748              	
 14749              	$L556:
 14750 67ec 2D288002 	move $5,$20
 14751              	.set noreorder
 14752              	.set nomacro
 14753 67f0 3001000C 	jal _SNCPUFetch16
 14754 67f4 2D202002 	move $4,$17
 14755              	.set macro
 14756              	.set reorder
 14757              	
 14758 67f8 02009426 	addu $20,$20,2
 14759 67fc 2D804000 	move $16,$2
 14760 6800 1000238E 	lw $3,16($17)
 14761 6804 02002296 	lhu $2,2($17)
 14762              	.set noreorder
 14763              	.set nomacro
 14764 6808 CEFF0010 	b $L2135
 14765 680c 2D202002 	move $4,$17
 14766              	.set macro
 14767              	.set reorder
 14768              	
 14769              	$L1276:
 14770 6810 2D288002 	move $5,$20
 14771              	.set noreorder
 14772              	.set nomacro
 14773 6814 3001000C 	jal _SNCPUFetch16
 14774 6818 2D202002 	move $4,$17
 14775              	.set macro
 14776              	.set reorder
 14777              	
 14778 681c 02009426 	addu $20,$20,2
 14779 6820 1000238E 	lw $3,16($17)
 14780 6824 2D804000 	move $16,$2
 14781 6828 02002296 	lhu $2,2($17)
 14782 682c 2D202002 	move $4,$17
GAS LISTING  			page 261


 14783 6830 25800302 	or $16,$16,$3
 14784 6834 21800202 	addu $16,$16,$2
 14785              	.set noreorder
 14786              	.set nomacro
 14787 6838 8E00000C 	jal _SNCPURead8
 14788 683c 2D280002 	move $5,$16
 14789              	.set macro
 14790              	.set reorder
 14791              	
 14792 6840 2D280002 	move $5,$16
 14793              	.set noreorder
 14794              	.set nomacro
 14795 6844 53FE0010 	b $L1996
 14796 6848 01005324 	addu $19,$2,1
 14797              	.set macro
 14798              	.set reorder
 14799              	
 14800              	$L567:
 14801 684c 2D288002 	move $5,$20
 14802              	.set noreorder
 14803              	.set nomacro
 14804 6850 6001000C 	jal _SNCPUFetch24
 14805 6854 2D202002 	move $4,$17
 14806              	.set macro
 14807              	.set reorder
 14808              	
 14809 6858 03009426 	addu $20,$20,3
 14810 685c 2D804000 	move $16,$2
 14811 6860 2D202002 	move $4,$17
 14812              	.set noreorder
 14813              	.set nomacro
 14814 6864 A9FF0010 	b $L2132
 14815 6868 02002296 	lhu $2,2($17)
 14816              	.set macro
 14817              	.set reorder
 14818              	
 14819 686c 00000000 	.p2align 3
 14820              	$L108:
 14821              	
 14822 6870 00110500 	sll $2,$5,4
 14823 6874 0000A3AF 	sw $3,0($sp)
 14824              	.set noreorder
 14825              	.set nomacro
 14826 6878 96E80010 	b $L109
 14827 687c 00035E30 	andi $fp,$2,0x300
 14828              	.set macro
 14829              	.set reorder
 14830              	
 14831              	.end SNCPUExecute_C
 14832              	$Lfe19:
 14833              	.size SNCPUExecute_C,$Lfe19-SNCPUExecute_C
 14834              	.ident "GCC: (GNU) 3.2.2"
