GAS LISTING  			page 1


   1              	.file 1 "../../Source/common/snppurender.cpp"
   2              	.section .mdebug.eabi64
   3              	.previous
   4              	.globl _tm
   5              	.data
   6              	.type _tm,@object
   7              	.size _tm,1
   8              	_tm:
   9 0000 3F       	.byte 63
  10              	.globl _tmw
  11              	.type _tmw,@object
  12              	.size _tmw,1
  13              	_tmw:
  14 0001 3F       	.byte 63
  15              	.globl _ts
  16              	.type _ts,@object
  17              	.size _ts,1
  18              	_ts:
  19 0002 3F       	.byte 63
  20              	.globl _tsw
  21              	.type _tsw,@object
  22              	.size _tsw,1
  23              	_tsw:
  24 0003 3F       	.byte 63
  25              	.globl _SnesPPU_PlaneLookup
  26 0004 00000000 	.align 5
  26      00000000 
  26      00000000 
  26      00000000 
  26      00000000 
  27              	.type _SnesPPU_PlaneLookup,@object
  28              	.size _SnesPPU_PlaneLookup,4096
  29              	_SnesPPU_PlaneLookup:
  30 0020 00000000 	.space 4096
  30      00000000 
  30      00000000 
  30      00000000 
  30      00000000 
  31              	.globl _SnesPPU_HFlipLookup
  32              	.align 5
  33              	.type _SnesPPU_HFlipLookup,@object
  34              	.size _SnesPPU_HFlipLookup,512
  35              	_SnesPPU_HFlipLookup:
  36 1020 00000000 	.space 512
  36      00000000 
  36      00000000 
  36      00000000 
  36      00000000 
  37              	.type _SnesPPU_bInitialized,@object
  38              	.size _SnesPPU_bInitialized,1
  39              	_SnesPPU_bInitialized:
  40 1220 00       	.byte 0
  41              	.text
  42              	.align 2
  43              	.p2align 3,,7
  44              	.ent _Z10_HFlipBitsh
  45              	_Z10_HFlipBitsh:
GAS LISTING  			page 2


  46              	.frame $sp,0,$31
  47              	.mask 0x00000000,0
  48              	.fmask 0x00000000,0
  49 0000 2D380000 	move $7,$0
  50 0004 FF008430 	andi $4,$4,0x00ff
  51 0008 2D280000 	move $5,$0
  52 000c 80000824 	li $8,128
  53 0010 0710A400 	sra $2,$4,$5
  54              	$L10:
  55 0014 0718A800 	sra $3,$8,$5
  56 0018 01004230 	andi $2,$2,0x1
  57 001c 0100A524 	addu $5,$5,1
  58 0020 2530E300 	or $6,$7,$3
  59              	.set noreorder
  60              	.set nomacro
  61 0024 02004010 	beq $2,$0,$L4
  62 0028 0800A328 	slt $3,$5,8
  63              	.set macro
  64              	.set reorder
  65              	
  66 002c FF00C730 	andi $7,$6,0x00ff
  67              	$L4:
  68              	.set noreorder
  69              	.set nomacro
  70 0030 F8FF6054 	bnel $3,$0,$L10
  71 0034 0710A400 	sra $2,$4,$5
  72              	.set macro
  73              	.set reorder
  74              	
  75              	.set noreorder
  76              	.set nomacro
  77 0038 0800E003 	j $31
  78 003c 2D10E000 	move $2,$7
  79              	.set macro
  80              	.set reorder
  81              	
  82              	.end _Z10_HFlipBitsh
  83              	$Lfe1:
  84              	.size _Z10_HFlipBitsh,$Lfe1-_Z10_HFlipBitsh
  85              	.align 2
  86              	.p2align 3,,7
  87              	.ent _Z17_BuildPlaneLookupv
  88              	_Z17_BuildPlaneLookupv:
  89              	.frame $sp,64,$31
  90              	.mask 0x80070000,-16
  91              	.fmask 0x00000000,0
  92 0040 C0FFBD27 	subu $sp,$sp,64
  93 0044 0000023C 	lui $2,%hi(_SnesPPU_PlaneLookup)
  94 0048 00004824 	addiu $8,$2,%lo(_SnesPPU_PlaneLookup)
  95 004c 3000BFFF 	sd $31,48($sp)
  96 0050 2000B2FF 	sd $18,32($sp)
  97 0054 00080925 	addu $9,$8,2048
  98 0058 0000B0FF 	sd $16,0($sp)
  99 005c 1000B1FF 	sd $17,16($sp)
 100 0060 2D880000 	move $17,$0
 101 0064 C0381100 	sll $7,$17,3
 102              	$L42:
GAS LISTING  			page 3


 103 0068 2D280000 	move $5,$0
 104 006c 2130E800 	addu $6,$7,$8
 105              	.p2align 3
 106              	$L20:
 107 0070 0410B100 	sll $2,$17,$5
 108 0074 2120C500 	addu $4,$6,$5
 109 0078 C3110200 	sra $2,$2,7
 110 007c 0100A524 	addu $5,$5,1
 111 0080 01004230 	andi $2,$2,0x1
 112 0084 0800A32C 	sltu $3,$5,8
 113              	.set noreorder
 114              	.set nomacro
 115 0088 F9FF6014 	bne $3,$0,$L20
 116 008c 000082A0 	sb $2,0($4)
 117              	.set macro
 118              	.set reorder
 119              	
 120 0090 2130E900 	addu $6,$7,$9
 121 0094 2D280000 	move $5,$0
 122              	.p2align 3
 123              	$L27:
 124 0098 2110C500 	addu $2,$6,$5
 125 009c 0618B100 	srl $3,$17,$5
 126 00a0 0100A524 	addu $5,$5,1
 127 00a4 01006330 	andi $3,$3,0x1
 128 00a8 0800A42C 	sltu $4,$5,8
 129              	.set noreorder
 130 00ac 00000000 	nop
 131              	.set reorder
 132              	.set noreorder
 133              	.set nomacro
 134 00b0 F9FF8014 	bne $4,$0,$L27
 135 00b4 000043A0 	sb $3,0($2)
 136              	.set macro
 137              	.set reorder
 138              	
 139 00b8 01003126 	addu $17,$17,1
 140 00bc 0001222E 	sltu $2,$17,256
 141              	.set noreorder
 142              	.set nomacro
 143 00c0 E9FF4014 	bne $2,$0,$L42
 144 00c4 C0381100 	sll $7,$17,3
 145              	.set macro
 146              	.set reorder
 147              	
 148 00c8 0000023C 	lui $2,%hi(_SnesPPU_HFlipLookup)
 149 00cc 2D880000 	move $17,$0
 150 00d0 00005224 	addiu $18,$2,%lo(_SnesPPU_HFlipLookup)
 151 00d4 00000000 	.p2align 3
 152              	$L33:
 153 00d8 21803202 	addu $16,$17,$18
 154 00dc FF002432 	andi $4,$17,0x00ff
 155              	.set noreorder
 156              	.set nomacro
 157 00e0 0000000C 	jal _Z10_HFlipBitsh
 158 00e4 000011A2 	sb $17,0($16)
 159              	.set macro
GAS LISTING  			page 4


 160              	.set reorder
 161              	
 162 00e8 01003126 	addu $17,$17,1
 163 00ec 0001232E 	sltu $3,$17,256
 164              	.set noreorder
 165              	.set nomacro
 166 00f0 F9FF6014 	bne $3,$0,$L33
 167 00f4 000102A2 	sb $2,256($16)
 168              	.set macro
 169              	.set reorder
 170              	
 171 00f8 3000BFDF 	ld $31,48($sp)
 172 00fc 2000B2DF 	ld $18,32($sp)
 173 0100 1000B1DF 	ld $17,16($sp)
 174 0104 0000B0DF 	ld $16,0($sp)
 175              	
 176              	.set noreorder
 177              	.set nomacro
 178 0108 0800E003 	j $31
 179 010c 4000BD27 	addu $sp,$sp,64
 180              	.set macro
 181              	.set reorder
 182              	
 183              	.end _Z17_BuildPlaneLookupv
 184              	$Lfe2:
 185              	.size _Z17_BuildPlaneLookupv,$Lfe2-_Z17_BuildPlaneLookupv
 186              	.align 2
 187              	.p2align 3,,7
 188              	.globl _Z9_DrawMaskPjP7SNMaskTi
 189              	.ent _Z9_DrawMaskPjP7SNMaskTi
 190              	_Z9_DrawMaskPjP7SNMaskTi:
 191              	.frame $sp,0,$31
 192              	.mask 0x00000000,0
 193              	.fmask 0x00000000,0
 194 0110 2D50A000 	move $10,$5
 195              	.set noreorder
 196              	.set nomacro
 197 0114 1300C018 	blez $6,$L53
 198 0118 2D400000 	move $8,$0
 199              	.set macro
 200              	.set reorder
 201              	
 202 011c FF0F093C 	li $9,268369920
 203 0120 2D388000 	move $7,$4
 204 0124 01000B24 	li $11,1
 205 0128 FFFF2935 	ori $9,$9,0xffff
 206 012c 00000000 	.p2align 3
 207              	$L50:
 208 0130 C3100800 	sra $2,$8,3
 209 0134 07000331 	andi $3,$8,0x7
 210 0138 21104201 	addu $2,$10,$2
 211 013c 04186B00 	sll $3,$11,$3
 212 0140 00004490 	lbu $4,0($2)
 213 0144 01000825 	addu $8,$8,1
 214 0148 2D102001 	move $2,$9
 215 014c 2A280601 	slt $5,$8,$6
 216 0150 24186400 	and $3,$3,$4
GAS LISTING  			page 5


 217 0154 0B100300 	movn $2,$0,$3
 218 0158 0000E2AC 	sw $2,0($7)
 219              	.set noreorder
 220              	.set nomacro
 221 015c F4FFA014 	bne $5,$0,$L50
 222 0160 0400E724 	addu $7,$7,4
 223              	.set macro
 224              	.set reorder
 225              	
 226              	$L53:
 227 0164 0800E003 	j $31
 227      00000000 
 228              	.end _Z9_DrawMaskPjP7SNMaskTi
 229              	$Lfe3:
 230              	.size _Z9_DrawMaskPjP7SNMaskTi,$Lfe3-_Z9_DrawMaskPjP7SNMaskTi
 231              	.data
 232 1221 00000000 	.align 3
 232      000000
 233              	.type _ZZ10_DrawMask2PjP7SNMaskTS1_iE6Lookup,@object
 234              	.size _ZZ10_DrawMask2PjP7SNMaskTS1_iE6Lookup,16
 235              	_ZZ10_DrawMask2PjP7SNMaskTS1_iE6Lookup:
 236 1228 00000000 	.word 0
 237 122c FF000000 	.word 255
 238 1230 00FF0000 	.word 65280
 239 1234 FFFFFF00 	.word 16777215
 240              	.text
 241              	.align 2
 242 016c 00000000 	.p2align 3,,7
 243              	.globl _Z10_DrawMask2PjP7SNMaskTS1_i
 244              	.ent _Z10_DrawMask2PjP7SNMaskTS1_i
 245              	_Z10_DrawMask2PjP7SNMaskTS1_i:
 246              	.frame $sp,0,$31
 247              	.mask 0x00000000,0
 248              	.fmask 0x00000000,0
 249 0170 2D58A000 	move $11,$5
 250 0174 2D50C000 	move $10,$6
 251              	.set noreorder
 252              	.set nomacro
 253 0178 1900E018 	blez $7,$L64
 254 017c 2D480000 	move $9,$0
 255              	.set macro
 256              	.set reorder
 257              	
 258 0180 0000023C 	lui $2,%hi(_ZZ10_DrawMask2PjP7SNMaskTS1_iE6Lookup)
 259 0184 2D408000 	move $8,$4
 260 0188 28124D24 	addiu $13,$2,%lo(_ZZ10_DrawMask2PjP7SNMaskTS1_iE6Lookup)
 261 018c 01000C24 	li $12,1
 262              	.p2align 3
 263              	$L61:
 264 0190 C3180900 	sra $3,$9,3
 265 0194 07002431 	andi $4,$9,0x7
 266 0198 21286301 	addu $5,$11,$3
 267 019c 04208C00 	sll $4,$12,$4
 268 01a0 0000A290 	lbu $2,0($5)
 269 01a4 21184301 	addu $3,$10,$3
 270 01a8 00006590 	lbu $5,0($3)
 271 01ac 01002925 	addu $9,$9,1
GAS LISTING  			page 6


 272 01b0 24108200 	and $2,$4,$2
 273 01b4 2A302701 	slt $6,$9,$7
 274 01b8 2B100200 	sltu $2,$0,$2
 275 01bc 24208500 	and $4,$4,$5
 276 01c0 02004324 	addu $3,$2,2
 277 01c4 0B106400 	movn $2,$3,$4
 278 01c8 80100200 	sll $2,$2,2
 279 01cc 21104D00 	addu $2,$2,$13
 280 01d0 0000438C 	lw $3,0($2)
 281              	
 282 01d4 000003AD 	sw $3,0($8)
 283              	.set noreorder
 284              	.set nomacro
 285 01d8 EDFFC014 	bne $6,$0,$L61
 286 01dc 04000825 	addu $8,$8,4
 287              	.set macro
 288              	.set reorder
 289              	
 290              	$L64:
 291 01e0 0800E003 	j $31
 291      00000000 
 292              	.end _Z10_DrawMask2PjP7SNMaskTS1_i
 293              	$Lfe4:
 294              	.size _Z10_DrawMask2PjP7SNMaskTS1_i,$Lfe4-_Z10_DrawMask2PjP7SNMaskTS1_i
 295              	.align 2
 296              	.p2align 3,,7
 297              	.globl _ZN13SnesPPURender10RenderLineEi
 298              	.ent _ZN13SnesPPURender10RenderLineEi
 299              	_ZN13SnesPPURender10RenderLineEi:
 300              	.frame $sp,16,$31
 301              	.mask 0x80000000,-16
 302              	.fmask 0x00000000,0
 303 01e8 F0FFBD27 	subu $sp,$sp,16
 304 01ec 0000BFFF 	sd $31,0($sp)
 305 01f0 1006828C 	lw $2,1552($4)
 306              	
 307              	.set noreorder
 308              	.set nomacro
 309 01f4 08004050 	beql $2,$0,$L73
 310 01f8 0000BFDF 	ld $31,0($sp)
 311              	.set macro
 312              	.set reorder
 313              	
 314 01fc 21004390 	lbu $3,33($2)
 315 0200 10000224 	li $2,16
 316              	.set noreorder
 317              	.set nomacro
 318 0204 0A006210 	beq $3,$2,$L68
 319 0208 20000224 	li $2,32
 320              	.set macro
 321              	.set reorder
 322              	
 323              	.set noreorder
 324              	.set nomacro
 325 020c 04006210 	beq $3,$2,$L69
 326 0210 2D300000 	move $6,$0
 327              	.set macro
GAS LISTING  			page 7


 328              	.set reorder
 329              	
 330 0214 0000BFDF 	ld $31,0($sp)
 331              	$L73:
 332              	.set noreorder
 333              	.set nomacro
 334 0218 0800E003 	j $31
 335 021c 1000BD27 	addu $sp,$sp,16
 336              	.set macro
 337              	.set reorder
 338              	
 339              	$L69:
 340 0220 0000000C 	jal _ZN13SnesPPURender12RenderLine32Eih
 340      00000000 
 341              	.set noreorder
 342              	.set nomacro
 343 0228 FBFF0010 	b $L73
 344 022c 0000BFDF 	ld $31,0($sp)
 345              	.set macro
 346              	.set reorder
 347              	
 348              	$L68:
 349              	
 350 0230 0000000C 	jal _ZN13SnesPPURender12RenderLine16Ei
 350      00000000 
 351              	.set noreorder
 352              	.set nomacro
 353 0238 F7FF0010 	b $L73
 354 023c 0000BFDF 	ld $31,0($sp)
 355              	.set macro
 356              	.set reorder
 357              	
 358              	.end _ZN13SnesPPURender10RenderLineEi
 359              	$Lfe5:
 360              	.size _ZN13SnesPPURender10RenderLineEi,$Lfe5-_ZN13SnesPPURender10RenderLineEi
 361              	.align 2
 362              	.p2align 3,,7
 363              	.globl _ZN13SnesPPURender12RenderLine16Ei
 364              	.ent _ZN13SnesPPURender12RenderLine16Ei
 365              	_ZN13SnesPPURender12RenderLine16Ei:
 366              	.frame $sp,0,$31
 367              	.mask 0x00000000,0
 368              	.fmask 0x00000000,0
 369 0240 0800E003 	j $31
 369      00000000 
 370              	.end _ZN13SnesPPURender12RenderLine16Ei
 371              	$Lfe6:
 372              	.size _ZN13SnesPPURender12RenderLine16Ei,$Lfe6-_ZN13SnesPPURender12RenderLine16Ei
 373              	.align 2
 374              	.p2align 3,,7
 375              	.globl _ZN13SnesPPURender11UpdateCGRAMEjt
 376              	.ent _ZN13SnesPPURender11UpdateCGRAMEjt
 377              	_ZN13SnesPPURender11UpdateCGRAMEjt:
 378              	.frame $sp,16,$31
 379              	.mask 0x80000000,-16
 380              	.fmask 0x00000000,0
 381 0248 F0FFBD27 	subu $sp,$sp,16
GAS LISTING  			page 8


 382 024c 2D408000 	move $8,$4
 383 0250 0000BFFF 	sd $31,0($sp)
 384 0254 2D18A000 	move $3,$5
 385 0258 0C00828C 	lw $2,12($4)
 386              	
 387              	.set noreorder
 388              	.set nomacro
 389 025c 06004010 	beq $2,$0,$L75
 390 0260 FFFFC730 	andi $7,$6,0xffff
 391              	.set macro
 392              	.set reorder
 393              	
 394 0264 2D306000 	move $6,$3
 395 0268 2D284000 	move $5,$2
 396 026c 1823838C 	lw $3,8984($4)
 397              	
 398              	.set noreorder
 399              	.set nomacro
 400 0270 05006014 	bne $3,$0,$L78
 401 0274 2D206000 	move $4,$3
 402              	.set macro
 403              	.set reorder
 404              	
 405              	$L75:
 406 0278 0000BFDF 	ld $31,0($sp)
 407              	$L79:
 408              	.set noreorder
 409              	.set nomacro
 410 027c 0800E003 	j $31
 411 0280 1000BD27 	addu $sp,$sp,16
 412              	.set macro
 413              	.set reorder
 414              	
 415 0284 00000000 	.p2align 3
 416              	$L78:
 417 0288 0800028D 	lw $2,8($8)
 418 028c 0000638C 	lw $3,0($3)
 419 0290 06004890 	lbu $8,6($2)
 420 0294 1400698C 	lw $9,20($3)
 421              	
 422              	.set noreorder
 423              	.set nomacro
 424 0298 09F82001 	jal $31,$9
 425 029c 0F000831 	andi $8,$8,0xf
 426              	.set macro
 427              	.set reorder
 428              	
 429              	.set noreorder
 430              	.set nomacro
 431 02a0 F6FF0010 	b $L79
 432 02a4 0000BFDF 	ld $31,0($sp)
 433              	.set macro
 434              	.set reorder
 435              	
 436              	.end _ZN13SnesPPURender11UpdateCGRAMEjt
 437              	$Lfe7:
 438              	.size _ZN13SnesPPURender11UpdateCGRAMEjt,$Lfe7-_ZN13SnesPPURender11UpdateCGRAMEjt
GAS LISTING  			page 9


 439              	.data
 440              	.type _ZZN13SnesPPURender12RenderLine32EihE6bPrint,@object
 441              	.size _ZZN13SnesPPURender12RenderLine32EihE6bPrint,1
 442              	_ZZN13SnesPPURender12RenderLine32EihE6bPrint:
 443 1238 01       	.byte 1
 444 1239 00000000 	.rdata
 444      000000
 445              	.align 3
 446              	$LC0:
 447 0000 426C656E 	.ascii "BlendInfo: %X\n\000"
 447      64496E66 
 447      6F3A2025 
 447      580A00
 448 000f 00       	.align 3
 449              	$LC1:
 450 0010 4D61696E 	.ascii "Main: %X\n\000"
 450      3A202558 
 450      0A00
 451 001a 00000000 	.align 3
 451      0000
 452              	$LC2:
 453 0020 5375623A 	.ascii "Sub: %X\n\000"
 453      2025580A 
 453      00
 454 0029 00000000 	.align 3
 454      000000
 455              	$LC3:
 456 0030 4247506C 	.ascii "BGPlanes: %X\n\000"
 456      616E6573 
 456      3A202558 
 456      0A00
 457 003e 0000     	.align 3
 458              	$LC4:
 459 0040 54696C65 	.ascii "Tiles: %X\n\000"
 459      733A2025 
 459      580A00
 460 004b 00000000 	.align 3
 460      00
 461              	$LC5:
 462 0050 53697A65 	.ascii "Size= %X\n\000"
 462      3D202558 
 462      0A00
 463 005a 00000000 	.text
 463      0000
 464              	.align 2
 465              	.p2align 3,,7
 466              	.globl _ZN13SnesPPURender12RenderLine32Eih
 467              	.ent _ZN13SnesPPURender12RenderLine32Eih
 468              	_ZN13SnesPPURender12RenderLine32Eih:
 469              	.frame $sp,208,$31
 470              	.mask 0x803f0000,-16
 471              	.fmask 0x00000000,0
 472 02a8 30FFBD27 	subu $sp,$sp,208
 473 02ac B000B5FF 	sd $21,176($sp)
 474 02b0 2DA8A000 	move $21,$5
 475 02b4 A000B4FF 	sd $20,160($sp)
 476 02b8 8000B2FF 	sd $18,128($sp)
GAS LISTING  			page 10


 477 02bc 2D908000 	move $18,$4
 478 02c0 7000B1FF 	sd $17,112($sp)
 479 02c4 0000113C 	lui $17,%hi(_ZZN13SnesPPURender12RenderLine32EihE6bPrint)
 480 02c8 C000BFFF 	sd $31,192($sp)
 481 02cc 9000B3FF 	sd $19,144($sp)
 482 02d0 6000B0FF 	sd $16,96($sp)
 483 02d4 0800908C 	lw $16,8($4)
 484 02d8 38122292 	lbu $2,%lo(_ZZN13SnesPPURender12RenderLine32EihE6bPrint)($17)
 485 02dc 06001426 	addu $20,$16,6
 486              	.set noreorder
 487              	.set nomacro
 488 02e0 D1004014 	bne $2,$0,$L121
 489 02e4 0C00938C 	lw $19,12($4)
 490              	.set macro
 491              	.set reorder
 492              	
 493              	$L82:
 494 02e8 06000292 	lbu $2,6($16)
 495              	
 496 02ec 80004230 	andi $2,$2,0x80
 497              	.set noreorder
 498              	.set nomacro
 499 02f0 C5004054 	bnel $2,$0,$L122
 500 02f4 1823448E 	lw $4,8984($18)
 501              	.set macro
 502              	.set reorder
 503              	
 504 02f8 0400438E 	lw $3,4($18)
 505              	
 506 02fc 02006230 	andi $2,$3,0x2
 507              	.set noreorder
 508              	.set nomacro
 509 0300 B3004054 	bnel $2,$0,$L123
 510 0304 1823448E 	lw $4,8984($18)
 511              	.set macro
 512              	.set reorder
 513              	
 514              	$L85:
 515 0308 01006230 	andi $2,$3,0x1
 516              	.set noreorder
 517              	.set nomacro
 518 030c 9E004014 	bne $2,$0,$L124
 519 0310 90147026 	addu $16,$19,5264
 520              	.set macro
 521              	.set reorder
 522              	
 523              	$L88:
 524 0314 04006230 	andi $2,$3,0x4
 525              	.set noreorder
 526              	.set nomacro
 527 0318 0B004010 	beq $2,$0,$L132
 528 031c 20006230 	andi $2,$3,0x20
 529              	.set macro
 530              	.set reorder
 531              	
 532 0320 FFFF0224 	li $2,-1
 533 0324 8C1462AE 	sw $2,5260($19)
GAS LISTING  			page 11


 534 0328 801462AE 	sw $2,5248($19)
 535 032c 841462AE 	sw $2,5252($19)
 536 0330 881462AE 	sw $2,5256($19)
 537 0334 FBFF0224 	li $2,-5
 538 0338 0400438E 	lw $3,4($18)
 539              	
 540 033c 24186200 	and $3,$3,$2
 541 0340 040043AE 	sw $3,4($18)
 542 0344 20006230 	andi $2,$3,0x20
 543              	$L132:
 544              	.set noreorder
 545              	.set nomacro
 546 0348 87004014 	bne $2,$0,$L125
 547 034c 40136526 	addu $5,$19,4928
 548              	.set macro
 549              	.set reorder
 550              	
 551              	$L90:
 552 0350 2D204002 	move $4,$18
 553 0354 2D28A002 	move $5,$21
 554              	.set noreorder
 555              	.set nomacro
 556 0358 0000000C 	jal _ZN13SnesPPURender11RenderLine8EiP17SnesRender8pInfoT
 557 035c 2D306002 	move $6,$19
 558              	.set macro
 559              	.set reorder
 560              	
 561 0360 01000224 	li $2,1
 562 0364 4B008492 	lbu $4,75($20)
 563              	
 564 0368 82190400 	srl $3,$4,6
 565              	.set noreorder
 566              	.set nomacro
 567 036c 78006210 	beq $3,$2,$L94
 568 0370 60146226 	addu $2,$19,5216
 569              	.set macro
 570              	.set reorder
 571              	
 572 0374 02006228 	slt $2,$3,2
 573              	.set noreorder
 574              	.set nomacro
 575 0378 6D004014 	bne $2,$0,$L126
 576 037c 02000224 	li $2,2
 577              	.set macro
 578              	.set reorder
 579              	
 580              	.set noreorder
 581              	.set nomacro
 582 0380 63006210 	beq $3,$2,$L96
 583 0384 60146226 	addu $2,$19,5216
 584              	.set macro
 585              	.set reorder
 586              	
 587              	$L99:
 588              	
 589 0388 0000A07F 	sq $0,0x00($sp)
 590 038c 1000A07F 	sq $0,0x10($sp)
GAS LISTING  			page 12


 591              	
 592              	
 593 0390 02110400 	srl $2,$4,4
 594              	$L130:
 595 0394 01000324 	li $3,1
 596 0398 03004430 	andi $4,$2,0x3
 597              	.set noreorder
 598              	.set nomacro
 599 039c 4E008310 	beq $4,$3,$L106
 600 03a0 02008228 	slt $2,$4,2
 601              	.set macro
 602              	.set reorder
 603              	
 604              	.set noreorder
 605              	.set nomacro
 606 03a4 42004014 	bne $2,$0,$L127
 607 03a8 02000224 	li $2,2
 608              	.set macro
 609              	.set reorder
 610              	
 611              	.set noreorder
 612              	.set nomacro
 613 03ac 32008210 	beq $4,$2,$L108
 614 03b0 2000A427 	addu $4,$sp,32
 615              	.set macro
 616              	.set reorder
 617              	
 618              	$L133:
 619              	
 620 03b4 0000807C 	sq $0,0x00($4)
 621 03b8 1000807C 	sq $0,0x10($4)
 622              	
 623              	
 624 03bc 4C008592 	lbu $5,76($20)
 625              	$L129:
 626 03c0 4000A230 	andi $2,$5,0x40
 627              	.set noreorder
 628              	.set nomacro
 629 03c4 28004010 	beq $2,$0,$L115
 630 03c8 4000A227 	addu $2,$sp,64
 631              	.set macro
 632              	.set reorder
 633              	
 634 03cc 20136326 	addu $3,$19,4896
 635              	
 636 03d0 00006878 	lq $8,0x00($3)
 637 03d4 10006978 	lq $9,0x10($3)
 638 03d8 00008A78 	lq $10,0x00($4)
 639 03dc 10008B78 	lq $11,0x10($4)
 640 03e0 89440A71 	pand $8,$8,$10
 641 03e4 894C2B71 	pand $9,$9,$11
 642 03e8 0000487C 	sq $8,0x00($2)
 643 03ec 1000497C 	sq $9,0x10($2)
 644              	
 645 03f0 00004878 	lq $8,0x00($2)
 646 03f4 10004978 	lq $9,0x10($2)
 647 03f8 0000AA7B 	lq $10,0x00($sp)
GAS LISTING  			page 13


 648 03fc 1000AB7B 	lq $11,0x10($sp)
 649 0400 89440A71 	pand $8,$8,$10
 650 0404 894C2B71 	pand $9,$9,$11
 651 0408 0000487C 	sq $8,0x00($2)
 652 040c 1000497C 	sq $9,0x10($2)
 653              	
 654              	
 655 0410 1823448E 	lw $4,8984($18)
 656              	$L128:
 657 0414 8000A930 	andi $9,$5,0x80
 658 0418 0800428E 	lw $2,8($18)
 659 041c FF002931 	andi $9,$9,0x00ff
 660 0420 0000838C 	lw $3,0($4)
 661 0424 2D286002 	move $5,$19
 662 0428 06004A90 	lbu $10,6($2)
 663 042c 2D30A002 	move $6,$21
 664 0430 4E008796 	lhu $7,78($20)
 665 0434 2D40A003 	move $8,$sp
 666 0438 0400628C 	lw $2,4($3)
 667              	
 668              	.set noreorder
 669              	.set nomacro
 670 043c 09F84000 	jal $31,$2
 671 0440 0F004A31 	andi $10,$10,0xf
 672              	.set macro
 673              	.set reorder
 674              	
 675 0444 C000BFDF 	ld $31,192($sp)
 676              	$L131:
 677 0448 B000B5DF 	ld $21,176($sp)
 678 044c A000B4DF 	ld $20,160($sp)
 679 0450 9000B3DF 	ld $19,144($sp)
 680 0454 8000B2DF 	ld $18,128($sp)
 681 0458 7000B1DF 	ld $17,112($sp)
 682 045c 6000B0DF 	ld $16,96($sp)
 683              	
 684              	.set noreorder
 685              	.set nomacro
 686 0460 0800E003 	j $31
 687 0464 D000BD27 	addu $sp,$sp,208
 688              	.set macro
 689              	.set reorder
 690              	
 691              	.p2align 3
 692              	$L115:
 693              	
 694 0468 0000407C 	sq $0,0x00($2)
 695 046c 1000407C 	sq $0,0x10($2)
 696              	
 697              	
 698              	.set noreorder
 699              	.set nomacro
 700 0470 E8FF0010 	b $L128
 701 0474 1823448E 	lw $4,8984($18)
 702              	.set macro
 703              	.set reorder
 704              	
GAS LISTING  			page 14


 705              	.p2align 3
 706              	$L108:
 707 0478 00136326 	addu $3,$19,4864
 708 047c 60146226 	addu $2,$19,5216
 709              	
 710 0480 00006878 	lq $8,0x00($3)
 711 0484 00004A78 	lq $10,0x00($2)
 712 0488 10006978 	lq $9,0x10($3)
 713 048c A9440A71 	por $8,$8,$10
 714 0490 10004B78 	lq $11,0x10($2)
 715 0494 C9440A71 	pxor $8,$8,$10
 716 0498 A94C2B71 	por $9,$9,$11
 717 049c 0000887C 	sq $8,0x00($4)
 718 04a0 C94C2B71 	pxor $9,$9,$11
 719 04a4 1000897C 	sq $9,0x10($4)
 720              	
 721              	
 722              	.set noreorder
 723              	.set nomacro
 724 04a8 C5FF0010 	b $L129
 725 04ac 4C008592 	lbu $5,76($20)
 726              	.set macro
 727              	.set reorder
 728              	
 729              	.p2align 3
 730              	$L127:
 731              	.set noreorder
 732              	.set nomacro
 733 04b0 C0FF8014 	bne $4,$0,$L133
 734 04b4 2000A427 	addu $4,$sp,32
 735              	.set macro
 736              	.set reorder
 737              	
 738 04b8 00136226 	addu $2,$19,4864
 739              	
 740 04bc 00004878 	lq $8,0x00($2)
 741 04c0 10004978 	lq $9,0x10($2)
 742 04c4 0000887C 	sq $8,0x00($4)
 743 04c8 1000897C 	sq $9,0x10($4)
 744              	
 745              	
 746              	.set noreorder
 747              	.set nomacro
 748 04cc BCFF0010 	b $L129
 749 04d0 4C008592 	lbu $5,76($20)
 750              	.set macro
 751              	.set reorder
 752              	
 753 04d4 00000000 	.p2align 3
 754              	$L106:
 755 04d8 2000A427 	addu $4,$sp,32
 756 04dc 00136326 	addu $3,$19,4864
 757 04e0 60146226 	addu $2,$19,5216
 758              	
 759 04e4 00006878 	lq $8,0x00($3)
 760 04e8 10006978 	lq $9,0x10($3)
 761 04ec 00004A78 	lq $10,0x00($2)
GAS LISTING  			page 15


 762 04f0 10004B78 	lq $11,0x10($2)
 763 04f4 89440A71 	pand $8,$8,$10
 764 04f8 894C2B71 	pand $9,$9,$11
 765 04fc 0000887C 	sq $8,0x00($4)
 766 0500 1000897C 	sq $9,0x10($4)
 767              	
 768              	
 769              	.set noreorder
 770              	.set nomacro
 771 0504 AEFF0010 	b $L129
 772 0508 4C008592 	lbu $5,76($20)
 773              	.set macro
 774              	.set reorder
 775              	
 776 050c 00000000 	.p2align 3
 777              	$L96:
 778              	
 779 0510 00004878 	lq $8,0x00($2)
 780 0514 10004978 	lq $9,0x10($2)
 781 0518 E9440071 	pnor $8,$8,$0
 782 051c E94C2071 	pnor $9,$9,$0
 783 0520 0000A87F 	sq $8,0x00($sp)
 784 0524 1000A97F 	sq $9,0x10($sp)
 785              	
 786              	
 787              	.set noreorder
 788              	.set nomacro
 789 0528 9AFF0010 	b $L130
 790 052c 02110400 	srl $2,$4,4
 791              	.set macro
 792              	.set reorder
 793              	
 794              	.p2align 3
 795              	$L126:
 796 0530 95FF6014 	bne $3,$0,$L99
 796      00000000 
 797              	
 798 0538 E9440070 	pnor $8,$0,$0
 799 053c 0000A87F 	sq $8,0x00($sp)
 800 0540 1000A87F 	sq $8,0x10($sp)
 801              	
 802              	
 803              	.set noreorder
 804              	.set nomacro
 805 0544 93FF0010 	b $L130
 806 0548 02110400 	srl $2,$4,4
 807              	.set macro
 808              	.set reorder
 809              	
 810 054c 00000000 	.p2align 3
 811              	$L94:
 812              	
 813 0550 00004878 	lq $8,0x00($2)
 814 0554 10004978 	lq $9,0x10($2)
 815 0558 0000A87F 	sq $8,0x00($sp)
 816 055c 1000A97F 	sq $9,0x10($sp)
 817              	
GAS LISTING  			page 16


 818              	
 819              	.set noreorder
 820              	.set nomacro
 821 0560 8CFF0010 	b $L130
 822 0564 02110400 	srl $2,$4,4
 823              	.set macro
 824              	.set reorder
 825              	
 826              	.p2align 3
 827              	$L125:
 828 0568 C0136626 	addu $6,$19,5056
 829              	.set noreorder
 830              	.set nomacro
 831 056c 0000000C 	jal _ZN13SnesPPURender13DecodeWindowsEP7SNMaskTS1_
 832 0570 2D204002 	move $4,$18
 833              	.set macro
 834              	.set reorder
 835              	
 836 0574 DFFF0324 	li $3,-33
 837 0578 0400428E 	lw $2,4($18)
 838              	
 839 057c 24104300 	and $2,$2,$3
 840              	.set noreorder
 841              	.set nomacro
 842 0580 73FF0010 	b $L90
 843 0584 040042AE 	sw $2,4($18)
 844              	.set macro
 845              	.set reorder
 846              	
 847              	.p2align 3
 848              	$L124:
 849 0588 10157126 	addu $17,$19,5392
 850 058c 2D204002 	move $4,$18
 851 0590 2D280002 	move $5,$16
 852              	.set noreorder
 853              	.set nomacro
 854 0594 0000000C 	jal _ZN13SnesPPURender9UpdateOBJEPhS0_
 855 0598 2D302002 	move $6,$17
 856              	.set macro
 857              	.set reorder
 858              	
 859 059c 2D204002 	move $4,$18
 860 05a0 06008796 	lhu $7,6($20)
 861 05a4 80000824 	li $8,128
 862 05a8 2D280002 	move $5,$16
 863              	.set noreorder
 864              	.set nomacro
 865 05ac 0000000C 	jal _ZN13SnesPPURender19UpdateOBJVisibilityEPhS0_ii
 866 05b0 2D302002 	move $6,$17
 867              	.set macro
 868              	.set reorder
 869              	
 870 05b4 FEFF0324 	li $3,-2
 871 05b8 0400428E 	lw $2,4($18)
 872              	
 873 05bc 24104300 	and $2,$2,$3
 874 05c0 040042AE 	sw $2,4($18)
GAS LISTING  			page 17


 875              	.set noreorder
 876              	.set nomacro
 877 05c4 53FF0010 	b $L88
 878 05c8 2D184000 	move $3,$2
 879              	.set macro
 880              	.set reorder
 881              	
 882 05cc 00000000 	.p2align 3
 883              	$L123:
 884 05d0 2D286002 	move $5,$19
 885 05d4 0800468E 	lw $6,8($18)
 886 05d8 0000828C 	lw $2,0($4)
 887 05dc 0600C790 	lbu $7,6($6)
 888 05e0 7000C624 	addu $6,$6,112
 889 05e4 1000438C 	lw $3,16($2)
 890              	
 891              	.set noreorder
 892              	.set nomacro
 893 05e8 09F86000 	jal $31,$3
 894 05ec 0F00E730 	andi $7,$7,0xf
 895              	.set macro
 896              	.set reorder
 897              	
 898 05f0 FDFF0324 	li $3,-3
 899 05f4 0400428E 	lw $2,4($18)
 900              	
 901 05f8 24104300 	and $2,$2,$3
 902 05fc 040042AE 	sw $2,4($18)
 903              	.set noreorder
 904              	.set nomacro
 905 0600 41FF0010 	b $L85
 906 0604 2D184000 	move $3,$2
 907              	.set macro
 908              	.set reorder
 909              	
 910              	.p2align 3
 911              	$L122:
 912 0608 2D286002 	move $5,$19
 913 060c 0000838C 	lw $3,0($4)
 914              	
 915 0610 0800628C 	lw $2,8($3)
 916              	
 917              	.set noreorder
 918              	.set nomacro
 919 0614 09F84000 	jal $31,$2
 920 0618 2D30A002 	move $6,$21
 921              	.set macro
 922              	.set reorder
 923              	
 924              	.set noreorder
 925              	.set nomacro
 926 061c 8AFF0010 	b $L131
 927 0620 C000BFDF 	ld $31,192($sp)
 928              	.set macro
 929              	.set reorder
 930              	
 931 0624 00000000 	.p2align 3
GAS LISTING  			page 18


 932              	$L121:
 933 0628 0000043C 	lui $4,%hi($LC0)
 934 062c 2D286002 	move $5,$19
 935              	.set noreorder
 936              	.set nomacro
 937 0630 0000000C 	jal printf
 938 0634 00008424 	addiu $4,$4,%lo($LC0)
 939              	.set macro
 940              	.set reorder
 941              	
 942 0638 0000043C 	lui $4,%hi($LC1)
 943 063c 00076526 	addu $5,$19,1792
 944              	.set noreorder
 945              	.set nomacro
 946 0640 0000000C 	jal printf
 947 0644 10008424 	addiu $4,$4,%lo($LC1)
 948              	.set macro
 949              	.set reorder
 950              	
 951 0648 0000043C 	lui $4,%hi($LC2)
 952 064c 60086526 	addu $5,$19,2144
 953              	.set noreorder
 954              	.set nomacro
 955 0650 0000000C 	jal printf
 956 0654 20008424 	addiu $4,$4,%lo($LC2)
 957              	.set macro
 958              	.set reorder
 959              	
 960 0658 0000043C 	lui $4,%hi($LC3)
 961 065c C0096526 	addu $5,$19,2496
 962              	.set noreorder
 963              	.set nomacro
 964 0660 0000000C 	jal printf
 965 0664 30008424 	addiu $4,$4,%lo($LC3)
 966              	.set macro
 967              	.set reorder
 968              	
 969 0668 0000043C 	lui $4,%hi($LC4)
 970 066c 400F6526 	addu $5,$19,3904
 971              	.set noreorder
 972              	.set nomacro
 973 0670 0000000C 	jal printf
 974 0674 40008424 	addiu $4,$4,%lo($LC4)
 975              	.set macro
 976              	.set reorder
 977              	
 978 0678 0000043C 	lui $4,%hi($LC5)
 979 067c 04000524 	li $5,4
 980              	.set noreorder
 981              	.set nomacro
 982 0680 0000000C 	jal printf
 983 0684 50008424 	addiu $4,$4,%lo($LC5)
 984              	.set macro
 985              	.set reorder
 986              	
 987              	.set noreorder
 988              	.set nomacro
GAS LISTING  			page 19


 989 0688 17FF0010 	b $L82
 990 068c 381220A2 	sb $0,%lo(_ZZN13SnesPPURender12RenderLine32EihE6bPrint)($17)
 991              	.set macro
 992              	.set reorder
 993              	
 994              	.end _ZN13SnesPPURender12RenderLine32Eih
 995              	$Lfe8:
 996              	.size _ZN13SnesPPURender12RenderLine32Eih,$Lfe8-_ZN13SnesPPURender12RenderLine32Eih
 997              	.section .bss
 998              	_Blend:
 999              	.align 2
 1000 0000 00000000 	.space 4
 1001              	.previous
 1002              	.align 2
 1003              	.p2align 3,,7
 1004              	.globl _ZN13SnesPPURender11BeginRenderEP14CRenderSurface
 1005              	.ent _ZN13SnesPPURender11BeginRenderEP14CRenderSurface
 1006              	_ZN13SnesPPURender11BeginRenderEP14CRenderSurface:
 1007              	.frame $sp,96,$31
 1008              	.mask 0x801f0000,-16
 1009              	.fmask 0x00000000,0
 1010 0690 A0FFBD27 	subu $sp,$sp,96
 1011 0694 3000B3FF 	sd $19,48($sp)
 1012 0698 0000133C 	lui $19,%hi(_Blend)
 1013 069c 0000B0FF 	sd $16,0($sp)
 1014 06a0 0000708E 	lw $16,%lo(_Blend)($19)
 1015 06a4 4000B4FF 	sd $20,64($sp)
 1016 06a8 0000143C 	lui $20,%hi(_SnesPPU_bInitialized)
 1017 06ac 2000B2FF 	sd $18,32($sp)
 1018 06b0 2D908000 	move $18,$4
 1019 06b4 1000B1FF 	sd $17,16($sp)
 1020 06b8 50080424 	li $4,2128
 1021 06bc 5000BFFF 	sd $31,80($sp)
 1022              	.set noreorder
 1023              	.set nomacro
 1024 06c0 25000012 	beq $16,$0,$L140
 1025 06c4 2D88A000 	move $17,$5
 1026              	.set macro
 1027              	.set reorder
 1028              	
 1029              	$L135:
 1030 06c8 0070023C 	li $2,1879048192
 1031 06cc 2D202002 	move $4,$17
 1032 06d0 182350AE 	sw $16,8984($18)
 1033 06d4 100651AE 	sw $17,1552($18)
 1034              	.set noreorder
 1035              	.set nomacro
 1036 06d8 0C002012 	beq $17,$0,$L136
 1037 06dc 0C0042AE 	sw $2,12($18)
 1038              	.set macro
 1039              	.set reorder
 1040              	
 1041 06e0 0000228E 	lw $2,0($17)
 1042              	
 1043 06e4 0800438C 	lw $3,8($2)
 1044              	
 1045 06e8 09F86000 	jal $31,$3
GAS LISTING  			page 20


 1045      00000000 
 1046 06f0 01000224 	li $2,1
 1047 06f4 180022AE 	sw $2,24($17)
 1048 06f8 1823448E 	lw $4,8984($18)
 1049              	
 1050 06fc 0000838C 	lw $3,0($4)
 1051              	
 1052 0700 0000628C 	lw $2,0($3)
 1053              	
 1054              	.set noreorder
 1055              	.set nomacro
 1056 0704 09F84000 	jal $31,$2
 1057 0708 2D282002 	move $5,$17
 1058              	.set macro
 1059              	.set reorder
 1060              	
 1061              	$L136:
 1062 070c 20128392 	lbu $3,%lo(_SnesPPU_bInitialized)($20)
 1063 0710 FFFF0224 	li $2,-1
 1064              	.set noreorder
 1065              	.set nomacro
 1066 0714 0A006010 	beq $3,$0,$L141
 1067 0718 040042AE 	sw $2,4($18)
 1068              	.set macro
 1069              	.set reorder
 1070              	
 1071              	$L134:
 1072 071c 5000BFDF 	ld $31,80($sp)
 1073 0720 4000B4DF 	ld $20,64($sp)
 1074 0724 3000B3DF 	ld $19,48($sp)
 1075 0728 2000B2DF 	ld $18,32($sp)
 1076 072c 1000B1DF 	ld $17,16($sp)
 1077 0730 0000B0DF 	ld $16,0($sp)
 1078              	
 1079              	.set noreorder
 1080              	.set nomacro
 1081 0734 0800E003 	j $31
 1082 0738 6000BD27 	addu $sp,$sp,96
 1083              	.set macro
 1084              	.set reorder
 1085              	
 1086 073c 00000000 	.p2align 3
 1087              	$L141:
 1088 0740 1000000C 	jal _Z17_BuildPlaneLookupv
 1088      00000000 
 1089 0748 01000224 	li $2,1
 1090              	.set noreorder
 1091              	.set nomacro
 1092 074c F3FF0010 	b $L134
 1093 0750 201282A2 	sb $2,%lo(_SnesPPU_bInitialized)($20)
 1094              	.set macro
 1095              	.set reorder
 1096              	
 1097 0754 00000000 	.p2align 3
 1098              	$L140:
 1099 0758 0000000C 	jal _Znwj
 1099      00000000 
GAS LISTING  			page 21


 1100 0760 003C0524 	li $5,15360
 1101 0764 2D804000 	move $16,$2
 1102 0768 2D204000 	move $4,$2
 1103              	.set noreorder
 1104              	.set nomacro
 1105 076c 0000000C 	jal _ZN12SNPPUBlendGSC1Ejj
 1106 0770 00240624 	li $6,9216
 1107              	.set macro
 1108              	.set reorder
 1109              	
 1110              	.set noreorder
 1111              	.set nomacro
 1112 0774 D4FF0010 	b $L135
 1113 0778 000070AE 	sw $16,%lo(_Blend)($19)
 1114              	.set macro
 1115              	.set reorder
 1116              	
 1117              	.end _ZN13SnesPPURender11BeginRenderEP14CRenderSurface
 1118              	$Lfe9:
 1119              	.size _ZN13SnesPPURender11BeginRenderEP14CRenderSurface,$Lfe9-_ZN13SnesPPURender11BeginRenderEP14CRenderSurface
 1120              	.align 2
 1121 077c 00000000 	.p2align 3,,7
 1122              	.globl _ZN13SnesPPURender9EndRenderEv
 1123              	.ent _ZN13SnesPPURender9EndRenderEv
 1124              	_ZN13SnesPPURender9EndRenderEv:
 1125              	.frame $sp,32,$31
 1126              	.mask 0x80010000,-16
 1127              	.fmask 0x00000000,0
 1128 0780 E0FFBD27 	subu $sp,$sp,32
 1129 0784 0000B0FF 	sd $16,0($sp)
 1130 0788 1000BFFF 	sd $31,16($sp)
 1131              	.set noreorder
 1132              	.set nomacro
 1133 078c 0000000C 	jal DmaSyncSprToRam
 1134 0790 2D808000 	move $16,$4
 1135              	.set macro
 1136              	.set reorder
 1137              	
 1138 0794 1006028E 	lw $2,1552($16)
 1139              	
 1140              	.set noreorder
 1141              	.set nomacro
 1142 0798 07004054 	bnel $2,$0,$L144
 1143 079c 1823058E 	lw $5,8984($16)
 1144              	.set macro
 1145              	.set reorder
 1146              	
 1147 07a0 100600AE 	sw $0,1552($16)
 1148              	$L145:
 1149 07a4 0C0000AE 	sw $0,12($16)
 1150 07a8 1000BFDF 	ld $31,16($sp)
 1151 07ac 0000B0DF 	ld $16,0($sp)
 1152              	
 1153              	.set noreorder
 1154              	.set nomacro
 1155 07b0 0800E003 	j $31
 1156 07b4 2000BD27 	addu $sp,$sp,32
GAS LISTING  			page 22


 1157              	.set macro
 1158              	.set reorder
 1159              	
 1160              	.p2align 3
 1161              	$L144:
 1162 07b8 0000A28C 	lw $2,0($5)
 1163              	
 1164 07bc 0C00438C 	lw $3,12($2)
 1165              	
 1166              	.set noreorder
 1167              	.set nomacro
 1168 07c0 09F86000 	jal $31,$3
 1169 07c4 2D20A000 	move $4,$5
 1170              	.set macro
 1171              	.set reorder
 1172              	
 1173 07c8 182300AE 	sw $0,8984($16)
 1174 07cc 1006058E 	lw $5,1552($16)
 1175              	
 1176 07d0 0000A28C 	lw $2,0($5)
 1177              	
 1178 07d4 0C00438C 	lw $3,12($2)
 1179              	
 1180              	.set noreorder
 1181              	.set nomacro
 1182 07d8 09F86000 	jal $31,$3
 1183 07dc 2D20A000 	move $4,$5
 1184              	.set macro
 1185              	.set reorder
 1186              	
 1187              	.set noreorder
 1188              	.set nomacro
 1189 07e0 F0FF0010 	b $L145
 1190 07e4 100600AE 	sw $0,1552($16)
 1191              	.set macro
 1192              	.set reorder
 1193              	
 1194              	.end _ZN13SnesPPURender9EndRenderEv
 1195              	$Lfe10:
 1196              	.size _ZN13SnesPPURender9EndRenderEv,$Lfe10-_ZN13SnesPPURender9EndRenderEv
 1197              	.align 2
 1198              	.p2align 3,,7
 1199              	.globl _ZN13SnesPPURender10UpdateVRAMEj
 1200              	.ent _ZN13SnesPPURender10UpdateVRAMEj
 1201              	_ZN13SnesPPURender10UpdateVRAMEj:
 1202              	.frame $sp,0,$31
 1203              	.mask 0x00000000,0
 1204              	.fmask 0x00000000,0
 1205 07e8 0800E003 	j $31
 1205      00000000 
 1206              	.end _ZN13SnesPPURender10UpdateVRAMEj
 1207              	$Lfe11:
 1208              	.size _ZN13SnesPPURender10UpdateVRAMEj,$Lfe11-_ZN13SnesPPURender10UpdateVRAMEj
 1209              	.weak _ZTV13SnesPPURender
 1210              	.section .gnu.linkonce.d._ZTV13SnesPPURender,"aw",@progbits
 1211              	.align 3
 1212              	.type _ZTV13SnesPPURender,@object
GAS LISTING  			page 23


 1213              	.size _ZTV13SnesPPURender,28
 1214              	_ZTV13SnesPPURender:
 1215 0000 00000000 	.word 0
 1216 0004 00000000 	.word 0
 1217 0008 00000000 	.word _ZN13SnesPPURender11BeginRenderEP14CRenderSurface
 1218 000c 00000000 	.word _ZN13SnesPPURender9EndRenderEv
 1219 0010 00000000 	.word _ZN13SnesPPURender10RenderLineEi
 1220 0014 00000000 	.word _ZN13SnesPPURender10UpdateVRAMEj
 1221 0018 00000000 	.word _ZN13SnesPPURender11UpdateCGRAMEjt
 1222 001c 00000000 	.ident "GCC: (GNU) 3.2.2"
